

Microchip MPLAB XC8 Assembler V3.10 build 20250813170317 
                                                                                               Wed Nov  5 12:47:53 2025

Microchip MPLAB XC8 C Compiler v3.10 (Free license) build 20250813170317 Og1 
     1                           	processor	16F887
     2                           	pagewidth 120
     3                           	opt	flic
     4                           	psect	strings,global,class=STRING,space=0,delta=2,noexec
     5                           	psect	cinit,global,class=CODE,space=0,merge=1,delta=2
     6                           	psect	bssBANK0,global,class=BANK0,space=1,delta=1,noexec
     7                           	psect	bssBANK1,global,class=BANK1,space=1,delta=1,noexec
     8                           	psect	bssBANK3,global,class=BANK3,space=1,delta=1,noexec
     9                           	psect	clrtext,global,class=CODE,space=0,delta=2
    10                           	psect	cstackBANK1,global,class=BANK1,space=1,delta=1,noexec
    11                           	psect	cstackCOMMON,global,class=COMMON,space=1,delta=1,noexec
    12                           	psect	cstackBANK0,global,class=BANK0,space=1,delta=1,noexec
    13                           	psect	maintext,global,class=CODE,space=0,split=1,delta=2
    14                           	psect	text1,local,class=CODE,space=0,merge=1,delta=2
    15                           	psect	text2,local,class=CODE,space=0,merge=1,delta=2,group=3
    16                           	psect	text3,local,class=CODE,space=0,merge=1,delta=2,group=1
    17                           	psect	text4,local,class=CODE,space=0,merge=1,delta=2,group=1
    18                           	psect	text5,local,class=CODE,space=0,merge=1,delta=2,group=3
    19                           	psect	text6,local,class=CODE,space=0,merge=1,delta=2,group=3
    20                           	psect	text7,local,class=CODE,space=0,merge=1,delta=2,group=3
    21                           	psect	text8,local,class=CODE,space=0,merge=1,delta=2,group=2
    22                           	psect	text9,local,class=CODE,space=0,merge=1,delta=2,group=2
    23                           	psect	text10,local,class=CODE,space=0,merge=1,delta=2,group=2
    24                           	psect	text11,local,class=CODE,space=0,merge=1,delta=2,group=2
    25                           	psect	text12,local,class=CODE,space=0,merge=1,delta=2,group=2
    26                           	psect	text13,local,class=CODE,space=0,merge=1,delta=2,group=2
    27                           	psect	text14,local,class=CODE,space=0,merge=1,delta=2,group=2
    28                           	psect	text15,local,class=CODE,space=0,merge=1,delta=2,group=2
    29                           	psect	text16,local,class=CODE,space=0,merge=1,delta=2
    30                           	psect	text17,local,class=CODE,space=0,merge=1,delta=2
    31                           	psect	text18,local,class=CODE,space=0,merge=1,delta=2
    32                           	psect	text19,local,class=CODE,space=0,merge=1,delta=2
    33                           	psect	text20,local,class=CODE,space=0,merge=1,delta=2
    34                           	psect	text21,local,class=CODE,space=0,merge=1,delta=2
    35                           	psect	text22,local,class=CODE,space=0,merge=1,delta=2
    36                           	psect	text23,local,class=CODE,space=0,merge=1,delta=2
    37                           	psect	text24,local,class=CODE,space=0,merge=1,delta=2
    38                           	psect	text25,local,class=CODE,space=0,merge=1,delta=2
    39                           	psect	text26,local,class=CODE,space=0,merge=1,delta=2
    40                           	psect	text27,local,class=CODE,space=0,merge=1,delta=2,group=2
    41                           	psect	text28,local,class=CODE,space=0,merge=1,delta=2,group=2
    42                           	psect	text29,local,class=CODE,space=0,merge=1,delta=2,group=2
    43                           	psect	text30,local,class=CODE,space=0,merge=1,delta=2,group=2
    44                           	psect	text31,local,class=CODE,space=0,merge=1,delta=2
    45                           	psect	config,global,abs,ovrld,class=CONFIG,space=4,delta=2,noexec
    46                           	dabs	1,0x7E,2
    47     0000                     
    48                           ; Generated 12/10/2023 GMT
    49                           ; 
    50                           ; Copyright © 2023, Microchip Technology Inc. and its subsidiaries ("Microchip")
    51                           ; All rights reserved.
    52                           ; 
    53                           ; This software is developed by Microchip Technology Inc. and its subsidiaries ("Microch
      +                          ip").
    54                           ; 
    55                           ; Redistribution and use in source and binary forms, with or without modification, are
    56                           ; permitted provided that the following conditions are met:
    57                           ; 
    58                           ;     1. Redistributions of source code must retain the above copyright notice, this lis
      +                          t of
    59                           ;        conditions and the following disclaimer.
    60                           ; 
    61                           ;     2. Redistributions in binary form must reproduce the above copyright notice, this 
      +                          list
    62                           ;        of conditions and the following disclaimer in the documentation and/or other
    63                           ;        materials provided with the distribution. Publication is not required when
    64                           ;        this file is used in an embedded application.
    65                           ; 
    66                           ;     3. Microchip's name may not be used to endorse or promote products derived from th
      +                          is
    67                           ;        software without specific prior written permission.
    68                           ; 
    69                           ; THIS SOFTWARE IS PROVIDED BY MICROCHIP "AS IS" AND ANY EXPRESS OR IMPLIED WARRANTIES,
    70                           ; INCLUDING, BUT NOT LIMITED TO, THE IMPLIED WARRANTIES OF MERCHANTABILITY AND FITNESS F
      +                          OR
    71                           ; PURPOSE ARE DISCLAIMED.  IN NO EVENT SHALL MICROCHIP BE LIABLE FOR ANY DIRECT, INDIREC
      +                          T,
    72                           ; INCIDENTAL, SPECIAL, EXEMPLARY, OR CONSEQUENTIAL DAMAGES (INCLUDING BUT NOT LIMITED TO
    73                           ; PROCUREMENT OF SUBSTITUTE GOODS OR SERVICES; LOSS OF USE, DATA OR PROFITS; OR BUSINESS
    74                           ; INTERRUPTION) HOWSOEVER CAUSED AND ON ANY THEORY OF LIABILITY, WHETHER IN CONTRACT, ST
      +                          RICT
    75                           ; LIABILITY, OR TORT (INCLUDING NEGLIGENCE OR OTHERWISE) ARISING IN ANY WAY OUT OF THE U
      +                          SE OF
    76                           ; THIS SOFTWARE, EVEN IF ADVISED OF THE POSSIBILITY OF SUCH DAMAGE.
    77                           ; 
    78                           ; 
    79                           ; Code-generator required, PIC16F887 Definitions
    80                           ; 
    81                           ; SFR Addresses
    82     0004                     fsr             equ	4
    83     0004                     fsr0            equ	4
    84     0000                     indf            equ	0
    85     0000                     indf0           equ	0
    86     0002                     pc              equ	2
    87     0002                     pcl             equ	2
    88     000A                     pclath          equ	10
    89     0003                     status          equ	3
    90     0000                     INDF            equ	0	;# 
    91     0001                     TMR0            equ	1	;# 
    92     0002                     PCL             equ	2	;# 
    93     0003                     STATUS          equ	3	;# 
    94     0004                     FSR             equ	4	;# 
    95     0005                     PORTA           equ	5	;# 
    96     0006                     PORTB           equ	6	;# 
    97     0007                     PORTC           equ	7	;# 
    98     0008                     PORTD           equ	8	;# 
    99     0009                     PORTE           equ	9	;# 
   100     000A                     PCLATH          equ	10	;# 
   101     000B                     INTCON          equ	11	;# 
   102     000C                     PIR1            equ	12	;# 
   103     000D                     PIR2            equ	13	;# 
   104     000E                     TMR1            equ	14	;# 
   105     000E                     TMR1L           equ	14	;# 
   106     000F                     TMR1H           equ	15	;# 
   107     0010                     T1CON           equ	16	;# 
   108     0011                     TMR2            equ	17	;# 
   109     0012                     T2CON           equ	18	;# 
   110     0013                     SSPBUF          equ	19	;# 
   111     0014                     SSPCON          equ	20	;# 
   112     0015                     CCPR1           equ	21	;# 
   113     0015                     CCPR1L          equ	21	;# 
   114     0016                     CCPR1H          equ	22	;# 
   115     0017                     CCP1CON         equ	23	;# 
   116     0018                     RCSTA           equ	24	;# 
   117     0019                     TXREG           equ	25	;# 
   118     001A                     RCREG           equ	26	;# 
   119     001B                     CCPR2           equ	27	;# 
   120     001B                     CCPR2L          equ	27	;# 
   121     001C                     CCPR2H          equ	28	;# 
   122     001D                     CCP2CON         equ	29	;# 
   123     001E                     ADRESH          equ	30	;# 
   124     001F                     ADCON0          equ	31	;# 
   125     0081                     OPTION_REG      equ	129	;# 
   126     0085                     TRISA           equ	133	;# 
   127     0086                     TRISB           equ	134	;# 
   128     0087                     TRISC           equ	135	;# 
   129     0088                     TRISD           equ	136	;# 
   130     0089                     TRISE           equ	137	;# 
   131     008C                     PIE1            equ	140	;# 
   132     008D                     PIE2            equ	141	;# 
   133     008E                     PCON            equ	142	;# 
   134     008F                     OSCCON          equ	143	;# 
   135     0090                     OSCTUNE         equ	144	;# 
   136     0091                     SSPCON2         equ	145	;# 
   137     0092                     PR2             equ	146	;# 
   138     0093                     SSPADD          equ	147	;# 
   139     0093                     SSPMSK          equ	147	;# 
   140     0093                     MSK             equ	147	;# 
   141     0094                     SSPSTAT         equ	148	;# 
   142     0095                     WPUB            equ	149	;# 
   143     0096                     IOCB            equ	150	;# 
   144     0097                     VRCON           equ	151	;# 
   145     0098                     TXSTA           equ	152	;# 
   146     0099                     SPBRG           equ	153	;# 
   147     009A                     SPBRGH          equ	154	;# 
   148     009B                     PWM1CON         equ	155	;# 
   149     009C                     ECCPAS          equ	156	;# 
   150     009D                     PSTRCON         equ	157	;# 
   151     009E                     ADRESL          equ	158	;# 
   152     009F                     ADCON1          equ	159	;# 
   153     0105                     WDTCON          equ	261	;# 
   154     0107                     CM1CON0         equ	263	;# 
   155     0108                     CM2CON0         equ	264	;# 
   156     0109                     CM2CON1         equ	265	;# 
   157     010C                     EEDATA          equ	268	;# 
   158     010C                     EEDAT           equ	268	;# 
   159     010D                     EEADR           equ	269	;# 
   160     010E                     EEDATH          equ	270	;# 
   161     010F                     EEADRH          equ	271	;# 
   162     0185                     SRCON           equ	389	;# 
   163     0187                     BAUDCTL         equ	391	;# 
   164     0188                     ANSEL           equ	392	;# 
   165     0189                     ANSELH          equ	393	;# 
   166     018C                     EECON1          equ	396	;# 
   167     018D                     EECON2          equ	397	;# 
   168     0000                     INDF            equ	0	;# 
   169     0001                     TMR0            equ	1	;# 
   170     0002                     PCL             equ	2	;# 
   171     0003                     STATUS          equ	3	;# 
   172     0004                     FSR             equ	4	;# 
   173     0005                     PORTA           equ	5	;# 
   174     0006                     PORTB           equ	6	;# 
   175     0007                     PORTC           equ	7	;# 
   176     0008                     PORTD           equ	8	;# 
   177     0009                     PORTE           equ	9	;# 
   178     000A                     PCLATH          equ	10	;# 
   179     000B                     INTCON          equ	11	;# 
   180     000C                     PIR1            equ	12	;# 
   181     000D                     PIR2            equ	13	;# 
   182     000E                     TMR1            equ	14	;# 
   183     000E                     TMR1L           equ	14	;# 
   184     000F                     TMR1H           equ	15	;# 
   185     0010                     T1CON           equ	16	;# 
   186     0011                     TMR2            equ	17	;# 
   187     0012                     T2CON           equ	18	;# 
   188     0013                     SSPBUF          equ	19	;# 
   189     0014                     SSPCON          equ	20	;# 
   190     0015                     CCPR1           equ	21	;# 
   191     0015                     CCPR1L          equ	21	;# 
   192     0016                     CCPR1H          equ	22	;# 
   193     0017                     CCP1CON         equ	23	;# 
   194     0018                     RCSTA           equ	24	;# 
   195     0019                     TXREG           equ	25	;# 
   196     001A                     RCREG           equ	26	;# 
   197     001B                     CCPR2           equ	27	;# 
   198     001B                     CCPR2L          equ	27	;# 
   199     001C                     CCPR2H          equ	28	;# 
   200     001D                     CCP2CON         equ	29	;# 
   201     001E                     ADRESH          equ	30	;# 
   202     001F                     ADCON0          equ	31	;# 
   203     0081                     OPTION_REG      equ	129	;# 
   204     0085                     TRISA           equ	133	;# 
   205     0086                     TRISB           equ	134	;# 
   206     0087                     TRISC           equ	135	;# 
   207     0088                     TRISD           equ	136	;# 
   208     0089                     TRISE           equ	137	;# 
   209     008C                     PIE1            equ	140	;# 
   210     008D                     PIE2            equ	141	;# 
   211     008E                     PCON            equ	142	;# 
   212     008F                     OSCCON          equ	143	;# 
   213     0090                     OSCTUNE         equ	144	;# 
   214     0091                     SSPCON2         equ	145	;# 
   215     0092                     PR2             equ	146	;# 
   216     0093                     SSPADD          equ	147	;# 
   217     0093                     SSPMSK          equ	147	;# 
   218     0093                     MSK             equ	147	;# 
   219     0094                     SSPSTAT         equ	148	;# 
   220     0095                     WPUB            equ	149	;# 
   221     0096                     IOCB            equ	150	;# 
   222     0097                     VRCON           equ	151	;# 
   223     0098                     TXSTA           equ	152	;# 
   224     0099                     SPBRG           equ	153	;# 
   225     009A                     SPBRGH          equ	154	;# 
   226     009B                     PWM1CON         equ	155	;# 
   227     009C                     ECCPAS          equ	156	;# 
   228     009D                     PSTRCON         equ	157	;# 
   229     009E                     ADRESL          equ	158	;# 
   230     009F                     ADCON1          equ	159	;# 
   231     0105                     WDTCON          equ	261	;# 
   232     0107                     CM1CON0         equ	263	;# 
   233     0108                     CM2CON0         equ	264	;# 
   234     0109                     CM2CON1         equ	265	;# 
   235     010C                     EEDATA          equ	268	;# 
   236     010C                     EEDAT           equ	268	;# 
   237     010D                     EEADR           equ	269	;# 
   238     010E                     EEDATH          equ	270	;# 
   239     010F                     EEADRH          equ	271	;# 
   240     0185                     SRCON           equ	389	;# 
   241     0187                     BAUDCTL         equ	391	;# 
   242     0188                     ANSEL           equ	392	;# 
   243     0189                     ANSELH          equ	393	;# 
   244     018C                     EECON1          equ	396	;# 
   245     018D                     EECON2          equ	397	;# 
   246     0000                     INDF            equ	0	;# 
   247     0001                     TMR0            equ	1	;# 
   248     0002                     PCL             equ	2	;# 
   249     0003                     STATUS          equ	3	;# 
   250     0004                     FSR             equ	4	;# 
   251     0005                     PORTA           equ	5	;# 
   252     0006                     PORTB           equ	6	;# 
   253     0007                     PORTC           equ	7	;# 
   254     0008                     PORTD           equ	8	;# 
   255     0009                     PORTE           equ	9	;# 
   256     000A                     PCLATH          equ	10	;# 
   257     000B                     INTCON          equ	11	;# 
   258     000C                     PIR1            equ	12	;# 
   259     000D                     PIR2            equ	13	;# 
   260     000E                     TMR1            equ	14	;# 
   261     000E                     TMR1L           equ	14	;# 
   262     000F                     TMR1H           equ	15	;# 
   263     0010                     T1CON           equ	16	;# 
   264     0011                     TMR2            equ	17	;# 
   265     0012                     T2CON           equ	18	;# 
   266     0013                     SSPBUF          equ	19	;# 
   267     0014                     SSPCON          equ	20	;# 
   268     0015                     CCPR1           equ	21	;# 
   269     0015                     CCPR1L          equ	21	;# 
   270     0016                     CCPR1H          equ	22	;# 
   271     0017                     CCP1CON         equ	23	;# 
   272     0018                     RCSTA           equ	24	;# 
   273     0019                     TXREG           equ	25	;# 
   274     001A                     RCREG           equ	26	;# 
   275     001B                     CCPR2           equ	27	;# 
   276     001B                     CCPR2L          equ	27	;# 
   277     001C                     CCPR2H          equ	28	;# 
   278     001D                     CCP2CON         equ	29	;# 
   279     001E                     ADRESH          equ	30	;# 
   280     001F                     ADCON0          equ	31	;# 
   281     0081                     OPTION_REG      equ	129	;# 
   282     0085                     TRISA           equ	133	;# 
   283     0086                     TRISB           equ	134	;# 
   284     0087                     TRISC           equ	135	;# 
   285     0088                     TRISD           equ	136	;# 
   286     0089                     TRISE           equ	137	;# 
   287     008C                     PIE1            equ	140	;# 
   288     008D                     PIE2            equ	141	;# 
   289     008E                     PCON            equ	142	;# 
   290     008F                     OSCCON          equ	143	;# 
   291     0090                     OSCTUNE         equ	144	;# 
   292     0091                     SSPCON2         equ	145	;# 
   293     0092                     PR2             equ	146	;# 
   294     0093                     SSPADD          equ	147	;# 
   295     0093                     SSPMSK          equ	147	;# 
   296     0093                     MSK             equ	147	;# 
   297     0094                     SSPSTAT         equ	148	;# 
   298     0095                     WPUB            equ	149	;# 
   299     0096                     IOCB            equ	150	;# 
   300     0097                     VRCON           equ	151	;# 
   301     0098                     TXSTA           equ	152	;# 
   302     0099                     SPBRG           equ	153	;# 
   303     009A                     SPBRGH          equ	154	;# 
   304     009B                     PWM1CON         equ	155	;# 
   305     009C                     ECCPAS          equ	156	;# 
   306     009D                     PSTRCON         equ	157	;# 
   307     009E                     ADRESL          equ	158	;# 
   308     009F                     ADCON1          equ	159	;# 
   309     0105                     WDTCON          equ	261	;# 
   310     0107                     CM1CON0         equ	263	;# 
   311     0108                     CM2CON0         equ	264	;# 
   312     0109                     CM2CON1         equ	265	;# 
   313     010C                     EEDATA          equ	268	;# 
   314     010C                     EEDAT           equ	268	;# 
   315     010D                     EEADR           equ	269	;# 
   316     010E                     EEDATH          equ	270	;# 
   317     010F                     EEADRH          equ	271	;# 
   318     0185                     SRCON           equ	389	;# 
   319     0187                     BAUDCTL         equ	391	;# 
   320     0188                     ANSEL           equ	392	;# 
   321     0189                     ANSELH          equ	393	;# 
   322     018C                     EECON1          equ	396	;# 
   323     018D                     EECON2          equ	397	;# 
   324     0000                     INDF            equ	0	;# 
   325     0001                     TMR0            equ	1	;# 
   326     0002                     PCL             equ	2	;# 
   327     0003                     STATUS          equ	3	;# 
   328     0004                     FSR             equ	4	;# 
   329     0005                     PORTA           equ	5	;# 
   330     0006                     PORTB           equ	6	;# 
   331     0007                     PORTC           equ	7	;# 
   332     0008                     PORTD           equ	8	;# 
   333     0009                     PORTE           equ	9	;# 
   334     000A                     PCLATH          equ	10	;# 
   335     000B                     INTCON          equ	11	;# 
   336     000C                     PIR1            equ	12	;# 
   337     000D                     PIR2            equ	13	;# 
   338     000E                     TMR1            equ	14	;# 
   339     000E                     TMR1L           equ	14	;# 
   340     000F                     TMR1H           equ	15	;# 
   341     0010                     T1CON           equ	16	;# 
   342     0011                     TMR2            equ	17	;# 
   343     0012                     T2CON           equ	18	;# 
   344     0013                     SSPBUF          equ	19	;# 
   345     0014                     SSPCON          equ	20	;# 
   346     0015                     CCPR1           equ	21	;# 
   347     0015                     CCPR1L          equ	21	;# 
   348     0016                     CCPR1H          equ	22	;# 
   349     0017                     CCP1CON         equ	23	;# 
   350     0018                     RCSTA           equ	24	;# 
   351     0019                     TXREG           equ	25	;# 
   352     001A                     RCREG           equ	26	;# 
   353     001B                     CCPR2           equ	27	;# 
   354     001B                     CCPR2L          equ	27	;# 
   355     001C                     CCPR2H          equ	28	;# 
   356     001D                     CCP2CON         equ	29	;# 
   357     001E                     ADRESH          equ	30	;# 
   358     001F                     ADCON0          equ	31	;# 
   359     0081                     OPTION_REG      equ	129	;# 
   360     0085                     TRISA           equ	133	;# 
   361     0086                     TRISB           equ	134	;# 
   362     0087                     TRISC           equ	135	;# 
   363     0088                     TRISD           equ	136	;# 
   364     0089                     TRISE           equ	137	;# 
   365     008C                     PIE1            equ	140	;# 
   366     008D                     PIE2            equ	141	;# 
   367     008E                     PCON            equ	142	;# 
   368     008F                     OSCCON          equ	143	;# 
   369     0090                     OSCTUNE         equ	144	;# 
   370     0091                     SSPCON2         equ	145	;# 
   371     0092                     PR2             equ	146	;# 
   372     0093                     SSPADD          equ	147	;# 
   373     0093                     SSPMSK          equ	147	;# 
   374     0093                     MSK             equ	147	;# 
   375     0094                     SSPSTAT         equ	148	;# 
   376     0095                     WPUB            equ	149	;# 
   377     0096                     IOCB            equ	150	;# 
   378     0097                     VRCON           equ	151	;# 
   379     0098                     TXSTA           equ	152	;# 
   380     0099                     SPBRG           equ	153	;# 
   381     009A                     SPBRGH          equ	154	;# 
   382     009B                     PWM1CON         equ	155	;# 
   383     009C                     ECCPAS          equ	156	;# 
   384     009D                     PSTRCON         equ	157	;# 
   385     009E                     ADRESL          equ	158	;# 
   386     009F                     ADCON1          equ	159	;# 
   387     0105                     WDTCON          equ	261	;# 
   388     0107                     CM1CON0         equ	263	;# 
   389     0108                     CM2CON0         equ	264	;# 
   390     0109                     CM2CON1         equ	265	;# 
   391     010C                     EEDATA          equ	268	;# 
   392     010C                     EEDAT           equ	268	;# 
   393     010D                     EEADR           equ	269	;# 
   394     010E                     EEDATH          equ	270	;# 
   395     010F                     EEADRH          equ	271	;# 
   396     0185                     SRCON           equ	389	;# 
   397     0187                     BAUDCTL         equ	391	;# 
   398     0188                     ANSEL           equ	392	;# 
   399     0189                     ANSELH          equ	393	;# 
   400     018C                     EECON1          equ	396	;# 
   401     018D                     EECON2          equ	397	;# 
   402     0000                     INDF            equ	0	;# 
   403     0001                     TMR0            equ	1	;# 
   404     0002                     PCL             equ	2	;# 
   405     0003                     STATUS          equ	3	;# 
   406     0004                     FSR             equ	4	;# 
   407     0005                     PORTA           equ	5	;# 
   408     0006                     PORTB           equ	6	;# 
   409     0007                     PORTC           equ	7	;# 
   410     0008                     PORTD           equ	8	;# 
   411     0009                     PORTE           equ	9	;# 
   412     000A                     PCLATH          equ	10	;# 
   413     000B                     INTCON          equ	11	;# 
   414     000C                     PIR1            equ	12	;# 
   415     000D                     PIR2            equ	13	;# 
   416     000E                     TMR1            equ	14	;# 
   417     000E                     TMR1L           equ	14	;# 
   418     000F                     TMR1H           equ	15	;# 
   419     0010                     T1CON           equ	16	;# 
   420     0011                     TMR2            equ	17	;# 
   421     0012                     T2CON           equ	18	;# 
   422     0013                     SSPBUF          equ	19	;# 
   423     0014                     SSPCON          equ	20	;# 
   424     0015                     CCPR1           equ	21	;# 
   425     0015                     CCPR1L          equ	21	;# 
   426     0016                     CCPR1H          equ	22	;# 
   427     0017                     CCP1CON         equ	23	;# 
   428     0018                     RCSTA           equ	24	;# 
   429     0019                     TXREG           equ	25	;# 
   430     001A                     RCREG           equ	26	;# 
   431     001B                     CCPR2           equ	27	;# 
   432     001B                     CCPR2L          equ	27	;# 
   433     001C                     CCPR2H          equ	28	;# 
   434     001D                     CCP2CON         equ	29	;# 
   435     001E                     ADRESH          equ	30	;# 
   436     001F                     ADCON0          equ	31	;# 
   437     0081                     OPTION_REG      equ	129	;# 
   438     0085                     TRISA           equ	133	;# 
   439     0086                     TRISB           equ	134	;# 
   440     0087                     TRISC           equ	135	;# 
   441     0088                     TRISD           equ	136	;# 
   442     0089                     TRISE           equ	137	;# 
   443     008C                     PIE1            equ	140	;# 
   444     008D                     PIE2            equ	141	;# 
   445     008E                     PCON            equ	142	;# 
   446     008F                     OSCCON          equ	143	;# 
   447     0090                     OSCTUNE         equ	144	;# 
   448     0091                     SSPCON2         equ	145	;# 
   449     0092                     PR2             equ	146	;# 
   450     0093                     SSPADD          equ	147	;# 
   451     0093                     SSPMSK          equ	147	;# 
   452     0093                     MSK             equ	147	;# 
   453     0094                     SSPSTAT         equ	148	;# 
   454     0095                     WPUB            equ	149	;# 
   455     0096                     IOCB            equ	150	;# 
   456     0097                     VRCON           equ	151	;# 
   457     0098                     TXSTA           equ	152	;# 
   458     0099                     SPBRG           equ	153	;# 
   459     009A                     SPBRGH          equ	154	;# 
   460     009B                     PWM1CON         equ	155	;# 
   461     009C                     ECCPAS          equ	156	;# 
   462     009D                     PSTRCON         equ	157	;# 
   463     009E                     ADRESL          equ	158	;# 
   464     009F                     ADCON1          equ	159	;# 
   465     0105                     WDTCON          equ	261	;# 
   466     0107                     CM1CON0         equ	263	;# 
   467     0108                     CM2CON0         equ	264	;# 
   468     0109                     CM2CON1         equ	265	;# 
   469     010C                     EEDATA          equ	268	;# 
   470     010C                     EEDAT           equ	268	;# 
   471     010D                     EEADR           equ	269	;# 
   472     010E                     EEDATH          equ	270	;# 
   473     010F                     EEADRH          equ	271	;# 
   474     0185                     SRCON           equ	389	;# 
   475     0187                     BAUDCTL         equ	391	;# 
   476     0188                     ANSEL           equ	392	;# 
   477     0189                     ANSELH          equ	393	;# 
   478     018C                     EECON1          equ	396	;# 
   479     018D                     EECON2          equ	397	;# 
   480     0000                     INDF            equ	0	;# 
   481     0001                     TMR0            equ	1	;# 
   482     0002                     PCL             equ	2	;# 
   483     0003                     STATUS          equ	3	;# 
   484     0004                     FSR             equ	4	;# 
   485     0005                     PORTA           equ	5	;# 
   486     0006                     PORTB           equ	6	;# 
   487     0007                     PORTC           equ	7	;# 
   488     0008                     PORTD           equ	8	;# 
   489     0009                     PORTE           equ	9	;# 
   490     000A                     PCLATH          equ	10	;# 
   491     000B                     INTCON          equ	11	;# 
   492     000C                     PIR1            equ	12	;# 
   493     000D                     PIR2            equ	13	;# 
   494     000E                     TMR1            equ	14	;# 
   495     000E                     TMR1L           equ	14	;# 
   496     000F                     TMR1H           equ	15	;# 
   497     0010                     T1CON           equ	16	;# 
   498     0011                     TMR2            equ	17	;# 
   499     0012                     T2CON           equ	18	;# 
   500     0013                     SSPBUF          equ	19	;# 
   501     0014                     SSPCON          equ	20	;# 
   502     0015                     CCPR1           equ	21	;# 
   503     0015                     CCPR1L          equ	21	;# 
   504     0016                     CCPR1H          equ	22	;# 
   505     0017                     CCP1CON         equ	23	;# 
   506     0018                     RCSTA           equ	24	;# 
   507     0019                     TXREG           equ	25	;# 
   508     001A                     RCREG           equ	26	;# 
   509     001B                     CCPR2           equ	27	;# 
   510     001B                     CCPR2L          equ	27	;# 
   511     001C                     CCPR2H          equ	28	;# 
   512     001D                     CCP2CON         equ	29	;# 
   513     001E                     ADRESH          equ	30	;# 
   514     001F                     ADCON0          equ	31	;# 
   515     0081                     OPTION_REG      equ	129	;# 
   516     0085                     TRISA           equ	133	;# 
   517     0086                     TRISB           equ	134	;# 
   518     0087                     TRISC           equ	135	;# 
   519     0088                     TRISD           equ	136	;# 
   520     0089                     TRISE           equ	137	;# 
   521     008C                     PIE1            equ	140	;# 
   522     008D                     PIE2            equ	141	;# 
   523     008E                     PCON            equ	142	;# 
   524     008F                     OSCCON          equ	143	;# 
   525     0090                     OSCTUNE         equ	144	;# 
   526     0091                     SSPCON2         equ	145	;# 
   527     0092                     PR2             equ	146	;# 
   528     0093                     SSPADD          equ	147	;# 
   529     0093                     SSPMSK          equ	147	;# 
   530     0093                     MSK             equ	147	;# 
   531     0094                     SSPSTAT         equ	148	;# 
   532     0095                     WPUB            equ	149	;# 
   533     0096                     IOCB            equ	150	;# 
   534     0097                     VRCON           equ	151	;# 
   535     0098                     TXSTA           equ	152	;# 
   536     0099                     SPBRG           equ	153	;# 
   537     009A                     SPBRGH          equ	154	;# 
   538     009B                     PWM1CON         equ	155	;# 
   539     009C                     ECCPAS          equ	156	;# 
   540     009D                     PSTRCON         equ	157	;# 
   541     009E                     ADRESL          equ	158	;# 
   542     009F                     ADCON1          equ	159	;# 
   543     0105                     WDTCON          equ	261	;# 
   544     0107                     CM1CON0         equ	263	;# 
   545     0108                     CM2CON0         equ	264	;# 
   546     0109                     CM2CON1         equ	265	;# 
   547     010C                     EEDATA          equ	268	;# 
   548     010C                     EEDAT           equ	268	;# 
   549     010D                     EEADR           equ	269	;# 
   550     010E                     EEDATH          equ	270	;# 
   551     010F                     EEADRH          equ	271	;# 
   552     0185                     SRCON           equ	389	;# 
   553     0187                     BAUDCTL         equ	391	;# 
   554     0188                     ANSEL           equ	392	;# 
   555     0189                     ANSELH          equ	393	;# 
   556     018C                     EECON1          equ	396	;# 
   557     018D                     EECON2          equ	397	;# 
   558     0000                     INDF            equ	0	;# 
   559     0001                     TMR0            equ	1	;# 
   560     0002                     PCL             equ	2	;# 
   561     0003                     STATUS          equ	3	;# 
   562     0004                     FSR             equ	4	;# 
   563     0005                     PORTA           equ	5	;# 
   564     0006                     PORTB           equ	6	;# 
   565     0007                     PORTC           equ	7	;# 
   566     0008                     PORTD           equ	8	;# 
   567     0009                     PORTE           equ	9	;# 
   568     000A                     PCLATH          equ	10	;# 
   569     000B                     INTCON          equ	11	;# 
   570     000C                     PIR1            equ	12	;# 
   571     000D                     PIR2            equ	13	;# 
   572     000E                     TMR1            equ	14	;# 
   573     000E                     TMR1L           equ	14	;# 
   574     000F                     TMR1H           equ	15	;# 
   575     0010                     T1CON           equ	16	;# 
   576     0011                     TMR2            equ	17	;# 
   577     0012                     T2CON           equ	18	;# 
   578     0013                     SSPBUF          equ	19	;# 
   579     0014                     SSPCON          equ	20	;# 
   580     0015                     CCPR1           equ	21	;# 
   581     0015                     CCPR1L          equ	21	;# 
   582     0016                     CCPR1H          equ	22	;# 
   583     0017                     CCP1CON         equ	23	;# 
   584     0018                     RCSTA           equ	24	;# 
   585     0019                     TXREG           equ	25	;# 
   586     001A                     RCREG           equ	26	;# 
   587     001B                     CCPR2           equ	27	;# 
   588     001B                     CCPR2L          equ	27	;# 
   589     001C                     CCPR2H          equ	28	;# 
   590     001D                     CCP2CON         equ	29	;# 
   591     001E                     ADRESH          equ	30	;# 
   592     001F                     ADCON0          equ	31	;# 
   593     0081                     OPTION_REG      equ	129	;# 
   594     0085                     TRISA           equ	133	;# 
   595     0086                     TRISB           equ	134	;# 
   596     0087                     TRISC           equ	135	;# 
   597     0088                     TRISD           equ	136	;# 
   598     0089                     TRISE           equ	137	;# 
   599     008C                     PIE1            equ	140	;# 
   600     008D                     PIE2            equ	141	;# 
   601     008E                     PCON            equ	142	;# 
   602     008F                     OSCCON          equ	143	;# 
   603     0090                     OSCTUNE         equ	144	;# 
   604     0091                     SSPCON2         equ	145	;# 
   605     0092                     PR2             equ	146	;# 
   606     0093                     SSPADD          equ	147	;# 
   607     0093                     SSPMSK          equ	147	;# 
   608     0093                     MSK             equ	147	;# 
   609     0094                     SSPSTAT         equ	148	;# 
   610     0095                     WPUB            equ	149	;# 
   611     0096                     IOCB            equ	150	;# 
   612     0097                     VRCON           equ	151	;# 
   613     0098                     TXSTA           equ	152	;# 
   614     0099                     SPBRG           equ	153	;# 
   615     009A                     SPBRGH          equ	154	;# 
   616     009B                     PWM1CON         equ	155	;# 
   617     009C                     ECCPAS          equ	156	;# 
   618     009D                     PSTRCON         equ	157	;# 
   619     009E                     ADRESL          equ	158	;# 
   620     009F                     ADCON1          equ	159	;# 
   621     0105                     WDTCON          equ	261	;# 
   622     0107                     CM1CON0         equ	263	;# 
   623     0108                     CM2CON0         equ	264	;# 
   624     0109                     CM2CON1         equ	265	;# 
   625     010C                     EEDATA          equ	268	;# 
   626     010C                     EEDAT           equ	268	;# 
   627     010D                     EEADR           equ	269	;# 
   628     010E                     EEDATH          equ	270	;# 
   629     010F                     EEADRH          equ	271	;# 
   630     0185                     SRCON           equ	389	;# 
   631     0187                     BAUDCTL         equ	391	;# 
   632     0188                     ANSEL           equ	392	;# 
   633     0189                     ANSELH          equ	393	;# 
   634     018C                     EECON1          equ	396	;# 
   635     018D                     EECON2          equ	397	;# 
   636     0005                     _PORTAbits      set	5
   637     0001                     _TMR0           set	1
   638     0013                     _SSPBUF         set	19
   639     000C                     _PIR1bits       set	12
   640     0014                     _SSPCON         set	20
   641     0081                     _OPTION_REGbits set	129
   642     0085                     _TRISAbits      set	133
   643     0091                     _SSPCON2bits    set	145
   644     0093                     _SSPADD         set	147
   645     0091                     _SSPCON2        set	145
   646     0094                     _SSPSTAT        set	148
   647     0087                     _TRISCbits      set	135
   648     0189                     _ANSELH         set	393
   649     0188                     _ANSEL          set	392
   650                           
   651                           	psect	strings
   652     0800                     __pstrings:
   653     0800                     stringtab:
   654     0800                     __stringtab:
   655                           
   656                           ;	String table - string pointers are 1 byte each
   657     0800  1BFF               	btfsc	btemp+1,7
   658     0801  280A               	ljmp	stringcode
   659     0802  1383               	bcf	3,7
   660     0803  187F               	btfsc	btemp+1,0
   661     0804  1783               	bsf	3,7
   662     0805  0800               	movf	0,w
   663     0806  0A84               	incf	4,f
   664     0807  1903               	skipnz
   665     0808  0AFF               	incf	btemp+1,f
   666     0809  0008               	return
   667     080A                     stringcode:
   668     080A                     stringdir:
   669     080A  3008               	movlw	high stringdir
   670     080B  008A               	movwf	10
   671     080C  0804               	movf	4,w
   672     080D  0A84               	incf	4,f
   673     080E  0782               	addwf	2,f
   674     080F                     __stringbase:
   675     080F  3400               	retlw	0
   676     0810                     __end_of__stringtab:
   677     0810                     STR_7:
   678     0810  3420               	retlw	32	;' '
   679     0811  3452               	retlw	82	;'R'
   680     0812  3465               	retlw	101	;'e'
   681     0813  3469               	retlw	105	;'i'
   682     0814  346E               	retlw	110	;'n'
   683     0815  3474               	retlw	116	;'t'
   684     0816  3465               	retlw	101	;'e'
   685     0817  346E               	retlw	110	;'n'
   686     0818  3474               	retlw	116	;'t'
   687     0819  3461               	retlw	97	;'a'
   688     081A  346E               	retlw	110	;'n'
   689     081B  3464               	retlw	100	;'d'
   690     081C  346F               	retlw	111	;'o'
   691     081D  342E               	retlw	46	;'.'
   692     081E  342E               	retlw	46	;'.'
   693     081F  3400               	retlw	0
   694     0820                     STR_8:
   695     0820  3420               	retlw	32	;' '
   696     0821  3443               	retlw	67	;'C'
   697     0822  3468               	retlw	104	;'h'
   698     0823  3465               	retlw	101	;'e'
   699     0824  3463               	retlw	99	;'c'
   700     0825  346B               	retlw	107	;'k'
   701     0826  3420               	retlw	32	;' '
   702     0827  3463               	retlw	99	;'c'
   703     0828  346F               	retlw	111	;'o'
   704     0829  346E               	retlw	110	;'n'
   705     082A  3465               	retlw	101	;'e'
   706     082B  3478               	retlw	120	;'x'
   707     082C  3469               	retlw	105	;'i'
   708     082D  346F               	retlw	111	;'o'
   709     082E  346E               	retlw	110	;'n'
   710     082F  3400               	retlw	0
   711     0830                     STR_6:
   712     0830  3420               	retlw	32	;' '
   713     0831  3445               	retlw	69	;'E'
   714     0832  3472               	retlw	114	;'r'
   715     0833  3472               	retlw	114	;'r'
   716     0834  346F               	retlw	111	;'o'
   717     0835  3472               	retlw	114	;'r'
   718     0836  3420               	retlw	32	;' '
   719     0837  3444               	retlw	68	;'D'
   720     0838  3448               	retlw	72	;'H'
   721     0839  3454               	retlw	84	;'T'
   722     083A  3432               	retlw	50	;'2'
   723     083B  3432               	retlw	50	;'2'
   724     083C  3400               	retlw	0
   725     083D                     STR_3:
   726     083D  3420               	retlw	32	;' '
   727     083E  3448               	retlw	72	;'H'
   728     083F  346F               	retlw	111	;'o'
   729     0840  346C               	retlw	108	;'l'
   730     0841  3464               	retlw	100	;'d'
   731     0842  3420               	retlw	32	;' '
   732     0843  346F               	retlw	111	;'o'
   733     0844  346E               	retlw	110	;'n'
   734     0845  342E               	retlw	46	;'.'
   735     0846  342E               	retlw	46	;'.'
   736     0847  342E               	retlw	46	;'.'
   737     0848  3400               	retlw	0
   738     0849                     STR_5:
   739     0849  3448               	retlw	72	;'H'
   740     084A  3475               	retlw	117	;'u'
   741     084B  346D               	retlw	109	;'m'
   742     084C  3420               	retlw	32	;' '
   743     084D  343A               	retlw	58	;':'
   744     084E  3420               	retlw	32	;' '
   745     084F  3400               	retlw	0
   746     0850                     STR_4:
   747     0850  3454               	retlw	84	;'T'
   748     0851  3465               	retlw	101	;'e'
   749     0852  346D               	retlw	109	;'m'
   750     0853  3470               	retlw	112	;'p'
   751     0854  343A               	retlw	58	;':'
   752     0855  3420               	retlw	32	;' '
   753     0856  3400               	retlw	0
   754     0857                     STR_1:
   755     0857  342D               	retlw	45	;'-'
   756     0858  3425               	retlw	37	;'%'
   757     0859  3464               	retlw	100	;'d'
   758     085A  342E               	retlw	46	;'.'
   759     085B  3425               	retlw	37	;'%'
   760     085C  3464               	retlw	100	;'d'
   761     085D  3400               	retlw	0
   762     0858                     STR_2           equ	STR_1+1
   763                           
   764                           	psect	cinit
   765     07E7                     start_initialization:	
   766                           ; #config settings
   767                           
   768     07E7                     __initialization:
   769                           
   770                           ; Clear objects allocated to BANK0
   771     07E7  1283               	bcf	3,5	;RP0=0, select bank0
   772     07E8  1303               	bcf	3,6	;RP1=0, select bank0
   773     07E9  01EF               	clrf	__pbssBANK0& (0+127)
   774                           
   775                           ; Clear objects allocated to BANK1
   776     07EA  1383               	bcf	3,7	;select IRP bank0
   777     07EB  30A0               	movlw	low __pbssBANK1
   778     07EC  0084               	movwf	4
   779     07ED  30CA               	movlw	low (__pbssBANK1+42)
   780     07EE  160A  118A  260D  120A  118A  	fcall	clear_ram0
   781                           
   782                           ; Clear objects allocated to BANK3
   783     07F3  1783               	bsf	3,7	;select IRP bank2
   784     07F4  3090               	movlw	low __pbssBANK3
   785     07F5  0084               	movwf	4
   786     07F6  30B0               	movlw	low (__pbssBANK3+32)
   787     07F7  160A  118A  260D  120A  118A  	fcall	clear_ram0
   788     07FC                     end_of_initialization:	
   789                           ;End of C runtime variable initialization code
   790                           
   791     07FC                     __end_of__initialization:
   792     07FC  0183               	clrf	3
   793     07FD  120A  158A  2D57   	ljmp	_main	;jump to C main() function
   794                           
   795                           	psect	bssBANK0
   796     006F                     __pbssBANK0:
   797     006F                     _dht11_aux:
   798     006F                     	ds	1
   799                           
   800                           	psect	bssBANK1
   801     00A0                     __pbssBANK1:
   802     00A0                     _dht11_byte:
   803     00A0                     	ds	5
   804     00A5                     _width:
   805     00A5                     	ds	2
   806     00A7                     _prec:
   807     00A7                     	ds	2
   808     00A9                     _flags:
   809     00A9                     	ds	1
   810     00AA                     _buffer_hum:
   811     00AA                     	ds	16
   812     00BA                     _buffer_tem:
   813     00BA                     	ds	16
   814                           
   815                           	psect	bssBANK3
   816     0190                     __pbssBANK3:
   817     0190                     _dbuf:
   818     0190                     	ds	32
   819                           
   820                           	psect	clrtext
   821     160D                     clear_ram0:	
   822                           ;	Called with FSR containing the base address, and
   823                           ;	W with the last address+1
   824                           
   825     160D  0064               	clrwdt	;clear the watchdog before getting into this loop
   826     160E                     clrloop0:
   827     160E  0180               	clrf	0	;clear RAM location pointed to by FSR
   828     160F  0A84               	incf	4,f	;increment pointer
   829     1610  0604               	xorwf	4,w	;XOR with final address
   830     1611  1903               	btfsc	3,2	;have we reached the end yet?
   831     1612  3400               	retlw	0	;all done for this memory range, return
   832     1613  0604               	xorwf	4,w	;XOR again to restore value
   833     1614  2E0E               	goto	clrloop0	;do the next byte
   834                           
   835                           	psect	cstackBANK1
   836     00CA                     __pcstackBANK1:
   837     00CA                     ?_float_to_string_dht22:
   838     00CA                     float_to_string_dht22@value:	
   839                           ; 1 bytes @ 0x0
   840                           
   841                           
   842                           ; 4 bytes @ 0x0
   843     00CA                     	ds	4
   844     00CE                     float_to_string_dht22@buffer:
   845                           
   846                           ; 1 bytes @ 0x4
   847     00CE                     	ds	1
   848     00CF                     float_to_string_dht22@negativo:
   849                           
   850                           ; 1 bytes @ 0x5
   851     00CF                     	ds	1
   852     00D0                     float_to_string_dht22@parte_decimal:
   853                           
   854                           ; 2 bytes @ 0x6
   855     00D0                     	ds	2
   856     00D2                     float_to_string_dht22@parte_entera:
   857                           
   858                           ; 2 bytes @ 0x8
   859     00D2                     	ds	2
   860     00D4                     main@intentos:
   861                           
   862                           ; 1 bytes @ 0xA
   863     00D4                     	ds	1
   864     00D5                     main@tem:
   865                           
   866                           ; 4 bytes @ 0xB
   867     00D5                     	ds	4
   868     00D9                     main@hum:
   869                           
   870                           ; 4 bytes @ 0xF
   871     00D9                     	ds	4
   872                           
   873                           	psect	cstackCOMMON
   874     0070                     __pcstackCOMMON:
   875     0070                     ?_I2C_Init_Master:
   876     0070                     ?_Lcd_Init:	
   877                           ; 1 bytes @ 0x0
   878                           
   879     0070                     ?_DHT22_init:	
   880                           ; 1 bytes @ 0x0
   881                           
   882     0070                     ?_Lcd_Clear:	
   883                           ; 1 bytes @ 0x0
   884                           
   885     0070                     ?_Lcd_Write_Char:	
   886                           ; 1 bytes @ 0x0
   887                           
   888     0070                     ?_Lcd_Cmd:	
   889                           ; 1 bytes @ 0x0
   890                           
   891     0070                     ?_putch:	
   892                           ; 1 bytes @ 0x0
   893                           
   894     0070                     ?_I2C_Start:	
   895                           ; 1 bytes @ 0x0
   896                           
   897     0070                     ?_I2C_Stop:	
   898                           ; 1 bytes @ 0x0
   899                           
   900     0070                     ?_I2C_Write:	
   901                           ; 1 bytes @ 0x0
   902                           
   903     0070                     ?___flge:	
   904                           ; 1 bytes @ 0x0
   905                           
   906     0070                     ?__Umul8_16:	
   907                           ; 1 bit 
   908                           
   909     0070                     ?_fputc:	
   910                           ; 2 bytes @ 0x0
   911                           
   912     0070                     ?_main:	
   913                           ; 2 bytes @ 0x0
   914                           
   915     0070                     ?___wmul:	
   916                           ; 2 bytes @ 0x0
   917                           
   918     0070                     ?___awdiv:	
   919                           ; 2 bytes @ 0x0
   920                           
   921     0070                     ?___awmod:	
   922                           ; 2 bytes @ 0x0
   923                           
   924     0070                     ?___flneg:	
   925                           ; 2 bytes @ 0x0
   926                           
   927     0070                     ?___fladd:	
   928                           ; 4 bytes @ 0x0
   929                           
   930     0070                     I2C_Init_Master@sp_i2c:	
   931                           ; 4 bytes @ 0x0
   932                           
   933     0070                     __Umul8_16@multiplicand:	
   934                           ; 1 bytes @ 0x0
   935                           
   936     0070                     putch@c:	
   937                           ; 1 bytes @ 0x0
   938                           
   939     0070                     ___wmul@multiplier:	
   940                           ; 1 bytes @ 0x0
   941                           
   942     0070                     ___awdiv@divisor:	
   943                           ; 2 bytes @ 0x0
   944                           
   945     0070                     ___awmod@divisor:	
   946                           ; 2 bytes @ 0x0
   947                           
   948     0070                     fputc@c:	
   949                           ; 2 bytes @ 0x0
   950                           
   951     0070                     ___flge@ff1:	
   952                           ; 2 bytes @ 0x0
   953                           
   954     0070                     ___flneg@f1:	
   955                           ; 4 bytes @ 0x0
   956                           
   957     0070                     ___fladd@b:	
   958                           ; 4 bytes @ 0x0
   959                           
   960     0070                     ??_I2C_Init_Master:	
   961                           ; 4 bytes @ 0x0
   962                           
   963     0070                     ??_DHT22_init:	
   964                           ; 1 bytes @ 0x0
   965                           
   966     0070                     ??_putch:	
   967                           ; 1 bytes @ 0x0
   968                           
   969     0070                     ??_I2C_Start:	
   970                           ; 1 bytes @ 0x0
   971                           
   972     0070                     ??_I2C_Stop:	
   973                           ; 1 bytes @ 0x0
   974                           
   975     0070                     ??_I2C_Write:	
   976                           ; 1 bytes @ 0x0
   977                           
   978                           
   979                           ; 1 bytes @ 0x0
   980     0070                     	ds	1
   981     0071                     I2C_Write@data:
   982                           
   983                           ; 1 bytes @ 0x1
   984     0071                     	ds	1
   985     0072                     ___wmul@multiplicand:
   986     0072                     ___awdiv@dividend:	
   987                           ; 2 bytes @ 0x2
   988                           
   989     0072                     ___awmod@dividend:	
   990                           ; 2 bytes @ 0x2
   991                           
   992     0072                     fputc@fp:	
   993                           ; 2 bytes @ 0x2
   994                           
   995     0072                     ??_Lcd_Write_Char:	
   996                           ; 2 bytes @ 0x2
   997                           
   998     0072                     ??_Lcd_Cmd:	
   999                           ; 1 bytes @ 0x2
  1000                           
  1001     0072                     ??__Umul8_16:	
  1002                           ; 1 bytes @ 0x2
  1003                           
  1004                           
  1005                           ; 1 bytes @ 0x2
  1006     0072                     	ds	1
  1007     0073                     Lcd_Cmd@cmd:
  1008     0073                     Lcd_Write_Char@c:	
  1009                           ; 1 bytes @ 0x3
  1010                           
  1011                           
  1012                           ; 1 bytes @ 0x3
  1013     0073                     	ds	1
  1014     0074                     Lcd_Cmd@data_u:
  1015     0074                     Lcd_Write_Char@data_u:	
  1016                           ; 1 bytes @ 0x4
  1017                           
  1018     0074                     ___awdiv@counter:	
  1019                           ; 1 bytes @ 0x4
  1020                           
  1021     0074                     ___awmod@counter:	
  1022                           ; 1 bytes @ 0x4
  1023                           
  1024     0074                     ___wmul@product:	
  1025                           ; 1 bytes @ 0x4
  1026                           
  1027     0074                     __Umul8_16@product:	
  1028                           ; 2 bytes @ 0x4
  1029                           
  1030     0074                     ___flge@ff2:	
  1031                           ; 2 bytes @ 0x4
  1032                           
  1033     0074                     ___fladd@a:	
  1034                           ; 4 bytes @ 0x4
  1035                           
  1036     0074                     ??_fputc:	
  1037                           ; 4 bytes @ 0x4
  1038                           
  1039     0074                     ??___wmul:	
  1040                           ; 1 bytes @ 0x4
  1041                           
  1042     0074                     ??___awdiv:	
  1043                           ; 1 bytes @ 0x4
  1044                           
  1045     0074                     ??___awmod:	
  1046                           ; 1 bytes @ 0x4
  1047                           
  1048     0074                     ??___flneg:	
  1049                           ; 1 bytes @ 0x4
  1050                           
  1051                           
  1052                           ; 1 bytes @ 0x4
  1053     0074                     	ds	1
  1054     0075                     Lcd_Cmd@data_l:
  1055     0075                     Lcd_Write_Char@data_l:	
  1056                           ; 1 bytes @ 0x5
  1057                           
  1058     0075                     ___awdiv@sign:	
  1059                           ; 1 bytes @ 0x5
  1060                           
  1061     0075                     ___awmod@sign:	
  1062                           ; 1 bytes @ 0x5
  1063                           
  1064                           
  1065                           ; 1 bytes @ 0x5
  1066     0075                     	ds	1
  1067     0076                     ?_Lcd_Set_Cursor:
  1068     0076                     ?_Lcd_Write_String:	
  1069                           ; 1 bytes @ 0x6
  1070                           
  1071     0076                     ?_abs:	
  1072                           ; 1 bytes @ 0x6
  1073                           
  1074     0076                     ?___xxtofl:	
  1075                           ; 2 bytes @ 0x6
  1076                           
  1077     0076                     Lcd_Set_Cursor@row:	
  1078                           ; 4 bytes @ 0x6
  1079                           
  1080     0076                     Lcd_Write_String@str:	
  1081                           ; 1 bytes @ 0x6
  1082                           
  1083     0076                     ___awdiv@quotient:	
  1084                           ; 2 bytes @ 0x6
  1085                           
  1086     0076                     __Umul8_16@word_mpld:	
  1087                           ; 2 bytes @ 0x6
  1088                           
  1089     0076                     abs@a:	
  1090                           ; 2 bytes @ 0x6
  1091                           
  1092     0076                     ___xxtofl@val:	
  1093                           ; 2 bytes @ 0x6
  1094                           
  1095     0076                     ??_Lcd_Init:	
  1096                           ; 4 bytes @ 0x6
  1097                           
  1098     0076                     ??_Lcd_Clear:	
  1099                           ; 1 bytes @ 0x6
  1100                           
  1101                           
  1102                           ; 1 bytes @ 0x6
  1103     0076                     	ds	1
  1104     0077                     Lcd_Set_Cursor@col:
  1105     0077                     ??_Lcd_Set_Cursor:	
  1106                           ; 1 bytes @ 0x7
  1107                           
  1108                           
  1109                           ; 1 bytes @ 0x7
  1110     0077                     	ds	1
  1111     0078                     Lcd_Set_Cursor@address:
  1112     0078                     ___fladd@signs:	
  1113                           ; 1 bytes @ 0x8
  1114                           
  1115     0078                     __Umul8_16@multiplier:	
  1116                           ; 1 bytes @ 0x8
  1117                           
  1118     0078                     ??_Lcd_Write_String:	
  1119                           ; 1 bytes @ 0x8
  1120                           
  1121     0078                     ??_abs:	
  1122                           ; 1 bytes @ 0x8
  1123                           
  1124     0078                     ??___flge:	
  1125                           ; 1 bytes @ 0x8
  1126                           
  1127                           
  1128                           ; 1 bytes @ 0x8
  1129     0078                     	ds	1
  1130     0079                     ___fladd@aexp:
  1131                           
  1132                           ; 1 bytes @ 0x9
  1133     0079                     	ds	1
  1134     007A                     ___fladd@bexp:
  1135     007A                     ??___xxtofl:	
  1136                           ; 1 bytes @ 0xA
  1137                           
  1138                           
  1139                           ; 1 bytes @ 0xA
  1140     007A                     	ds	1
  1141     007B                     ___fladd@grs:
  1142                           
  1143                           ; 1 bytes @ 0xB
  1144     007B                     	ds	2
  1145     007D                     vfprintf@cfmt:
  1146     007D                     ??_vfprintf:	
  1147                           ; 1 bytes @ 0xD
  1148                           
  1149                           
  1150                           ; 1 bytes @ 0xD
  1151     007D                     	ds	1
  1152     007E                     ??_float_to_string_dht22:
  1153     007E                     ??___flsub:	
  1154                           ; 1 bytes @ 0xE
  1155                           
  1156                           
  1157                           	psect	cstackBANK0
  1158     0020                     __pcstackBANK0:	
  1159                           ; 1 bytes @ 0xE
  1160                           
  1161     0020                     ?_vfpfcnvrt:
  1162     0020                     ___xxtofl@sign:	
  1163                           ; 1 bytes @ 0x0
  1164                           
  1165     0020                     vfpfcnvrt@fp:	
  1166                           ; 1 bytes @ 0x0
  1167                           
  1168     0020                     ??___fladd:	
  1169                           ; 2 bytes @ 0x0
  1170                           
  1171                           
  1172                           ; 1 bytes @ 0x0
  1173     0020                     	ds	1
  1174     0021                     ___xxtofl@exp:
  1175                           
  1176                           ; 1 bytes @ 0x1
  1177     0021                     	ds	1
  1178     0022                     vfpfcnvrt@fmt:
  1179     0022                     ___xxtofl@arg:	
  1180                           ; 1 bytes @ 0x2
  1181                           
  1182                           
  1183                           ; 4 bytes @ 0x2
  1184     0022                     	ds	1
  1185     0023                     vfpfcnvrt@ap:
  1186                           
  1187                           ; 1 bytes @ 0x3
  1188     0023                     	ds	1
  1189     0024                     ??_vfpfcnvrt:
  1190                           
  1191                           ; 1 bytes @ 0x4
  1192     0024                     	ds	2
  1193     0026                     ?___fldiv:
  1194     0026                     vfpfcnvrt@done:	
  1195                           ; 4 bytes @ 0x6
  1196                           
  1197     0026                     ___fldiv@a:	
  1198                           ; 1 bytes @ 0x6
  1199                           
  1200                           
  1201                           ; 4 bytes @ 0x6
  1202     0026                     	ds	1
  1203     0027                     vfpfcnvrt@cp:
  1204                           
  1205                           ; 1 bytes @ 0x7
  1206     0027                     	ds	1
  1207     0028                     vfpfcnvrt@convarg:
  1208                           
  1209                           ; 4 bytes @ 0x8
  1210     0028                     	ds	2
  1211     002A                     ___fldiv@b:
  1212                           
  1213                           ; 4 bytes @ 0xA
  1214     002A                     	ds	2
  1215     002C                     vfpfcnvrt@c:
  1216                           
  1217                           ; 1 bytes @ 0xC
  1218     002C                     	ds	1
  1219     002D                     ?_vfprintf:
  1220     002D                     vfprintf@fp:	
  1221                           ; 2 bytes @ 0xD
  1222                           
  1223                           
  1224                           ; 2 bytes @ 0xD
  1225     002D                     	ds	1
  1226     002E                     ??___fldiv:
  1227                           
  1228                           ; 1 bytes @ 0xE
  1229     002E                     	ds	1
  1230     002F                     vfprintf@fmt:
  1231                           
  1232                           ; 1 bytes @ 0xF
  1233     002F                     	ds	1
  1234     0030                     vfprintf@ap:
  1235                           
  1236                           ; 1 bytes @ 0x10
  1237     0030                     	ds	1
  1238     0031                     ?_sprintf:
  1239     0031                     sprintf@s:	
  1240                           ; 2 bytes @ 0x11
  1241                           
  1242                           
  1243                           ; 1 bytes @ 0x11
  1244     0031                     	ds	1
  1245     0032                     sprintf@fmt:
  1246                           
  1247                           ; 1 bytes @ 0x12
  1248     0032                     	ds	1
  1249     0033                     ___fldiv@rem:
  1250                           
  1251                           ; 4 bytes @ 0x13
  1252     0033                     	ds	4
  1253     0037                     ___fldiv@sign:
  1254     0037                     ??_sprintf:	
  1255                           ; 1 bytes @ 0x17
  1256                           
  1257                           
  1258                           ; 1 bytes @ 0x17
  1259     0037                     	ds	1
  1260     0038                     sprintf@ap:
  1261     0038                     ___fldiv@new_exp:	
  1262                           ; 1 bytes @ 0x18
  1263                           
  1264                           
  1265                           ; 2 bytes @ 0x18
  1266     0038                     	ds	1
  1267     0039                     sprintf@f:
  1268                           
  1269                           ; 11 bytes @ 0x19
  1270     0039                     	ds	1
  1271     003A                     ___fldiv@grs:
  1272                           
  1273                           ; 4 bytes @ 0x1A
  1274     003A                     	ds	4
  1275     003E                     ___fldiv@bexp:
  1276                           
  1277                           ; 1 bytes @ 0x1E
  1278     003E                     	ds	1
  1279     003F                     ___fldiv@aexp:
  1280                           
  1281                           ; 1 bytes @ 0x1F
  1282     003F                     	ds	1
  1283     0040                     ?___flmul:
  1284     0040                     ___flmul@b:	
  1285                           ; 4 bytes @ 0x20
  1286                           
  1287                           
  1288                           ; 4 bytes @ 0x20
  1289     0040                     	ds	4
  1290     0044                     ___flmul@a:
  1291                           
  1292                           ; 4 bytes @ 0x24
  1293     0044                     	ds	4
  1294     0048                     ??___flmul:
  1295                           
  1296                           ; 1 bytes @ 0x28
  1297     0048                     	ds	5
  1298     004D                     ___flmul@sign:
  1299                           
  1300                           ; 1 bytes @ 0x2D
  1301     004D                     	ds	1
  1302     004E                     ___flmul@grs:
  1303                           
  1304                           ; 4 bytes @ 0x2E
  1305     004E                     	ds	4
  1306     0052                     ___flmul@aexp:
  1307                           
  1308                           ; 1 bytes @ 0x32
  1309     0052                     	ds	1
  1310     0053                     ___flmul@bexp:
  1311                           
  1312                           ; 1 bytes @ 0x33
  1313     0053                     	ds	1
  1314     0054                     ___flmul@prod:
  1315                           
  1316                           ; 4 bytes @ 0x34
  1317     0054                     	ds	4
  1318     0058                     ___flmul@temp:
  1319                           
  1320                           ; 2 bytes @ 0x38
  1321     0058                     	ds	2
  1322     005A                     ?_DHT22_read:
  1323     005A                     ?___flsub:	
  1324                           ; 1 bytes @ 0x3A
  1325                           
  1326     005A                     DHT22_read@dht_temperatura:	
  1327                           ; 4 bytes @ 0x3A
  1328                           
  1329     005A                     ___flsub@a:	
  1330                           ; 1 bytes @ 0x3A
  1331                           
  1332                           
  1333                           ; 4 bytes @ 0x3A
  1334     005A                     	ds	1
  1335     005B                     DHT22_read@dht_humedad:
  1336                           
  1337                           ; 1 bytes @ 0x3B
  1338     005B                     	ds	1
  1339     005C                     ??_DHT22_read:
  1340                           
  1341                           ; 1 bytes @ 0x3C
  1342     005C                     	ds	2
  1343     005E                     ___flsub@b:
  1344                           
  1345                           ; 4 bytes @ 0x3E
  1346     005E                     	ds	2
  1347     0060                     DHT22_read@rawhumidity:
  1348                           
  1349                           ; 2 bytes @ 0x40
  1350     0060                     	ds	2
  1351     0062                     ?___fltol:
  1352     0062                     DHT22_read@result:	
  1353                           ; 4 bytes @ 0x42
  1354                           
  1355     0062                     ___fltol@f1:	
  1356                           ; 1 bytes @ 0x42
  1357                           
  1358                           
  1359                           ; 4 bytes @ 0x42
  1360     0062                     	ds	1
  1361     0063                     DHT22_read@bits:
  1362                           
  1363                           ; 5 bytes @ 0x43
  1364     0063                     	ds	3
  1365     0066                     ??___fltol:
  1366                           
  1367                           ; 1 bytes @ 0x46
  1368     0066                     	ds	2
  1369     0068                     DHT22_read@rawtemperature:
  1370                           
  1371                           ; 2 bytes @ 0x48
  1372     0068                     	ds	2
  1373     006A                     DHT22_read@i:
  1374     006A                     ___fltol@sign1:	
  1375                           ; 1 bytes @ 0x4A
  1376                           
  1377                           
  1378                           ; 1 bytes @ 0x4A
  1379     006A                     	ds	1
  1380     006B                     DHT22_read@j:
  1381     006B                     ___fltol@exp1:	
  1382                           ; 1 bytes @ 0x4B
  1383                           
  1384                           
  1385                           ; 1 bytes @ 0x4B
  1386     006B                     	ds	1
  1387     006C                     ??_main:
  1388                           
  1389                           ; 1 bytes @ 0x4C
  1390     006C                     	ds	3
  1391                           
  1392                           	psect	maintext
  1393     0D57                     __pmaintext:	
  1394 ;;
  1395 ;;Main: autosize = 0, tempsize = 3, incstack = 0, save=0
  1396 ;;
  1397 ;; *************** function _main *****************
  1398 ;; Defined at:
  1399 ;;		line 55 in file "lcd.c"
  1400 ;; Parameters:    Size  Location     Type
  1401 ;;		None
  1402 ;; Auto vars:     Size  Location     Type
  1403 ;;  hum             4   15[BANK1 ] float 
  1404 ;;  tem             4   11[BANK1 ] float 
  1405 ;;  intentos        1   10[BANK1 ] unsigned char 
  1406 ;; Return value:  Size  Location     Type
  1407 ;;                  2   38[None  ] int 
  1408 ;; Registers used:
  1409 ;;		wreg, fsr0l, fsr0h, status,2, status,0, pclath, btemp1, cstack
  1410 ;; Tracked objects:
  1411 ;;		On entry : B00/0
  1412 ;;		On exit  : 0/0
  1413 ;;		Unchanged: 0/0
  1414 ;; Data sizes:     COMMON   BANK0   BANK1   BANK3   BANK2
  1415 ;;      Params:         0       0       0       0       0
  1416 ;;      Locals:         0       0       9       0       0
  1417 ;;      Temps:          0       3       0       0       0
  1418 ;;      Totals:         0       3       9       0       0
  1419 ;;Total ram usage:       12 bytes
  1420 ;; Hardware stack levels required when called: 6
  1421 ;; This function calls:
  1422 ;;		_DHT22_init
  1423 ;;		_DHT22_read
  1424 ;;		_I2C_Init_Master
  1425 ;;		_Lcd_Clear
  1426 ;;		_Lcd_Init
  1427 ;;		_Lcd_Set_Cursor
  1428 ;;		_Lcd_Write_Char
  1429 ;;		_Lcd_Write_String
  1430 ;;		_float_to_string_dht22
  1431 ;; This function is called by:
  1432 ;;		Startup code after reset
  1433 ;; This function uses a non-reentrant model
  1434 ;;
  1435                           
  1436     0D57                     _main:	
  1437                           ;psect for function _main
  1438                           
  1439     0D57                     l3233:	
  1440                           ;incstack = 0
  1441                           ; Regs used in _main: [wreg-fsr0h+status,2+status,0+pclath+btemp1+cstack]
  1442                           
  1443                           
  1444                           ;lcd.c: 57:             float_to_string_dht22(tem, buffer_tem);;lcd.c: 58:             f
      +                          loat_to_string_dht22(hum, buffer_hum);
  1445     0D57  1683               	bsf	3,5	;RP0=1, select bank1
  1446     0D58  1303               	bcf	3,6	;RP1=0, select bank1
  1447     0D59  01D4               	clrf	main@intentos^(0+128)
  1448                           
  1449                           ;lcd.c: 61:             _delay((unsigned long)((2)*(20000000/4000.0)));
  1450     0D5A  1683               	bsf	3,5	;RP0=1, select bank3
  1451     0D5B  1703               	bsf	3,6	;RP1=1, select bank3
  1452     0D5C  0188               	clrf	8	;volatile
  1453                           
  1454                           ;lcd.c: 62: 
  1455     0D5D  0189               	clrf	9	;volatile
  1456     0D5E                     l3235:
  1457                           
  1458                           ;lcd.c: 65:             _delay((unsigned long)((50)*(20000000/4000000.0)));
  1459     0D5E  3080               	movlw	128
  1460     0D5F  160A  118A  2667  120A  158A  	fcall	_I2C_Init_Master
  1461     0D64                     l3237:
  1462                           
  1463                           ;lcd.c: 66:             Lcd_Write_String("Temp: ");
  1464     0D64  3003               	movlw	3
  1465     0D65  1283               	bcf	3,5	;RP0=0, select bank0
  1466     0D66  1303               	bcf	3,6	;RP1=0, select bank0
  1467     0D67  00EE               	movwf	??_main+2
  1468     0D68  308A               	movlw	138
  1469     0D69  00ED               	movwf	??_main+1
  1470     0D6A  3055               	movlw	85
  1471     0D6B  00EC               	movwf	??_main
  1472     0D6C                     u4647:
  1473     0D6C  0BEC               	decfsz	??_main,f
  1474     0D6D  2D6C               	goto	u4647
  1475     0D6E  0BED               	decfsz	??_main+1,f
  1476     0D6F  2D6C               	goto	u4647
  1477     0D70  0BEE               	decfsz	??_main+2,f
  1478     0D71  2D6C               	goto	u4647
  1479     0D72                     l3239:
  1480                           
  1481                           ;lcd.c: 68:             Lcd_Write_Char(' ');
  1482     0D72  160A  118A  278A  120A  158A  	fcall	_Lcd_Init
  1483     0D77                     l3241:
  1484                           
  1485                           ;lcd.c: 69:             Lcd_Write_Char('C');
  1486     0D77  3002               	movlw	2
  1487     0D78  1283               	bcf	3,5	;RP0=0, select bank0
  1488     0D79  1303               	bcf	3,6	;RP1=0, select bank0
  1489     0D7A  00EE               	movwf	??_main+2
  1490     0D7B  3045               	movlw	69
  1491     0D7C  00ED               	movwf	??_main+1
  1492     0D7D  30A9               	movlw	169
  1493     0D7E  00EC               	movwf	??_main
  1494     0D7F                     u4657:
  1495     0D7F  0BEC               	decfsz	??_main,f
  1496     0D80  2D7F               	goto	u4657
  1497     0D81  0BED               	decfsz	??_main+1,f
  1498     0D82  2D7F               	goto	u4657
  1499     0D83  0BEE               	decfsz	??_main+2,f
  1500     0D84  2D7F               	goto	u4657
  1501     0D85                     l3243:
  1502                           
  1503                           ;lcd.c: 72:             Lcd_Set_Cursor(1, 2);
  1504     0D85  160A  118A  2606  120A  158A  	fcall	_DHT22_init
  1505     0D8A                     l3245:
  1506                           
  1507                           ;lcd.c: 74:             Lcd_Write_String("Hum : ");
  1508     0D8A  01F6               	clrf	Lcd_Set_Cursor@row
  1509     0D8B  0AF6               	incf	Lcd_Set_Cursor@row,f
  1510     0D8C  3002               	movlw	2
  1511     0D8D  160A  118A  2717  120A  158A  	fcall	_Lcd_Set_Cursor
  1512     0D92                     l3247:
  1513                           
  1514                           ;lcd.c: 75:             Lcd_Write_String(buffer_hum);
  1515     0D92  302E               	movlw	(low ((STR_3-__stringbase)| (0+32768)))& (0+255)
  1516     0D93  00F6               	movwf	Lcd_Write_String@str
  1517     0D94  3080               	movlw	128
  1518     0D95  00F7               	movwf	Lcd_Write_String@str+1
  1519     0D96  160A  118A  273D  120A  158A  	fcall	_Lcd_Write_String
  1520     0D9B                     l3249:
  1521                           
  1522                           ;lcd.c: 76:             Lcd_Write_Char(' ');
  1523     0D9B  3033               	movlw	51
  1524     0D9C  1283               	bcf	3,5	;RP0=0, select bank0
  1525     0D9D  1303               	bcf	3,6	;RP1=0, select bank0
  1526     0D9E  00EE               	movwf	??_main+2
  1527     0D9F  30BB               	movlw	187
  1528     0DA0  00ED               	movwf	??_main+1
  1529     0DA1  30DF               	movlw	223
  1530     0DA2  00EC               	movwf	??_main
  1531     0DA3                     u4667:
  1532     0DA3  0BEC               	decfsz	??_main,f
  1533     0DA4  2DA3               	goto	u4667
  1534     0DA5  0BED               	decfsz	??_main+1,f
  1535     0DA6  2DA3               	goto	u4667
  1536     0DA7  0BEE               	decfsz	??_main+2,f
  1537     0DA8  2DA3               	goto	u4667
  1538     0DA9                     l3251:
  1539                           
  1540                           ;lcd.c: 79:         } else {
  1541     0DA9  30D9               	movlw	(low (main@hum| 0))& (0+255)
  1542     0DAA  1283               	bcf	3,5	;RP0=0, select bank0
  1543     0DAB  1303               	bcf	3,6	;RP1=0, select bank0
  1544     0DAC  00DA               	movwf	DHT22_read@dht_temperatura
  1545     0DAD  30D5               	movlw	(low (main@tem| 0))& (0+255)
  1546     0DAE  00DB               	movwf	DHT22_read@dht_humedad
  1547     0DAF  120A  158A  2695  120A  158A  	fcall	_DHT22_read
  1548     0DB4  3A00               	xorlw	0
  1549     0DB5  1903               	skipnz
  1550     0DB6  2DB8               	goto	u4421
  1551     0DB7  2DB9               	goto	u4420
  1552     0DB8                     u4421:
  1553     0DB8  2E46               	goto	l3287
  1554     0DB9                     u4420:
  1555     0DB9                     l3253:
  1556                           
  1557                           ;lcd.c: 81:             intentos++;
  1558     0DB9  1683               	bsf	3,5	;RP0=1, select bank1
  1559     0DBA  1303               	bcf	3,6	;RP1=0, select bank1
  1560     0DBB  01D4               	clrf	main@intentos^(0+128)
  1561     0DBC                     l3255:
  1562                           
  1563                           ;lcd.c: 83:             Lcd_Clear();
  1564     0DBC  0858               	movf	(main@tem+3)^(0+128),w
  1565     0DBD  00CD               	movwf	(float_to_string_dht22@value+3)^(0+128)
  1566     0DBE  0857               	movf	(main@tem+2)^(0+128),w
  1567     0DBF  00CC               	movwf	(float_to_string_dht22@value+2)^(0+128)
  1568     0DC0  0856               	movf	(main@tem+1)^(0+128),w
  1569     0DC1  00CB               	movwf	(float_to_string_dht22@value+1)^(0+128)
  1570     0DC2  0855               	movf	main@tem^(0+128),w
  1571     0DC3  00CA               	movwf	float_to_string_dht22@value^(0+128)
  1572     0DC4  30BA               	movlw	(low (_buffer_tem| 0))& (0+255)
  1573     0DC5  00CE               	movwf	float_to_string_dht22@buffer^(0+128)
  1574     0DC6  120A  158A  2435  120A  158A  	fcall	_float_to_string_dht22
  1575     0DCB                     l3257:
  1576                           
  1577                           ;lcd.c: 84:             Lcd_Set_Cursor(1,1);
  1578     0DCB  1683               	bsf	3,5	;RP0=1, select bank1
  1579     0DCC  1303               	bcf	3,6	;RP1=0, select bank1
  1580     0DCD  085C               	movf	(main@hum+3)^(0+128),w
  1581     0DCE  00CD               	movwf	(float_to_string_dht22@value+3)^(0+128)
  1582     0DCF  085B               	movf	(main@hum+2)^(0+128),w
  1583     0DD0  00CC               	movwf	(float_to_string_dht22@value+2)^(0+128)
  1584     0DD1  085A               	movf	(main@hum+1)^(0+128),w
  1585     0DD2  00CB               	movwf	(float_to_string_dht22@value+1)^(0+128)
  1586     0DD3  0859               	movf	main@hum^(0+128),w
  1587     0DD4  00CA               	movwf	float_to_string_dht22@value^(0+128)
  1588     0DD5  30AA               	movlw	(low (_buffer_hum| 0))& (0+255)
  1589     0DD6  00CE               	movwf	float_to_string_dht22@buffer^(0+128)
  1590     0DD7  120A  158A  2435  120A  158A  	fcall	_float_to_string_dht22
  1591     0DDC                     l3259:
  1592                           
  1593                           ;lcd.c: 86:             Lcd_Set_Cursor(2,2);
  1594     0DDC  160A  118A  2634  120A  158A  	fcall	_Lcd_Clear
  1595     0DE1                     l3261:
  1596                           
  1597                           ;lcd.c: 87: 
  1598     0DE1  300D               	movlw	13
  1599     0DE2  1283               	bcf	3,5	;RP0=0, select bank0
  1600     0DE3  1303               	bcf	3,6	;RP1=0, select bank0
  1601     0DE4  00ED               	movwf	??_main+1
  1602     0DE5  30FB               	movlw	251
  1603     0DE6  00EC               	movwf	??_main
  1604     0DE7                     u4677:
  1605     0DE7  0BEC               	decfsz	??_main,f
  1606     0DE8  2DE7               	goto	u4677
  1607     0DE9  0BED               	decfsz	??_main+1,f
  1608     0DEA  2DE7               	goto	u4677
  1609     0DEB                     l3263:
  1610                           
  1611                           ;lcd.c: 90:             } else {
  1612     0DEB  01F6               	clrf	Lcd_Set_Cursor@row
  1613     0DEC  0AF6               	incf	Lcd_Set_Cursor@row,f
  1614     0DED  3001               	movlw	1
  1615     0DEE  160A  118A  2717  120A  158A  	fcall	_Lcd_Set_Cursor
  1616     0DF3                     l3265:
  1617                           
  1618                           ;lcd.c: 91:                 Lcd_Write_String(" Check conexion");
  1619     0DF3  3052               	movlw	82
  1620     0DF4  1283               	bcf	3,5	;RP0=0, select bank0
  1621     0DF5  1303               	bcf	3,6	;RP1=0, select bank0
  1622     0DF6  00EC               	movwf	??_main
  1623     0DF7                     u4687:
  1624     0DF7  0BEC               	decfsz	??_main,f
  1625     0DF8  2DF7               	goto	u4687
  1626     0DF9  0000               	nop
  1627     0DFA                     l3267:
  1628                           
  1629                           ;lcd.c: 92:             }
  1630     0DFA  3041               	movlw	(low ((STR_4-__stringbase)| (0+32768)))& (0+255)
  1631     0DFB  00F6               	movwf	Lcd_Write_String@str
  1632     0DFC  3080               	movlw	128
  1633     0DFD  00F7               	movwf	Lcd_Write_String@str+1
  1634     0DFE  160A  118A  273D  120A  158A  	fcall	_Lcd_Write_String
  1635     0E03                     l3269:
  1636                           
  1637                           ;lcd.c: 93:         }
  1638     0E03  30BA               	movlw	(low (_buffer_tem| 0))& (0+255)
  1639     0E04  00F6               	movwf	Lcd_Write_String@str
  1640     0E05  3000               	movlw	0
  1641     0E06  00F7               	movwf	Lcd_Write_String@str+1
  1642     0E07  160A  118A  273D  120A  158A  	fcall	_Lcd_Write_String
  1643     0E0C                     l3271:
  1644                           
  1645                           ;lcd.c: 94: 
  1646     0E0C  3020               	movlw	32
  1647     0E0D  120A  158A  2060  120A  158A  	fcall	_Lcd_Write_Char
  1648     0E12                     l3273:
  1649                           
  1650                           ;lcd.c: 95: 
  1651     0E12  3043               	movlw	67
  1652     0E13  120A  158A  2060  120A  158A  	fcall	_Lcd_Write_Char
  1653     0E18                     l3275:
  1654                           
  1655                           ;lcd.c: 98: 
  1656     0E18  3002               	movlw	2
  1657     0E19  00F6               	movwf	Lcd_Set_Cursor@row
  1658     0E1A  3001               	movlw	1
  1659     0E1B  160A  118A  2717  120A  158A  	fcall	_Lcd_Set_Cursor
  1660     0E20                     l3277:
  1661                           
  1662                           ;lcd.c: 99:     return 0;
  1663     0E20  3052               	movlw	82
  1664     0E21  1283               	bcf	3,5	;RP0=0, select bank0
  1665     0E22  1303               	bcf	3,6	;RP1=0, select bank0
  1666     0E23  00EC               	movwf	??_main
  1667     0E24                     u4697:
  1668     0E24  0BEC               	decfsz	??_main,f
  1669     0E25  2E24               	goto	u4697
  1670     0E26  0000               	nop
  1671     0E27                     l3279:
  1672                           
  1673                           ;lcd.c: 100: }
  1674     0E27  303A               	movlw	(low ((STR_5-__stringbase)| (0+32768)))& (0+255)
  1675     0E28  00F6               	movwf	Lcd_Write_String@str
  1676     0E29  3080               	movlw	128
  1677     0E2A  00F7               	movwf	Lcd_Write_String@str+1
  1678     0E2B  160A  118A  273D  120A  158A  	fcall	_Lcd_Write_String
  1679     0E30                     l3281:
  1680     0E30  30AA               	movlw	(low (_buffer_hum| 0))& (0+255)
  1681     0E31  00F6               	movwf	Lcd_Write_String@str
  1682     0E32  3000               	movlw	0
  1683     0E33  00F7               	movwf	Lcd_Write_String@str+1
  1684     0E34  160A  118A  273D  120A  158A  	fcall	_Lcd_Write_String
  1685     0E39                     l3283:
  1686     0E39  3020               	movlw	32
  1687     0E3A  120A  158A  2060  120A  158A  	fcall	_Lcd_Write_Char
  1688     0E3F                     l3285:
  1689     0E3F  3025               	movlw	37
  1690     0E40  120A  158A  2060  120A  158A  	fcall	_Lcd_Write_Char
  1691     0E45  2E83               	goto	l3303
  1692     0E46                     l3287:
  1693     0E46  3001               	movlw	1
  1694     0E47  1683               	bsf	3,5	;RP0=1, select bank1
  1695     0E48  1303               	bcf	3,6	;RP1=0, select bank1
  1696     0E49  07D4               	addwf	main@intentos^(0+128),f
  1697     0E4A                     l3289:
  1698     0E4A  160A  118A  2634  120A  158A  	fcall	_Lcd_Clear
  1699     0E4F                     l3291:
  1700     0E4F  01F6               	clrf	Lcd_Set_Cursor@row
  1701     0E50  0AF6               	incf	Lcd_Set_Cursor@row,f
  1702     0E51  3001               	movlw	1
  1703     0E52  160A  118A  2717  120A  158A  	fcall	_Lcd_Set_Cursor
  1704     0E57                     l3293:
  1705     0E57  3021               	movlw	(low ((STR_6-__stringbase)| (0+32768)))& (0+255)
  1706     0E58  00F6               	movwf	Lcd_Write_String@str
  1707     0E59  3080               	movlw	128
  1708     0E5A  00F7               	movwf	Lcd_Write_String@str+1
  1709     0E5B  160A  118A  273D  120A  158A  	fcall	_Lcd_Write_String
  1710     0E60                     l3295:
  1711     0E60  3002               	movlw	2
  1712     0E61  00F6               	movwf	Lcd_Set_Cursor@row
  1713     0E62  3002               	movlw	2
  1714     0E63  160A  118A  2717  120A  158A  	fcall	_Lcd_Set_Cursor
  1715     0E68                     l3297:
  1716     0E68  3003               	movlw	3
  1717     0E69  1683               	bsf	3,5	;RP0=1, select bank1
  1718     0E6A  1303               	bcf	3,6	;RP1=0, select bank1
  1719     0E6B  0254               	subwf	main@intentos^(0+128),w
  1720     0E6C  1803               	skipnc
  1721     0E6D  2E6F               	goto	u4431
  1722     0E6E  2E70               	goto	u4430
  1723     0E6F                     u4431:
  1724     0E6F  2E7A               	goto	l3301
  1725     0E70                     u4430:
  1726     0E70                     l3299:
  1727     0E70  3001               	movlw	(low ((STR_7-__stringbase)| (0+32768)))& (0+255)
  1728     0E71  00F6               	movwf	Lcd_Write_String@str
  1729     0E72  3080               	movlw	128
  1730     0E73  00F7               	movwf	Lcd_Write_String@str+1
  1731     0E74  160A  118A  273D  120A  158A  	fcall	_Lcd_Write_String
  1732     0E79  2E83               	goto	l3303
  1733     0E7A                     l3301:
  1734     0E7A  3011               	movlw	(low ((STR_8-__stringbase)| (0+32768)))& (0+255)
  1735     0E7B  00F6               	movwf	Lcd_Write_String@str
  1736     0E7C  3080               	movlw	128
  1737     0E7D  00F7               	movwf	Lcd_Write_String@str+1
  1738     0E7E  160A  118A  273D  120A  158A  	fcall	_Lcd_Write_String
  1739     0E83                     l3303:
  1740     0E83  3040               	movlw	64
  1741     0E84  1283               	bcf	3,5	;RP0=0, select bank0
  1742     0E85  1303               	bcf	3,6	;RP1=0, select bank0
  1743     0E86  00EE               	movwf	??_main+2
  1744     0E87  306A               	movlw	106
  1745     0E88  00ED               	movwf	??_main+1
  1746     0E89  3097               	movlw	151
  1747     0E8A  00EC               	movwf	??_main
  1748     0E8B                     u4707:
  1749     0E8B  0BEC               	decfsz	??_main,f
  1750     0E8C  2E8B               	goto	u4707
  1751     0E8D  0BED               	decfsz	??_main+1,f
  1752     0E8E  2E8B               	goto	u4707
  1753     0E8F  0BEE               	decfsz	??_main+2,f
  1754     0E90  2E8B               	goto	u4707
  1755     0E91  2DA9               	goto	l3251
  1756     0E92  120A  118A  2800   	ljmp	start
  1757     0E95                     __end_of_main:
  1758                           
  1759                           	psect	text1
  1760     0C35                     __ptext1:	
  1761 ;; *************** function _float_to_string_dht22 *****************
  1762 ;; Defined at:
  1763 ;;		line 32 in file "lcd.c"
  1764 ;; Parameters:    Size  Location     Type
  1765 ;;  value           4    0[BANK1 ] float 
  1766 ;;  buffer          1    4[BANK1 ] PTR unsigned char 
  1767 ;;		 -> buffer_hum(16), buffer_tem(16), 
  1768 ;; Auto vars:     Size  Location     Type
  1769 ;;  parte_entera    2    8[BANK1 ] int 
  1770 ;;  parte_decima    2    6[BANK1 ] int 
  1771 ;;  negativo        1    5[BANK1 ] _Bool 
  1772 ;; Return value:  Size  Location     Type
  1773 ;;                  1    wreg      void 
  1774 ;; Registers used:
  1775 ;;		wreg, fsr0l, fsr0h, status,2, status,0, pclath, btemp1, cstack
  1776 ;; Tracked objects:
  1777 ;;		On entry : 0/0
  1778 ;;		On exit  : 0/0
  1779 ;;		Unchanged: 0/0
  1780 ;; Data sizes:     COMMON   BANK0   BANK1   BANK3   BANK2
  1781 ;;      Params:         0       0       5       0       0
  1782 ;;      Locals:         0       0       5       0       0
  1783 ;;      Temps:          0       0       0       0       0
  1784 ;;      Totals:         0       0      10       0       0
  1785 ;;Total ram usage:       10 bytes
  1786 ;; Hardware stack levels used: 1
  1787 ;; Hardware stack levels required when called: 5
  1788 ;; This function calls:
  1789 ;;		___flge
  1790 ;;		___flmul
  1791 ;;		___flneg
  1792 ;;		___flsub
  1793 ;;		___fltol
  1794 ;;		___wmul
  1795 ;;		___xxtofl
  1796 ;;		_sprintf
  1797 ;; This function is called by:
  1798 ;;		_main
  1799 ;; This function uses a non-reentrant model
  1800 ;;
  1801                           
  1802     0C35                     _float_to_string_dht22:	
  1803                           ;psect for function _float_to_string_dht22
  1804                           
  1805     0C35                     l3079:	
  1806                           ;incstack = 0
  1807                           ; Regs used in _float_to_string_dht22: [wreg-fsr0h+status,2+status,0+pclath+btemp1+cstac
      +                          k]
  1808                           
  1809                           
  1810                           ;lcd.c: 33: ;lcd.c: 34: ;lcd.c: 37: 
  1811     0C35  1683               	bsf	3,5	;RP0=1, select bank1
  1812     0C36  1303               	bcf	3,6	;RP1=0, select bank1
  1813     0C37  01CF               	clrf	float_to_string_dht22@negativo^(0+128)
  1814     0C38                     l3081:
  1815                           
  1816                           ;lcd.c: 38: 
  1817     0C38  084D               	movf	(float_to_string_dht22@value+3)^(0+128),w
  1818     0C39  00F3               	movwf	___flge@ff1+3
  1819     0C3A  084C               	movf	(float_to_string_dht22@value+2)^(0+128),w
  1820     0C3B  00F2               	movwf	___flge@ff1+2
  1821     0C3C  084B               	movf	(float_to_string_dht22@value+1)^(0+128),w
  1822     0C3D  00F1               	movwf	___flge@ff1+1
  1823     0C3E  084A               	movf	float_to_string_dht22@value^(0+128),w
  1824     0C3F  00F0               	movwf	___flge@ff1
  1825     0C40  3000               	movlw	0
  1826     0C41  00F7               	movwf	___flge@ff2+3
  1827     0C42  3000               	movlw	0
  1828     0C43  00F6               	movwf	___flge@ff2+2
  1829     0C44  3000               	movlw	0
  1830     0C45  00F5               	movwf	___flge@ff2+1
  1831     0C46  3000               	movlw	0
  1832     0C47  00F4               	movwf	___flge@ff2
  1833     0C48  120A  158A  21F3  120A  158A  	fcall	___flge
  1834     0C4D  1803               	btfsc	3,0
  1835     0C4E  2C50               	goto	u4271
  1836     0C4F  2C51               	goto	u4270
  1837     0C50                     u4271:
  1838     0C50  2C6C               	goto	l3087
  1839     0C51                     u4270:
  1840     0C51                     l3083:
  1841                           
  1842                           ;lcd.c: 39:     I2C_Init_Master(0x80);
  1843     0C51  3001               	movlw	1
  1844     0C52  1683               	bsf	3,5	;RP0=1, select bank1
  1845     0C53  1303               	bcf	3,6	;RP1=0, select bank1
  1846     0C54  00CF               	movwf	float_to_string_dht22@negativo^(0+128)
  1847     0C55                     l3085:
  1848                           
  1849                           ;lcd.c: 40:     _delay((unsigned long)((100)*(20000000/4000.0)));
  1850     0C55  084D               	movf	(float_to_string_dht22@value+3)^(0+128),w
  1851     0C56  00F3               	movwf	___flneg@f1+3
  1852     0C57  084C               	movf	(float_to_string_dht22@value+2)^(0+128),w
  1853     0C58  00F2               	movwf	___flneg@f1+2
  1854     0C59  084B               	movf	(float_to_string_dht22@value+1)^(0+128),w
  1855     0C5A  00F1               	movwf	___flneg@f1+1
  1856     0C5B  084A               	movf	float_to_string_dht22@value^(0+128),w
  1857     0C5C  00F0               	movwf	___flneg@f1
  1858     0C5D  160A  118A  2629  120A  158A  	fcall	___flneg
  1859     0C62  0873               	movf	?___flneg+3,w
  1860     0C63  1683               	bsf	3,5	;RP0=1, select bank1
  1861     0C64  1303               	bcf	3,6	;RP1=0, select bank1
  1862     0C65  00CD               	movwf	(float_to_string_dht22@value+3)^(0+128)
  1863     0C66  0872               	movf	?___flneg+2,w
  1864     0C67  00CC               	movwf	(float_to_string_dht22@value+2)^(0+128)
  1865     0C68  0871               	movf	?___flneg+1,w
  1866     0C69  00CB               	movwf	(float_to_string_dht22@value+1)^(0+128)
  1867     0C6A  0870               	movf	?___flneg,w
  1868     0C6B  00CA               	movwf	float_to_string_dht22@value^(0+128)
  1869     0C6C                     l3087:
  1870                           
  1871                           ;lcd.c: 43:     _delay((unsigned long)((50)*(20000000/4000.0)));
  1872     0C6C  1683               	bsf	3,5	;RP0=1, select bank1
  1873     0C6D  1303               	bcf	3,6	;RP1=0, select bank1
  1874     0C6E  084D               	movf	(float_to_string_dht22@value+3)^(0+128),w
  1875     0C6F  1283               	bcf	3,5	;RP0=0, select bank0
  1876     0C70  1303               	bcf	3,6	;RP1=0, select bank0
  1877     0C71  00E5               	movwf	___fltol@f1+3
  1878     0C72  1683               	bsf	3,5	;RP0=1, select bank1
  1879     0C73  1303               	bcf	3,6	;RP1=0, select bank1
  1880     0C74  084C               	movf	(float_to_string_dht22@value+2)^(0+128),w
  1881     0C75  1283               	bcf	3,5	;RP0=0, select bank0
  1882     0C76  1303               	bcf	3,6	;RP1=0, select bank0
  1883     0C77  00E4               	movwf	___fltol@f1+2
  1884     0C78  1683               	bsf	3,5	;RP0=1, select bank1
  1885     0C79  1303               	bcf	3,6	;RP1=0, select bank1
  1886     0C7A  084B               	movf	(float_to_string_dht22@value+1)^(0+128),w
  1887     0C7B  1283               	bcf	3,5	;RP0=0, select bank0
  1888     0C7C  1303               	bcf	3,6	;RP1=0, select bank0
  1889     0C7D  00E3               	movwf	___fltol@f1+1
  1890     0C7E  1683               	bsf	3,5	;RP0=1, select bank1
  1891     0C7F  1303               	bcf	3,6	;RP1=0, select bank1
  1892     0C80  084A               	movf	float_to_string_dht22@value^(0+128),w
  1893     0C81  1283               	bcf	3,5	;RP0=0, select bank0
  1894     0C82  1303               	bcf	3,6	;RP1=0, select bank0
  1895     0C83  00E2               	movwf	___fltol@f1
  1896     0C84  120A  118A  2009  120A  158A  	fcall	___fltol
  1897     0C89  1283               	bcf	3,5	;RP0=0, select bank0
  1898     0C8A  1303               	bcf	3,6	;RP1=0, select bank0
  1899     0C8B  0863               	movf	?___fltol+1,w
  1900     0C8C  1683               	bsf	3,5	;RP0=1, select bank1
  1901     0C8D  1303               	bcf	3,6	;RP1=0, select bank1
  1902     0C8E  00D3               	movwf	(float_to_string_dht22@parte_entera+1)^(0+128)
  1903     0C8F  1283               	bcf	3,5	;RP0=0, select bank0
  1904     0C90  1303               	bcf	3,6	;RP1=0, select bank0
  1905     0C91  0862               	movf	?___fltol,w
  1906     0C92  1683               	bsf	3,5	;RP0=1, select bank1
  1907     0C93  1303               	bcf	3,6	;RP1=0, select bank1
  1908     0C94  00D2               	movwf	float_to_string_dht22@parte_entera^(0+128)
  1909     0C95                     l3089:
  1910                           
  1911                           ;lcd.c: 46:     DHT22_init();
  1912     0C95  084D               	movf	(float_to_string_dht22@value+3)^(0+128),w
  1913     0C96  1283               	bcf	3,5	;RP0=0, select bank0
  1914     0C97  1303               	bcf	3,6	;RP1=0, select bank0
  1915     0C98  00C7               	movwf	___flmul@a+3
  1916     0C99  1683               	bsf	3,5	;RP0=1, select bank1
  1917     0C9A  1303               	bcf	3,6	;RP1=0, select bank1
  1918     0C9B  084C               	movf	(float_to_string_dht22@value+2)^(0+128),w
  1919     0C9C  1283               	bcf	3,5	;RP0=0, select bank0
  1920     0C9D  1303               	bcf	3,6	;RP1=0, select bank0
  1921     0C9E  00C6               	movwf	___flmul@a+2
  1922     0C9F  1683               	bsf	3,5	;RP0=1, select bank1
  1923     0CA0  1303               	bcf	3,6	;RP1=0, select bank1
  1924     0CA1  084B               	movf	(float_to_string_dht22@value+1)^(0+128),w
  1925     0CA2  1283               	bcf	3,5	;RP0=0, select bank0
  1926     0CA3  1303               	bcf	3,6	;RP1=0, select bank0
  1927     0CA4  00C5               	movwf	___flmul@a+1
  1928     0CA5  1683               	bsf	3,5	;RP0=1, select bank1
  1929     0CA6  1303               	bcf	3,6	;RP1=0, select bank1
  1930     0CA7  084A               	movf	float_to_string_dht22@value^(0+128),w
  1931     0CA8  1283               	bcf	3,5	;RP0=0, select bank0
  1932     0CA9  1303               	bcf	3,6	;RP1=0, select bank0
  1933     0CAA  00C4               	movwf	___flmul@a
  1934     0CAB  3041               	movlw	65
  1935     0CAC  00C3               	movwf	___flmul@b+3
  1936     0CAD  3020               	movlw	32
  1937     0CAE  00C2               	movwf	___flmul@b+2
  1938     0CAF  3000               	movlw	0
  1939     0CB0  00C1               	movwf	___flmul@b+1
  1940     0CB1  3000               	movlw	0
  1941     0CB2  00C0               	movwf	___flmul@b
  1942     0CB3  120A  118A  24A5  120A  158A  	fcall	___flmul
  1943     0CB8  1283               	bcf	3,5	;RP0=0, select bank0
  1944     0CB9  1303               	bcf	3,6	;RP1=0, select bank0
  1945     0CBA  0843               	movf	?___flmul+3,w
  1946     0CBB  00E1               	movwf	___flsub@b+3
  1947     0CBC  0842               	movf	?___flmul+2,w
  1948     0CBD  00E0               	movwf	___flsub@b+2
  1949     0CBE  0841               	movf	?___flmul+1,w
  1950     0CBF  00DF               	movwf	___flsub@b+1
  1951     0CC0  0840               	movf	?___flmul,w
  1952     0CC1  00DE               	movwf	___flsub@b
  1953     0CC2  300A               	movlw	10
  1954     0CC3  00F2               	movwf	___wmul@multiplicand
  1955     0CC4  3000               	movlw	0
  1956     0CC5  00F3               	movwf	___wmul@multiplicand+1
  1957     0CC6  1683               	bsf	3,5	;RP0=1, select bank1
  1958     0CC7  1303               	bcf	3,6	;RP1=0, select bank1
  1959     0CC8  0853               	movf	(float_to_string_dht22@parte_entera+1)^(0+128),w
  1960     0CC9  00F1               	movwf	___wmul@multiplier+1
  1961     0CCA  0852               	movf	float_to_string_dht22@parte_entera^(0+128),w
  1962     0CCB  00F0               	movwf	___wmul@multiplier
  1963     0CCC  160A  118A  26CD  120A  158A  	fcall	___wmul
  1964     0CD1  0870               	movf	?___wmul,w
  1965     0CD2  00F6               	movwf	___xxtofl@val
  1966     0CD3  0871               	movf	?___wmul+1,w
  1967     0CD4  00F7               	movwf	___xxtofl@val+1
  1968     0CD5  3000               	movlw	0
  1969     0CD6  1BF7               	btfsc	___xxtofl@val+1,7
  1970     0CD7  30FF               	movlw	255
  1971     0CD8  00F8               	movwf	___xxtofl@val+2
  1972     0CD9  00F9               	movwf	___xxtofl@val+3
  1973     0CDA  3001               	movlw	1
  1974     0CDB  120A  158A  2295  120A  158A  	fcall	___xxtofl
  1975     0CE0  0879               	movf	?___xxtofl+3,w
  1976     0CE1  1283               	bcf	3,5	;RP0=0, select bank0
  1977     0CE2  1303               	bcf	3,6	;RP1=0, select bank0
  1978     0CE3  00DD               	movwf	___flsub@a+3
  1979     0CE4  0878               	movf	?___xxtofl+2,w
  1980     0CE5  00DC               	movwf	___flsub@a+2
  1981     0CE6  0877               	movf	?___xxtofl+1,w
  1982     0CE7  00DB               	movwf	___flsub@a+1
  1983     0CE8  0876               	movf	?___xxtofl,w
  1984     0CE9  00DA               	movwf	___flsub@a
  1985     0CEA  160A  118A  26A9  120A  158A  	fcall	___flsub
  1986     0CEF  1283               	bcf	3,5	;RP0=0, select bank0
  1987     0CF0  1303               	bcf	3,6	;RP1=0, select bank0
  1988     0CF1  085D               	movf	?___flsub+3,w
  1989     0CF2  00E5               	movwf	___fltol@f1+3
  1990     0CF3  085C               	movf	?___flsub+2,w
  1991     0CF4  00E4               	movwf	___fltol@f1+2
  1992     0CF5  085B               	movf	?___flsub+1,w
  1993     0CF6  00E3               	movwf	___fltol@f1+1
  1994     0CF7  085A               	movf	?___flsub,w
  1995     0CF8  00E2               	movwf	___fltol@f1
  1996     0CF9  120A  118A  2009  120A  158A  	fcall	___fltol
  1997     0CFE  1283               	bcf	3,5	;RP0=0, select bank0
  1998     0CFF  1303               	bcf	3,6	;RP1=0, select bank0
  1999     0D00  0863               	movf	?___fltol+1,w
  2000     0D01  1683               	bsf	3,5	;RP0=1, select bank1
  2001     0D02  1303               	bcf	3,6	;RP1=0, select bank1
  2002     0D03  00D1               	movwf	(float_to_string_dht22@parte_decimal+1)^(0+128)
  2003     0D04  1283               	bcf	3,5	;RP0=0, select bank0
  2004     0D05  1303               	bcf	3,6	;RP1=0, select bank0
  2005     0D06  0862               	movf	?___fltol,w
  2006     0D07  1683               	bsf	3,5	;RP0=1, select bank1
  2007     0D08  1303               	bcf	3,6	;RP1=0, select bank1
  2008     0D09  00D0               	movwf	float_to_string_dht22@parte_decimal^(0+128)
  2009     0D0A                     l3091:
  2010                           
  2011                           ;lcd.c: 48:     Lcd_Set_Cursor(2,1);
  2012     0D0A  084F               	movf	float_to_string_dht22@negativo^(0+128),w
  2013     0D0B  1903               	btfsc	3,2
  2014     0D0C  2D0E               	goto	u4281
  2015     0D0D  2D0F               	goto	u4280
  2016     0D0E                     u4281:
  2017     0D0E  2D33               	goto	l3095
  2018     0D0F                     u4280:
  2019     0D0F                     l3093:
  2020                           
  2021                           ;lcd.c: 49:     Lcd_Write_String(" Hold on...");
  2022     0D0F  084E               	movf	float_to_string_dht22@buffer^(0+128),w
  2023     0D10  1283               	bcf	3,5	;RP0=0, select bank0
  2024     0D11  1303               	bcf	3,6	;RP1=0, select bank0
  2025     0D12  00B1               	movwf	sprintf@s
  2026     0D13  3048               	movlw	(low ((STR_1-__stringbase)| (0+32768)))& (0+255)
  2027     0D14  00B2               	movwf	sprintf@fmt
  2028     0D15  1683               	bsf	3,5	;RP0=1, select bank1
  2029     0D16  1303               	bcf	3,6	;RP1=0, select bank1
  2030     0D17  0853               	movf	(float_to_string_dht22@parte_entera+1)^(0+128),w
  2031     0D18  1283               	bcf	3,5	;RP0=0, select bank0
  2032     0D19  1303               	bcf	3,6	;RP1=0, select bank0
  2033     0D1A  00B4               	movwf	?_sprintf+3
  2034     0D1B  1683               	bsf	3,5	;RP0=1, select bank1
  2035     0D1C  1303               	bcf	3,6	;RP1=0, select bank1
  2036     0D1D  0852               	movf	float_to_string_dht22@parte_entera^(0+128),w
  2037     0D1E  1283               	bcf	3,5	;RP0=0, select bank0
  2038     0D1F  1303               	bcf	3,6	;RP1=0, select bank0
  2039     0D20  00B3               	movwf	?_sprintf+2
  2040     0D21  1683               	bsf	3,5	;RP0=1, select bank1
  2041     0D22  1303               	bcf	3,6	;RP1=0, select bank1
  2042     0D23  0851               	movf	(float_to_string_dht22@parte_decimal+1)^(0+128),w
  2043     0D24  1283               	bcf	3,5	;RP0=0, select bank0
  2044     0D25  1303               	bcf	3,6	;RP1=0, select bank0
  2045     0D26  00B6               	movwf	?_sprintf+5
  2046     0D27  1683               	bsf	3,5	;RP0=1, select bank1
  2047     0D28  1303               	bcf	3,6	;RP1=0, select bank1
  2048     0D29  0850               	movf	float_to_string_dht22@parte_decimal^(0+128),w
  2049     0D2A  1283               	bcf	3,5	;RP0=0, select bank0
  2050     0D2B  1303               	bcf	3,6	;RP1=0, select bank0
  2051     0D2C  00B5               	movwf	?_sprintf+4
  2052     0D2D  160A  118A  2686  120A  158A  	fcall	_sprintf
  2053                           
  2054                           ;lcd.c: 50:     _delay((unsigned long)((2000)*(20000000/4000.0)));
  2055     0D32  2D56               	goto	l34
  2056     0D33                     l3095:
  2057                           
  2058                           ;lcd.c: 51: 
  2059     0D33  084E               	movf	float_to_string_dht22@buffer^(0+128),w
  2060     0D34  1283               	bcf	3,5	;RP0=0, select bank0
  2061     0D35  1303               	bcf	3,6	;RP1=0, select bank0
  2062     0D36  00B1               	movwf	sprintf@s
  2063     0D37  3049               	movlw	(low (((STR_1+1)-__stringbase)| (0+32768)))& (0+255)
  2064     0D38  00B2               	movwf	sprintf@fmt
  2065     0D39  1683               	bsf	3,5	;RP0=1, select bank1
  2066     0D3A  1303               	bcf	3,6	;RP1=0, select bank1
  2067     0D3B  0853               	movf	(float_to_string_dht22@parte_entera+1)^(0+128),w
  2068     0D3C  1283               	bcf	3,5	;RP0=0, select bank0
  2069     0D3D  1303               	bcf	3,6	;RP1=0, select bank0
  2070     0D3E  00B4               	movwf	?_sprintf+3
  2071     0D3F  1683               	bsf	3,5	;RP0=1, select bank1
  2072     0D40  1303               	bcf	3,6	;RP1=0, select bank1
  2073     0D41  0852               	movf	float_to_string_dht22@parte_entera^(0+128),w
  2074     0D42  1283               	bcf	3,5	;RP0=0, select bank0
  2075     0D43  1303               	bcf	3,6	;RP1=0, select bank0
  2076     0D44  00B3               	movwf	?_sprintf+2
  2077     0D45  1683               	bsf	3,5	;RP0=1, select bank1
  2078     0D46  1303               	bcf	3,6	;RP1=0, select bank1
  2079     0D47  0851               	movf	(float_to_string_dht22@parte_decimal+1)^(0+128),w
  2080     0D48  1283               	bcf	3,5	;RP0=0, select bank0
  2081     0D49  1303               	bcf	3,6	;RP1=0, select bank0
  2082     0D4A  00B6               	movwf	?_sprintf+5
  2083     0D4B  1683               	bsf	3,5	;RP0=1, select bank1
  2084     0D4C  1303               	bcf	3,6	;RP1=0, select bank1
  2085     0D4D  0850               	movf	float_to_string_dht22@parte_decimal^(0+128),w
  2086     0D4E  1283               	bcf	3,5	;RP0=0, select bank0
  2087     0D4F  1303               	bcf	3,6	;RP1=0, select bank0
  2088     0D50  00B5               	movwf	?_sprintf+4
  2089     0D51  160A  118A  2686  120A  158A  	fcall	_sprintf
  2090     0D56                     l34:
  2091     0D56  0008               	return
  2092     0D57                     __end_of_float_to_string_dht22:
  2093                           
  2094                           	psect	text2
  2095     1686                     __ptext2:	
  2096 ;; *************** function _sprintf *****************
  2097 ;; Defined at:
  2098 ;;		line 9 in file "C:\Program Files\Microchip\xc8\v3.10\pic\sources\c99\common\nf_sprintf.c"
  2099 ;; Parameters:    Size  Location     Type
  2100 ;;  s               1   17[BANK0 ] PTR unsigned char 
  2101 ;;		 -> buffer_hum(16), buffer_tem(16), 
  2102 ;;  fmt             1   18[BANK0 ] PTR const unsigned char 
  2103 ;;		 -> STR_2(6), STR_1(7), 
  2104 ;; Auto vars:     Size  Location     Type
  2105 ;;  f              11   25[BANK0 ] struct _IO_FILE
  2106 ;;  ret             2    0        int 
  2107 ;;  ap              1   24[BANK0 ] PTR void [1]
  2108 ;;		 -> ?_sprintf(2), 
  2109 ;; Return value:  Size  Location     Type
  2110 ;;                  2   17[BANK0 ] int 
  2111 ;; Registers used:
  2112 ;;		wreg, fsr0l, fsr0h, status,2, status,0, pclath, btemp1, cstack
  2113 ;; Tracked objects:
  2114 ;;		On entry : 0/0
  2115 ;;		On exit  : 0/0
  2116 ;;		Unchanged: 0/0
  2117 ;; Data sizes:     COMMON   BANK0   BANK1   BANK3   BANK2
  2118 ;;      Params:         0       6       0       0       0
  2119 ;;      Locals:         0      12       0       0       0
  2120 ;;      Temps:          0       1       0       0       0
  2121 ;;      Totals:         0      19       0       0       0
  2122 ;;Total ram usage:       19 bytes
  2123 ;; Hardware stack levels used: 1
  2124 ;; Hardware stack levels required when called: 4
  2125 ;; This function calls:
  2126 ;;		_vfprintf
  2127 ;; This function is called by:
  2128 ;;		_float_to_string_dht22
  2129 ;; This function uses a non-reentrant model
  2130 ;;
  2131                           
  2132     1686                     _sprintf:	
  2133                           ;psect for function _sprintf
  2134                           
  2135     1686                     l2609:	
  2136                           ;incstack = 0
  2137                           ; Regs used in _sprintf: [wreg-fsr0h+status,2+status,0+pclath+btemp1+cstack]
  2138                           
  2139     1686  3033               	movlw	(low ((?_sprintf| 0+2)))& (0+255)
  2140     1687  1283               	bcf	3,5	;RP0=0, select bank0
  2141     1688  1303               	bcf	3,6	;RP1=0, select bank0
  2142     1689  00B8               	movwf	sprintf@ap
  2143     168A                     l2611:
  2144     168A  0831               	movf	sprintf@s,w
  2145     168B  00B9               	movwf	sprintf@f
  2146     168C  3000               	movlw	0
  2147     168D  00BA               	movwf	sprintf@f+1
  2148     168E                     l2613:
  2149     168E  01BB               	clrf	sprintf@f+2
  2150     168F  01BC               	clrf	sprintf@f+3
  2151     1690                     l2615:
  2152     1690  01C2               	clrf	sprintf@f+9
  2153     1691  01C3               	clrf	sprintf@f+10
  2154     1692                     l2617:
  2155     1692  3039               	movlw	low sprintf@f
  2156     1693  00AD               	movwf	vfprintf@fp
  2157     1694  3000               	movlw	high sprintf@f
  2158     1695  00AE               	movwf	vfprintf@fp+1
  2159     1696  0832               	movf	sprintf@fmt,w
  2160     1697  00AF               	movwf	vfprintf@fmt
  2161     1698  3038               	movlw	(low (sprintf@ap| 0))& (0+255)
  2162     1699  00B0               	movwf	vfprintf@ap
  2163     169A  160A  118A  26F2  160A  118A  	fcall	_vfprintf
  2164     169F                     l2619:
  2165     169F  1283               	bcf	3,5	;RP0=0, select bank0
  2166     16A0  1303               	bcf	3,6	;RP1=0, select bank0
  2167     16A1  083B               	movf	sprintf@f+2,w
  2168     16A2  0731               	addwf	sprintf@s,w
  2169     16A3  00B7               	movwf	??_sprintf
  2170     16A4  0837               	movf	??_sprintf,w
  2171     16A5  0084               	movwf	4
  2172     16A6  1383               	bcf	3,7	;select IRP bank0
  2173     16A7  0180               	clrf	0
  2174     16A8                     l841:
  2175     16A8  0008               	return
  2176     16A9                     __end_of_sprintf:
  2177                           
  2178                           	psect	text3
  2179     16F2                     __ptext3:	
  2180 ;; *************** function _vfprintf *****************
  2181 ;; Defined at:
  2182 ;;		line 1817 in file "C:\Program Files\Microchip\xc8\v3.10\pic\sources\c99\common\doprnt.c"
  2183 ;; Parameters:    Size  Location     Type
  2184 ;;  fp              2   13[BANK0 ] PTR struct _IO_FILE
  2185 ;;		 -> sprintf@f(11), 
  2186 ;;  fmt             1   15[BANK0 ] PTR const unsigned char 
  2187 ;;		 -> STR_2(6), STR_1(7), 
  2188 ;;  ap              1   16[BANK0 ] PTR PTR void 
  2189 ;;		 -> sprintf@ap(1), 
  2190 ;; Auto vars:     Size  Location     Type
  2191 ;;  cfmt            1   13[COMMON] PTR unsigned char 
  2192 ;;		 -> STR_2(6), STR_1(7), 
  2193 ;; Return value:  Size  Location     Type
  2194 ;;                  2   13[BANK0 ] int 
  2195 ;; Registers used:
  2196 ;;		wreg, fsr0l, fsr0h, status,2, status,0, pclath, btemp1, cstack
  2197 ;; Tracked objects:
  2198 ;;		On entry : 0/0
  2199 ;;		On exit  : 0/0
  2200 ;;		Unchanged: 0/0
  2201 ;; Data sizes:     COMMON   BANK0   BANK1   BANK3   BANK2
  2202 ;;      Params:         0       4       0       0       0
  2203 ;;      Locals:         1       0       0       0       0
  2204 ;;      Temps:          0       0       0       0       0
  2205 ;;      Totals:         1       4       0       0       0
  2206 ;;Total ram usage:        5 bytes
  2207 ;; Hardware stack levels used: 1
  2208 ;; Hardware stack levels required when called: 3
  2209 ;; This function calls:
  2210 ;;		_vfpfcnvrt
  2211 ;; This function is called by:
  2212 ;;		_sprintf
  2213 ;; This function uses a non-reentrant model
  2214 ;;
  2215                           
  2216     16F2                     _vfprintf:	
  2217                           ;psect for function _vfprintf
  2218                           
  2219     16F2                     l2599:	
  2220                           ;incstack = 0
  2221                           ; Regs used in _vfprintf: [wreg-fsr0h+status,2+status,0+pclath+btemp1+cstack]
  2222                           
  2223                           
  2224                           ;C:\Program Files\Microchip\xc8\v3.10\pic\sources\c99\common\doprnt.c: 1817: int vfprint
      +                          f(FILE *fp, const char *fmt, va_list ap);C:\Program Files\Microchip\xc8\v3.10\pic\source
      +                          s\c99\common\doprnt.c: 1818: {;C:\Program Files\Microchip\xc8\v3.10\pic\sources\c99\comm
      +                          on\doprnt.c: 1820:     char *cfmt;;C:\Program Files\Microchip\xc8\v3.10\pic\sources\c99\
      +                          common\doprnt.c: 1822:     cfmt = (char *)fmt;
  2225     16F2  1283               	bcf	3,5	;RP0=0, select bank0
  2226     16F3  1303               	bcf	3,6	;RP1=0, select bank0
  2227     16F4  082F               	movf	vfprintf@fmt,w
  2228     16F5  00FD               	movwf	vfprintf@cfmt
  2229                           
  2230                           ;C:\Program Files\Microchip\xc8\v3.10\pic\sources\c99\common\doprnt.c: 1826:     while (
      +                          *cfmt) {
  2231     16F6  2F06               	goto	l2603
  2232     16F7                     l2601:
  2233                           
  2234                           ;C:\Program Files\Microchip\xc8\v3.10\pic\sources\c99\common\doprnt.c: 1830:    vfpfcnvr
      +                          t(fp, &cfmt, ap);
  2235     16F7  1283               	bcf	3,5	;RP0=0, select bank0
  2236     16F8  1303               	bcf	3,6	;RP1=0, select bank0
  2237     16F9  082D               	movf	vfprintf@fp,w
  2238     16FA  00A0               	movwf	vfpfcnvrt@fp
  2239     16FB  082E               	movf	vfprintf@fp+1,w
  2240     16FC  00A1               	movwf	vfpfcnvrt@fp+1
  2241     16FD  307D               	movlw	(low (vfprintf@cfmt| 0))& (0+255)
  2242     16FE  00A2               	movwf	vfpfcnvrt@fmt
  2243     16FF  0830               	movf	vfprintf@ap,w
  2244     1700  00A3               	movwf	vfpfcnvrt@ap
  2245     1701  120A  158A  234B  160A  118A  	fcall	_vfpfcnvrt
  2246     1706                     l2603:
  2247                           
  2248                           ;C:\Program Files\Microchip\xc8\v3.10\pic\sources\c99\common\doprnt.c: 1826:     while (
      +                          *cfmt) {
  2249     1706  087D               	movf	vfprintf@cfmt,w
  2250     1707  0084               	movwf	4
  2251     1708  120A  158A  200A  160A  118A  	fcall	stringdir
  2252     170D  3A00               	xorlw	0
  2253     170E  1D03               	skipz
  2254     170F  2F11               	goto	u3221
  2255     1710  2F12               	goto	u3220
  2256     1711                     u3221:
  2257     1711  2EF7               	goto	l2601
  2258     1712                     u3220:
  2259     1712                     l2605:
  2260                           
  2261                           ;C:\Program Files\Microchip\xc8\v3.10\pic\sources\c99\common\doprnt.c: 1835:  return 0;
  2262     1712  1283               	bcf	3,5	;RP0=0, select bank0
  2263     1713  1303               	bcf	3,6	;RP1=0, select bank0
  2264     1714  01AD               	clrf	?_vfprintf
  2265     1715  01AE               	clrf	?_vfprintf+1
  2266     1716                     l885:
  2267     1716  0008               	return
  2268     1717                     __end_of_vfprintf:
  2269                           
  2270                           	psect	text4
  2271     0B4B                     __ptext4:	
  2272 ;; *************** function _vfpfcnvrt *****************
  2273 ;; Defined at:
  2274 ;;		line 1177 in file "C:\Program Files\Microchip\xc8\v3.10\pic\sources\c99\common\doprnt.c"
  2275 ;; Parameters:    Size  Location     Type
  2276 ;;  fp              2    0[BANK0 ] PTR struct _IO_FILE
  2277 ;;		 -> sprintf@f(11), 
  2278 ;;  fmt             1    2[BANK0 ] PTR PTR unsigned char 
  2279 ;;		 -> vfprintf@cfmt(1), 
  2280 ;;  ap              1    3[BANK0 ] PTR PTR void 
  2281 ;;		 -> sprintf@ap(1), 
  2282 ;; Auto vars:     Size  Location     Type
  2283 ;;  convarg         4    8[BANK0 ] struct .
  2284 ;;  c               1   12[BANK0 ] unsigned char 
  2285 ;;  cp              1    7[BANK0 ] PTR unsigned char 
  2286 ;;		 -> STR_2(6), STR_1(7), 
  2287 ;;  done            1    6[BANK0 ] _Bool 
  2288 ;; Return value:  Size  Location     Type
  2289 ;;                  1    wreg      void 
  2290 ;; Registers used:
  2291 ;;		wreg, fsr0l, fsr0h, status,2, status,0, pclath, btemp1, cstack
  2292 ;; Tracked objects:
  2293 ;;		On entry : 0/0
  2294 ;;		On exit  : 0/0
  2295 ;;		Unchanged: 0/0
  2296 ;; Data sizes:     COMMON   BANK0   BANK1   BANK3   BANK2
  2297 ;;      Params:         0       4       0       0       0
  2298 ;;      Locals:         0       7       0       0       0
  2299 ;;      Temps:          0       2       0       0       0
  2300 ;;      Totals:         0      13       0       0       0
  2301 ;;Total ram usage:       13 bytes
  2302 ;; Hardware stack levels used: 1
  2303 ;; Hardware stack levels required when called: 2
  2304 ;; This function calls:
  2305 ;;		___awdiv
  2306 ;;		___awmod
  2307 ;;		_abs
  2308 ;;		_fputc
  2309 ;; This function is called by:
  2310 ;;		_vfprintf
  2311 ;; This function uses a non-reentrant model
  2312 ;;
  2313                           
  2314     0B4B                     _vfpfcnvrt:	
  2315                           ;psect for function _vfpfcnvrt
  2316                           
  2317     0B4B                     l2325:	
  2318                           ;incstack = 0
  2319                           ; Regs used in _vfpfcnvrt: [wreg-fsr0h+status,2+status,0+pclath+btemp1+cstack]
  2320                           
  2321                           
  2322                           ;C:\Program Files\Microchip\xc8\v3.10\pic\sources\c99\common\doprnt.c: 1177: vfpfcnvrt(F
      +                          ILE *fp, char *fmt[], va_list ap);C:\Program Files\Microchip\xc8\v3.10\pic\sources\c99\c
      +                          ommon\doprnt.c: 1178: {;C:\Program Files\Microchip\xc8\v3.10\pic\sources\c99\common\dopr
      +                          nt.c: 1179:     char c, *cp;;C:\Program Files\Microchip\xc8\v3.10\pic\sources\c99\common
      +                          \doprnt.c: 1180:     _Bool done;;C:\Program Files\Microchip\xc8\v3.10\pic\sources\c99\co
      +                          mmon\doprnt.c: 1188:  } convarg;;C:\Program Files\Microchip\xc8\v3.10\pic\sources\c99\co
      +                          mmon\doprnt.c: 1201:     if ((*fmt)[0] == '%') {
  2323     0B4B  1283               	bcf	3,5	;RP0=0, select bank0
  2324     0B4C  1303               	bcf	3,6	;RP1=0, select bank0
  2325     0B4D  0822               	movf	vfpfcnvrt@fmt,w
  2326     0B4E  0084               	movwf	4
  2327     0B4F  0800               	movf	0,w
  2328     0B50  0084               	movwf	4
  2329     0B51  120A  158A  200A  120A  158A  	fcall	stringdir
  2330     0B56  3A25               	xorlw	37
  2331     0B57  1D03               	skipz
  2332     0B58  2B5A               	goto	u2601
  2333     0B59  2B5B               	goto	u2600
  2334     0B5A                     u2601:
  2335     0B5A  2C1B               	goto	l2371
  2336     0B5B                     u2600:
  2337     0B5B                     l2327:
  2338                           
  2339                           ;C:\Program Files\Microchip\xc8\v3.10\pic\sources\c99\common\doprnt.c: 1202:         ++*
      +                          fmt;
  2340     0B5B  0822               	movf	vfpfcnvrt@fmt,w
  2341     0B5C  0084               	movwf	4
  2342     0B5D  3001               	movlw	1
  2343     0B5E  0780               	addwf	0,f
  2344     0B5F                     l2329:
  2345                           
  2346                           ;C:\Program Files\Microchip\xc8\v3.10\pic\sources\c99\common\doprnt.c: 1204:         fla
      +                          gs = width = 0;
  2347     0B5F  1683               	bsf	3,5	;RP0=1, select bank1
  2348     0B60  1303               	bcf	3,6	;RP1=0, select bank1
  2349     0B61  01A5               	clrf	_width^(0+128)
  2350     0B62  01A6               	clrf	(_width+1)^(0+128)
  2351     0B63  3000               	movlw	0
  2352     0B64  00A9               	movwf	_flags^(0+128)
  2353     0B65                     l2331:
  2354                           
  2355                           ;C:\Program Files\Microchip\xc8\v3.10\pic\sources\c99\common\doprnt.c: 1205:         pre
      +                          c = -1;
  2356     0B65  30FF               	movlw	255
  2357     0B66  00A7               	movwf	_prec^(0+128)
  2358     0B67  30FF               	movlw	255
  2359     0B68  00A8               	movwf	(_prec^(0+128)+1)
  2360     0B69                     l2333:
  2361                           
  2362                           ;C:\Program Files\Microchip\xc8\v3.10\pic\sources\c99\common\doprnt.c: 1291:   cp = *fmt
      +                          ;
  2363     0B69  1283               	bcf	3,5	;RP0=0, select bank0
  2364     0B6A  1303               	bcf	3,6	;RP1=0, select bank0
  2365     0B6B  0822               	movf	vfpfcnvrt@fmt,w
  2366     0B6C  0084               	movwf	4
  2367     0B6D  0800               	movf	0,w
  2368     0B6E  00A7               	movwf	vfpfcnvrt@cp
  2369     0B6F                     l2335:
  2370                           
  2371                           ;C:\Program Files\Microchip\xc8\v3.10\pic\sources\c99\common\doprnt.c: 1361:   if (*cp =
      +                          = 'd' || *cp == 'i') {
  2372     0B6F  0827               	movf	vfpfcnvrt@cp,w
  2373     0B70  0084               	movwf	4
  2374     0B71  120A  158A  200A  120A  158A  	fcall	stringdir
  2375     0B76  3A64               	xorlw	100
  2376     0B77  1903               	skipnz
  2377     0B78  2B7A               	goto	u2611
  2378     0B79  2B7B               	goto	u2610
  2379     0B7A                     u2611:
  2380     0B7A  2B87               	goto	l2339
  2381     0B7B                     u2610:
  2382     0B7B                     l2337:
  2383     0B7B  0827               	movf	vfpfcnvrt@cp,w
  2384     0B7C  0084               	movwf	4
  2385     0B7D  120A  158A  200A  120A  158A  	fcall	stringdir
  2386     0B82  3A69               	xorlw	105
  2387     0B83  1D03               	skipz
  2388     0B84  2B86               	goto	u2621
  2389     0B85  2B87               	goto	u2620
  2390     0B86                     u2621:
  2391     0B86  2C14               	goto	l2367
  2392     0B87                     u2620:
  2393     0B87                     l2339:
  2394                           
  2395                           ;C:\Program Files\Microchip\xc8\v3.10\pic\sources\c99\common\doprnt.c: 1404:    convarg.
      +                          sint = (vfpf_sint_t)(int)(*(int *)__va_arg(*(int **)ap, (int)0));
  2396     0B87  0823               	movf	vfpfcnvrt@ap,w
  2397     0B88  0084               	movwf	4
  2398     0B89  1383               	bcf	3,7	;select IRP bank0
  2399     0B8A  0800               	movf	0,w
  2400     0B8B  00FF               	movwf	btemp1
  2401     0B8C  3002               	movlw	2
  2402     0B8D  0780               	addwf	0,f
  2403     0B8E  087F               	movf	btemp1,w
  2404     0B8F  0084               	movwf	4
  2405     0B90  0800               	movf	0,w
  2406     0B91  00A8               	movwf	vfpfcnvrt@convarg
  2407     0B92  0A84               	incf	4,f
  2408     0B93  0800               	movf	0,w
  2409     0B94  00A9               	movwf	vfpfcnvrt@convarg+1
  2410     0B95                     l2341:
  2411                           
  2412                           ;C:\Program Files\Microchip\xc8\v3.10\pic\sources\c99\common\doprnt.c: 1406:    *fmt = c
      +                          p+1;
  2413     0B95  0822               	movf	vfpfcnvrt@fmt,w
  2414     0B96  0084               	movwf	4
  2415     0B97  0827               	movf	vfpfcnvrt@cp,w
  2416     0B98  3E01               	addlw	1
  2417     0B99  0080               	movwf	0
  2418     0B9A                     l2343:
  2419                           
  2420                           ;C:\Program Files\Microchip\xc8\v3.10\pic\sources\c99\common\doprnt.c: 1408:    c = size
      +                          of(dbuf);
  2421     0B9A  3020               	movlw	32
  2422     0B9B  00AC               	movwf	vfpfcnvrt@c
  2423     0B9C                     l2345:
  2424                           
  2425                           ;C:\Program Files\Microchip\xc8\v3.10\pic\sources\c99\common\doprnt.c: 1409:    done = c
      +                          onvarg.sint < 0;
  2426     0B9C  1BA9               	btfsc	vfpfcnvrt@convarg+1,7
  2427     0B9D  2B9F               	goto	u2631
  2428     0B9E  2BA1               	goto	u2630
  2429     0B9F                     u2631:
  2430     0B9F  3001               	movlw	1
  2431     0BA0  2BA2               	goto	u2640
  2432     0BA1                     u2630:
  2433     0BA1  3000               	movlw	0
  2434     0BA2                     u2640:
  2435     0BA2  00A6               	movwf	vfpfcnvrt@done
  2436     0BA3                     l2347:
  2437                           
  2438                           ;C:\Program Files\Microchip\xc8\v3.10\pic\sources\c99\common\doprnt.c: 1411:     dbuf[--
      +                          c] = abs(convarg.sint % 10) + '0';
  2439     0BA3  3001               	movlw	1
  2440     0BA4  02AC               	subwf	vfpfcnvrt@c,f
  2441     0BA5  082C               	movf	vfpfcnvrt@c,w
  2442     0BA6  3E90               	addlw	(low (_dbuf| (0+256)))& (0+255)
  2443     0BA7  0084               	movwf	4
  2444     0BA8  300A               	movlw	10
  2445     0BA9  00F0               	movwf	___awmod@divisor
  2446     0BAA  3000               	movlw	0
  2447     0BAB  00F1               	movwf	___awmod@divisor+1
  2448     0BAC  0829               	movf	vfpfcnvrt@convarg+1,w
  2449     0BAD  00F3               	movwf	___awmod@dividend+1
  2450     0BAE  0828               	movf	vfpfcnvrt@convarg,w
  2451     0BAF  00F2               	movwf	___awmod@dividend
  2452     0BB0  120A  158A  209F  120A  158A  	fcall	___awmod
  2453     0BB5  0871               	movf	?___awmod+1,w
  2454     0BB6  00F7               	movwf	abs@a+1
  2455     0BB7  0870               	movf	?___awmod,w
  2456     0BB8  00F6               	movwf	abs@a
  2457     0BB9  160A  118A  2644  120A  158A  	fcall	_abs
  2458     0BBE  0876               	movf	?_abs,w
  2459     0BBF  3E30               	addlw	48
  2460     0BC0  1783               	bsf	3,7	;select IRP bank3
  2461     0BC1  0080               	movwf	0
  2462     0BC2                     l2349:
  2463                           
  2464                           ;C:\Program Files\Microchip\xc8\v3.10\pic\sources\c99\common\doprnt.c: 1412:     convarg
      +                          .sint /= 10;
  2465     0BC2  300A               	movlw	10
  2466     0BC3  00F0               	movwf	___awdiv@divisor
  2467     0BC4  3000               	movlw	0
  2468     0BC5  00F1               	movwf	___awdiv@divisor+1
  2469     0BC6  1283               	bcf	3,5	;RP0=0, select bank0
  2470     0BC7  1303               	bcf	3,6	;RP1=0, select bank0
  2471     0BC8  0829               	movf	vfpfcnvrt@convarg+1,w
  2472     0BC9  00F3               	movwf	___awdiv@dividend+1
  2473     0BCA  0828               	movf	vfpfcnvrt@convarg,w
  2474     0BCB  00F2               	movwf	___awdiv@dividend
  2475     0BCC  120A  158A  20F6  120A  158A  	fcall	___awdiv
  2476     0BD1  0871               	movf	?___awdiv+1,w
  2477     0BD2  1283               	bcf	3,5	;RP0=0, select bank0
  2478     0BD3  1303               	bcf	3,6	;RP1=0, select bank0
  2479     0BD4  00A9               	movwf	vfpfcnvrt@convarg+1
  2480     0BD5  0870               	movf	?___awdiv,w
  2481     0BD6  00A8               	movwf	vfpfcnvrt@convarg
  2482     0BD7                     l2351:
  2483                           
  2484                           ;C:\Program Files\Microchip\xc8\v3.10\pic\sources\c99\common\doprnt.c: 1416:    } while 
      +                          (convarg.sint != 0 && c != 0);
  2485     0BD7  0828               	movf	vfpfcnvrt@convarg,w
  2486     0BD8  0429               	iorwf	vfpfcnvrt@convarg+1,w
  2487     0BD9  1903               	btfsc	3,2
  2488     0BDA  2BDC               	goto	u2651
  2489     0BDB  2BDD               	goto	u2650
  2490     0BDC                     u2651:
  2491     0BDC  2BE2               	goto	l2355
  2492     0BDD                     u2650:
  2493     0BDD                     l2353:
  2494     0BDD  082C               	movf	vfpfcnvrt@c,w
  2495     0BDE  1D03               	btfss	3,2
  2496     0BDF  2BE1               	goto	u2661
  2497     0BE0  2BE2               	goto	u2660
  2498     0BE1                     u2661:
  2499     0BE1  2BA3               	goto	l2347
  2500     0BE2                     u2660:
  2501     0BE2                     l2355:
  2502                           
  2503                           ;C:\Program Files\Microchip\xc8\v3.10\pic\sources\c99\common\doprnt.c: 1417:    if (c !=
      +                           0 && done) {
  2504     0BE2  082C               	movf	vfpfcnvrt@c,w
  2505     0BE3  1903               	btfsc	3,2
  2506     0BE4  2BE6               	goto	u2671
  2507     0BE5  2BE7               	goto	u2670
  2508     0BE6                     u2671:
  2509     0BE6  2C0D               	goto	l2365
  2510     0BE7                     u2670:
  2511     0BE7                     l2357:
  2512     0BE7  0826               	movf	vfpfcnvrt@done,w
  2513     0BE8  1903               	btfsc	3,2
  2514     0BE9  2BEB               	goto	u2681
  2515     0BEA  2BEC               	goto	u2680
  2516     0BEB                     u2681:
  2517     0BEB  2C0D               	goto	l2365
  2518     0BEC                     u2680:
  2519     0BEC                     l2359:
  2520                           
  2521                           ;C:\Program Files\Microchip\xc8\v3.10\pic\sources\c99\common\doprnt.c: 1418:     dbuf[--
      +                          c] = '-';
  2522     0BEC  3001               	movlw	1
  2523     0BED  02AC               	subwf	vfpfcnvrt@c,f
  2524     0BEE  082C               	movf	vfpfcnvrt@c,w
  2525     0BEF  3E90               	addlw	(low (_dbuf| (0+256)))& (0+255)
  2526     0BF0  0084               	movwf	4
  2527     0BF1  302D               	movlw	45
  2528     0BF2  1783               	bsf	3,7	;select IRP bank3
  2529     0BF3  0080               	movwf	0
  2530     0BF4  2C0D               	goto	l2365
  2531     0BF5                     l2361:
  2532                           
  2533                           ;C:\Program Files\Microchip\xc8\v3.10\pic\sources\c99\common\doprnt.c: 1424:     fputc(d
      +                          buf[c++], fp);
  2534     0BF5  082C               	movf	vfpfcnvrt@c,w
  2535     0BF6  3E90               	addlw	(low (_dbuf| (0+256)))& (0+255)
  2536     0BF7  0084               	movwf	4
  2537     0BF8  1783               	bsf	3,7	;select IRP bank3
  2538     0BF9  0800               	movf	0,w
  2539     0BFA  00A4               	movwf	??_vfpfcnvrt
  2540     0BFB  01A5               	clrf	??_vfpfcnvrt+1
  2541     0BFC  0824               	movf	??_vfpfcnvrt,w
  2542     0BFD  00F0               	movwf	fputc@c
  2543     0BFE  0825               	movf	??_vfpfcnvrt+1,w
  2544     0BFF  00F1               	movwf	fputc@c+1
  2545     0C00  0820               	movf	vfpfcnvrt@fp,w
  2546     0C01  00F2               	movwf	fputc@fp
  2547     0C02  0821               	movf	vfpfcnvrt@fp+1,w
  2548     0C03  00F3               	movwf	fputc@fp+1
  2549     0C04  120A  158A  2159  120A  158A  	fcall	_fputc
  2550     0C09                     l2363:
  2551     0C09  3001               	movlw	1
  2552     0C0A  1283               	bcf	3,5	;RP0=0, select bank0
  2553     0C0B  1303               	bcf	3,6	;RP1=0, select bank0
  2554     0C0C  07AC               	addwf	vfpfcnvrt@c,f
  2555     0C0D                     l2365:
  2556                           
  2557                           ;C:\Program Files\Microchip\xc8\v3.10\pic\sources\c99\common\doprnt.c: 1423:    while (c
      +                           != sizeof(dbuf)) {
  2558     0C0D  3020               	movlw	32
  2559     0C0E  062C               	xorwf	vfpfcnvrt@c,w
  2560     0C0F  1D03               	btfss	3,2
  2561     0C10  2C12               	goto	u2691
  2562     0C11  2C13               	goto	u2690
  2563     0C12                     u2691:
  2564     0C12  2BF5               	goto	l2361
  2565     0C13                     u2690:
  2566     0C13  2C34               	goto	l879
  2567     0C14                     l2367:
  2568                           
  2569                           ;C:\Program Files\Microchip\xc8\v3.10\pic\sources\c99\common\doprnt.c: 1806:         ++*
      +                          fmt;
  2570     0C14  1283               	bcf	3,5	;RP0=0, select bank0
  2571     0C15  1303               	bcf	3,6	;RP1=0, select bank0
  2572     0C16  0822               	movf	vfpfcnvrt@fmt,w
  2573     0C17  0084               	movwf	4
  2574     0C18  3001               	movlw	1
  2575     0C19  0780               	addwf	0,f
  2576     0C1A  2C34               	goto	l879
  2577     0C1B                     l2371:
  2578                           
  2579                           ;C:\Program Files\Microchip\xc8\v3.10\pic\sources\c99\common\doprnt.c: 1811:     fputc((
      +                          int)(*fmt)[0], fp);
  2580     0C1B  0822               	movf	vfpfcnvrt@fmt,w
  2581     0C1C  0084               	movwf	4
  2582     0C1D  0800               	movf	0,w
  2583     0C1E  0084               	movwf	4
  2584     0C1F  120A  158A  200A  120A  158A  	fcall	stringdir
  2585     0C24  00A4               	movwf	??_vfpfcnvrt
  2586     0C25  01A5               	clrf	??_vfpfcnvrt+1
  2587     0C26  0824               	movf	??_vfpfcnvrt,w
  2588     0C27  00F0               	movwf	fputc@c
  2589     0C28  0825               	movf	??_vfpfcnvrt+1,w
  2590     0C29  00F1               	movwf	fputc@c+1
  2591     0C2A  0820               	movf	vfpfcnvrt@fp,w
  2592     0C2B  00F2               	movwf	fputc@fp
  2593     0C2C  0821               	movf	vfpfcnvrt@fp+1,w
  2594     0C2D  00F3               	movwf	fputc@fp+1
  2595     0C2E  120A  158A  2159  120A  158A  	fcall	_fputc
  2596     0C33  2C14               	goto	l2367
  2597     0C34                     l879:
  2598     0C34  0008               	return
  2599     0C35                     __end_of_vfpfcnvrt:
  2600                           
  2601                           	psect	text5
  2602     0959                     __ptext5:	
  2603 ;; *************** function _fputc *****************
  2604 ;; Defined at:
  2605 ;;		line 8 in file "C:\Program Files\Microchip\xc8\v3.10\pic\sources\c99\common\nf_fputc.c"
  2606 ;; Parameters:    Size  Location     Type
  2607 ;;  c               2    0[COMMON] int 
  2608 ;;  fp              2    2[COMMON] PTR struct _IO_FILE
  2609 ;;		 -> sprintf@f(11), 
  2610 ;; Auto vars:     Size  Location     Type
  2611 ;;		None
  2612 ;; Return value:  Size  Location     Type
  2613 ;;                  2    0[COMMON] int 
  2614 ;; Registers used:
  2615 ;;		wreg, fsr0l, fsr0h, status,2, status,0, pclath, cstack
  2616 ;; Tracked objects:
  2617 ;;		On entry : 0/0
  2618 ;;		On exit  : 0/0
  2619 ;;		Unchanged: 0/0
  2620 ;; Data sizes:     COMMON   BANK0   BANK1   BANK3   BANK2
  2621 ;;      Params:         4       0       0       0       0
  2622 ;;      Locals:         0       0       0       0       0
  2623 ;;      Temps:          9       0       0       0       0
  2624 ;;      Totals:        13       0       0       0       0
  2625 ;;Total ram usage:       13 bytes
  2626 ;; Hardware stack levels used: 1
  2627 ;; Hardware stack levels required when called: 1
  2628 ;; This function calls:
  2629 ;;		_putch
  2630 ;; This function is called by:
  2631 ;;		_vfpfcnvrt
  2632 ;; This function uses a non-reentrant model
  2633 ;;
  2634                           
  2635     0959                     _fputc:	
  2636                           ;psect for function _fputc
  2637                           
  2638     0959                     l2303:	
  2639                           ;incstack = 0
  2640                           ; Regs used in _fputc: [wreg-fsr0h+status,2+status,0+pclath+cstack]
  2641                           
  2642     0959  0872               	movf	fputc@fp,w
  2643     095A  0473               	iorwf	fputc@fp+1,w
  2644     095B  1903               	btfsc	3,2
  2645     095C  295E               	goto	u2541
  2646     095D  295F               	goto	u2540
  2647     095E                     u2541:
  2648     095E  2965               	goto	l2307
  2649     095F                     u2540:
  2650     095F                     l2305:
  2651     095F  0872               	movf	fputc@fp,w
  2652     0960  0473               	iorwf	fputc@fp+1,w
  2653     0961  1D03               	btfss	3,2
  2654     0962  2964               	goto	u2551
  2655     0963  2965               	goto	u2550
  2656     0964                     u2551:
  2657     0964  296C               	goto	l2309
  2658     0965                     u2550:
  2659     0965                     l2307:
  2660     0965  0870               	movf	fputc@c,w
  2661     0966  120A  118A  2008  120A  158A  	fcall	_putch
  2662     096B  29F2               	goto	l904
  2663     096C                     l2309:
  2664     096C  0872               	movf	fputc@fp,w
  2665     096D  3E09               	addlw	9
  2666     096E  00F4               	movwf	??_fputc
  2667     096F  0873               	movf	fputc@fp+1,w
  2668     0970  1803               	skipnc
  2669     0971  3E01               	addlw	1
  2670     0972  3E00               	addlw	0
  2671     0973  00F5               	movwf	??_fputc+1
  2672     0974  0874               	movf	??_fputc,w
  2673     0975  0084               	movwf	4
  2674     0976  1783               	bsf	3,7
  2675     0977  1C75               	btfss	??_fputc+1,0
  2676     0978  1383               	bcf	3,7
  2677     0979  0800               	movf	0,w
  2678     097A  00F6               	movwf	??_fputc+2
  2679     097B  0A84               	incf	4,f
  2680     097C  0800               	movf	0,w
  2681     097D  00F7               	movwf	??_fputc+3
  2682     097E  0876               	movf	??_fputc+2,w
  2683     097F  0477               	iorwf	??_fputc+3,w
  2684     0980  1903               	btfsc	3,2
  2685     0981  2983               	goto	u2561
  2686     0982  2984               	goto	u2560
  2687     0983                     u2561:
  2688     0983  29B6               	goto	l2313
  2689     0984                     u2560:
  2690     0984                     l2311:
  2691     0984  0872               	movf	fputc@fp,w
  2692     0985  3E09               	addlw	9
  2693     0986  00F4               	movwf	??_fputc
  2694     0987  0873               	movf	fputc@fp+1,w
  2695     0988  1803               	skipnc
  2696     0989  3E01               	addlw	1
  2697     098A  3E00               	addlw	0
  2698     098B  00F5               	movwf	??_fputc+1
  2699     098C  0874               	movf	??_fputc,w
  2700     098D  0084               	movwf	4
  2701     098E  1783               	bsf	3,7
  2702     098F  1C75               	btfss	??_fputc+1,0
  2703     0990  1383               	bcf	3,7
  2704     0991  0800               	movf	0,w
  2705     0992  00F6               	movwf	??_fputc+2
  2706     0993  0A84               	incf	4,f
  2707     0994  0800               	movf	0,w
  2708     0995  00F7               	movwf	??_fputc+3
  2709     0996  0872               	movf	fputc@fp,w
  2710     0997  3E02               	addlw	2
  2711     0998  00F8               	movwf	??_fputc+4
  2712     0999  0873               	movf	fputc@fp+1,w
  2713     099A  1803               	skipnc
  2714     099B  3E01               	addlw	1
  2715     099C  3E00               	addlw	0
  2716     099D  00F9               	movwf	??_fputc+5
  2717     099E  0878               	movf	??_fputc+4,w
  2718     099F  0084               	movwf	4
  2719     09A0  1783               	bsf	3,7
  2720     09A1  1C79               	btfss	??_fputc+5,0
  2721     09A2  1383               	bcf	3,7
  2722     09A3  0800               	movf	0,w
  2723     09A4  00FA               	movwf	??_fputc+6
  2724     09A5  0A84               	incf	4,f
  2725     09A6  0800               	movf	0,w
  2726     09A7  00FB               	movwf	??_fputc+7
  2727     09A8  087B               	movf	??_fputc+7,w
  2728     09A9  3A80               	xorlw	128
  2729     09AA  00FC               	movwf	??_fputc+8
  2730     09AB  0877               	movf	??_fputc+3,w
  2731     09AC  3A80               	xorlw	128
  2732     09AD  027C               	subwf	??_fputc+8,w
  2733     09AE  1D03               	skipz
  2734     09AF  29B2               	goto	u2575
  2735     09B0  0876               	movf	??_fputc+2,w
  2736     09B1  027A               	subwf	??_fputc+6,w
  2737     09B2                     u2575:
  2738     09B2  1803               	skipnc
  2739     09B3  29B5               	goto	u2571
  2740     09B4  29B6               	goto	u2570
  2741     09B5                     u2571:
  2742     09B5  29F2               	goto	l904
  2743     09B6                     u2570:
  2744     09B6                     l2313:
  2745     09B6  0872               	movf	fputc@fp,w
  2746     09B7  0084               	movwf	4
  2747     09B8  1783               	bsf	3,7
  2748     09B9  1C73               	btfss	fputc@fp+1,0
  2749     09BA  1383               	bcf	3,7
  2750     09BB  0800               	movf	0,w
  2751     09BC  00F4               	movwf	??_fputc
  2752     09BD  0A84               	incf	4,f
  2753     09BE  0800               	movf	0,w
  2754     09BF  00F5               	movwf	??_fputc+1
  2755     09C0  0872               	movf	fputc@fp,w
  2756     09C1  3E02               	addlw	2
  2757     09C2  00F6               	movwf	??_fputc+2
  2758     09C3  0873               	movf	fputc@fp+1,w
  2759     09C4  1803               	skipnc
  2760     09C5  3E01               	addlw	1
  2761     09C6  3E00               	addlw	0
  2762     09C7  00F7               	movwf	??_fputc+3
  2763     09C8  0876               	movf	??_fputc+2,w
  2764     09C9  0084               	movwf	4
  2765     09CA  1783               	bsf	3,7
  2766     09CB  1C77               	btfss	??_fputc+3,0
  2767     09CC  1383               	bcf	3,7
  2768     09CD  0800               	movf	0,w
  2769     09CE  0774               	addwf	??_fputc,w
  2770     09CF  00F9               	movwf	??_fputc+5
  2771     09D0  0875               	movf	??_fputc+1,w
  2772     09D1  00F8               	movwf	??_fputc+4
  2773     09D2  1803               	skipnc
  2774     09D3  0AF8               	incf	??_fputc+4,f
  2775     09D4  1F80               	btfss	0,7
  2776     09D5  29D7               	goto	u2580
  2777     09D6  03F8               	decf	??_fputc+4,f
  2778     09D7                     u2580:
  2779     09D7  0878               	movf	??_fputc+4,w
  2780     09D8  00FA               	movwf	??_fputc+6
  2781     09D9  0879               	movf	??_fputc+5,w
  2782     09DA  0084               	movwf	4
  2783     09DB  1783               	bsf	3,7
  2784     09DC  1C7A               	btfss	??_fputc+6,0
  2785     09DD  1383               	bcf	3,7
  2786     09DE  0870               	movf	fputc@c,w
  2787     09DF  0080               	movwf	0
  2788     09E0  0872               	movf	fputc@fp,w
  2789     09E1  3E02               	addlw	2
  2790     09E2  00F4               	movwf	??_fputc
  2791     09E3  0873               	movf	fputc@fp+1,w
  2792     09E4  1803               	skipnc
  2793     09E5  3E01               	addlw	1
  2794     09E6  3E00               	addlw	0
  2795     09E7  00F5               	movwf	??_fputc+1
  2796     09E8  0874               	movf	??_fputc,w
  2797     09E9  0084               	movwf	4
  2798     09EA  1783               	bsf	3,7
  2799     09EB  1C75               	btfss	??_fputc+1,0
  2800     09EC  1383               	bcf	3,7
  2801     09ED  3001               	movlw	1
  2802     09EE  0780               	addwf	0,f
  2803     09EF  0A84               	incf	4,f
  2804     09F0  1803               	skipnc
  2805     09F1  0A80               	incf	0,f
  2806     09F2                     l904:
  2807     09F2  0008               	return
  2808     09F3                     __end_of_fputc:
  2809                           
  2810                           	psect	text6
  2811     0008                     __ptext6:	
  2812 ;; *************** function _putch *****************
  2813 ;; Defined at:
  2814 ;;		line 7 in file "C:\Program Files\Microchip\xc8\v3.10\pic\sources\c99\common\putch.c"
  2815 ;; Parameters:    Size  Location     Type
  2816 ;;  c               1    wreg     unsigned char 
  2817 ;; Auto vars:     Size  Location     Type
  2818 ;;  c               1    0[COMMON] unsigned char 
  2819 ;; Return value:  Size  Location     Type
  2820 ;;                  1    wreg      void 
  2821 ;; Registers used:
  2822 ;;		wreg
  2823 ;; Tracked objects:
  2824 ;;		On entry : 0/0
  2825 ;;		On exit  : 0/0
  2826 ;;		Unchanged: 0/0
  2827 ;; Data sizes:     COMMON   BANK0   BANK1   BANK3   BANK2
  2828 ;;      Params:         0       0       0       0       0
  2829 ;;      Locals:         0       0       0       0       0
  2830 ;;      Temps:          0       0       0       0       0
  2831 ;;      Totals:         0       0       0       0       0
  2832 ;;Total ram usage:        0 bytes
  2833 ;; Hardware stack levels used: 1
  2834 ;; This function calls:
  2835 ;;		Nothing
  2836 ;; This function is called by:
  2837 ;;		_fputc
  2838 ;; This function uses a non-reentrant model
  2839 ;;
  2840                           
  2841     0008                     _putch:	
  2842                           ;psect for function _putch
  2843                           
  2844     0008                     l915:	
  2845                           ;incstack = 0
  2846                           ; Regs used in _putch: [wreg]
  2847                           
  2848     0008  0008               	return
  2849     0009                     __end_of_putch:
  2850                           
  2851                           	psect	text7
  2852     1644                     __ptext7:	
  2853 ;; *************** function _abs *****************
  2854 ;; Defined at:
  2855 ;;		line 1 in file "C:\Program Files\Microchip\xc8\v3.10\pic\sources\c99\common\abs.c"
  2856 ;; Parameters:    Size  Location     Type
  2857 ;;  a               2    6[COMMON] int 
  2858 ;; Auto vars:     Size  Location     Type
  2859 ;;		None
  2860 ;; Return value:  Size  Location     Type
  2861 ;;                  2    6[COMMON] int 
  2862 ;; Registers used:
  2863 ;;		wreg, status,2, status,0
  2864 ;; Tracked objects:
  2865 ;;		On entry : 0/0
  2866 ;;		On exit  : 0/0
  2867 ;;		Unchanged: 0/0
  2868 ;; Data sizes:     COMMON   BANK0   BANK1   BANK3   BANK2
  2869 ;;      Params:         2       0       0       0       0
  2870 ;;      Locals:         0       0       0       0       0
  2871 ;;      Temps:          2       0       0       0       0
  2872 ;;      Totals:         4       0       0       0       0
  2873 ;;Total ram usage:        4 bytes
  2874 ;; Hardware stack levels used: 1
  2875 ;; This function calls:
  2876 ;;		Nothing
  2877 ;; This function is called by:
  2878 ;;		_vfpfcnvrt
  2879 ;; This function uses a non-reentrant model
  2880 ;;
  2881                           
  2882     1644                     _abs:	
  2883                           ;psect for function _abs
  2884                           
  2885     1644                     l2317:	
  2886                           ;incstack = 0
  2887                           ; Regs used in _abs: [wreg+status,2+status,0]
  2888                           
  2889     1644  1BF7               	btfsc	abs@a+1,7
  2890     1645  2E47               	goto	u2591
  2891     1646  2E48               	goto	u2590
  2892     1647                     u2591:
  2893     1647  2E49               	goto	l2321
  2894     1648                     u2590:
  2895     1648                     l2319:
  2896     1648  2E54               	goto	l892
  2897     1649                     l2321:
  2898     1649  0976               	comf	abs@a,w
  2899     164A  00F8               	movwf	??_abs
  2900     164B  0977               	comf	abs@a+1,w
  2901     164C  00F9               	movwf	??_abs+1
  2902     164D  0AF8               	incf	??_abs,f
  2903     164E  1903               	skipnz
  2904     164F  0AF9               	incf	??_abs+1,f
  2905     1650  0878               	movf	??_abs,w
  2906     1651  00F6               	movwf	?_abs
  2907     1652  0879               	movf	??_abs+1,w
  2908     1653  00F7               	movwf	?_abs+1
  2909     1654                     l892:
  2910     1654  0008               	return
  2911     1655                     __end_of_abs:
  2912                           
  2913                           	psect	text8
  2914     089F                     __ptext8:	
  2915 ;; *************** function ___awmod *****************
  2916 ;; Defined at:
  2917 ;;		line 5 in file "C:\Program Files\Microchip\xc8\v3.10\pic\sources\c99\common\awmod.c"
  2918 ;; Parameters:    Size  Location     Type
  2919 ;;  divisor         2    0[COMMON] int 
  2920 ;;  dividend        2    2[COMMON] int 
  2921 ;; Auto vars:     Size  Location     Type
  2922 ;;  sign            1    5[COMMON] unsigned char 
  2923 ;;  counter         1    4[COMMON] unsigned char 
  2924 ;; Return value:  Size  Location     Type
  2925 ;;                  2    0[COMMON] int 
  2926 ;; Registers used:
  2927 ;;		wreg, status,2, status,0
  2928 ;; Tracked objects:
  2929 ;;		On entry : 0/0
  2930 ;;		On exit  : 0/0
  2931 ;;		Unchanged: 0/0
  2932 ;; Data sizes:     COMMON   BANK0   BANK1   BANK3   BANK2
  2933 ;;      Params:         4       0       0       0       0
  2934 ;;      Locals:         2       0       0       0       0
  2935 ;;      Temps:          0       0       0       0       0
  2936 ;;      Totals:         6       0       0       0       0
  2937 ;;Total ram usage:        6 bytes
  2938 ;; Hardware stack levels used: 1
  2939 ;; This function calls:
  2940 ;;		Nothing
  2941 ;; This function is called by:
  2942 ;;		_vfpfcnvrt
  2943 ;;		_dec_to_bcd
  2944 ;; This function uses a non-reentrant model
  2945 ;;
  2946                           
  2947     089F                     ___awmod:	
  2948                           ;psect for function ___awmod
  2949                           
  2950     089F                     l2265:	
  2951                           ;incstack = 0
  2952                           ; Regs used in ___awmod: [wreg+status,2+status,0]
  2953                           
  2954     089F  01F5               	clrf	___awmod@sign
  2955     08A0                     l2267:
  2956     08A0  1FF3               	btfss	___awmod@dividend+1,7
  2957     08A1  28A3               	goto	u2451
  2958     08A2  28A4               	goto	u2450
  2959     08A3                     u2451:
  2960     08A3  28AB               	goto	l2273
  2961     08A4                     u2450:
  2962     08A4                     l2269:
  2963     08A4  09F2               	comf	___awmod@dividend,f
  2964     08A5  09F3               	comf	___awmod@dividend+1,f
  2965     08A6  0AF2               	incf	___awmod@dividend,f
  2966     08A7  1903               	skipnz
  2967     08A8  0AF3               	incf	___awmod@dividend+1,f
  2968     08A9                     l2271:
  2969     08A9  3001               	movlw	1
  2970     08AA  00F5               	movwf	___awmod@sign
  2971     08AB                     l2273:
  2972     08AB  1FF1               	btfss	___awmod@divisor+1,7
  2973     08AC  28AE               	goto	u2461
  2974     08AD  28AF               	goto	u2460
  2975     08AE                     u2461:
  2976     08AE  28B4               	goto	l2277
  2977     08AF                     u2460:
  2978     08AF                     l2275:
  2979     08AF  09F0               	comf	___awmod@divisor,f
  2980     08B0  09F1               	comf	___awmod@divisor+1,f
  2981     08B1  0AF0               	incf	___awmod@divisor,f
  2982     08B2  1903               	skipnz
  2983     08B3  0AF1               	incf	___awmod@divisor+1,f
  2984     08B4                     l2277:
  2985     08B4  0870               	movf	___awmod@divisor,w
  2986     08B5  0471               	iorwf	___awmod@divisor+1,w
  2987     08B6  1903               	btfsc	3,2
  2988     08B7  28B9               	goto	u2471
  2989     08B8  28BA               	goto	u2470
  2990     08B9                     u2471:
  2991     08B9  28E7               	goto	l2295
  2992     08BA                     u2470:
  2993     08BA                     l2279:
  2994     08BA  3001               	movlw	1
  2995     08BB  00F4               	movwf	___awmod@counter
  2996     08BC  28C6               	goto	l2285
  2997     08BD                     l2281:
  2998     08BD  3001               	movlw	1
  2999     08BE                     u2485:
  3000     08BE  1003               	clrc
  3001     08BF  0DF0               	rlf	___awmod@divisor,f
  3002     08C0  0DF1               	rlf	___awmod@divisor+1,f
  3003     08C1  3EFF               	addlw	-1
  3004     08C2  1D03               	skipz
  3005     08C3  28BE               	goto	u2485
  3006     08C4                     l2283:
  3007     08C4  3001               	movlw	1
  3008     08C5  07F4               	addwf	___awmod@counter,f
  3009     08C6                     l2285:
  3010     08C6  1FF1               	btfss	___awmod@divisor+1,7
  3011     08C7  28C9               	goto	u2491
  3012     08C8  28CA               	goto	u2490
  3013     08C9                     u2491:
  3014     08C9  28BD               	goto	l2281
  3015     08CA                     u2490:
  3016     08CA                     l2287:
  3017     08CA  0871               	movf	___awmod@divisor+1,w
  3018     08CB  0273               	subwf	___awmod@dividend+1,w
  3019     08CC  1D03               	skipz
  3020     08CD  28D0               	goto	u2505
  3021     08CE  0870               	movf	___awmod@divisor,w
  3022     08CF  0272               	subwf	___awmod@dividend,w
  3023     08D0                     u2505:
  3024     08D0  1C03               	skipc
  3025     08D1  28D3               	goto	u2501
  3026     08D2  28D4               	goto	u2500
  3027     08D3                     u2501:
  3028     08D3  28DA               	goto	l2291
  3029     08D4                     u2500:
  3030     08D4                     l2289:
  3031     08D4  0870               	movf	___awmod@divisor,w
  3032     08D5  02F2               	subwf	___awmod@dividend,f
  3033     08D6  0871               	movf	___awmod@divisor+1,w
  3034     08D7  1C03               	skipc
  3035     08D8  03F3               	decf	___awmod@dividend+1,f
  3036     08D9  02F3               	subwf	___awmod@dividend+1,f
  3037     08DA                     l2291:
  3038     08DA  3001               	movlw	1
  3039     08DB                     u2515:
  3040     08DB  1003               	clrc
  3041     08DC  0CF1               	rrf	___awmod@divisor+1,f
  3042     08DD  0CF0               	rrf	___awmod@divisor,f
  3043     08DE  3EFF               	addlw	-1
  3044     08DF  1D03               	skipz
  3045     08E0  28DB               	goto	u2515
  3046     08E1                     l2293:
  3047     08E1  3001               	movlw	1
  3048     08E2  02F4               	subwf	___awmod@counter,f
  3049     08E3  1D03               	btfss	3,2
  3050     08E4  28E6               	goto	u2521
  3051     08E5  28E7               	goto	u2520
  3052     08E6                     u2521:
  3053     08E6  28CA               	goto	l2287
  3054     08E7                     u2520:
  3055     08E7                     l2295:
  3056     08E7  0875               	movf	___awmod@sign,w
  3057     08E8  1903               	btfsc	3,2
  3058     08E9  28EB               	goto	u2531
  3059     08EA  28EC               	goto	u2530
  3060     08EB                     u2531:
  3061     08EB  28F1               	goto	l2299
  3062     08EC                     u2530:
  3063     08EC                     l2297:
  3064     08EC  09F2               	comf	___awmod@dividend,f
  3065     08ED  09F3               	comf	___awmod@dividend+1,f
  3066     08EE  0AF2               	incf	___awmod@dividend,f
  3067     08EF  1903               	skipnz
  3068     08F0  0AF3               	incf	___awmod@dividend+1,f
  3069     08F1                     l2299:
  3070     08F1  0873               	movf	___awmod@dividend+1,w
  3071     08F2  00F1               	movwf	?___awmod+1
  3072     08F3  0872               	movf	___awmod@dividend,w
  3073     08F4  00F0               	movwf	?___awmod
  3074     08F5                     l544:
  3075     08F5  0008               	return
  3076     08F6                     __end_of___awmod:
  3077                           
  3078                           	psect	text9
  3079     08F6                     __ptext9:	
  3080 ;; *************** function ___awdiv *****************
  3081 ;; Defined at:
  3082 ;;		line 5 in file "C:\Program Files\Microchip\xc8\v3.10\pic\sources\c99\common\awdiv.c"
  3083 ;; Parameters:    Size  Location     Type
  3084 ;;  divisor         2    0[COMMON] int 
  3085 ;;  dividend        2    2[COMMON] int 
  3086 ;; Auto vars:     Size  Location     Type
  3087 ;;  quotient        2    6[COMMON] int 
  3088 ;;  sign            1    5[COMMON] unsigned char 
  3089 ;;  counter         1    4[COMMON] unsigned char 
  3090 ;; Return value:  Size  Location     Type
  3091 ;;                  2    0[COMMON] int 
  3092 ;; Registers used:
  3093 ;;		wreg, status,2, status,0
  3094 ;; Tracked objects:
  3095 ;;		On entry : 0/0
  3096 ;;		On exit  : 0/0
  3097 ;;		Unchanged: 0/0
  3098 ;; Data sizes:     COMMON   BANK0   BANK1   BANK3   BANK2
  3099 ;;      Params:         4       0       0       0       0
  3100 ;;      Locals:         4       0       0       0       0
  3101 ;;      Temps:          0       0       0       0       0
  3102 ;;      Totals:         8       0       0       0       0
  3103 ;;Total ram usage:        8 bytes
  3104 ;; Hardware stack levels used: 1
  3105 ;; This function calls:
  3106 ;;		Nothing
  3107 ;; This function is called by:
  3108 ;;		_vfpfcnvrt
  3109 ;;		_dec_to_bcd
  3110 ;; This function uses a non-reentrant model
  3111 ;;
  3112                           
  3113     08F6                     ___awdiv:	
  3114                           ;psect for function ___awdiv
  3115                           
  3116     08F6                     l2221:	
  3117                           ;incstack = 0
  3118                           ; Regs used in ___awdiv: [wreg+status,2+status,0]
  3119                           
  3120     08F6  01F5               	clrf	___awdiv@sign
  3121     08F7                     l2223:
  3122     08F7  1FF1               	btfss	___awdiv@divisor+1,7
  3123     08F8  28FA               	goto	u2351
  3124     08F9  28FB               	goto	u2350
  3125     08FA                     u2351:
  3126     08FA  2902               	goto	l2229
  3127     08FB                     u2350:
  3128     08FB                     l2225:
  3129     08FB  09F0               	comf	___awdiv@divisor,f
  3130     08FC  09F1               	comf	___awdiv@divisor+1,f
  3131     08FD  0AF0               	incf	___awdiv@divisor,f
  3132     08FE  1903               	skipnz
  3133     08FF  0AF1               	incf	___awdiv@divisor+1,f
  3134     0900                     l2227:
  3135     0900  3001               	movlw	1
  3136     0901  00F5               	movwf	___awdiv@sign
  3137     0902                     l2229:
  3138     0902  1FF3               	btfss	___awdiv@dividend+1,7
  3139     0903  2905               	goto	u2361
  3140     0904  2906               	goto	u2360
  3141     0905                     u2361:
  3142     0905  290D               	goto	l2235
  3143     0906                     u2360:
  3144     0906                     l2231:
  3145     0906  09F2               	comf	___awdiv@dividend,f
  3146     0907  09F3               	comf	___awdiv@dividend+1,f
  3147     0908  0AF2               	incf	___awdiv@dividend,f
  3148     0909  1903               	skipnz
  3149     090A  0AF3               	incf	___awdiv@dividend+1,f
  3150     090B                     l2233:
  3151     090B  3001               	movlw	1
  3152     090C  06F5               	xorwf	___awdiv@sign,f
  3153     090D                     l2235:
  3154     090D  01F6               	clrf	___awdiv@quotient
  3155     090E  01F7               	clrf	___awdiv@quotient+1
  3156     090F                     l2237:
  3157     090F  0870               	movf	___awdiv@divisor,w
  3158     0910  0471               	iorwf	___awdiv@divisor+1,w
  3159     0911  1903               	btfsc	3,2
  3160     0912  2914               	goto	u2371
  3161     0913  2915               	goto	u2370
  3162     0914                     u2371:
  3163     0914  294A               	goto	l2257
  3164     0915                     u2370:
  3165     0915                     l2239:
  3166     0915  3001               	movlw	1
  3167     0916  00F4               	movwf	___awdiv@counter
  3168     0917  2921               	goto	l2245
  3169     0918                     l2241:
  3170     0918  3001               	movlw	1
  3171     0919                     u2385:
  3172     0919  1003               	clrc
  3173     091A  0DF0               	rlf	___awdiv@divisor,f
  3174     091B  0DF1               	rlf	___awdiv@divisor+1,f
  3175     091C  3EFF               	addlw	-1
  3176     091D  1D03               	skipz
  3177     091E  2919               	goto	u2385
  3178     091F                     l2243:
  3179     091F  3001               	movlw	1
  3180     0920  07F4               	addwf	___awdiv@counter,f
  3181     0921                     l2245:
  3182     0921  1FF1               	btfss	___awdiv@divisor+1,7
  3183     0922  2924               	goto	u2391
  3184     0923  2925               	goto	u2390
  3185     0924                     u2391:
  3186     0924  2918               	goto	l2241
  3187     0925                     u2390:
  3188     0925                     l2247:
  3189     0925  3001               	movlw	1
  3190     0926                     u2405:
  3191     0926  1003               	clrc
  3192     0927  0DF6               	rlf	___awdiv@quotient,f
  3193     0928  0DF7               	rlf	___awdiv@quotient+1,f
  3194     0929  3EFF               	addlw	-1
  3195     092A  1D03               	skipz
  3196     092B  2926               	goto	u2405
  3197     092C  0871               	movf	___awdiv@divisor+1,w
  3198     092D  0273               	subwf	___awdiv@dividend+1,w
  3199     092E  1D03               	skipz
  3200     092F  2932               	goto	u2415
  3201     0930  0870               	movf	___awdiv@divisor,w
  3202     0931  0272               	subwf	___awdiv@dividend,w
  3203     0932                     u2415:
  3204     0932  1C03               	skipc
  3205     0933  2935               	goto	u2411
  3206     0934  2936               	goto	u2410
  3207     0935                     u2411:
  3208     0935  293D               	goto	l2253
  3209     0936                     u2410:
  3210     0936                     l2249:
  3211     0936  0870               	movf	___awdiv@divisor,w
  3212     0937  02F2               	subwf	___awdiv@dividend,f
  3213     0938  0871               	movf	___awdiv@divisor+1,w
  3214     0939  1C03               	skipc
  3215     093A  03F3               	decf	___awdiv@dividend+1,f
  3216     093B  02F3               	subwf	___awdiv@dividend+1,f
  3217     093C                     l2251:
  3218     093C  1476               	bsf	___awdiv@quotient,0
  3219     093D                     l2253:
  3220     093D  3001               	movlw	1
  3221     093E                     u2425:
  3222     093E  1003               	clrc
  3223     093F  0CF1               	rrf	___awdiv@divisor+1,f
  3224     0940  0CF0               	rrf	___awdiv@divisor,f
  3225     0941  3EFF               	addlw	-1
  3226     0942  1D03               	skipz
  3227     0943  293E               	goto	u2425
  3228     0944                     l2255:
  3229     0944  3001               	movlw	1
  3230     0945  02F4               	subwf	___awdiv@counter,f
  3231     0946  1D03               	btfss	3,2
  3232     0947  2949               	goto	u2431
  3233     0948  294A               	goto	u2430
  3234     0949                     u2431:
  3235     0949  2925               	goto	l2247
  3236     094A                     u2430:
  3237     094A                     l2257:
  3238     094A  0875               	movf	___awdiv@sign,w
  3239     094B  1903               	btfsc	3,2
  3240     094C  294E               	goto	u2441
  3241     094D  294F               	goto	u2440
  3242     094E                     u2441:
  3243     094E  2954               	goto	l2261
  3244     094F                     u2440:
  3245     094F                     l2259:
  3246     094F  09F6               	comf	___awdiv@quotient,f
  3247     0950  09F7               	comf	___awdiv@quotient+1,f
  3248     0951  0AF6               	incf	___awdiv@quotient,f
  3249     0952  1903               	skipnz
  3250     0953  0AF7               	incf	___awdiv@quotient+1,f
  3251     0954                     l2261:
  3252     0954  0877               	movf	___awdiv@quotient+1,w
  3253     0955  00F1               	movwf	?___awdiv+1
  3254     0956  0876               	movf	___awdiv@quotient,w
  3255     0957  00F0               	movwf	?___awdiv
  3256     0958                     l531:
  3257     0958  0008               	return
  3258     0959                     __end_of___awdiv:
  3259                           
  3260                           	psect	text10
  3261     16CD                     __ptext10:	
  3262 ;; *************** function ___wmul *****************
  3263 ;; Defined at:
  3264 ;;		line 15 in file "C:\Program Files\Microchip\xc8\v3.10\pic\sources\c99\common\Umul16.c"
  3265 ;; Parameters:    Size  Location     Type
  3266 ;;  multiplier      2    0[COMMON] unsigned int 
  3267 ;;  multiplicand    2    2[COMMON] unsigned int 
  3268 ;; Auto vars:     Size  Location     Type
  3269 ;;  product         2    4[COMMON] unsigned int 
  3270 ;; Return value:  Size  Location     Type
  3271 ;;                  2    0[COMMON] unsigned int 
  3272 ;; Registers used:
  3273 ;;		wreg, status,2, status,0
  3274 ;; Tracked objects:
  3275 ;;		On entry : 0/0
  3276 ;;		On exit  : 0/0
  3277 ;;		Unchanged: 0/0
  3278 ;; Data sizes:     COMMON   BANK0   BANK1   BANK3   BANK2
  3279 ;;      Params:         4       0       0       0       0
  3280 ;;      Locals:         2       0       0       0       0
  3281 ;;      Temps:          0       0       0       0       0
  3282 ;;      Totals:         6       0       0       0       0
  3283 ;;Total ram usage:        6 bytes
  3284 ;; Hardware stack levels used: 1
  3285 ;; This function calls:
  3286 ;;		Nothing
  3287 ;; This function is called by:
  3288 ;;		_float_to_string_dht22
  3289 ;; This function uses a non-reentrant model
  3290 ;;
  3291                           
  3292     16CD                     ___wmul:	
  3293                           ;psect for function ___wmul
  3294                           
  3295     16CD                     l2667:	
  3296                           ;incstack = 0
  3297                           ; Regs used in ___wmul: [wreg+status,2+status,0]
  3298                           
  3299     16CD  01F4               	clrf	___wmul@product
  3300     16CE  01F5               	clrf	___wmul@product+1
  3301     16CF                     l2669:
  3302     16CF  1C70               	btfss	___wmul@multiplier,0
  3303     16D0  2ED2               	goto	u3251
  3304     16D1  2ED3               	goto	u3250
  3305     16D2                     u3251:
  3306     16D2  2ED9               	goto	l378
  3307     16D3                     u3250:
  3308     16D3                     l2671:
  3309     16D3  0872               	movf	___wmul@multiplicand,w
  3310     16D4  07F4               	addwf	___wmul@product,f
  3311     16D5  1803               	skipnc
  3312     16D6  0AF5               	incf	___wmul@product+1,f
  3313     16D7  0873               	movf	___wmul@multiplicand+1,w
  3314     16D8  07F5               	addwf	___wmul@product+1,f
  3315     16D9                     l378:
  3316     16D9  3001               	movlw	1
  3317     16DA                     u3265:
  3318     16DA  1003               	clrc
  3319     16DB  0DF2               	rlf	___wmul@multiplicand,f
  3320     16DC  0DF3               	rlf	___wmul@multiplicand+1,f
  3321     16DD  3EFF               	addlw	-1
  3322     16DE  1D03               	skipz
  3323     16DF  2EDA               	goto	u3265
  3324     16E0                     l2673:
  3325     16E0  3001               	movlw	1
  3326     16E1                     u3275:
  3327     16E1  1003               	clrc
  3328     16E2  0CF1               	rrf	___wmul@multiplier+1,f
  3329     16E3  0CF0               	rrf	___wmul@multiplier,f
  3330     16E4  3EFF               	addlw	-1
  3331     16E5  1D03               	skipz
  3332     16E6  2EE1               	goto	u3275
  3333     16E7                     l2675:
  3334     16E7  0870               	movf	___wmul@multiplier,w
  3335     16E8  0471               	iorwf	___wmul@multiplier+1,w
  3336     16E9  1D03               	btfss	3,2
  3337     16EA  2EEC               	goto	u3281
  3338     16EB  2EED               	goto	u3280
  3339     16EC                     u3281:
  3340     16EC  2ECF               	goto	l2669
  3341     16ED                     u3280:
  3342     16ED                     l2677:
  3343     16ED  0875               	movf	___wmul@product+1,w
  3344     16EE  00F1               	movwf	?___wmul+1
  3345     16EF  0874               	movf	___wmul@product,w
  3346     16F0  00F0               	movwf	?___wmul
  3347     16F1                     l380:
  3348     16F1  0008               	return
  3349     16F2                     __end_of___wmul:
  3350                           
  3351                           	psect	text11
  3352     0009                     __ptext11:	
  3353 ;; *************** function ___fltol *****************
  3354 ;; Defined at:
  3355 ;;		line 43 in file "C:\Program Files\Microchip\xc8\v3.10\pic\sources\c99\common\fltol.c"
  3356 ;; Parameters:    Size  Location     Type
  3357 ;;  f1              4   66[BANK0 ] unsigned int 
  3358 ;; Auto vars:     Size  Location     Type
  3359 ;;  exp1            1   75[BANK0 ] unsigned char 
  3360 ;;  sign1           1   74[BANK0 ] unsigned char 
  3361 ;; Return value:  Size  Location     Type
  3362 ;;                  4   66[BANK0 ] long 
  3363 ;; Registers used:
  3364 ;;		wreg, status,2, status,0
  3365 ;; Tracked objects:
  3366 ;;		On entry : 0/0
  3367 ;;		On exit  : 0/0
  3368 ;;		Unchanged: 0/0
  3369 ;; Data sizes:     COMMON   BANK0   BANK1   BANK3   BANK2
  3370 ;;      Params:         0       4       0       0       0
  3371 ;;      Locals:         0       2       0       0       0
  3372 ;;      Temps:          0       4       0       0       0
  3373 ;;      Totals:         0      10       0       0       0
  3374 ;;Total ram usage:       10 bytes
  3375 ;; Hardware stack levels used: 1
  3376 ;; This function calls:
  3377 ;;		Nothing
  3378 ;; This function is called by:
  3379 ;;		_float_to_string_dht22
  3380 ;; This function uses a non-reentrant model
  3381 ;;
  3382                           
  3383     0009                     ___fltol:	
  3384                           ;psect for function ___fltol
  3385                           
  3386     0009                     l2709:	
  3387                           ;incstack = 0
  3388                           ; Regs used in ___fltol: [wreg+status,2+status,0]
  3389                           
  3390     0009  1003               	clrc
  3391     000A  1283               	bcf	3,5	;RP0=0, select bank0
  3392     000B  1303               	bcf	3,6	;RP1=0, select bank0
  3393     000C  0D64               	rlf	___fltol@f1+2,w
  3394     000D  0D65               	rlf	___fltol@f1+3,w
  3395     000E  00EB               	movwf	___fltol@exp1
  3396     000F  086B               	movf	___fltol@exp1,w
  3397     0010  1D03               	btfss	3,2
  3398     0011  2813               	goto	u3371
  3399     0012  2814               	goto	u3370
  3400     0013                     u3371:
  3401     0013  281D               	goto	l2715
  3402     0014                     u3370:
  3403     0014                     l2711:
  3404     0014  3000               	movlw	0
  3405     0015  00E5               	movwf	?___fltol+3
  3406     0016  3000               	movlw	0
  3407     0017  00E4               	movwf	?___fltol+2
  3408     0018  3000               	movlw	0
  3409     0019  00E3               	movwf	?___fltol+1
  3410     001A  3000               	movlw	0
  3411     001B  00E2               	movwf	?___fltol
  3412     001C  287E               	goto	l572
  3413     001D                     l2715:
  3414     001D  0862               	movf	___fltol@f1,w
  3415     001E  00E6               	movwf	??___fltol
  3416     001F  0863               	movf	___fltol@f1+1,w
  3417     0020  00E7               	movwf	??___fltol+1
  3418     0021  0864               	movf	___fltol@f1+2,w
  3419     0022  00E8               	movwf	??___fltol+2
  3420     0023  0865               	movf	___fltol@f1+3,w
  3421     0024  00E9               	movwf	??___fltol+3
  3422     0025  301F               	movlw	31
  3423     0026                     u3385:
  3424     0026  1003               	clrc
  3425     0027  0CE9               	rrf	??___fltol+3,f
  3426     0028  0CE8               	rrf	??___fltol+2,f
  3427     0029  0CE7               	rrf	??___fltol+1,f
  3428     002A  0CE6               	rrf	??___fltol,f
  3429     002B                     u3380:
  3430     002B  3EFF               	addlw	-1
  3431     002C  1D03               	skipz
  3432     002D  2826               	goto	u3385
  3433     002E  0866               	movf	??___fltol,w
  3434     002F  00EA               	movwf	___fltol@sign1
  3435     0030                     l2717:
  3436     0030  17E4               	bsf	___fltol@f1+2,7
  3437     0031                     l2719:
  3438     0031  30FF               	movlw	255
  3439     0032  05E2               	andwf	___fltol@f1,f
  3440     0033  30FF               	movlw	255
  3441     0034  05E3               	andwf	___fltol@f1+1,f
  3442     0035  30FF               	movlw	255
  3443     0036  05E4               	andwf	___fltol@f1+2,f
  3444     0037  3000               	movlw	0
  3445     0038  05E5               	andwf	___fltol@f1+3,f
  3446     0039                     l2721:
  3447     0039  3096               	movlw	150
  3448     003A  02EB               	subwf	___fltol@exp1,f
  3449     003B                     l2723:
  3450     003B  1FEB               	btfss	___fltol@exp1,7
  3451     003C  283E               	goto	u3391
  3452     003D  283F               	goto	u3390
  3453     003E                     u3391:
  3454     003E  2857               	goto	l2733
  3455     003F                     u3390:
  3456     003F                     l2725:
  3457     003F  086B               	movf	___fltol@exp1,w
  3458     0040  3A80               	xorlw	128
  3459     0041  3E97               	addlw	151
  3460     0042  1803               	skipnc
  3461     0043  2845               	goto	u3401
  3462     0044  2846               	goto	u3400
  3463     0045                     u3401:
  3464     0045  2847               	goto	l2731
  3465     0046                     u3400:
  3466     0046  2814               	goto	l2711
  3467     0047                     l2731:
  3468     0047  3001               	movlw	1
  3469     0048                     u3415:
  3470     0048  1003               	clrc
  3471     0049  0CE5               	rrf	___fltol@f1+3,f
  3472     004A  0CE4               	rrf	___fltol@f1+2,f
  3473     004B  0CE3               	rrf	___fltol@f1+1,f
  3474     004C  0CE2               	rrf	___fltol@f1,f
  3475     004D  3EFF               	addlw	-1
  3476     004E  1D03               	skipz
  3477     004F  2848               	goto	u3415
  3478     0050  3001               	movlw	1
  3479     0051  07EB               	addwf	___fltol@exp1,f
  3480     0052  1D03               	btfss	3,2
  3481     0053  2855               	goto	u3421
  3482     0054  2856               	goto	u3420
  3483     0055                     u3421:
  3484     0055  2847               	goto	l2731
  3485     0056                     u3420:
  3486     0056  286E               	goto	l2741
  3487     0057                     l2733:
  3488     0057  3020               	movlw	32
  3489     0058  026B               	subwf	___fltol@exp1,w
  3490     0059  1C03               	skipc
  3491     005A  285C               	goto	u3431
  3492     005B  285D               	goto	u3430
  3493     005C                     u3431:
  3494     005C  2869               	goto	l579
  3495     005D                     u3430:
  3496     005D  2814               	goto	l2711
  3497     005E                     l2739:
  3498     005E  3001               	movlw	1
  3499     005F  00E6               	movwf	??___fltol
  3500     0060                     u3445:
  3501     0060  1003               	clrc
  3502     0061  0DE2               	rlf	___fltol@f1,f
  3503     0062  0DE3               	rlf	___fltol@f1+1,f
  3504     0063  0DE4               	rlf	___fltol@f1+2,f
  3505     0064  0DE5               	rlf	___fltol@f1+3,f
  3506     0065  0BE6               	decfsz	??___fltol,f
  3507     0066  2860               	goto	u3445
  3508     0067  3001               	movlw	1
  3509     0068  02EB               	subwf	___fltol@exp1,f
  3510     0069                     l579:
  3511     0069  086B               	movf	___fltol@exp1,w
  3512     006A  1D03               	btfss	3,2
  3513     006B  286D               	goto	u3451
  3514     006C  286E               	goto	u3450
  3515     006D                     u3451:
  3516     006D  285E               	goto	l2739
  3517     006E                     u3450:
  3518     006E                     l2741:
  3519     006E  086A               	movf	___fltol@sign1,w
  3520     006F  1903               	btfsc	3,2
  3521     0070  2872               	goto	u3461
  3522     0071  2873               	goto	u3460
  3523     0072                     u3461:
  3524     0072  287E               	goto	l582
  3525     0073                     u3460:
  3526     0073                     l2743:
  3527     0073  09E2               	comf	___fltol@f1,f
  3528     0074  09E3               	comf	___fltol@f1+1,f
  3529     0075  09E4               	comf	___fltol@f1+2,f
  3530     0076  09E5               	comf	___fltol@f1+3,f
  3531     0077  0AE2               	incf	___fltol@f1,f
  3532     0078  1903               	skipnz
  3533     0079  0AE3               	incf	___fltol@f1+1,f
  3534     007A  1903               	skipnz
  3535     007B  0AE4               	incf	___fltol@f1+2,f
  3536     007C  1903               	skipnz
  3537     007D  0AE5               	incf	___fltol@f1+3,f
  3538     007E                     l582:
  3539     007E                     l572:
  3540     007E  0008               	return
  3541     007F                     __end_of___fltol:
  3542                           
  3543                           	psect	text12
  3544     16A9                     __ptext12:	
  3545 ;; *************** function ___flsub *****************
  3546 ;; Defined at:
  3547 ;;		line 242 in file "C:\Program Files\Microchip\xc8\v3.10\pic\sources\c99\common\sprcadd.c"
  3548 ;; Parameters:    Size  Location     Type
  3549 ;;  a               4   58[BANK0 ] long 
  3550 ;;  b               4   62[BANK0 ] long 
  3551 ;; Auto vars:     Size  Location     Type
  3552 ;;		None
  3553 ;; Return value:  Size  Location     Type
  3554 ;;                  4   58[BANK0 ] long 
  3555 ;; Registers used:
  3556 ;;		wreg, status,2, status,0, pclath, btemp1, cstack
  3557 ;; Tracked objects:
  3558 ;;		On entry : 0/0
  3559 ;;		On exit  : 0/0
  3560 ;;		Unchanged: 0/0
  3561 ;; Data sizes:     COMMON   BANK0   BANK1   BANK3   BANK2
  3562 ;;      Params:         0       8       0       0       0
  3563 ;;      Locals:         0       0       0       0       0
  3564 ;;      Temps:          0       0       0       0       0
  3565 ;;      Totals:         0       8       0       0       0
  3566 ;;Total ram usage:        8 bytes
  3567 ;; Hardware stack levels used: 1
  3568 ;; Hardware stack levels required when called: 1
  3569 ;; This function calls:
  3570 ;;		___fladd
  3571 ;; This function is called by:
  3572 ;;		_float_to_string_dht22
  3573 ;; This function uses a non-reentrant model
  3574 ;;
  3575                           
  3576     16A9                     ___flsub:	
  3577                           ;psect for function ___flsub
  3578                           
  3579     16A9                     l2745:	
  3580                           ;incstack = 0
  3581                           ; Regs used in ___flsub: [wreg+status,2+status,0+pclath+btemp1+cstack]
  3582                           
  3583     16A9  3080               	movlw	128
  3584     16AA  1283               	bcf	3,5	;RP0=0, select bank0
  3585     16AB  1303               	bcf	3,6	;RP1=0, select bank0
  3586     16AC  06DD               	xorwf	___flsub@a+3,f
  3587     16AD                     l2747:
  3588     16AD  0861               	movf	___flsub@b+3,w
  3589     16AE  00F3               	movwf	___fladd@b+3
  3590     16AF  0860               	movf	___flsub@b+2,w
  3591     16B0  00F2               	movwf	___fladd@b+2
  3592     16B1  085F               	movf	___flsub@b+1,w
  3593     16B2  00F1               	movwf	___fladd@b+1
  3594     16B3  085E               	movf	___flsub@b,w
  3595     16B4  00F0               	movwf	___fladd@b
  3596     16B5  085D               	movf	___flsub@a+3,w
  3597     16B6  00F7               	movwf	___fladd@a+3
  3598     16B7  085C               	movf	___flsub@a+2,w
  3599     16B8  00F6               	movwf	___fladd@a+2
  3600     16B9  085B               	movf	___flsub@a+1,w
  3601     16BA  00F5               	movwf	___fladd@a+1
  3602     16BB  085A               	movf	___flsub@a,w
  3603     16BC  00F4               	movwf	___fladd@a
  3604     16BD  120A  118A  2249  160A  118A  	fcall	___fladd
  3605     16C2  0873               	movf	?___fladd+3,w
  3606     16C3  1283               	bcf	3,5	;RP0=0, select bank0
  3607     16C4  1303               	bcf	3,6	;RP1=0, select bank0
  3608     16C5  00DD               	movwf	?___flsub+3
  3609     16C6  0872               	movf	?___fladd+2,w
  3610     16C7  00DC               	movwf	?___flsub+2
  3611     16C8  0871               	movf	?___fladd+1,w
  3612     16C9  00DB               	movwf	?___flsub+1
  3613     16CA  0870               	movf	?___fladd,w
  3614     16CB  00DA               	movwf	?___flsub
  3615     16CC                     l725:
  3616     16CC  0008               	return
  3617     16CD                     __end_of___flsub:
  3618                           
  3619                           	psect	text13
  3620     0249                     __ptext13:	
  3621 ;; *************** function ___fladd *****************
  3622 ;; Defined at:
  3623 ;;		line 10 in file "C:\Program Files\Microchip\xc8\v3.10\pic\sources\c99\common\sprcadd.c"
  3624 ;; Parameters:    Size  Location     Type
  3625 ;;  b               4    0[COMMON] long 
  3626 ;;  a               4    4[COMMON] long 
  3627 ;; Auto vars:     Size  Location     Type
  3628 ;;  grs             1   11[COMMON] unsigned char 
  3629 ;;  bexp            1   10[COMMON] unsigned char 
  3630 ;;  aexp            1    9[COMMON] unsigned char 
  3631 ;;  signs           1    8[COMMON] unsigned char 
  3632 ;; Return value:  Size  Location     Type
  3633 ;;                  4    0[COMMON] unsigned char 
  3634 ;; Registers used:
  3635 ;;		wreg, status,2, status,0, btemp1
  3636 ;; Tracked objects:
  3637 ;;		On entry : 0/0
  3638 ;;		On exit  : 0/0
  3639 ;;		Unchanged: 0/0
  3640 ;; Data sizes:     COMMON   BANK0   BANK1   BANK3   BANK2
  3641 ;;      Params:         8       0       0       0       0
  3642 ;;      Locals:         4       0       0       0       0
  3643 ;;      Temps:          0       8       0       0       0
  3644 ;;      Totals:        12       8       0       0       0
  3645 ;;Total ram usage:       20 bytes
  3646 ;; Hardware stack levels used: 1
  3647 ;; This function calls:
  3648 ;;		Nothing
  3649 ;; This function is called by:
  3650 ;;		___flsub
  3651 ;;		_dht11_read
  3652 ;; This function uses a non-reentrant model
  3653 ;;
  3654                           
  3655     0249                     ___fladd:	
  3656                           ;psect for function ___fladd
  3657                           
  3658     0249                     l2387:	
  3659                           ;incstack = 0
  3660                           ; Regs used in ___fladd: [wreg+status,2+status,0+btemp1]
  3661                           
  3662     0249  0873               	movf	___fladd@b+3,w
  3663     024A  00F8               	movwf	___fladd@signs
  3664     024B                     l2389:
  3665     024B  3080               	movlw	128
  3666     024C  05F8               	andwf	___fladd@signs,f
  3667     024D                     l2391:
  3668     024D  0873               	movf	___fladd@b+3,w
  3669     024E  1283               	bcf	3,5	;RP0=0, select bank0
  3670     024F  1303               	bcf	3,6	;RP1=0, select bank0
  3671     0250  00A0               	movwf	??___fladd
  3672     0251  0720               	addwf	??___fladd,w
  3673     0252  00FA               	movwf	___fladd@bexp
  3674     0253                     l2393:
  3675     0253  1FF2               	btfss	___fladd@b+2,7
  3676     0254  2A56               	goto	u2731
  3677     0255  2A57               	goto	u2730
  3678     0256                     u2731:
  3679     0256  2A58               	goto	l2397
  3680     0257                     u2730:
  3681     0257                     l2395:
  3682     0257  147A               	bsf	___fladd@bexp,0
  3683     0258                     l2397:
  3684     0258  087A               	movf	___fladd@bexp,w
  3685     0259  1903               	btfsc	3,2
  3686     025A  2A5C               	goto	u2741
  3687     025B  2A5D               	goto	u2740
  3688     025C                     u2741:
  3689     025C  2A6D               	goto	l2407
  3690     025D                     u2740:
  3691     025D                     l2399:
  3692     025D  0A7A               	incf	___fladd@bexp,w
  3693     025E  1D03               	btfss	3,2
  3694     025F  2A61               	goto	u2751
  3695     0260  2A62               	goto	u2750
  3696     0261                     u2751:
  3697     0261  2A6A               	goto	l2403
  3698     0262                     u2750:
  3699     0262                     l2401:
  3700     0262  3000               	movlw	0
  3701     0263  00F3               	movwf	___fladd@b+3
  3702     0264  3000               	movlw	0
  3703     0265  00F2               	movwf	___fladd@b+2
  3704     0266  3000               	movlw	0
  3705     0267  00F1               	movwf	___fladd@b+1
  3706     0268  3000               	movlw	0
  3707     0269  00F0               	movwf	___fladd@b
  3708     026A                     l2403:
  3709     026A  17F2               	bsf	___fladd@b+2,7
  3710     026B                     l2405:
  3711     026B  01F3               	clrf	___fladd@b+3
  3712     026C  2A75               	goto	l674
  3713     026D                     l2407:
  3714     026D  3000               	movlw	0
  3715     026E  00F3               	movwf	___fladd@b+3
  3716     026F  3000               	movlw	0
  3717     0270  00F2               	movwf	___fladd@b+2
  3718     0271  3000               	movlw	0
  3719     0272  00F1               	movwf	___fladd@b+1
  3720     0273  3000               	movlw	0
  3721     0274  00F0               	movwf	___fladd@b
  3722     0275                     l674:
  3723     0275  0877               	movf	___fladd@a+3,w
  3724     0276  00F9               	movwf	___fladd@aexp
  3725     0277                     l2409:
  3726     0277  3080               	movlw	128
  3727     0278  05F9               	andwf	___fladd@aexp,f
  3728     0279                     l2411:
  3729     0279  0879               	movf	___fladd@aexp,w
  3730     027A  0678               	xorwf	___fladd@signs,w
  3731     027B  1903               	skipnz
  3732     027C  2A7E               	goto	u2761
  3733     027D  2A7F               	goto	u2760
  3734     027E                     u2761:
  3735     027E  2A80               	goto	l2415
  3736     027F                     u2760:
  3737     027F                     l2413:
  3738     027F  1778               	bsf	___fladd@signs,6
  3739     0280                     l2415:
  3740     0280  0877               	movf	___fladd@a+3,w
  3741     0281  00A0               	movwf	??___fladd
  3742     0282  0720               	addwf	??___fladd,w
  3743     0283  00F9               	movwf	___fladd@aexp
  3744     0284                     l2417:
  3745     0284  1FF6               	btfss	___fladd@a+2,7
  3746     0285  2A87               	goto	u2771
  3747     0286  2A88               	goto	u2770
  3748     0287                     u2771:
  3749     0287  2A89               	goto	l2421
  3750     0288                     u2770:
  3751     0288                     l2419:
  3752     0288  1479               	bsf	___fladd@aexp,0
  3753     0289                     l2421:
  3754     0289  0879               	movf	___fladd@aexp,w
  3755     028A  1903               	btfsc	3,2
  3756     028B  2A8D               	goto	u2781
  3757     028C  2A8E               	goto	u2780
  3758     028D                     u2781:
  3759     028D  2A9E               	goto	l2431
  3760     028E                     u2780:
  3761     028E                     l2423:
  3762     028E  0A79               	incf	___fladd@aexp,w
  3763     028F  1D03               	btfss	3,2
  3764     0290  2A92               	goto	u2791
  3765     0291  2A93               	goto	u2790
  3766     0292                     u2791:
  3767     0292  2A9B               	goto	l2427
  3768     0293                     u2790:
  3769     0293                     l2425:
  3770     0293  3000               	movlw	0
  3771     0294  00F7               	movwf	___fladd@a+3
  3772     0295  3000               	movlw	0
  3773     0296  00F6               	movwf	___fladd@a+2
  3774     0297  3000               	movlw	0
  3775     0298  00F5               	movwf	___fladd@a+1
  3776     0299  3000               	movlw	0
  3777     029A  00F4               	movwf	___fladd@a
  3778     029B                     l2427:
  3779     029B  17F6               	bsf	___fladd@a+2,7
  3780     029C                     l2429:
  3781     029C  01F7               	clrf	___fladd@a+3
  3782     029D  2AA6               	goto	l679
  3783     029E                     l2431:
  3784     029E  3000               	movlw	0
  3785     029F  00F7               	movwf	___fladd@a+3
  3786     02A0  3000               	movlw	0
  3787     02A1  00F6               	movwf	___fladd@a+2
  3788     02A2  3000               	movlw	0
  3789     02A3  00F5               	movwf	___fladd@a+1
  3790     02A4  3000               	movlw	0
  3791     02A5  00F4               	movwf	___fladd@a
  3792     02A6                     l679:
  3793     02A6  087A               	movf	___fladd@bexp,w
  3794     02A7  0279               	subwf	___fladd@aexp,w
  3795     02A8  1803               	skipnc
  3796     02A9  2AAB               	goto	u2801
  3797     02AA  2AAC               	goto	u2800
  3798     02AB                     u2801:
  3799     02AB  2AD0               	goto	l2467
  3800     02AC                     u2800:
  3801     02AC                     l2433:
  3802     02AC  1F78               	btfss	___fladd@signs,6
  3803     02AD  2AAF               	goto	u2811
  3804     02AE  2AB0               	goto	u2810
  3805     02AF                     u2811:
  3806     02AF  2AB2               	goto	l2437
  3807     02B0                     u2810:
  3808     02B0                     l2435:
  3809     02B0  3080               	movlw	128
  3810     02B1  06F8               	xorwf	___fladd@signs,f
  3811     02B2                     l2437:
  3812     02B2  087A               	movf	___fladd@bexp,w
  3813     02B3  00FB               	movwf	___fladd@grs
  3814     02B4                     l2439:
  3815     02B4  0879               	movf	___fladd@aexp,w
  3816     02B5  00FA               	movwf	___fladd@bexp
  3817     02B6                     l2441:
  3818     02B6  087B               	movf	___fladd@grs,w
  3819     02B7  00F9               	movwf	___fladd@aexp
  3820     02B8                     l2443:
  3821     02B8  0870               	movf	___fladd@b,w
  3822     02B9  00FB               	movwf	___fladd@grs
  3823     02BA                     l2445:
  3824     02BA  0874               	movf	___fladd@a,w
  3825     02BB  00F0               	movwf	___fladd@b
  3826     02BC                     l2447:
  3827     02BC  087B               	movf	___fladd@grs,w
  3828     02BD  00F4               	movwf	___fladd@a
  3829     02BE                     l2449:
  3830     02BE  0871               	movf	___fladd@b+1,w
  3831     02BF  00FB               	movwf	___fladd@grs
  3832     02C0                     l2451:
  3833     02C0  0875               	movf	___fladd@a+1,w
  3834     02C1  00F1               	movwf	___fladd@b+1
  3835     02C2                     l2453:
  3836     02C2  087B               	movf	___fladd@grs,w
  3837     02C3  00F5               	movwf	___fladd@a+1
  3838     02C4                     l2455:
  3839     02C4  0872               	movf	___fladd@b+2,w
  3840     02C5  00FB               	movwf	___fladd@grs
  3841     02C6                     l2457:
  3842     02C6  0876               	movf	___fladd@a+2,w
  3843     02C7  00F2               	movwf	___fladd@b+2
  3844     02C8                     l2459:
  3845     02C8  087B               	movf	___fladd@grs,w
  3846     02C9  00F6               	movwf	___fladd@a+2
  3847     02CA                     l2461:
  3848     02CA  0873               	movf	___fladd@b+3,w
  3849     02CB  00FB               	movwf	___fladd@grs
  3850     02CC                     l2463:
  3851     02CC  0877               	movf	___fladd@a+3,w
  3852     02CD  00F3               	movwf	___fladd@b+3
  3853     02CE                     l2465:
  3854     02CE  087B               	movf	___fladd@grs,w
  3855     02CF  00F7               	movwf	___fladd@a+3
  3856     02D0                     l2467:
  3857     02D0  01FB               	clrf	___fladd@grs
  3858     02D1                     l2469:
  3859     02D1  0879               	movf	___fladd@aexp,w
  3860     02D2  00A0               	movwf	??___fladd
  3861     02D3  01A1               	clrf	??___fladd+1
  3862     02D4  0821               	movf	??___fladd+1,w
  3863     02D5  00A3               	movwf	??___fladd+3
  3864     02D6  087A               	movf	___fladd@bexp,w
  3865     02D7  0220               	subwf	??___fladd,w
  3866     02D8  00A2               	movwf	??___fladd+2
  3867     02D9  1C03               	skipc
  3868     02DA  03A3               	decf	??___fladd+3,f
  3869     02DB  0823               	movf	??___fladd+3,w
  3870     02DC  3A80               	xorlw	128
  3871     02DD  00FF               	movwf	btemp1
  3872     02DE  3080               	movlw	128
  3873     02DF  027F               	subwf	btemp1,w
  3874     02E0  1D03               	skipz
  3875     02E1  2AE4               	goto	u2825
  3876     02E2  301A               	movlw	26
  3877     02E3  0222               	subwf	??___fladd+2,w
  3878     02E4                     u2825:
  3879     02E4  1C03               	skipc
  3880     02E5  2AE7               	goto	u2821
  3881     02E6  2AE8               	goto	u2820
  3882     02E7                     u2821:
  3883     02E7  2B1F               	goto	l2485
  3884     02E8                     u2820:
  3885     02E8                     l2471:
  3886     02E8  0873               	movf	___fladd@b+3,w
  3887     02E9  0472               	iorwf	___fladd@b+2,w
  3888     02EA  0471               	iorwf	___fladd@b+1,w
  3889     02EB  0470               	iorwf	___fladd@b,w
  3890     02EC  1D03               	skipz
  3891     02ED  2AEF               	goto	u2831
  3892     02EE  2AF1               	goto	u2830
  3893     02EF                     u2831:
  3894     02EF  3001               	movlw	1
  3895     02F0  2AF2               	goto	u2840
  3896     02F1                     u2830:
  3897     02F1  3000               	movlw	0
  3898     02F2                     u2840:
  3899     02F2  00FB               	movwf	___fladd@grs
  3900     02F3  3000               	movlw	0
  3901     02F4  00F3               	movwf	___fladd@b+3
  3902     02F5  3000               	movlw	0
  3903     02F6  00F2               	movwf	___fladd@b+2
  3904     02F7  3000               	movlw	0
  3905     02F8  00F1               	movwf	___fladd@b+1
  3906     02F9  3000               	movlw	0
  3907     02FA  00F0               	movwf	___fladd@b
  3908     02FB  0879               	movf	___fladd@aexp,w
  3909     02FC  00FA               	movwf	___fladd@bexp
  3910     02FD  2B25               	goto	l683
  3911     02FE                     l685:
  3912     02FE  1C7B               	btfss	___fladd@grs,0
  3913     02FF  2B01               	goto	u2851
  3914     0300  2B02               	goto	u2850
  3915     0301                     u2851:
  3916     0301  2B0B               	goto	l2475
  3917     0302                     u2850:
  3918     0302                     l2473:
  3919     0302  087B               	movf	___fladd@grs,w
  3920     0303  1283               	bcf	3,5	;RP0=0, select bank0
  3921     0304  1303               	bcf	3,6	;RP1=0, select bank0
  3922     0305  00A0               	movwf	??___fladd
  3923     0306  1003               	clrc
  3924     0307  0C20               	rrf	??___fladd,w
  3925     0308  3801               	iorlw	1
  3926     0309  00FB               	movwf	___fladd@grs
  3927     030A  2B0D               	goto	l2477
  3928     030B                     l2475:
  3929     030B  1003               	clrc
  3930     030C  0CFB               	rrf	___fladd@grs,f
  3931     030D                     l2477:
  3932     030D  1C70               	btfss	___fladd@b,0
  3933     030E  2B10               	goto	u2861
  3934     030F  2B11               	goto	u2860
  3935     0310                     u2861:
  3936     0310  2B12               	goto	l2481
  3937     0311                     u2860:
  3938     0311                     l2479:
  3939     0311  17FB               	bsf	___fladd@grs,7
  3940     0312                     l2481:
  3941     0312  3001               	movlw	1
  3942     0313  1283               	bcf	3,5	;RP0=0, select bank0
  3943     0314  1303               	bcf	3,6	;RP1=0, select bank0
  3944     0315  00A0               	movwf	??___fladd
  3945     0316                     u2875:
  3946     0316  0D73               	rlf	___fladd@b+3,w
  3947     0317  0CF3               	rrf	___fladd@b+3,f
  3948     0318  0CF2               	rrf	___fladd@b+2,f
  3949     0319  0CF1               	rrf	___fladd@b+1,f
  3950     031A  0CF0               	rrf	___fladd@b,f
  3951     031B  0BA0               	decfsz	??___fladd& (0+127),f
  3952     031C  2B16               	goto	u2875
  3953     031D                     l2483:
  3954     031D  3001               	movlw	1
  3955     031E  07FA               	addwf	___fladd@bexp,f
  3956     031F                     l2485:
  3957     031F  0879               	movf	___fladd@aexp,w
  3958     0320  027A               	subwf	___fladd@bexp,w
  3959     0321  1C03               	skipc
  3960     0322  2B24               	goto	u2881
  3961     0323  2B25               	goto	u2880
  3962     0324                     u2881:
  3963     0324  2AFE               	goto	l685
  3964     0325                     u2880:
  3965     0325                     l683:
  3966     0325  1B78               	btfsc	___fladd@signs,6
  3967     0326  2B28               	goto	u2891
  3968     0327  2B29               	goto	u2890
  3969     0328                     u2891:
  3970     0328  2B74               	goto	l2511
  3971     0329                     u2890:
  3972     0329                     l2487:
  3973     0329  087A               	movf	___fladd@bexp,w
  3974     032A  1D03               	btfss	3,2
  3975     032B  2B2D               	goto	u2901
  3976     032C  2B2E               	goto	u2900
  3977     032D                     u2901:
  3978     032D  2B37               	goto	l2493
  3979     032E                     u2900:
  3980     032E                     l2489:
  3981     032E  3000               	movlw	0
  3982     032F  00F3               	movwf	?___fladd+3
  3983     0330  3000               	movlw	0
  3984     0331  00F2               	movwf	?___fladd+2
  3985     0332  3000               	movlw	0
  3986     0333  00F1               	movwf	?___fladd+1
  3987     0334  3000               	movlw	0
  3988     0335  00F0               	movwf	?___fladd
  3989     0336  2CA4               	goto	l692
  3990     0337                     l2493:
  3991     0337  0874               	movf	___fladd@a,w
  3992     0338  07F0               	addwf	___fladd@b,f
  3993     0339  0875               	movf	___fladd@a+1,w
  3994     033A  1103               	clrz
  3995     033B  1803               	skipnc
  3996     033C  3E01               	addlw	1
  3997     033D  1903               	skipnz
  3998     033E  2B40               	goto	u2911
  3999     033F  07F1               	addwf	___fladd@b+1,f
  4000     0340                     u2911:
  4001     0340  0876               	movf	___fladd@a+2,w
  4002     0341  1103               	clrz
  4003     0342  1803               	skipnc
  4004     0343  3E01               	addlw	1
  4005     0344  1903               	skipnz
  4006     0345  2B47               	goto	u2912
  4007     0346  07F2               	addwf	___fladd@b+2,f
  4008     0347                     u2912:
  4009     0347  0877               	movf	___fladd@a+3,w
  4010     0348  1103               	clrz
  4011     0349  1803               	skipnc
  4012     034A  3E01               	addlw	1
  4013     034B  1903               	skipnz
  4014     034C  2B4E               	goto	u2913
  4015     034D  07F3               	addwf	___fladd@b+3,f
  4016     034E                     u2913:
  4017     034E                     l2495:
  4018     034E  1C73               	btfss	___fladd@b+3,0
  4019     034F  2B51               	goto	u2921
  4020     0350  2B52               	goto	u2920
  4021     0351                     u2921:
  4022     0351  2C2C               	goto	l2547
  4023     0352                     u2920:
  4024     0352                     l2497:
  4025     0352  1C7B               	btfss	___fladd@grs,0
  4026     0353  2B55               	goto	u2931
  4027     0354  2B56               	goto	u2930
  4028     0355                     u2931:
  4029     0355  2B5F               	goto	l2501
  4030     0356                     u2930:
  4031     0356                     l2499:
  4032     0356  087B               	movf	___fladd@grs,w
  4033     0357  1283               	bcf	3,5	;RP0=0, select bank0
  4034     0358  1303               	bcf	3,6	;RP1=0, select bank0
  4035     0359  00A0               	movwf	??___fladd
  4036     035A  1003               	clrc
  4037     035B  0C20               	rrf	??___fladd,w
  4038     035C  3801               	iorlw	1
  4039     035D  00FB               	movwf	___fladd@grs
  4040     035E  2B61               	goto	l2503
  4041     035F                     l2501:
  4042     035F  1003               	clrc
  4043     0360  0CFB               	rrf	___fladd@grs,f
  4044     0361                     l2503:
  4045     0361  1C70               	btfss	___fladd@b,0
  4046     0362  2B64               	goto	u2941
  4047     0363  2B65               	goto	u2940
  4048     0364                     u2941:
  4049     0364  2B66               	goto	l2507
  4050     0365                     u2940:
  4051     0365                     l2505:
  4052     0365  17FB               	bsf	___fladd@grs,7
  4053     0366                     l2507:
  4054     0366  3001               	movlw	1
  4055     0367  1283               	bcf	3,5	;RP0=0, select bank0
  4056     0368  1303               	bcf	3,6	;RP1=0, select bank0
  4057     0369  00A0               	movwf	??___fladd
  4058     036A                     u2955:
  4059     036A  0D73               	rlf	___fladd@b+3,w
  4060     036B  0CF3               	rrf	___fladd@b+3,f
  4061     036C  0CF2               	rrf	___fladd@b+2,f
  4062     036D  0CF1               	rrf	___fladd@b+1,f
  4063     036E  0CF0               	rrf	___fladd@b,f
  4064     036F  0BA0               	decfsz	??___fladd& (0+127),f
  4065     0370  2B6A               	goto	u2955
  4066     0371                     l2509:
  4067     0371  3001               	movlw	1
  4068     0372  07FA               	addwf	___fladd@bexp,f
  4069     0373  2C2C               	goto	l2547
  4070     0374                     l2511:
  4071     0374  0873               	movf	___fladd@b+3,w
  4072     0375  3A80               	xorlw	128
  4073     0376  00FF               	movwf	btemp1
  4074     0377  0877               	movf	___fladd@a+3,w
  4075     0378  3A80               	xorlw	128
  4076     0379  027F               	subwf	btemp1,w
  4077     037A  1D03               	skipz
  4078     037B  2B86               	goto	u2963
  4079     037C  0876               	movf	___fladd@a+2,w
  4080     037D  0272               	subwf	___fladd@b+2,w
  4081     037E  1D03               	skipz
  4082     037F  2B86               	goto	u2963
  4083     0380  0875               	movf	___fladd@a+1,w
  4084     0381  0271               	subwf	___fladd@b+1,w
  4085     0382  1D03               	skipz
  4086     0383  2B86               	goto	u2963
  4087     0384  0874               	movf	___fladd@a,w
  4088     0385  0270               	subwf	___fladd@b,w
  4089     0386                     u2963:
  4090     0386  1803               	skipnc
  4091     0387  2B89               	goto	u2961
  4092     0388  2B8A               	goto	u2960
  4093     0389                     u2961:
  4094     0389  2BE3               	goto	l2523
  4095     038A                     u2960:
  4096     038A                     l2513:
  4097     038A  30FF               	movlw	255
  4098     038B  1283               	bcf	3,5	;RP0=0, select bank0
  4099     038C  1303               	bcf	3,6	;RP1=0, select bank0
  4100     038D  00A0               	movwf	??___fladd
  4101     038E  30FF               	movlw	255
  4102     038F  00A1               	movwf	??___fladd+1
  4103     0390  30FF               	movlw	255
  4104     0391  00A2               	movwf	??___fladd+2
  4105     0392  30FF               	movlw	255
  4106     0393  00A3               	movwf	??___fladd+3
  4107     0394  0874               	movf	___fladd@a,w
  4108     0395  00A4               	movwf	??___fladd+4
  4109     0396  0875               	movf	___fladd@a+1,w
  4110     0397  00A5               	movwf	??___fladd+5
  4111     0398  0876               	movf	___fladd@a+2,w
  4112     0399  00A6               	movwf	??___fladd+6
  4113     039A  0877               	movf	___fladd@a+3,w
  4114     039B  00A7               	movwf	??___fladd+7
  4115     039C  0870               	movf	___fladd@b,w
  4116     039D  02A4               	subwf	??___fladd+4,f
  4117     039E  0871               	movf	___fladd@b+1,w
  4118     039F  1C03               	skipc
  4119     03A0  0F71               	incfsz	___fladd@b+1,w
  4120     03A1  2BA3               	goto	u2971
  4121     03A2  2BA4               	goto	u2972
  4122     03A3                     u2971:
  4123     03A3  02A5               	subwf	??___fladd+5,f
  4124     03A4                     u2972:
  4125     03A4  0872               	movf	___fladd@b+2,w
  4126     03A5  1C03               	skipc
  4127     03A6  0F72               	incfsz	___fladd@b+2,w
  4128     03A7  2BA9               	goto	u2973
  4129     03A8  2BAA               	goto	u2974
  4130     03A9                     u2973:
  4131     03A9  02A6               	subwf	??___fladd+6,f
  4132     03AA                     u2974:
  4133     03AA  0873               	movf	___fladd@b+3,w
  4134     03AB  1C03               	skipc
  4135     03AC  0F73               	incfsz	___fladd@b+3,w
  4136     03AD  2BAF               	goto	u2975
  4137     03AE  2BB0               	goto	u2976
  4138     03AF                     u2975:
  4139     03AF  02A7               	subwf	??___fladd+7,f
  4140     03B0                     u2976:
  4141     03B0  0824               	movf	??___fladd+4,w
  4142     03B1  07A0               	addwf	??___fladd,f
  4143     03B2  0825               	movf	??___fladd+5,w
  4144     03B3  1803               	skipnc
  4145     03B4  0F25               	incfsz	??___fladd+5,w
  4146     03B5  2BB7               	goto	u2980
  4147     03B6  2BB8               	goto	u2981
  4148     03B7                     u2980:
  4149     03B7  07A1               	addwf	??___fladd+1,f
  4150     03B8                     u2981:
  4151     03B8  0826               	movf	??___fladd+6,w
  4152     03B9  1803               	skipnc
  4153     03BA  0F26               	incfsz	??___fladd+6,w
  4154     03BB  2BBD               	goto	u2982
  4155     03BC  2BBE               	goto	u2983
  4156     03BD                     u2982:
  4157     03BD  07A2               	addwf	??___fladd+2,f
  4158     03BE                     u2983:
  4159     03BE  0827               	movf	??___fladd+7,w
  4160     03BF  1803               	skipnc
  4161     03C0  0A27               	incf	??___fladd+7,w
  4162     03C1  07A3               	addwf	??___fladd+3,f
  4163     03C2  0823               	movf	??___fladd+3,w
  4164     03C3  00F3               	movwf	___fladd@b+3
  4165     03C4  0822               	movf	??___fladd+2,w
  4166     03C5  00F2               	movwf	___fladd@b+2
  4167     03C6  0821               	movf	??___fladd+1,w
  4168     03C7  00F1               	movwf	___fladd@b+1
  4169     03C8  0820               	movf	??___fladd,w
  4170     03C9  00F0               	movwf	___fladd@b
  4171     03CA                     l2515:
  4172     03CA  3080               	movlw	128
  4173     03CB  06F8               	xorwf	___fladd@signs,f
  4174     03CC                     l2517:
  4175     03CC  037B               	decf	___fladd@grs,w
  4176     03CD  3AFF               	xorlw	255
  4177     03CE  00FB               	movwf	___fladd@grs
  4178     03CF                     l2519:
  4179     03CF  087B               	movf	___fladd@grs,w
  4180     03D0  1D03               	btfss	3,2
  4181     03D1  2BD3               	goto	u2991
  4182     03D2  2BD4               	goto	u2990
  4183     03D3                     u2991:
  4184     03D3  2BF1               	goto	l700
  4185     03D4                     u2990:
  4186     03D4                     l2521:
  4187     03D4  3001               	movlw	1
  4188     03D5  07F0               	addwf	___fladd@b,f
  4189     03D6  3000               	movlw	0
  4190     03D7  1803               	skipnc
  4191     03D8  3001               	movlw	1
  4192     03D9  07F1               	addwf	___fladd@b+1,f
  4193     03DA  3000               	movlw	0
  4194     03DB  1803               	skipnc
  4195     03DC  3001               	movlw	1
  4196     03DD  07F2               	addwf	___fladd@b+2,f
  4197     03DE  3000               	movlw	0
  4198     03DF  1803               	skipnc
  4199     03E0  3001               	movlw	1
  4200     03E1  07F3               	addwf	___fladd@b+3,f
  4201     03E2  2BF1               	goto	l700
  4202     03E3                     l2523:
  4203     03E3  0874               	movf	___fladd@a,w
  4204     03E4  02F0               	subwf	___fladd@b,f
  4205     03E5  0875               	movf	___fladd@a+1,w
  4206     03E6  1C03               	skipc
  4207     03E7  0F75               	incfsz	___fladd@a+1,w
  4208     03E8  02F1               	subwf	___fladd@b+1,f
  4209     03E9  0876               	movf	___fladd@a+2,w
  4210     03EA  1C03               	skipc
  4211     03EB  0F76               	incfsz	___fladd@a+2,w
  4212     03EC  02F2               	subwf	___fladd@b+2,f
  4213     03ED  0877               	movf	___fladd@a+3,w
  4214     03EE  1C03               	skipc
  4215     03EF  0F77               	incfsz	___fladd@a+3,w
  4216     03F0  02F3               	subwf	___fladd@b+3,f
  4217     03F1                     l700:
  4218     03F1  0873               	movf	___fladd@b+3,w
  4219     03F2  0472               	iorwf	___fladd@b+2,w
  4220     03F3  0471               	iorwf	___fladd@b+1,w
  4221     03F4  0470               	iorwf	___fladd@b,w
  4222     03F5  1D03               	skipz
  4223     03F6  2BF8               	goto	u3001
  4224     03F7  2BF9               	goto	u3000
  4225     03F8                     u3001:
  4226     03F8  2C28               	goto	l2545
  4227     03F9                     u3000:
  4228     03F9                     l2525:
  4229     03F9  087B               	movf	___fladd@grs,w
  4230     03FA  1D03               	btfss	3,2
  4231     03FB  2BFD               	goto	u3011
  4232     03FC  2BFE               	goto	u3010
  4233     03FD                     u3011:
  4234     03FD  2C28               	goto	l2545
  4235     03FE                     u3010:
  4236     03FE                     l2527:
  4237     03FE  3000               	movlw	0
  4238     03FF  00F3               	movwf	?___fladd+3
  4239     0400  3000               	movlw	0
  4240     0401  00F2               	movwf	?___fladd+2
  4241     0402  3000               	movlw	0
  4242     0403  00F1               	movwf	?___fladd+1
  4243     0404  3000               	movlw	0
  4244     0405  00F0               	movwf	?___fladd
  4245     0406  2CA4               	goto	l692
  4246     0407                     l2531:
  4247     0407  3001               	movlw	1
  4248     0408  1283               	bcf	3,5	;RP0=0, select bank0
  4249     0409  1303               	bcf	3,6	;RP1=0, select bank0
  4250     040A  00A0               	movwf	??___fladd
  4251     040B                     u3025:
  4252     040B  1003               	clrc
  4253     040C  0DF0               	rlf	___fladd@b,f
  4254     040D  0DF1               	rlf	___fladd@b+1,f
  4255     040E  0DF2               	rlf	___fladd@b+2,f
  4256     040F  0DF3               	rlf	___fladd@b+3,f
  4257     0410  0BA0               	decfsz	??___fladd,f
  4258     0411  2C0B               	goto	u3025
  4259     0412                     l2533:
  4260     0412  1FFB               	btfss	___fladd@grs,7
  4261     0413  2C15               	goto	u3031
  4262     0414  2C16               	goto	u3030
  4263     0415                     u3031:
  4264     0415  2C17               	goto	l704
  4265     0416                     u3030:
  4266     0416                     l2535:
  4267     0416  1470               	bsf	___fladd@b,0
  4268     0417                     l704:
  4269     0417  1C7B               	btfss	___fladd@grs,0
  4270     0418  2C1A               	goto	u3041
  4271     0419  2C1B               	goto	u3040
  4272     041A                     u3041:
  4273     041A  2C1F               	goto	l2539
  4274     041B                     u3040:
  4275     041B                     l2537:
  4276     041B  1403               	setc
  4277     041C  0D7B               	rlf	___fladd@grs,w
  4278     041D  00FB               	movwf	___fladd@grs
  4279     041E  2C21               	goto	l2541
  4280     041F                     l2539:
  4281     041F  1003               	clrc
  4282     0420  0DFB               	rlf	___fladd@grs,f
  4283     0421                     l2541:
  4284     0421  087A               	movf	___fladd@bexp,w
  4285     0422  1903               	btfsc	3,2
  4286     0423  2C25               	goto	u3051
  4287     0424  2C26               	goto	u3050
  4288     0425                     u3051:
  4289     0425  2C28               	goto	l2545
  4290     0426                     u3050:
  4291     0426                     l2543:
  4292     0426  3001               	movlw	1
  4293     0427  02FA               	subwf	___fladd@bexp,f
  4294     0428                     l2545:
  4295     0428  1FF2               	btfss	___fladd@b+2,7
  4296     0429  2C2B               	goto	u3061
  4297     042A  2C2C               	goto	u3060
  4298     042B                     u3061:
  4299     042B  2C07               	goto	l2531
  4300     042C                     u3060:
  4301     042C                     l2547:
  4302     042C  01F9               	clrf	___fladd@aexp
  4303     042D                     l2549:
  4304     042D  1FFB               	btfss	___fladd@grs,7
  4305     042E  2C30               	goto	u3071
  4306     042F  2C31               	goto	u3070
  4307     0430                     u3071:
  4308     0430  2C3F               	goto	l2557
  4309     0431                     u3070:
  4310     0431                     l2551:
  4311     0431  087B               	movf	___fladd@grs,w
  4312     0432  397F               	andlw	127
  4313     0433  1903               	btfsc	3,2
  4314     0434  2C36               	goto	u3081
  4315     0435  2C37               	goto	u3080
  4316     0436                     u3081:
  4317     0436  2C3A               	goto	l710
  4318     0437                     u3080:
  4319     0437                     l2553:
  4320     0437  3001               	movlw	1
  4321     0438  00F9               	movwf	___fladd@aexp
  4322     0439  2C3F               	goto	l2557
  4323     043A                     l710:
  4324     043A  1C70               	btfss	___fladd@b,0
  4325     043B  2C3D               	goto	u3091
  4326     043C  2C3E               	goto	u3090
  4327     043D                     u3091:
  4328     043D  2C3F               	goto	l2557
  4329     043E                     u3090:
  4330     043E  2C37               	goto	l2553
  4331     043F                     l2557:
  4332     043F  0879               	movf	___fladd@aexp,w
  4333     0440  1903               	btfsc	3,2
  4334     0441  2C43               	goto	u3101
  4335     0442  2C44               	goto	u3100
  4336     0443                     u3101:
  4337     0443  2C78               	goto	l713
  4338     0444                     u3100:
  4339     0444                     l2559:
  4340     0444  3001               	movlw	1
  4341     0445  07F0               	addwf	___fladd@b,f
  4342     0446  3000               	movlw	0
  4343     0447  1803               	skipnc
  4344     0448  3001               	movlw	1
  4345     0449  07F1               	addwf	___fladd@b+1,f
  4346     044A  3000               	movlw	0
  4347     044B  1803               	skipnc
  4348     044C  3001               	movlw	1
  4349     044D  07F2               	addwf	___fladd@b+2,f
  4350     044E  3000               	movlw	0
  4351     044F  1803               	skipnc
  4352     0450  3001               	movlw	1
  4353     0451  07F3               	addwf	___fladd@b+3,f
  4354     0452                     l2561:
  4355     0452  1C73               	btfss	___fladd@b+3,0
  4356     0453  2C55               	goto	u3111
  4357     0454  2C56               	goto	u3110
  4358     0455                     u3111:
  4359     0455  2C78               	goto	l713
  4360     0456                     u3110:
  4361     0456                     l2563:
  4362     0456  0870               	movf	___fladd@b,w
  4363     0457  1283               	bcf	3,5	;RP0=0, select bank0
  4364     0458  1303               	bcf	3,6	;RP1=0, select bank0
  4365     0459  00A0               	movwf	??___fladd
  4366     045A  0871               	movf	___fladd@b+1,w
  4367     045B  00A1               	movwf	??___fladd+1
  4368     045C  0872               	movf	___fladd@b+2,w
  4369     045D  00A2               	movwf	??___fladd+2
  4370     045E  0873               	movf	___fladd@b+3,w
  4371     045F  00A3               	movwf	??___fladd+3
  4372     0460  3001               	movlw	1
  4373     0461  00A4               	movwf	??___fladd+4
  4374     0462                     u3125:
  4375     0462  0D23               	rlf	??___fladd+3,w
  4376     0463  0CA3               	rrf	??___fladd+3,f
  4377     0464  0CA2               	rrf	??___fladd+2,f
  4378     0465  0CA1               	rrf	??___fladd+1,f
  4379     0466  0CA0               	rrf	??___fladd,f
  4380     0467                     u3120:
  4381     0467  0BA4               	decfsz	??___fladd+4,f
  4382     0468  2C62               	goto	u3125
  4383     0469  0823               	movf	??___fladd+3,w
  4384     046A  00F3               	movwf	___fladd@b+3
  4385     046B  0822               	movf	??___fladd+2,w
  4386     046C  00F2               	movwf	___fladd@b+2
  4387     046D  0821               	movf	??___fladd+1,w
  4388     046E  00F1               	movwf	___fladd@b+1
  4389     046F  0820               	movf	??___fladd,w
  4390     0470  00F0               	movwf	___fladd@b
  4391     0471  0A7A               	incf	___fladd@bexp,w
  4392     0472  1903               	btfsc	3,2
  4393     0473  2C75               	goto	u3131
  4394     0474  2C76               	goto	u3130
  4395     0475                     u3131:
  4396     0475  2C78               	goto	l713
  4397     0476                     u3130:
  4398     0476                     l2565:
  4399     0476  3001               	movlw	1
  4400     0477  07FA               	addwf	___fladd@bexp,f
  4401     0478                     l713:
  4402     0478  0A7A               	incf	___fladd@bexp,w
  4403     0479  1903               	btfsc	3,2
  4404     047A  2C7C               	goto	u3141
  4405     047B  2C7D               	goto	u3140
  4406     047C                     u3141:
  4407     047C  2C82               	goto	l2569
  4408     047D                     u3140:
  4409     047D                     l2567:
  4410     047D  087A               	movf	___fladd@bexp,w
  4411     047E  1D03               	btfss	3,2
  4412     047F  2C81               	goto	u3151
  4413     0480  2C82               	goto	u3150
  4414     0481                     u3151:
  4415     0481  2C90               	goto	l2575
  4416     0482                     u3150:
  4417     0482                     l2569:
  4418     0482  3000               	movlw	0
  4419     0483  00F3               	movwf	___fladd@b+3
  4420     0484  3000               	movlw	0
  4421     0485  00F2               	movwf	___fladd@b+2
  4422     0486  3000               	movlw	0
  4423     0487  00F1               	movwf	___fladd@b+1
  4424     0488  3000               	movlw	0
  4425     0489  00F0               	movwf	___fladd@b
  4426     048A                     l2571:
  4427     048A  087A               	movf	___fladd@bexp,w
  4428     048B  1D03               	btfss	3,2
  4429     048C  2C8E               	goto	u3161
  4430     048D  2C8F               	goto	u3160
  4431     048E                     u3161:
  4432     048E  2C90               	goto	l2575
  4433     048F                     u3160:
  4434     048F                     l2573:
  4435     048F  01F8               	clrf	___fladd@signs
  4436     0490                     l2575:
  4437     0490  1C7A               	btfss	___fladd@bexp,0
  4438     0491  2C93               	goto	u3171
  4439     0492  2C94               	goto	u3170
  4440     0493                     u3171:
  4441     0493  2C96               	goto	l2579
  4442     0494                     u3170:
  4443     0494                     l2577:
  4444     0494  17F2               	bsf	___fladd@b+2,7
  4445     0495  2C98               	goto	l721
  4446     0496                     l2579:
  4447     0496  307F               	movlw	127
  4448     0497  05F2               	andwf	___fladd@b+2,f
  4449     0498                     l721:
  4450     0498  087A               	movf	___fladd@bexp,w
  4451     0499  1283               	bcf	3,5	;RP0=0, select bank0
  4452     049A  1303               	bcf	3,6	;RP1=0, select bank0
  4453     049B  00A0               	movwf	??___fladd
  4454     049C  1003               	clrc
  4455     049D  0C20               	rrf	??___fladd,w
  4456     049E  00F3               	movwf	___fladd@b+3
  4457     049F                     l2581:
  4458     049F  1FF8               	btfss	___fladd@signs,7
  4459     04A0  2CA2               	goto	u3181
  4460     04A1  2CA3               	goto	u3180
  4461     04A2                     u3181:
  4462     04A2  2CA4               	goto	l722
  4463     04A3                     u3180:
  4464     04A3                     l2583:
  4465     04A3  17F3               	bsf	___fladd@b+3,7
  4466     04A4                     l722:
  4467     04A4                     l692:
  4468     04A4  0008               	return
  4469     04A5                     __end_of___fladd:
  4470                           
  4471                           	psect	text14
  4472     1629                     __ptext14:	
  4473 ;; *************** function ___flneg *****************
  4474 ;; Defined at:
  4475 ;;		line 15 in file "C:\Program Files\Microchip\xc8\v3.10\pic\sources\c99\common\flneg.c"
  4476 ;; Parameters:    Size  Location     Type
  4477 ;;  f1              4    0[COMMON] unsigned char 
  4478 ;; Auto vars:     Size  Location     Type
  4479 ;;		None
  4480 ;; Return value:  Size  Location     Type
  4481 ;;                  4    0[COMMON] unsigned char 
  4482 ;; Registers used:
  4483 ;;		wreg
  4484 ;; Tracked objects:
  4485 ;;		On entry : 0/0
  4486 ;;		On exit  : 0/0
  4487 ;;		Unchanged: 0/0
  4488 ;; Data sizes:     COMMON   BANK0   BANK1   BANK3   BANK2
  4489 ;;      Params:         4       0       0       0       0
  4490 ;;      Locals:         0       0       0       0       0
  4491 ;;      Temps:          0       0       0       0       0
  4492 ;;      Totals:         4       0       0       0       0
  4493 ;;Total ram usage:        4 bytes
  4494 ;; Hardware stack levels used: 1
  4495 ;; This function calls:
  4496 ;;		Nothing
  4497 ;; This function is called by:
  4498 ;;		_float_to_string_dht22
  4499 ;; This function uses a non-reentrant model
  4500 ;;
  4501                           
  4502     1629                     ___flneg:	
  4503                           ;psect for function ___flneg
  4504                           
  4505     1629                     l2701:	
  4506                           ;incstack = 0
  4507                           ; Regs used in ___flneg: [wreg]
  4508                           
  4509     1629  0873               	movf	___flneg@f1+3,w
  4510     162A  0472               	iorwf	___flneg@f1+2,w
  4511     162B  0471               	iorwf	___flneg@f1+1,w
  4512     162C  0470               	iorwf	___flneg@f1,w
  4513     162D  1903               	skipnz
  4514     162E  2E30               	goto	u3361
  4515     162F  2E31               	goto	u3360
  4516     1630                     u3361:
  4517     1630  2E33               	goto	l2705
  4518     1631                     u3360:
  4519     1631                     l2703:
  4520     1631  3080               	movlw	128
  4521     1632  06F3               	xorwf	___flneg@f1+3,f
  4522     1633                     l2705:
  4523     1633                     l568:
  4524     1633  0008               	return
  4525     1634                     __end_of___flneg:
  4526                           
  4527                           	psect	text15
  4528     09F3                     __ptext15:	
  4529 ;; *************** function ___flge *****************
  4530 ;; Defined at:
  4531 ;;		line 4 in file "C:\Program Files\Microchip\xc8\v3.10\pic\sources\c99\common\flge.c"
  4532 ;; Parameters:    Size  Location     Type
  4533 ;;  ff1             4    0[COMMON] unsigned char 
  4534 ;;  ff2             4    4[COMMON] unsigned char 
  4535 ;; Auto vars:     Size  Location     Type
  4536 ;;		None
  4537 ;; Return value:  Size  Location     Type
  4538 ;;		None               void
  4539 ;; Registers used:
  4540 ;;		wreg, status,2, status,0
  4541 ;; Tracked objects:
  4542 ;;		On entry : 0/0
  4543 ;;		On exit  : 0/0
  4544 ;;		Unchanged: 0/0
  4545 ;; Data sizes:     COMMON   BANK0   BANK1   BANK3   BANK2
  4546 ;;      Params:         8       0       0       0       0
  4547 ;;      Locals:         0       0       0       0       0
  4548 ;;      Temps:          4       0       0       0       0
  4549 ;;      Totals:        12       0       0       0       0
  4550 ;;Total ram usage:       12 bytes
  4551 ;; Hardware stack levels used: 1
  4552 ;; This function calls:
  4553 ;;		Nothing
  4554 ;; This function is called by:
  4555 ;;		_float_to_string_dht22
  4556 ;; This function uses a non-reentrant model
  4557 ;;
  4558                           
  4559     09F3                     ___flge:	
  4560                           ;psect for function ___flge
  4561                           
  4562     09F3                     l2681:	
  4563                           ;incstack = 0
  4564                           ; Regs used in ___flge: [wreg+status,2+status,0]
  4565                           
  4566     09F3  3000               	movlw	0
  4567     09F4  0570               	andwf	___flge@ff1,w
  4568     09F5  00F8               	movwf	??___flge
  4569     09F6  3000               	movlw	0
  4570     09F7  0571               	andwf	___flge@ff1+1,w
  4571     09F8  00F9               	movwf	??___flge+1
  4572     09F9  3080               	movlw	128
  4573     09FA  0572               	andwf	___flge@ff1+2,w
  4574     09FB  00FA               	movwf	??___flge+2
  4575     09FC  307F               	movlw	127
  4576     09FD  0573               	andwf	___flge@ff1+3,w
  4577     09FE  00FB               	movwf	??___flge+3
  4578     09FF  087B               	movf	??___flge+3,w
  4579     0A00  047A               	iorwf	??___flge+2,w
  4580     0A01  0479               	iorwf	??___flge+1,w
  4581     0A02  0478               	iorwf	??___flge,w
  4582     0A03  1D03               	skipz
  4583     0A04  2A06               	goto	u3291
  4584     0A05  2A07               	goto	u3290
  4585     0A06                     u3291:
  4586     0A06  2A0F               	goto	l556
  4587     0A07                     u3290:
  4588     0A07                     l2683:
  4589     0A07  3000               	movlw	0
  4590     0A08  00F3               	movwf	___flge@ff1+3
  4591     0A09  3000               	movlw	0
  4592     0A0A  00F2               	movwf	___flge@ff1+2
  4593     0A0B  3000               	movlw	0
  4594     0A0C  00F1               	movwf	___flge@ff1+1
  4595     0A0D  3000               	movlw	0
  4596     0A0E  00F0               	movwf	___flge@ff1
  4597     0A0F                     l556:
  4598     0A0F  3000               	movlw	0
  4599     0A10  0574               	andwf	___flge@ff2,w
  4600     0A11  00F8               	movwf	??___flge
  4601     0A12  3000               	movlw	0
  4602     0A13  0575               	andwf	___flge@ff2+1,w
  4603     0A14  00F9               	movwf	??___flge+1
  4604     0A15  3080               	movlw	128
  4605     0A16  0576               	andwf	___flge@ff2+2,w
  4606     0A17  00FA               	movwf	??___flge+2
  4607     0A18  307F               	movlw	127
  4608     0A19  0577               	andwf	___flge@ff2+3,w
  4609     0A1A  00FB               	movwf	??___flge+3
  4610     0A1B  087B               	movf	??___flge+3,w
  4611     0A1C  047A               	iorwf	??___flge+2,w
  4612     0A1D  0479               	iorwf	??___flge+1,w
  4613     0A1E  0478               	iorwf	??___flge,w
  4614     0A1F  1D03               	skipz
  4615     0A20  2A22               	goto	u3301
  4616     0A21  2A23               	goto	u3300
  4617     0A22                     u3301:
  4618     0A22  2A2B               	goto	l2687
  4619     0A23                     u3300:
  4620     0A23                     l2685:
  4621     0A23  3000               	movlw	0
  4622     0A24  00F7               	movwf	___flge@ff2+3
  4623     0A25  3000               	movlw	0
  4624     0A26  00F6               	movwf	___flge@ff2+2
  4625     0A27  3000               	movlw	0
  4626     0A28  00F5               	movwf	___flge@ff2+1
  4627     0A29  3000               	movlw	0
  4628     0A2A  00F4               	movwf	___flge@ff2
  4629     0A2B                     l2687:
  4630     0A2B  1FF3               	btfss	___flge@ff1+3,7
  4631     0A2C  2A2E               	goto	u3311
  4632     0A2D  2A2F               	goto	u3310
  4633     0A2E                     u3311:
  4634     0A2E  2A53               	goto	l2691
  4635     0A2F                     u3310:
  4636     0A2F                     l2689:
  4637     0A2F  3000               	movlw	0
  4638     0A30  00F8               	movwf	??___flge
  4639     0A31  3000               	movlw	0
  4640     0A32  00F9               	movwf	??___flge+1
  4641     0A33  3000               	movlw	0
  4642     0A34  00FA               	movwf	??___flge+2
  4643     0A35  3080               	movlw	128
  4644     0A36  00FB               	movwf	??___flge+3
  4645     0A37  0870               	movf	___flge@ff1,w
  4646     0A38  02F8               	subwf	??___flge,f
  4647     0A39  0871               	movf	___flge@ff1+1,w
  4648     0A3A  1C03               	skipc
  4649     0A3B  0F71               	incfsz	___flge@ff1+1,w
  4650     0A3C  2A3E               	goto	u3321
  4651     0A3D  2A3F               	goto	u3322
  4652     0A3E                     u3321:
  4653     0A3E  02F9               	subwf	??___flge+1,f
  4654     0A3F                     u3322:
  4655     0A3F  0872               	movf	___flge@ff1+2,w
  4656     0A40  1C03               	skipc
  4657     0A41  0F72               	incfsz	___flge@ff1+2,w
  4658     0A42  2A44               	goto	u3323
  4659     0A43  2A45               	goto	u3324
  4660     0A44                     u3323:
  4661     0A44  02FA               	subwf	??___flge+2,f
  4662     0A45                     u3324:
  4663     0A45  0873               	movf	___flge@ff1+3,w
  4664     0A46  1C03               	skipc
  4665     0A47  0F73               	incfsz	___flge@ff1+3,w
  4666     0A48  2A4A               	goto	u3325
  4667     0A49  2A4B               	goto	u3326
  4668     0A4A                     u3325:
  4669     0A4A  02FB               	subwf	??___flge+3,f
  4670     0A4B                     u3326:
  4671     0A4B  087B               	movf	??___flge+3,w
  4672     0A4C  00F3               	movwf	___flge@ff1+3
  4673     0A4D  087A               	movf	??___flge+2,w
  4674     0A4E  00F2               	movwf	___flge@ff1+2
  4675     0A4F  0879               	movf	??___flge+1,w
  4676     0A50  00F1               	movwf	___flge@ff1+1
  4677     0A51  0878               	movf	??___flge,w
  4678     0A52  00F0               	movwf	___flge@ff1
  4679     0A53                     l2691:
  4680     0A53  1FF7               	btfss	___flge@ff2+3,7
  4681     0A54  2A56               	goto	u3331
  4682     0A55  2A57               	goto	u3330
  4683     0A56                     u3331:
  4684     0A56  2A7B               	goto	l559
  4685     0A57                     u3330:
  4686     0A57                     l2693:
  4687     0A57  3000               	movlw	0
  4688     0A58  00F8               	movwf	??___flge
  4689     0A59  3000               	movlw	0
  4690     0A5A  00F9               	movwf	??___flge+1
  4691     0A5B  3000               	movlw	0
  4692     0A5C  00FA               	movwf	??___flge+2
  4693     0A5D  3080               	movlw	128
  4694     0A5E  00FB               	movwf	??___flge+3
  4695     0A5F  0874               	movf	___flge@ff2,w
  4696     0A60  02F8               	subwf	??___flge,f
  4697     0A61  0875               	movf	___flge@ff2+1,w
  4698     0A62  1C03               	skipc
  4699     0A63  0F75               	incfsz	___flge@ff2+1,w
  4700     0A64  2A66               	goto	u3341
  4701     0A65  2A67               	goto	u3342
  4702     0A66                     u3341:
  4703     0A66  02F9               	subwf	??___flge+1,f
  4704     0A67                     u3342:
  4705     0A67  0876               	movf	___flge@ff2+2,w
  4706     0A68  1C03               	skipc
  4707     0A69  0F76               	incfsz	___flge@ff2+2,w
  4708     0A6A  2A6C               	goto	u3343
  4709     0A6B  2A6D               	goto	u3344
  4710     0A6C                     u3343:
  4711     0A6C  02FA               	subwf	??___flge+2,f
  4712     0A6D                     u3344:
  4713     0A6D  0877               	movf	___flge@ff2+3,w
  4714     0A6E  1C03               	skipc
  4715     0A6F  0F77               	incfsz	___flge@ff2+3,w
  4716     0A70  2A72               	goto	u3345
  4717     0A71  2A73               	goto	u3346
  4718     0A72                     u3345:
  4719     0A72  02FB               	subwf	??___flge+3,f
  4720     0A73                     u3346:
  4721     0A73  087B               	movf	??___flge+3,w
  4722     0A74  00F7               	movwf	___flge@ff2+3
  4723     0A75  087A               	movf	??___flge+2,w
  4724     0A76  00F6               	movwf	___flge@ff2+2
  4725     0A77  0879               	movf	??___flge+1,w
  4726     0A78  00F5               	movwf	___flge@ff2+1
  4727     0A79  0878               	movf	??___flge,w
  4728     0A7A  00F4               	movwf	___flge@ff2
  4729     0A7B                     l559:
  4730     0A7B  3080               	movlw	128
  4731     0A7C  06F3               	xorwf	___flge@ff1+3,f
  4732     0A7D  3080               	movlw	128
  4733     0A7E  06F7               	xorwf	___flge@ff2+3,f
  4734     0A7F  0877               	movf	___flge@ff2+3,w
  4735     0A80  0273               	subwf	___flge@ff1+3,w
  4736     0A81  1D03               	skipz
  4737     0A82  2A8D               	goto	u3355
  4738     0A83  0876               	movf	___flge@ff2+2,w
  4739     0A84  0272               	subwf	___flge@ff1+2,w
  4740     0A85  1D03               	skipz
  4741     0A86  2A8D               	goto	u3355
  4742     0A87  0875               	movf	___flge@ff2+1,w
  4743     0A88  0271               	subwf	___flge@ff1+1,w
  4744     0A89  1D03               	skipz
  4745     0A8A  2A8D               	goto	u3355
  4746     0A8B  0874               	movf	___flge@ff2,w
  4747     0A8C  0270               	subwf	___flge@ff1,w
  4748     0A8D                     u3355:
  4749     0A8D  1803               	skipnc
  4750     0A8E  2A90               	goto	u3351
  4751     0A8F  2A91               	goto	u3350
  4752     0A90                     u3351:
  4753     0A90  2A93               	goto	l2697
  4754     0A91                     u3350:
  4755     0A91                     l2695:
  4756     0A91  1003               	clrc
  4757     0A92  2A94               	goto	l564
  4758     0A93                     l2697:
  4759     0A93  1403               	setc
  4760     0A94                     l564:
  4761     0A94  0008               	return
  4762     0A95                     __end_of___flge:
  4763                           
  4764                           	psect	text16
  4765     173D                     __ptext16:	
  4766 ;; *************** function _Lcd_Write_String *****************
  4767 ;; Defined at:
  4768 ;;		line 81 in file "lcd_i2c.c"
  4769 ;; Parameters:    Size  Location     Type
  4770 ;;  str             2    6[COMMON] PTR const unsigned char 
  4771 ;;		 -> STR_8(16), STR_7(16), STR_6(13), STR_5(7), 
  4772 ;;		 -> STR_4(7), buffer_hum(16), buffer_tem(16), STR_3(12), 
  4773 ;; Auto vars:     Size  Location     Type
  4774 ;;		None
  4775 ;; Return value:  Size  Location     Type
  4776 ;;                  1    wreg      void 
  4777 ;; Registers used:
  4778 ;;		wreg, fsr0l, fsr0h, status,2, status,0, pclath, btemp1, cstack
  4779 ;; Tracked objects:
  4780 ;;		On entry : 0/0
  4781 ;;		On exit  : 0/0
  4782 ;;		Unchanged: 0/0
  4783 ;; Data sizes:     COMMON   BANK0   BANK1   BANK3   BANK2
  4784 ;;      Params:         2       0       0       0       0
  4785 ;;      Locals:         0       0       0       0       0
  4786 ;;      Temps:          0       0       0       0       0
  4787 ;;      Totals:         2       0       0       0       0
  4788 ;;Total ram usage:        2 bytes
  4789 ;; Hardware stack levels used: 1
  4790 ;; Hardware stack levels required when called: 1
  4791 ;; This function calls:
  4792 ;;		_Lcd_Write_Char
  4793 ;; This function is called by:
  4794 ;;		_main
  4795 ;; This function uses a non-reentrant model
  4796 ;;
  4797                           
  4798     173D                     _Lcd_Write_String:	
  4799                           ;psect for function _Lcd_Write_String
  4800                           
  4801     173D                     l3143:	
  4802                           ;incstack = 0
  4803                           ; Regs used in _Lcd_Write_String: [wreg-fsr0h+status,2+status,0+pclath+btemp1+cstack]
  4804                           
  4805                           
  4806                           ;lcd_i2c.c: 81: void Lcd_Write_String(const char *str);lcd_i2c.c: 82: {;lcd_i2c.c: 83:  
      +                             while(*str != '\0')
  4807     173D  2F52               	goto	l3149
  4808     173E                     l3145:
  4809                           
  4810                           ;lcd_i2c.c: 84:     {;lcd_i2c.c: 85:         Lcd_Write_Char(*str++);
  4811     173E  0877               	movf	Lcd_Write_String@str+1,w
  4812     173F  00FF               	movwf	btemp1
  4813     1740  0876               	movf	Lcd_Write_String@str,w
  4814     1741  0084               	movwf	4
  4815     1742  120A  158A  2000  160A  118A  	fcall	stringtab
  4816     1747  120A  158A  2060  160A  118A  	fcall	_Lcd_Write_Char
  4817     174C                     l3147:
  4818     174C  3001               	movlw	1
  4819     174D  07F6               	addwf	Lcd_Write_String@str,f
  4820     174E  1803               	skipnc
  4821     174F  0AF7               	incf	Lcd_Write_String@str+1,f
  4822     1750  3000               	movlw	0
  4823     1751  07F7               	addwf	Lcd_Write_String@str+1,f
  4824     1752                     l3149:
  4825                           
  4826                           ;lcd_i2c.c: 83:     while(*str != '\0')
  4827     1752  0877               	movf	Lcd_Write_String@str+1,w
  4828     1753  1283               	bcf	3,5	;RP0=0, select bank0
  4829     1754  1303               	bcf	3,6	;RP1=0, select bank0
  4830     1755  00FF               	movwf	btemp1
  4831     1756  0876               	movf	Lcd_Write_String@str,w
  4832     1757  0084               	movwf	4
  4833     1758  120A  158A  2000  160A  118A  	fcall	stringtab
  4834     175D  3A00               	xorlw	0
  4835     175E  1D03               	skipz
  4836     175F  2F61               	goto	u4311
  4837     1760  2F62               	goto	u4310
  4838     1761                     u4311:
  4839     1761  2F3E               	goto	l3145
  4840     1762                     u4310:
  4841     1762                     l145:
  4842     1762  0008               	return
  4843     1763                     __end_of_Lcd_Write_String:
  4844                           
  4845                           	psect	text17
  4846     0860                     __ptext17:	
  4847 ;; *************** function _Lcd_Write_Char *****************
  4848 ;; Defined at:
  4849 ;;		line 41 in file "lcd_i2c.c"
  4850 ;; Parameters:    Size  Location     Type
  4851 ;;  c               1    wreg     unsigned char 
  4852 ;; Auto vars:     Size  Location     Type
  4853 ;;  c               1    3[COMMON] unsigned char 
  4854 ;;  data_l          1    5[COMMON] unsigned char 
  4855 ;;  data_u          1    4[COMMON] unsigned char 
  4856 ;; Return value:  Size  Location     Type
  4857 ;;                  1    wreg      void 
  4858 ;; Registers used:
  4859 ;;		wreg, status,2, status,0, pclath, cstack
  4860 ;; Tracked objects:
  4861 ;;		On entry : 0/0
  4862 ;;		On exit  : 0/0
  4863 ;;		Unchanged: 0/0
  4864 ;; Data sizes:     COMMON   BANK0   BANK1   BANK3   BANK2
  4865 ;;      Params:         0       0       0       0       0
  4866 ;;      Locals:         3       0       0       0       0
  4867 ;;      Temps:          1       0       0       0       0
  4868 ;;      Totals:         4       0       0       0       0
  4869 ;;Total ram usage:        4 bytes
  4870 ;; Hardware stack levels used: 1
  4871 ;; This function calls:
  4872 ;;		_I2C_Start
  4873 ;;		_I2C_Stop
  4874 ;;		_I2C_Write
  4875 ;; This function is called by:
  4876 ;;		_main
  4877 ;;		_Lcd_Write_String
  4878 ;;		_Lcd_CGRAM_WriteChar
  4879 ;;		_Lcd_CGRAM_CreateChar
  4880 ;; This function uses a non-reentrant model
  4881 ;;
  4882                           
  4883     0860                     _Lcd_Write_Char:	
  4884                           ;psect for function _Lcd_Write_Char
  4885                           
  4886                           
  4887                           ;incstack = 0
  4888                           ; Regs used in _Lcd_Write_Char: [wreg+status,2+status,0+pclath+cstack]
  4889                           ;Lcd_Write_Char@c stored from wreg
  4890     0860  00F3               	movwf	Lcd_Write_Char@c
  4891     0861                     l2623:
  4892                           
  4893                           ;lcd_i2c.c: 41: void Lcd_Write_Char(char c);lcd_i2c.c: 42: {;lcd_i2c.c: 43:     char dat
      +                          a_u, data_l;;lcd_i2c.c: 44:     data_u = (c & 0xF0);
  4894     0861  0873               	movf	Lcd_Write_Char@c,w
  4895     0862  00F4               	movwf	Lcd_Write_Char@data_u
  4896     0863                     l2625:
  4897     0863  30F0               	movlw	240
  4898     0864  05F4               	andwf	Lcd_Write_Char@data_u,f
  4899     0865                     l2627:
  4900                           
  4901                           ;lcd_i2c.c: 45:     data_l = ((c<<4) & 0xF0);
  4902     0865  0873               	movf	Lcd_Write_Char@c,w
  4903     0866  00F2               	movwf	??_Lcd_Write_Char
  4904     0867  3003               	movlw	3
  4905     0868                     u3235:
  4906     0868  1003               	clrc
  4907     0869  0DF2               	rlf	??_Lcd_Write_Char,f
  4908     086A  3EFF               	addlw	-1
  4909     086B  1D03               	skipz
  4910     086C  2868               	goto	u3235
  4911     086D  1003               	clrc
  4912     086E  0D72               	rlf	??_Lcd_Write_Char,w
  4913     086F  00F5               	movwf	Lcd_Write_Char@data_l
  4914     0870                     l2629:
  4915     0870  30F0               	movlw	240
  4916     0871  05F5               	andwf	Lcd_Write_Char@data_l,f
  4917     0872                     l2631:
  4918                           
  4919                           ;lcd_i2c.c: 47:     I2C_Start();
  4920     0872  160A  118A  2615  120A  158A  	fcall	_I2C_Start
  4921     0877                     l2633:
  4922                           
  4923                           ;lcd_i2c.c: 48:     I2C_Write(0x4E);
  4924     0877  304E               	movlw	78
  4925     0878  160A  118A  2655  120A  158A  	fcall	_I2C_Write
  4926     087D                     l2635:
  4927                           
  4928                           ;lcd_i2c.c: 49:     I2C_Write(data_u|0x0D);
  4929     087D  0874               	movf	Lcd_Write_Char@data_u,w
  4930     087E  380D               	iorlw	13
  4931     087F  160A  118A  2655  120A  158A  	fcall	_I2C_Write
  4932     0884                     l2637:
  4933                           
  4934                           ;lcd_i2c.c: 50:     I2C_Write(data_u|0x09);
  4935     0884  0874               	movf	Lcd_Write_Char@data_u,w
  4936     0885  3809               	iorlw	9
  4937     0886  160A  118A  2655  120A  158A  	fcall	_I2C_Write
  4938     088B                     l2639:
  4939                           
  4940                           ;lcd_i2c.c: 51:     I2C_Write(data_l|0x0D);
  4941     088B  0875               	movf	Lcd_Write_Char@data_l,w
  4942     088C  380D               	iorlw	13
  4943     088D  160A  118A  2655  120A  158A  	fcall	_I2C_Write
  4944     0892                     l2641:
  4945                           
  4946                           ;lcd_i2c.c: 52:     I2C_Write(data_l|0x09);
  4947     0892  0875               	movf	Lcd_Write_Char@data_l,w
  4948     0893  3809               	iorlw	9
  4949     0894  160A  118A  2655  120A  158A  	fcall	_I2C_Write
  4950     0899                     l2643:
  4951                           
  4952                           ;lcd_i2c.c: 53:     I2C_Stop();
  4953     0899  160A  118A  261F  120A  158A  	fcall	_I2C_Stop
  4954     089E                     l129:
  4955     089E  0008               	return
  4956     089F                     __end_of_Lcd_Write_Char:
  4957                           
  4958                           	psect	text18
  4959     1717                     __ptext18:	
  4960 ;; *************** function _Lcd_Set_Cursor *****************
  4961 ;; Defined at:
  4962 ;;		line 56 in file "lcd_i2c.c"
  4963 ;; Parameters:    Size  Location     Type
  4964 ;;  col             1    wreg     unsigned char 
  4965 ;;  row             1    6[COMMON] unsigned char 
  4966 ;; Auto vars:     Size  Location     Type
  4967 ;;  col             1    7[COMMON] unsigned char 
  4968 ;;  address         1    8[COMMON] unsigned char 
  4969 ;; Return value:  Size  Location     Type
  4970 ;;                  1    wreg      void 
  4971 ;; Registers used:
  4972 ;;		wreg, fsr0l, fsr0h, status,2, status,0, pclath, cstack
  4973 ;; Tracked objects:
  4974 ;;		On entry : 0/0
  4975 ;;		On exit  : 0/0
  4976 ;;		Unchanged: 0/0
  4977 ;; Data sizes:     COMMON   BANK0   BANK1   BANK3   BANK2
  4978 ;;      Params:         1       0       0       0       0
  4979 ;;      Locals:         2       0       0       0       0
  4980 ;;      Temps:          0       0       0       0       0
  4981 ;;      Totals:         3       0       0       0       0
  4982 ;;Total ram usage:        3 bytes
  4983 ;; Hardware stack levels used: 1
  4984 ;; Hardware stack levels required when called: 1
  4985 ;; This function calls:
  4986 ;;		_Lcd_Cmd
  4987 ;; This function is called by:
  4988 ;;		_main
  4989 ;; This function uses a non-reentrant model
  4990 ;;
  4991                           
  4992     1717                     _Lcd_Set_Cursor:	
  4993                           ;psect for function _Lcd_Set_Cursor
  4994                           
  4995                           
  4996                           ;incstack = 0
  4997                           ; Regs used in _Lcd_Set_Cursor: [wreg-fsr0h+status,2+status,0+pclath+cstack]
  4998                           ;Lcd_Set_Cursor@col stored from wreg
  4999     1717  00F7               	movwf	Lcd_Set_Cursor@col
  5000     1718                     l3129:
  5001                           
  5002                           ;lcd_i2c.c: 56: void Lcd_Set_Cursor(char col, char row);lcd_i2c.c: 57: {;lcd_i2c.c: 58: 
      +                              unsigned char address;;lcd_i2c.c: 59:     switch(row)
  5003     1718  2F24               	goto	l3137
  5004     1719                     l3131:
  5005                           
  5006                           ;lcd_i2c.c: 62:             address = 0x00;
  5007     1719  01F8               	clrf	Lcd_Set_Cursor@address
  5008                           
  5009                           ;lcd_i2c.c: 63:             break;
  5010     171A  2F32               	goto	l3139
  5011     171B                     l135:	
  5012                           ;lcd_i2c.c: 64:         case 2:
  5013                           
  5014                           
  5015                           ;lcd_i2c.c: 65:             address = 0x40;
  5016     171B  3040               	movlw	64
  5017     171C  00F8               	movwf	Lcd_Set_Cursor@address
  5018                           
  5019                           ;lcd_i2c.c: 66:             break;
  5020     171D  2F32               	goto	l3139
  5021     171E                     l136:	
  5022                           ;lcd_i2c.c: 67:         case 3:
  5023                           
  5024                           
  5025                           ;lcd_i2c.c: 68:             address = 0x14;
  5026     171E  3014               	movlw	20
  5027     171F  00F8               	movwf	Lcd_Set_Cursor@address
  5028                           
  5029                           ;lcd_i2c.c: 69:             break;
  5030     1720  2F32               	goto	l3139
  5031     1721                     l137:	
  5032                           ;lcd_i2c.c: 70:         case 4:
  5033                           
  5034                           
  5035                           ;lcd_i2c.c: 71:             address = 0x54;
  5036     1721  3054               	movlw	84
  5037     1722  00F8               	movwf	Lcd_Set_Cursor@address
  5038                           
  5039                           ;lcd_i2c.c: 72:             break;
  5040     1723  2F32               	goto	l3139
  5041     1724                     l3137:
  5042     1724  0876               	movf	Lcd_Set_Cursor@row,w
  5043                           
  5044                           ; Switch size 1, requested type "simple"
  5045                           ; Number of cases is 4, Range of values is 1 to 4
  5046                           ; switch strategies available:
  5047                           ; Name         Instructions Cycles
  5048                           ; simple_byte           13     7 (average)
  5049                           ; direct_byte           23    11 (fixed)
  5050                           ; jumptable            263     9 (fixed)
  5051                           ;	Chosen strategy is simple_byte
  5052     1725  3A01               	xorlw	1	; case 1
  5053     1726  1903               	skipnz
  5054     1727  2F19               	goto	l3131
  5055     1728  3A03               	xorlw	3	; case 2
  5056     1729  1903               	skipnz
  5057     172A  2F1B               	goto	l135
  5058     172B  3A01               	xorlw	1	; case 3
  5059     172C  1903               	skipnz
  5060     172D  2F1E               	goto	l136
  5061     172E  3A07               	xorlw	7	; case 4
  5062     172F  1903               	skipnz
  5063     1730  2F21               	goto	l137
  5064     1731  2F19               	goto	l3131
  5065     1732                     l3139:
  5066                           
  5067                           ;lcd_i2c.c: 77:     address += col - 1;
  5068     1732  0877               	movf	Lcd_Set_Cursor@col,w
  5069     1733  3EFF               	addlw	255
  5070     1734  07F8               	addwf	Lcd_Set_Cursor@address,f
  5071     1735                     l3141:
  5072                           
  5073                           ;lcd_i2c.c: 78:     Lcd_Cmd(0x80 | address);
  5074     1735  0878               	movf	Lcd_Set_Cursor@address,w
  5075     1736  3880               	iorlw	128
  5076     1737  160A  118A  27C1  160A  118A  	fcall	_Lcd_Cmd
  5077     173C                     l139:
  5078     173C  0008               	return
  5079     173D                     __end_of_Lcd_Set_Cursor:
  5080                           
  5081                           	psect	text19
  5082     178A                     __ptext19:	
  5083 ;; *************** function _Lcd_Init *****************
  5084 ;; Defined at:
  5085 ;;		line 13 in file "lcd_i2c.c"
  5086 ;; Parameters:    Size  Location     Type
  5087 ;;		None
  5088 ;; Auto vars:     Size  Location     Type
  5089 ;;		None
  5090 ;; Return value:  Size  Location     Type
  5091 ;;                  1    wreg      void 
  5092 ;; Registers used:
  5093 ;;		wreg, status,2, status,0, pclath, cstack
  5094 ;; Tracked objects:
  5095 ;;		On entry : 0/0
  5096 ;;		On exit  : 0/0
  5097 ;;		Unchanged: 0/0
  5098 ;; Data sizes:     COMMON   BANK0   BANK1   BANK3   BANK2
  5099 ;;      Params:         0       0       0       0       0
  5100 ;;      Locals:         0       0       0       0       0
  5101 ;;      Temps:          2       0       0       0       0
  5102 ;;      Totals:         2       0       0       0       0
  5103 ;;Total ram usage:        2 bytes
  5104 ;; Hardware stack levels used: 1
  5105 ;; Hardware stack levels required when called: 1
  5106 ;; This function calls:
  5107 ;;		_Lcd_Cmd
  5108 ;; This function is called by:
  5109 ;;		_main
  5110 ;; This function uses a non-reentrant model
  5111 ;;
  5112                           
  5113     178A                     _Lcd_Init:	
  5114                           ;psect for function _Lcd_Init
  5115                           
  5116     178A                     l3113:	
  5117                           ;incstack = 0
  5118                           ; Regs used in _Lcd_Init: [wreg+status,2+status,0+pclath+cstack]
  5119                           
  5120                           
  5121                           ;lcd_i2c.c: 15:     _delay((unsigned long)((20)*(20000000/4000.0)));
  5122     178A  3082               	movlw	130
  5123     178B  00F7               	movwf	??_Lcd_Init+1
  5124     178C  30DD               	movlw	221
  5125     178D  00F6               	movwf	??_Lcd_Init
  5126     178E                     u4717:
  5127     178E  0BF6               	decfsz	??_Lcd_Init,f
  5128     178F  2F8E               	goto	u4717
  5129     1790  0BF7               	decfsz	??_Lcd_Init+1,f
  5130     1791  2F8E               	goto	u4717
  5131     1792  2F93               	nop2
  5132     1793                     l3115:
  5133                           
  5134                           ;lcd_i2c.c: 16:     Lcd_Cmd(0x33);
  5135     1793  3033               	movlw	51
  5136     1794  160A  118A  27C1  160A  118A  	fcall	_Lcd_Cmd
  5137     1799                     l3117:
  5138                           
  5139                           ;lcd_i2c.c: 17:     Lcd_Cmd(0x32);
  5140     1799  3032               	movlw	50
  5141     179A  160A  118A  27C1  160A  118A  	fcall	_Lcd_Cmd
  5142     179F                     l3119:
  5143                           
  5144                           ;lcd_i2c.c: 18:     Lcd_Cmd(0x28);
  5145     179F  3028               	movlw	40
  5146     17A0  160A  118A  27C1  160A  118A  	fcall	_Lcd_Cmd
  5147     17A5                     l3121:
  5148                           
  5149                           ;lcd_i2c.c: 19:     Lcd_Cmd(0x0C);
  5150     17A5  300C               	movlw	12
  5151     17A6  160A  118A  27C1  160A  118A  	fcall	_Lcd_Cmd
  5152     17AB                     l3123:
  5153                           
  5154                           ;lcd_i2c.c: 20:     Lcd_Cmd(0x06);
  5155     17AB  3006               	movlw	6
  5156     17AC  160A  118A  27C1  160A  118A  	fcall	_Lcd_Cmd
  5157     17B1                     l3125:
  5158                           
  5159                           ;lcd_i2c.c: 21:     Lcd_Cmd(0x01);
  5160     17B1  3001               	movlw	1
  5161     17B2  160A  118A  27C1  160A  118A  	fcall	_Lcd_Cmd
  5162                           
  5163                           ;lcd_i2c.c: 22:     _delay((unsigned long)((3)*(20000000/4000.0)));
  5164     17B7  3014               	movlw	20
  5165     17B8  00F7               	movwf	??_Lcd_Init+1
  5166     17B9  3079               	movlw	121
  5167     17BA  00F6               	movwf	??_Lcd_Init
  5168     17BB                     u4727:
  5169     17BB  0BF6               	decfsz	??_Lcd_Init,f
  5170     17BC  2FBB               	goto	u4727
  5171     17BD  0BF7               	decfsz	??_Lcd_Init+1,f
  5172     17BE  2FBB               	goto	u4727
  5173     17BF  2FC0               	nop2
  5174     17C0                     l123:
  5175     17C0  0008               	return
  5176     17C1                     __end_of_Lcd_Init:
  5177                           
  5178                           	psect	text20
  5179     1634                     __ptext20:	
  5180 ;; *************** function _Lcd_Clear *****************
  5181 ;; Defined at:
  5182 ;;		line 89 in file "lcd_i2c.c"
  5183 ;; Parameters:    Size  Location     Type
  5184 ;;		None
  5185 ;; Auto vars:     Size  Location     Type
  5186 ;;		None
  5187 ;; Return value:  Size  Location     Type
  5188 ;;                  1    wreg      void 
  5189 ;; Registers used:
  5190 ;;		wreg, status,2, status,0, pclath, cstack
  5191 ;; Tracked objects:
  5192 ;;		On entry : 0/0
  5193 ;;		On exit  : 0/0
  5194 ;;		Unchanged: 0/0
  5195 ;; Data sizes:     COMMON   BANK0   BANK1   BANK3   BANK2
  5196 ;;      Params:         0       0       0       0       0
  5197 ;;      Locals:         0       0       0       0       0
  5198 ;;      Temps:          2       0       0       0       0
  5199 ;;      Totals:         2       0       0       0       0
  5200 ;;Total ram usage:        2 bytes
  5201 ;; Hardware stack levels used: 1
  5202 ;; Hardware stack levels required when called: 2
  5203 ;; This function calls:
  5204 ;;		_Lcd_Cmd
  5205 ;; This function is called by:
  5206 ;;		_main
  5207 ;; This function uses a non-reentrant model
  5208 ;;
  5209                           
  5210     1634                     _Lcd_Clear:	
  5211                           ;psect for function _Lcd_Clear
  5212                           
  5213     1634                     l3229:	
  5214                           ;incstack = 0
  5215                           ; Regs used in _Lcd_Clear: [wreg+status,2+status,0+pclath+cstack]
  5216                           
  5217                           
  5218                           ;lcd_i2c.c: 91:     Lcd_Cmd(0x01);
  5219     1634  3001               	movlw	1
  5220     1635  160A  118A  27C1  160A  118A  	fcall	_Lcd_Cmd
  5221     163A                     l3231:
  5222                           
  5223                           ;lcd_i2c.c: 92:     _delay((unsigned long)((2)*(20000000/4000.0)));
  5224     163A  300D               	movlw	13
  5225     163B  00F7               	movwf	??_Lcd_Clear+1
  5226     163C  30FB               	movlw	251
  5227     163D  00F6               	movwf	??_Lcd_Clear
  5228     163E                     u4737:
  5229     163E  0BF6               	decfsz	??_Lcd_Clear,f
  5230     163F  2E3E               	goto	u4737
  5231     1640  0BF7               	decfsz	??_Lcd_Clear+1,f
  5232     1641  2E3E               	goto	u4737
  5233     1642  2E43               	nop2
  5234     1643                     l148:
  5235     1643  0008               	return
  5236     1644                     __end_of_Lcd_Clear:
  5237                           
  5238                           	psect	text21
  5239     17C1                     __ptext21:	
  5240 ;; *************** function _Lcd_Cmd *****************
  5241 ;; Defined at:
  5242 ;;		line 25 in file "lcd_i2c.c"
  5243 ;; Parameters:    Size  Location     Type
  5244 ;;  cmd             1    wreg     unsigned char 
  5245 ;; Auto vars:     Size  Location     Type
  5246 ;;  cmd             1    3[COMMON] unsigned char 
  5247 ;;  data_l          1    5[COMMON] unsigned char 
  5248 ;;  data_u          1    4[COMMON] unsigned char 
  5249 ;; Return value:  Size  Location     Type
  5250 ;;                  1    wreg      void 
  5251 ;; Registers used:
  5252 ;;		wreg, status,2, status,0, pclath, cstack
  5253 ;; Tracked objects:
  5254 ;;		On entry : 0/0
  5255 ;;		On exit  : 0/0
  5256 ;;		Unchanged: 0/0
  5257 ;; Data sizes:     COMMON   BANK0   BANK1   BANK3   BANK2
  5258 ;;      Params:         0       0       0       0       0
  5259 ;;      Locals:         3       0       0       0       0
  5260 ;;      Temps:          1       0       0       0       0
  5261 ;;      Totals:         4       0       0       0       0
  5262 ;;Total ram usage:        4 bytes
  5263 ;; Hardware stack levels used: 1
  5264 ;; This function calls:
  5265 ;;		_I2C_Start
  5266 ;;		_I2C_Stop
  5267 ;;		_I2C_Write
  5268 ;; This function is called by:
  5269 ;;		_Lcd_Init
  5270 ;;		_Lcd_Set_Cursor
  5271 ;;		_Lcd_Clear
  5272 ;;		_Lcd_Shift_Right
  5273 ;;		_Lcd_Shift_Left
  5274 ;;		_Lcd_Blink
  5275 ;;		_Lcd_NoBlink
  5276 ;;		_Lcd_CGRAM_CreateChar
  5277 ;; This function uses a non-reentrant model
  5278 ;;
  5279                           
  5280     17C1                     _Lcd_Cmd:	
  5281                           ;psect for function _Lcd_Cmd
  5282                           
  5283                           
  5284                           ;incstack = 0
  5285                           ; Regs used in _Lcd_Cmd: [wreg+status,2+status,0+pclath+cstack]
  5286                           ;Lcd_Cmd@cmd stored from wreg
  5287     17C1  00F3               	movwf	Lcd_Cmd@cmd
  5288     17C2                     l2645:
  5289                           
  5290                           ;lcd_i2c.c: 25: void Lcd_Cmd(unsigned char cmd);lcd_i2c.c: 26: {;lcd_i2c.c: 27:     char
      +                           data_u, data_l;;lcd_i2c.c: 28:     data_u = (cmd & 0xF0);
  5291     17C2  0873               	movf	Lcd_Cmd@cmd,w
  5292     17C3  00F4               	movwf	Lcd_Cmd@data_u
  5293     17C4                     l2647:
  5294     17C4  30F0               	movlw	240
  5295     17C5  05F4               	andwf	Lcd_Cmd@data_u,f
  5296     17C6                     l2649:
  5297                           
  5298                           ;lcd_i2c.c: 29:     data_l = ((cmd<<4) & 0xF0);
  5299     17C6  0873               	movf	Lcd_Cmd@cmd,w
  5300     17C7  00F2               	movwf	??_Lcd_Cmd
  5301     17C8  3003               	movlw	3
  5302     17C9                     u3245:
  5303     17C9  1003               	clrc
  5304     17CA  0DF2               	rlf	??_Lcd_Cmd,f
  5305     17CB  3EFF               	addlw	-1
  5306     17CC  1D03               	skipz
  5307     17CD  2FC9               	goto	u3245
  5308     17CE  1003               	clrc
  5309     17CF  0D72               	rlf	??_Lcd_Cmd,w
  5310     17D0  00F5               	movwf	Lcd_Cmd@data_l
  5311     17D1                     l2651:
  5312     17D1  30F0               	movlw	240
  5313     17D2  05F5               	andwf	Lcd_Cmd@data_l,f
  5314     17D3                     l2653:
  5315                           
  5316                           ;lcd_i2c.c: 32:     I2C_Start();
  5317     17D3  160A  118A  2615  160A  118A  	fcall	_I2C_Start
  5318     17D8                     l2655:
  5319                           
  5320                           ;lcd_i2c.c: 33:     I2C_Write(0x4E);
  5321     17D8  304E               	movlw	78
  5322     17D9  160A  118A  2655  160A  118A  	fcall	_I2C_Write
  5323     17DE                     l2657:
  5324                           
  5325                           ;lcd_i2c.c: 34:     I2C_Write(data_u|0x0C);
  5326     17DE  0874               	movf	Lcd_Cmd@data_u,w
  5327     17DF  380C               	iorlw	12
  5328     17E0  160A  118A  2655  160A  118A  	fcall	_I2C_Write
  5329     17E5                     l2659:
  5330                           
  5331                           ;lcd_i2c.c: 35:     I2C_Write(data_u|0x08);
  5332     17E5  0874               	movf	Lcd_Cmd@data_u,w
  5333     17E6  3808               	iorlw	8
  5334     17E7  160A  118A  2655  160A  118A  	fcall	_I2C_Write
  5335     17EC                     l2661:
  5336                           
  5337                           ;lcd_i2c.c: 36:     I2C_Write(data_l|0x0C);
  5338     17EC  0875               	movf	Lcd_Cmd@data_l,w
  5339     17ED  380C               	iorlw	12
  5340     17EE  160A  118A  2655  160A  118A  	fcall	_I2C_Write
  5341     17F3                     l2663:
  5342                           
  5343                           ;lcd_i2c.c: 37:     I2C_Write(data_l|0x08);
  5344     17F3  0875               	movf	Lcd_Cmd@data_l,w
  5345     17F4  3808               	iorlw	8
  5346     17F5  160A  118A  2655  160A  118A  	fcall	_I2C_Write
  5347     17FA                     l2665:
  5348                           
  5349                           ;lcd_i2c.c: 38:     I2C_Stop();
  5350     17FA  160A  118A  261F  160A  118A  	fcall	_I2C_Stop
  5351     17FF                     l126:
  5352     17FF  0008               	return
  5353     1800                     __end_of_Lcd_Cmd:
  5354                           
  5355                           	psect	text22
  5356     1655                     __ptext22:	
  5357 ;; *************** function _I2C_Write *****************
  5358 ;; Defined at:
  5359 ;;		line 64 in file "i2c.c"
  5360 ;; Parameters:    Size  Location     Type
  5361 ;;  data            1    wreg     unsigned char 
  5362 ;; Auto vars:     Size  Location     Type
  5363 ;;  data            1    1[COMMON] unsigned char 
  5364 ;; Return value:  Size  Location     Type
  5365 ;;                  1    wreg      unsigned char 
  5366 ;; Registers used:
  5367 ;;		wreg, status,2, status,0
  5368 ;; Tracked objects:
  5369 ;;		On entry : 0/0
  5370 ;;		On exit  : 0/0
  5371 ;;		Unchanged: 0/0
  5372 ;; Data sizes:     COMMON   BANK0   BANK1   BANK3   BANK2
  5373 ;;      Params:         0       0       0       0       0
  5374 ;;      Locals:         1       0       0       0       0
  5375 ;;      Temps:          1       0       0       0       0
  5376 ;;      Totals:         2       0       0       0       0
  5377 ;;Total ram usage:        2 bytes
  5378 ;; Hardware stack levels used: 1
  5379 ;; This function calls:
  5380 ;;		Nothing
  5381 ;; This function is called by:
  5382 ;;		_Lcd_Cmd
  5383 ;;		_Lcd_Write_Char
  5384 ;;		_ds1307_init
  5385 ;;		_ds1307_set_date
  5386 ;;		_ds1307_set_time
  5387 ;;		_ds1307_get_date
  5388 ;;		_ds1307_get_time
  5389 ;; This function uses a non-reentrant model
  5390 ;;
  5391                           
  5392     1655                     _I2C_Write:	
  5393                           ;psect for function _I2C_Write
  5394                           
  5395                           
  5396                           ;incstack = 0
  5397                           ; Regs used in _I2C_Write: [wreg+status,2+status,0]
  5398                           ;I2C_Write@data stored from wreg
  5399     1655  00F1               	movwf	I2C_Write@data
  5400     1656                     l2381:
  5401                           
  5402                           ;i2c.c: 64: uint8_t I2C_Write(char data);i2c.c: 65: {;i2c.c: 66:     SSPBUF = data;
  5403     1656  0871               	movf	I2C_Write@data,w
  5404     1657  1283               	bcf	3,5	;RP0=0, select bank0
  5405     1658  1303               	bcf	3,6	;RP1=0, select bank0
  5406     1659  0093               	movwf	19	;volatile
  5407     165A                     l101:	
  5408                           ;i2c.c: 67:     while(!PIR1bits.SSPIF);
  5409                           
  5410     165A  1D8C               	btfss	12,3	;volatile
  5411     165B  2E5D               	goto	u2721
  5412     165C  2E5E               	goto	u2720
  5413     165D                     u2721:
  5414     165D  2E5A               	goto	l101
  5415     165E                     u2720:
  5416     165E                     l103:
  5417                           
  5418                           ;i2c.c: 68:     PIR1bits.SSPIF = 0;
  5419     165E  118C               	bcf	12,3	;volatile
  5420     165F                     l2383:
  5421                           
  5422                           ;i2c.c: 70:     return (uint8_t)SSPCON2bits.ACKSTAT;
  5423     165F  1683               	bsf	3,5	;RP0=1, select bank1
  5424     1660  1303               	bcf	3,6	;RP1=0, select bank1
  5425     1661  0E11               	swapf	17,w	;volatile
  5426     1662  00F0               	movwf	??_I2C_Write
  5427     1663  0CF0               	rrf	??_I2C_Write,f
  5428     1664  0C70               	rrf	??_I2C_Write,w
  5429     1665  3901               	andlw	1
  5430     1666                     l104:
  5431     1666  0008               	return
  5432     1667                     __end_of_I2C_Write:
  5433                           
  5434                           	psect	text23
  5435     161F                     __ptext23:	
  5436 ;; *************** function _I2C_Stop *****************
  5437 ;; Defined at:
  5438 ;;		line 34 in file "i2c.c"
  5439 ;; Parameters:    Size  Location     Type
  5440 ;;		None
  5441 ;; Auto vars:     Size  Location     Type
  5442 ;;		None
  5443 ;; Return value:  Size  Location     Type
  5444 ;;                  1    wreg      void 
  5445 ;; Registers used:
  5446 ;;		None
  5447 ;; Tracked objects:
  5448 ;;		On entry : 0/0
  5449 ;;		On exit  : 0/0
  5450 ;;		Unchanged: 0/0
  5451 ;; Data sizes:     COMMON   BANK0   BANK1   BANK3   BANK2
  5452 ;;      Params:         0       0       0       0       0
  5453 ;;      Locals:         0       0       0       0       0
  5454 ;;      Temps:          0       0       0       0       0
  5455 ;;      Totals:         0       0       0       0       0
  5456 ;;Total ram usage:        0 bytes
  5457 ;; Hardware stack levels used: 1
  5458 ;; This function calls:
  5459 ;;		Nothing
  5460 ;; This function is called by:
  5461 ;;		_Lcd_Cmd
  5462 ;;		_Lcd_Write_Char
  5463 ;;		_ds1307_init
  5464 ;;		_ds1307_set_date
  5465 ;;		_ds1307_set_time
  5466 ;;		_ds1307_get_date
  5467 ;;		_ds1307_get_time
  5468 ;; This function uses a non-reentrant model
  5469 ;;
  5470                           
  5471     161F                     _I2C_Stop:	
  5472                           ;psect for function _I2C_Stop
  5473                           
  5474     161F                     l2379:	
  5475                           ;incstack = 0
  5476                           ; Regs used in _I2C_Stop: []
  5477                           
  5478                           
  5479                           ;i2c.c: 36:     SSPCON2bits.PEN = 1;
  5480     161F  1683               	bsf	3,5	;RP0=1, select bank1
  5481     1620  1303               	bcf	3,6	;RP1=0, select bank1
  5482     1621  1511               	bsf	17,2	;volatile
  5483     1622                     l77:	
  5484                           ;i2c.c: 37:     while(PIR1bits.SSPIF == 0);
  5485                           
  5486     1622  1283               	bcf	3,5	;RP0=0, select bank0
  5487     1623  1D8C               	btfss	12,3	;volatile
  5488     1624  2E26               	goto	u2711
  5489     1625  2E27               	goto	u2710
  5490     1626                     u2711:
  5491     1626  2E22               	goto	l77
  5492     1627                     u2710:
  5493     1627                     l79:
  5494                           
  5495                           ;i2c.c: 38:     PIR1bits.SSPIF = 0;
  5496     1627  118C               	bcf	12,3	;volatile
  5497     1628                     l80:
  5498     1628  0008               	return
  5499     1629                     __end_of_I2C_Stop:
  5500                           
  5501                           	psect	text24
  5502     1615                     __ptext24:	
  5503 ;; *************** function _I2C_Start *****************
  5504 ;; Defined at:
  5505 ;;		line 27 in file "i2c.c"
  5506 ;; Parameters:    Size  Location     Type
  5507 ;;		None
  5508 ;; Auto vars:     Size  Location     Type
  5509 ;;		None
  5510 ;; Return value:  Size  Location     Type
  5511 ;;                  1    wreg      void 
  5512 ;; Registers used:
  5513 ;;		None
  5514 ;; Tracked objects:
  5515 ;;		On entry : 0/0
  5516 ;;		On exit  : 0/0
  5517 ;;		Unchanged: 0/0
  5518 ;; Data sizes:     COMMON   BANK0   BANK1   BANK3   BANK2
  5519 ;;      Params:         0       0       0       0       0
  5520 ;;      Locals:         0       0       0       0       0
  5521 ;;      Temps:          0       0       0       0       0
  5522 ;;      Totals:         0       0       0       0       0
  5523 ;;Total ram usage:        0 bytes
  5524 ;; Hardware stack levels used: 1
  5525 ;; This function calls:
  5526 ;;		Nothing
  5527 ;; This function is called by:
  5528 ;;		_Lcd_Cmd
  5529 ;;		_Lcd_Write_Char
  5530 ;;		_ds1307_init
  5531 ;;		_ds1307_set_date
  5532 ;;		_ds1307_set_time
  5533 ;;		_ds1307_get_date
  5534 ;;		_ds1307_get_time
  5535 ;; This function uses a non-reentrant model
  5536 ;;
  5537                           
  5538     1615                     _I2C_Start:	
  5539                           ;psect for function _I2C_Start
  5540                           
  5541     1615                     l2377:	
  5542                           ;incstack = 0
  5543                           ; Regs used in _I2C_Start: []
  5544                           
  5545                           
  5546                           ;i2c.c: 29:     SSPCON2bits.SEN = 1;
  5547     1615  1683               	bsf	3,5	;RP0=1, select bank1
  5548     1616  1303               	bcf	3,6	;RP1=0, select bank1
  5549     1617  1411               	bsf	17,0	;volatile
  5550     1618                     l71:	
  5551                           ;i2c.c: 30:     while(PIR1bits.SSPIF == 0);
  5552                           
  5553     1618  1283               	bcf	3,5	;RP0=0, select bank0
  5554     1619  1D8C               	btfss	12,3	;volatile
  5555     161A  2E1C               	goto	u2701
  5556     161B  2E1D               	goto	u2700
  5557     161C                     u2701:
  5558     161C  2E18               	goto	l71
  5559     161D                     u2700:
  5560     161D                     l73:
  5561                           
  5562                           ;i2c.c: 31:     PIR1bits.SSPIF = 0;
  5563     161D  118C               	bcf	12,3	;volatile
  5564     161E                     l74:
  5565     161E  0008               	return
  5566     161F                     __end_of_I2C_Start:
  5567                           
  5568                           	psect	text25
  5569     1667                     __ptext25:	
  5570 ;; *************** function _I2C_Init_Master *****************
  5571 ;; Defined at:
  5572 ;;		line 10 in file "i2c.c"
  5573 ;; Parameters:    Size  Location     Type
  5574 ;;  sp_i2c          1    wreg     unsigned char 
  5575 ;; Auto vars:     Size  Location     Type
  5576 ;;  sp_i2c          1    0[COMMON] unsigned char 
  5577 ;; Return value:  Size  Location     Type
  5578 ;;                  1    wreg      void 
  5579 ;; Registers used:
  5580 ;;		wreg, status,2, status,0
  5581 ;; Tracked objects:
  5582 ;;		On entry : 0/0
  5583 ;;		On exit  : 0/0
  5584 ;;		Unchanged: 0/0
  5585 ;; Data sizes:     COMMON   BANK0   BANK1   BANK3   BANK2
  5586 ;;      Params:         0       0       0       0       0
  5587 ;;      Locals:         1       0       0       0       0
  5588 ;;      Temps:          0       0       0       0       0
  5589 ;;      Totals:         1       0       0       0       0
  5590 ;;Total ram usage:        1 bytes
  5591 ;; Hardware stack levels used: 1
  5592 ;; This function calls:
  5593 ;;		Nothing
  5594 ;; This function is called by:
  5595 ;;		_main
  5596 ;; This function uses a non-reentrant model
  5597 ;;
  5598                           
  5599     1667                     _I2C_Init_Master:	
  5600                           ;psect for function _I2C_Init_Master
  5601                           
  5602                           
  5603                           ;incstack = 0
  5604                           ; Regs used in _I2C_Init_Master: [wreg+status,2+status,0]
  5605                           ;I2C_Init_Master@sp_i2c stored from wreg
  5606     1667  00F0               	movwf	I2C_Init_Master@sp_i2c
  5607     1668                     l3097:
  5608                           
  5609                           ;i2c.c: 10: void I2C_Init_Master(unsigned char sp_i2c);i2c.c: 11: {;i2c.c: 12:     TRISC
      +                          bits.TRISC3 = 1;
  5610     1668  1683               	bsf	3,5	;RP0=1, select bank1
  5611     1669  1303               	bcf	3,6	;RP1=0, select bank1
  5612     166A  1587               	bsf	7,3	;volatile
  5613                           
  5614                           ;i2c.c: 13:     TRISCbits.TRISC4 = 1;
  5615     166B  1607               	bsf	7,4	;volatile
  5616     166C                     l3099:
  5617                           
  5618                           ;i2c.c: 15:     SSPSTAT = sp_i2c;
  5619     166C  0870               	movf	I2C_Init_Master@sp_i2c,w
  5620     166D  0094               	movwf	20	;volatile
  5621     166E                     l3101:
  5622                           
  5623                           ;i2c.c: 16:     SSPCON = 0x28;
  5624     166E  3028               	movlw	40
  5625     166F  1283               	bcf	3,5	;RP0=0, select bank0
  5626     1670  1303               	bcf	3,6	;RP1=0, select bank0
  5627     1671  0094               	movwf	20	;volatile
  5628     1672                     l3103:
  5629                           
  5630                           ;i2c.c: 17:     SSPCON2 = 0x00;
  5631     1672  1683               	bsf	3,5	;RP0=1, select bank1
  5632     1673  1303               	bcf	3,6	;RP1=0, select bank1
  5633     1674  0191               	clrf	17	;volatile
  5634     1675                     l3105:
  5635                           
  5636                           ;i2c.c: 19:     if(sp_i2c == 0x80){
  5637     1675  3080               	movlw	128
  5638     1676  0670               	xorwf	I2C_Init_Master@sp_i2c,w
  5639     1677  1D03               	btfss	3,2
  5640     1678  2E7A               	goto	u4291
  5641     1679  2E7B               	goto	u4290
  5642     167A                     u4291:
  5643     167A  2E7E               	goto	l3109
  5644     167B                     u4290:
  5645     167B                     l3107:
  5646                           
  5647                           ;i2c.c: 20:         SSPADD = 49;
  5648     167B  3031               	movlw	49
  5649     167C  0093               	movwf	19	;volatile
  5650                           
  5651                           ;i2c.c: 21:     }
  5652     167D  2E85               	goto	l68
  5653     167E                     l3109:
  5654     167E  0870               	movf	I2C_Init_Master@sp_i2c,w
  5655     167F  1D03               	btfss	3,2
  5656     1680  2E82               	goto	u4301
  5657     1681  2E83               	goto	u4300
  5658     1682                     u4301:
  5659     1682  2E85               	goto	l68
  5660     1683                     u4300:
  5661     1683                     l3111:
  5662                           
  5663                           ;i2c.c: 23:         SSPADD = 12;
  5664     1683  300C               	movlw	12
  5665     1684  0093               	movwf	19	;volatile
  5666     1685                     l68:
  5667     1685  0008               	return
  5668     1686                     __end_of_I2C_Init_Master:
  5669                           
  5670                           	psect	text26
  5671     0E95                     __ptext26:	
  5672 ;; *************** function _DHT22_read *****************
  5673 ;; Defined at:
  5674 ;;		line 8 in file "dht22.c"
  5675 ;; Parameters:    Size  Location     Type
  5676 ;;  dht_temperat    1   58[BANK0 ] PTR float 
  5677 ;;		 -> main@hum(4), 
  5678 ;;  dht_humedad     1   59[BANK0 ] PTR float 
  5679 ;;		 -> main@tem(4), 
  5680 ;; Auto vars:     Size  Location     Type
  5681 ;;  result          1   66[BANK0 ] unsigned char 
  5682 ;;  rawtemperatu    2   72[BANK0 ] unsigned short 
  5683 ;;  rawhumidity     2   64[BANK0 ] unsigned short 
  5684 ;;  bits            5   67[BANK0 ] unsigned char [5]
  5685 ;;  j               1   75[BANK0 ] unsigned char 
  5686 ;;  i               1   74[BANK0 ] unsigned char 
  5687 ;; Return value:  Size  Location     Type
  5688 ;;                  1    wreg      unsigned char 
  5689 ;; Registers used:
  5690 ;;		wreg, fsr0l, fsr0h, status,2, status,0, pclath, btemp1, cstack
  5691 ;; Tracked objects:
  5692 ;;		On entry : 0/0
  5693 ;;		On exit  : 0/0
  5694 ;;		Unchanged: 0/0
  5695 ;; Data sizes:     COMMON   BANK0   BANK1   BANK3   BANK2
  5696 ;;      Params:         0       2       0       0       0
  5697 ;;      Locals:         0      12       0       0       0
  5698 ;;      Temps:          0       4       0       0       0
  5699 ;;      Totals:         0      18       0       0       0
  5700 ;;Total ram usage:       18 bytes
  5701 ;; Hardware stack levels used: 1
  5702 ;; Hardware stack levels required when called: 2
  5703 ;; This function calls:
  5704 ;;		___fldiv
  5705 ;;		___flmul
  5706 ;;		___xxtofl
  5707 ;; This function is called by:
  5708 ;;		_main
  5709 ;; This function uses a non-reentrant model
  5710 ;;
  5711                           
  5712     0E95                     _DHT22_read:	
  5713                           ;psect for function _DHT22_read
  5714                           
  5715     0E95                     l3151:	
  5716                           ;incstack = 0
  5717                           ; Regs used in _DHT22_read: [wreg-fsr0h+status,2+status,0+pclath+btemp1+cstack]
  5718                           
  5719     0E95                     l3153:
  5720                           
  5721                           ;dht22.c: 12: PORTAbits.RA0 = 0;
  5722     0E95  1283               	bcf	3,5	;RP0=0, select bank0
  5723     0E96  1303               	bcf	3,6	;RP1=0, select bank0
  5724     0E97  1005               	bcf	5,0	;volatile
  5725     0E98                     l3155:
  5726                           
  5727                           ;dht22.c: 13: _delay((unsigned long)((18)*(20000000/4000.0)));
  5728     0E98  3075               	movlw	117
  5729     0E99  1283               	bcf	3,5	;RP0=0, select bank0
  5730     0E9A  1303               	bcf	3,6	;RP1=0, select bank0
  5731     0E9B  00DD               	movwf	??_DHT22_read+1
  5732     0E9C  30E0               	movlw	224
  5733     0E9D  00DC               	movwf	??_DHT22_read
  5734     0E9E                     u4747:
  5735     0E9E  0BDC               	decfsz	??_DHT22_read,f
  5736     0E9F  2E9E               	goto	u4747
  5737     0EA0  0BDD               	decfsz	??_DHT22_read+1,f
  5738     0EA1  2E9E               	goto	u4747
  5739     0EA2  0000               	nop
  5740     0EA3                     l3157:
  5741                           
  5742                           ;dht22.c: 15: PORTAbits.RA0 = 1;
  5743     0EA3  1283               	bcf	3,5	;RP0=0, select bank0
  5744     0EA4  1303               	bcf	3,6	;RP1=0, select bank0
  5745     0EA5  1405               	bsf	5,0	;volatile
  5746     0EA6                     l3159:
  5747                           
  5748                           ;dht22.c: 16: _delay((unsigned long)((40)*(20000000/4000000.0)));
  5749     0EA6  3041               	movlw	65
  5750     0EA7  1283               	bcf	3,5	;RP0=0, select bank0
  5751     0EA8  1303               	bcf	3,6	;RP1=0, select bank0
  5752     0EA9  00DC               	movwf	??_DHT22_read
  5753     0EAA                     u4757:
  5754     0EAA  0BDC               	decfsz	??_DHT22_read,f
  5755     0EAB  2EAA               	goto	u4757
  5756     0EAC  2EAD               	nop2
  5757     0EAD                     l3161:
  5758                           
  5759                           ;dht22.c: 18: TRISAbits.TRISA0 = 1;
  5760     0EAD  1683               	bsf	3,5	;RP0=1, select bank1
  5761     0EAE  1303               	bcf	3,6	;RP1=0, select bank1
  5762     0EAF  1405               	bsf	5,0	;volatile
  5763     0EB0                     l3163:
  5764                           
  5765                           ;dht22.c: 20: if(PORTAbits.RA0){
  5766     0EB0  1283               	bcf	3,5	;RP0=0, select bank0
  5767     0EB1  1303               	bcf	3,6	;RP1=0, select bank0
  5768     0EB2  1C05               	btfss	5,0	;volatile
  5769     0EB3  2EB5               	goto	u4321
  5770     0EB4  2EB6               	goto	u4320
  5771     0EB5                     u4321:
  5772     0EB5  2EBE               	goto	l3171
  5773     0EB6                     u4320:
  5774     0EB6                     l3165:
  5775                           
  5776                           ;dht22.c: 21: TRISAbits.TRISA0 = 0;
  5777     0EB6  1683               	bsf	3,5	;RP0=1, select bank1
  5778     0EB7  1303               	bcf	3,6	;RP1=0, select bank1
  5779     0EB8  1005               	bcf	5,0	;volatile
  5780                           
  5781                           ;dht22.c: 22: PORTAbits.RA0 = 1;
  5782     0EB9  1283               	bcf	3,5	;RP0=0, select bank0
  5783     0EBA  1303               	bcf	3,6	;RP1=0, select bank0
  5784     0EBB  1405               	bsf	5,0	;volatile
  5785     0EBC                     l3167:
  5786                           
  5787                           ;dht22.c: 23: return 0;
  5788     0EBC  3000               	movlw	0
  5789     0EBD  2FFF               	goto	l277
  5790     0EBE                     l3171:
  5791                           
  5792                           ;dht22.c: 25: _delay((unsigned long)((80)*(20000000/4000000.0)));
  5793     0EBE  3084               	movlw	132
  5794     0EBF  1283               	bcf	3,5	;RP0=0, select bank0
  5795     0EC0  1303               	bcf	3,6	;RP1=0, select bank0
  5796     0EC1  00DC               	movwf	??_DHT22_read
  5797     0EC2                     u4767:
  5798     0EC2  0BDC               	decfsz	??_DHT22_read,f
  5799     0EC3  2EC2               	goto	u4767
  5800     0EC4  0000               	nop
  5801     0EC5                     l3173:
  5802                           
  5803                           ;dht22.c: 27: if(!PORTAbits.RA0){
  5804     0EC5  1283               	bcf	3,5	;RP0=0, select bank0
  5805     0EC6  1303               	bcf	3,6	;RP1=0, select bank0
  5806     0EC7  1805               	btfsc	5,0	;volatile
  5807     0EC8  2ECA               	goto	u4331
  5808     0EC9  2ECB               	goto	u4330
  5809     0ECA                     u4331:
  5810     0ECA  2ED2               	goto	l3181
  5811     0ECB                     u4330:
  5812     0ECB                     l3175:
  5813                           
  5814                           ;dht22.c: 28: TRISAbits.TRISA0 = 0;
  5815     0ECB  1683               	bsf	3,5	;RP0=1, select bank1
  5816     0ECC  1303               	bcf	3,6	;RP1=0, select bank1
  5817     0ECD  1005               	bcf	5,0	;volatile
  5818                           
  5819                           ;dht22.c: 29: PORTAbits.RA0 = 1;
  5820     0ECE  1283               	bcf	3,5	;RP0=0, select bank0
  5821     0ECF  1303               	bcf	3,6	;RP1=0, select bank0
  5822     0ED0  1405               	bsf	5,0	;volatile
  5823     0ED1  2EBC               	goto	l3167
  5824     0ED2                     l3181:
  5825                           
  5826                           ;dht22.c: 32: _delay((unsigned long)((80)*(20000000/4000000.0)));
  5827     0ED2  3084               	movlw	132
  5828     0ED3  1283               	bcf	3,5	;RP0=0, select bank0
  5829     0ED4  1303               	bcf	3,6	;RP1=0, select bank0
  5830     0ED5  00DC               	movwf	??_DHT22_read
  5831     0ED6                     u4777:
  5832     0ED6  0BDC               	decfsz	??_DHT22_read,f
  5833     0ED7  2ED6               	goto	u4777
  5834     0ED8  0000               	nop
  5835     0ED9                     l3183:
  5836                           
  5837                           ;dht22.c: 34: for (j=0; j<5; j++)
  5838     0ED9  1283               	bcf	3,5	;RP0=0, select bank0
  5839     0EDA  1303               	bcf	3,6	;RP1=0, select bank0
  5840     0EDB  01EB               	clrf	DHT22_read@j
  5841     0EDC                     l3189:
  5842                           
  5843                           ;dht22.c: 35: {;dht22.c: 36: uint8_t result=0;
  5844     0EDC  01E2               	clrf	DHT22_read@result
  5845                           
  5846                           ;dht22.c: 37: for (i=0; i<8; i++)
  5847     0EDD  01EA               	clrf	DHT22_read@i
  5848     0EDE                     l283:
  5849     0EDE  1C05               	btfss	5,0	;volatile
  5850     0EDF  2EE1               	goto	u4341
  5851     0EE0  2EE2               	goto	u4340
  5852     0EE1                     u4341:
  5853     0EE1  2EDE               	goto	l283
  5854     0EE2                     u4340:
  5855     0EE2                     l3195:
  5856                           
  5857                           ;dht22.c: 40: _delay((unsigned long)((35)*(20000000/4000000.0)));
  5858     0EE2  3039               	movlw	57
  5859     0EE3  1283               	bcf	3,5	;RP0=0, select bank0
  5860     0EE4  1303               	bcf	3,6	;RP1=0, select bank0
  5861     0EE5  00DC               	movwf	??_DHT22_read
  5862     0EE6                     u4787:
  5863     0EE6  0BDC               	decfsz	??_DHT22_read,f
  5864     0EE7  2EE6               	goto	u4787
  5865     0EE8  0000               	nop
  5866     0EE9                     l3197:
  5867                           
  5868                           ;dht22.c: 41: if (PORTAbits.RA0)
  5869     0EE9  1283               	bcf	3,5	;RP0=0, select bank0
  5870     0EEA  1303               	bcf	3,6	;RP1=0, select bank0
  5871     0EEB  1C05               	btfss	5,0	;volatile
  5872     0EEC  2EEE               	goto	u4351
  5873     0EED  2EEF               	goto	u4350
  5874     0EEE                     u4351:
  5875     0EEE  2EFC               	goto	l287
  5876     0EEF                     u4350:
  5877     0EEF                     l3199:
  5878                           
  5879                           ;dht22.c: 42: result |= (1<<(7-i));
  5880     0EEF  3001               	movlw	1
  5881     0EF0  00DC               	movwf	??_DHT22_read
  5882     0EF1  086A               	movf	DHT22_read@i,w
  5883     0EF2  3C07               	sublw	7
  5884     0EF3  3E01               	addlw	1
  5885     0EF4  2EF7               	goto	u4364
  5886     0EF5                     u4365:
  5887     0EF5  1003               	clrc
  5888     0EF6  0DDC               	rlf	??_DHT22_read,f
  5889     0EF7                     u4364:
  5890     0EF7  3EFF               	addlw	-1
  5891     0EF8  1D03               	skipz
  5892     0EF9  2EF5               	goto	u4365
  5893     0EFA  085C               	movf	??_DHT22_read,w
  5894     0EFB  04E2               	iorwf	DHT22_read@result,f
  5895     0EFC                     l287:
  5896     0EFC  1805               	btfsc	5,0	;volatile
  5897     0EFD  2EFF               	goto	u4371
  5898     0EFE  2F00               	goto	u4370
  5899     0EFF                     u4371:
  5900     0EFF  2EFC               	goto	l287
  5901     0F00                     u4370:
  5902     0F00                     l3201:
  5903                           
  5904                           ;dht22.c: 45: }
  5905     0F00  3001               	movlw	1
  5906     0F01  07EA               	addwf	DHT22_read@i,f
  5907     0F02                     l3203:
  5908     0F02  3008               	movlw	8
  5909     0F03  026A               	subwf	DHT22_read@i,w
  5910     0F04  1C03               	skipc
  5911     0F05  2F07               	goto	u4381
  5912     0F06  2F08               	goto	u4380
  5913     0F07                     u4381:
  5914     0F07  2EDE               	goto	l283
  5915     0F08                     u4380:
  5916     0F08                     l3205:
  5917                           
  5918                           ;dht22.c: 46: bits[j] = result;
  5919     0F08  086B               	movf	DHT22_read@j,w
  5920     0F09  3E63               	addlw	(low (DHT22_read@bits| 0))& (0+255)
  5921     0F0A  0084               	movwf	4
  5922     0F0B  0862               	movf	DHT22_read@result,w
  5923     0F0C  1383               	bcf	3,7	;select IRP bank0
  5924     0F0D  0080               	movwf	0
  5925     0F0E                     l3207:
  5926                           
  5927                           ;dht22.c: 47: }
  5928     0F0E  3001               	movlw	1
  5929     0F0F  07EB               	addwf	DHT22_read@j,f
  5930     0F10                     l3209:
  5931     0F10  3005               	movlw	5
  5932     0F11  026B               	subwf	DHT22_read@j,w
  5933     0F12  1C03               	skipc
  5934     0F13  2F15               	goto	u4391
  5935     0F14  2F16               	goto	u4390
  5936     0F15                     u4391:
  5937     0F15  2EDC               	goto	l3189
  5938     0F16                     u4390:
  5939     0F16                     l280:
  5940                           
  5941                           ;dht22.c: 49: TRISAbits.TRISA0 = 0;
  5942     0F16  1683               	bsf	3,5	;RP0=1, select bank1
  5943     0F17  1303               	bcf	3,6	;RP1=0, select bank1
  5944     0F18  1005               	bcf	5,0	;volatile
  5945                           
  5946                           ;dht22.c: 50: PORTAbits.RA0 = 1;
  5947     0F19  1283               	bcf	3,5	;RP0=0, select bank0
  5948     0F1A  1303               	bcf	3,6	;RP1=0, select bank0
  5949     0F1B  1405               	bsf	5,0	;volatile
  5950     0F1C                     l3211:
  5951                           
  5952                           ;dht22.c: 52: if ((uint8_t)(bits[0] + bits[1] + bits[2] + bits[3]) == bits[4])
  5953     0F1C  0865               	movf	DHT22_read@bits+2,w
  5954     0F1D  0764               	addwf	DHT22_read@bits+1,w
  5955     0F1E  00DC               	movwf	??_DHT22_read
  5956     0F1F  0866               	movf	DHT22_read@bits+3,w
  5957     0F20  075C               	addwf	??_DHT22_read,w
  5958     0F21  00DD               	movwf	??_DHT22_read+1
  5959     0F22  0863               	movf	DHT22_read@bits,w
  5960     0F23  075D               	addwf	??_DHT22_read+1,w
  5961     0F24  0667               	xorwf	DHT22_read@bits+4,w
  5962     0F25  1D03               	skipz
  5963     0F26  2F28               	goto	u4401
  5964     0F27  2F29               	goto	u4400
  5965     0F28                     u4401:
  5966     0F28  2EBC               	goto	l3167
  5967     0F29                     u4400:
  5968     0F29                     l3213:
  5969                           
  5970                           ;dht22.c: 53: {;dht22.c: 54: uint16_t rawhumidity = bits[0]<<8 | bits[1];
  5971     0F29  0864               	movf	DHT22_read@bits+1,w
  5972     0F2A  00DC               	movwf	??_DHT22_read
  5973     0F2B  01DD               	clrf	??_DHT22_read+1
  5974     0F2C  0863               	movf	DHT22_read@bits,w
  5975     0F2D  00DE               	movwf	??_DHT22_read+2
  5976     0F2E  01DF               	clrf	??_DHT22_read+3
  5977     0F2F  085E               	movf	??_DHT22_read+2,w
  5978     0F30  00DF               	movwf	??_DHT22_read+3
  5979     0F31  01DE               	clrf	??_DHT22_read+2
  5980     0F32  085C               	movf	??_DHT22_read,w
  5981     0F33  045E               	iorwf	??_DHT22_read+2,w
  5982     0F34  00E0               	movwf	DHT22_read@rawhumidity
  5983     0F35  085D               	movf	??_DHT22_read+1,w
  5984     0F36  045F               	iorwf	??_DHT22_read+3,w
  5985     0F37  00E1               	movwf	DHT22_read@rawhumidity+1
  5986                           
  5987                           ;dht22.c: 55: uint16_t rawtemperature = bits[2]<<8 | bits[3];
  5988     0F38  0866               	movf	DHT22_read@bits+3,w
  5989     0F39  00DC               	movwf	??_DHT22_read
  5990     0F3A  01DD               	clrf	??_DHT22_read+1
  5991     0F3B  0865               	movf	DHT22_read@bits+2,w
  5992     0F3C  00DE               	movwf	??_DHT22_read+2
  5993     0F3D  01DF               	clrf	??_DHT22_read+3
  5994     0F3E  085E               	movf	??_DHT22_read+2,w
  5995     0F3F  00DF               	movwf	??_DHT22_read+3
  5996     0F40  01DE               	clrf	??_DHT22_read+2
  5997     0F41  085C               	movf	??_DHT22_read,w
  5998     0F42  045E               	iorwf	??_DHT22_read+2,w
  5999     0F43  00E8               	movwf	DHT22_read@rawtemperature
  6000     0F44  085D               	movf	??_DHT22_read+1,w
  6001     0F45  045F               	iorwf	??_DHT22_read+3,w
  6002     0F46  00E9               	movwf	DHT22_read@rawtemperature+1
  6003     0F47                     l3215:
  6004                           
  6005                           ;dht22.c: 57: if (rawtemperature & 0x8000){
  6006     0F47  1FE9               	btfss	DHT22_read@rawtemperature+1,7
  6007     0F48  2F4A               	goto	u4411
  6008     0F49  2F4B               	goto	u4410
  6009     0F4A                     u4411:
  6010     0F4A  2F98               	goto	l3219
  6011     0F4B                     u4410:
  6012     0F4B                     l3217:
  6013                           
  6014                           ;dht22.c: 58: *dht_temperatura = (float)((rawtemperature & 0x7fff) / 10.0) * -1.0;
  6015     0F4B  30BF               	movlw	191
  6016     0F4C  00C3               	movwf	___flmul@b+3
  6017     0F4D  3080               	movlw	128
  6018     0F4E  00C2               	movwf	___flmul@b+2
  6019     0F4F  3000               	movlw	0
  6020     0F50  00C1               	movwf	___flmul@b+1
  6021     0F51  3000               	movlw	0
  6022     0F52  00C0               	movwf	___flmul@b
  6023     0F53  3041               	movlw	65
  6024     0F54  00A9               	movwf	___fldiv@a+3
  6025     0F55  3020               	movlw	32
  6026     0F56  00A8               	movwf	___fldiv@a+2
  6027     0F57  3000               	movlw	0
  6028     0F58  00A7               	movwf	___fldiv@a+1
  6029     0F59  3000               	movlw	0
  6030     0F5A  00A6               	movwf	___fldiv@a
  6031     0F5B  30FF               	movlw	255
  6032     0F5C  0568               	andwf	DHT22_read@rawtemperature,w
  6033     0F5D  00F6               	movwf	___xxtofl@val
  6034     0F5E  307F               	movlw	127
  6035     0F5F  0569               	andwf	DHT22_read@rawtemperature+1,w
  6036     0F60  00F7               	movwf	___xxtofl@val+1
  6037     0F61  01F8               	clrf	___xxtofl@val+2
  6038     0F62  01F9               	clrf	___xxtofl@val+3
  6039     0F63  3000               	movlw	0
  6040     0F64  120A  158A  2295  120A  158A  	fcall	___xxtofl
  6041     0F69  0879               	movf	?___xxtofl+3,w
  6042     0F6A  1283               	bcf	3,5	;RP0=0, select bank0
  6043     0F6B  1303               	bcf	3,6	;RP1=0, select bank0
  6044     0F6C  00AD               	movwf	___fldiv@b+3
  6045     0F6D  0878               	movf	?___xxtofl+2,w
  6046     0F6E  00AC               	movwf	___fldiv@b+2
  6047     0F6F  0877               	movf	?___xxtofl+1,w
  6048     0F70  00AB               	movwf	___fldiv@b+1
  6049     0F71  0876               	movf	?___xxtofl,w
  6050     0F72  00AA               	movwf	___fldiv@b
  6051     0F73  120A  118A  207F  120A  158A  	fcall	___fldiv
  6052     0F78  1283               	bcf	3,5	;RP0=0, select bank0
  6053     0F79  1303               	bcf	3,6	;RP1=0, select bank0
  6054     0F7A  0829               	movf	?___fldiv+3,w
  6055     0F7B  00C7               	movwf	___flmul@a+3
  6056     0F7C  0828               	movf	?___fldiv+2,w
  6057     0F7D  00C6               	movwf	___flmul@a+2
  6058     0F7E  0827               	movf	?___fldiv+1,w
  6059     0F7F  00C5               	movwf	___flmul@a+1
  6060     0F80  0826               	movf	?___fldiv,w
  6061     0F81  00C4               	movwf	___flmul@a
  6062     0F82  120A  118A  24A5  120A  158A  	fcall	___flmul
  6063     0F87  1283               	bcf	3,5	;RP0=0, select bank0
  6064     0F88  1303               	bcf	3,6	;RP1=0, select bank0
  6065     0F89  085A               	movf	DHT22_read@dht_temperatura,w
  6066     0F8A  0084               	movwf	4
  6067     0F8B  0840               	movf	?___flmul,w
  6068     0F8C  1383               	bcf	3,7	;select IRP bank0
  6069     0F8D  0080               	movwf	0
  6070     0F8E  0A84               	incf	4,f
  6071     0F8F  0841               	movf	?___flmul+1,w
  6072     0F90  0080               	movwf	0
  6073     0F91  0A84               	incf	4,f
  6074     0F92  0842               	movf	?___flmul+2,w
  6075     0F93  0080               	movwf	0
  6076     0F94  0A84               	incf	4,f
  6077     0F95  0843               	movf	?___flmul+3,w
  6078     0F96  0080               	movwf	0
  6079                           
  6080                           ;dht22.c: 59: }else{
  6081     0F97  2FCB               	goto	l292
  6082     0F98                     l3219:
  6083                           
  6084                           ;dht22.c: 60: *dht_temperatura = (float)(rawtemperature)/10.0;
  6085     0F98  3041               	movlw	65
  6086     0F99  00A9               	movwf	___fldiv@a+3
  6087     0F9A  3020               	movlw	32
  6088     0F9B  00A8               	movwf	___fldiv@a+2
  6089     0F9C  3000               	movlw	0
  6090     0F9D  00A7               	movwf	___fldiv@a+1
  6091     0F9E  3000               	movlw	0
  6092     0F9F  00A6               	movwf	___fldiv@a
  6093     0FA0  0868               	movf	DHT22_read@rawtemperature,w
  6094     0FA1  00F6               	movwf	___xxtofl@val
  6095     0FA2  0869               	movf	DHT22_read@rawtemperature+1,w
  6096     0FA3  00F7               	movwf	___xxtofl@val+1
  6097     0FA4  01F8               	clrf	___xxtofl@val+2
  6098     0FA5  01F9               	clrf	___xxtofl@val+3
  6099     0FA6  3000               	movlw	0
  6100     0FA7  120A  158A  2295  120A  158A  	fcall	___xxtofl
  6101     0FAC  0879               	movf	?___xxtofl+3,w
  6102     0FAD  1283               	bcf	3,5	;RP0=0, select bank0
  6103     0FAE  1303               	bcf	3,6	;RP1=0, select bank0
  6104     0FAF  00AD               	movwf	___fldiv@b+3
  6105     0FB0  0878               	movf	?___xxtofl+2,w
  6106     0FB1  00AC               	movwf	___fldiv@b+2
  6107     0FB2  0877               	movf	?___xxtofl+1,w
  6108     0FB3  00AB               	movwf	___fldiv@b+1
  6109     0FB4  0876               	movf	?___xxtofl,w
  6110     0FB5  00AA               	movwf	___fldiv@b
  6111     0FB6  120A  118A  207F  120A  158A  	fcall	___fldiv
  6112     0FBB  1283               	bcf	3,5	;RP0=0, select bank0
  6113     0FBC  1303               	bcf	3,6	;RP1=0, select bank0
  6114     0FBD  085A               	movf	DHT22_read@dht_temperatura,w
  6115     0FBE  0084               	movwf	4
  6116     0FBF  0826               	movf	?___fldiv,w
  6117     0FC0  1383               	bcf	3,7	;select IRP bank0
  6118     0FC1  0080               	movwf	0
  6119     0FC2  0A84               	incf	4,f
  6120     0FC3  0827               	movf	?___fldiv+1,w
  6121     0FC4  0080               	movwf	0
  6122     0FC5  0A84               	incf	4,f
  6123     0FC6  0828               	movf	?___fldiv+2,w
  6124     0FC7  0080               	movwf	0
  6125     0FC8  0A84               	incf	4,f
  6126     0FC9  0829               	movf	?___fldiv+3,w
  6127     0FCA  0080               	movwf	0
  6128     0FCB                     l292:	
  6129                           ;dht22.c: 61: }
  6130                           
  6131                           
  6132                           ;dht22.c: 62: *dht_humedad = (float)(rawhumidity)/10.0;
  6133     0FCB  3041               	movlw	65
  6134     0FCC  00A9               	movwf	___fldiv@a+3
  6135     0FCD  3020               	movlw	32
  6136     0FCE  00A8               	movwf	___fldiv@a+2
  6137     0FCF  3000               	movlw	0
  6138     0FD0  00A7               	movwf	___fldiv@a+1
  6139     0FD1  3000               	movlw	0
  6140     0FD2  00A6               	movwf	___fldiv@a
  6141     0FD3  0860               	movf	DHT22_read@rawhumidity,w
  6142     0FD4  00F6               	movwf	___xxtofl@val
  6143     0FD5  0861               	movf	DHT22_read@rawhumidity+1,w
  6144     0FD6  00F7               	movwf	___xxtofl@val+1
  6145     0FD7  01F8               	clrf	___xxtofl@val+2
  6146     0FD8  01F9               	clrf	___xxtofl@val+3
  6147     0FD9  3000               	movlw	0
  6148     0FDA  120A  158A  2295  120A  158A  	fcall	___xxtofl
  6149     0FDF  0879               	movf	?___xxtofl+3,w
  6150     0FE0  1283               	bcf	3,5	;RP0=0, select bank0
  6151     0FE1  1303               	bcf	3,6	;RP1=0, select bank0
  6152     0FE2  00AD               	movwf	___fldiv@b+3
  6153     0FE3  0878               	movf	?___xxtofl+2,w
  6154     0FE4  00AC               	movwf	___fldiv@b+2
  6155     0FE5  0877               	movf	?___xxtofl+1,w
  6156     0FE6  00AB               	movwf	___fldiv@b+1
  6157     0FE7  0876               	movf	?___xxtofl,w
  6158     0FE8  00AA               	movwf	___fldiv@b
  6159     0FE9  120A  118A  207F  120A  158A  	fcall	___fldiv
  6160     0FEE  1283               	bcf	3,5	;RP0=0, select bank0
  6161     0FEF  1303               	bcf	3,6	;RP1=0, select bank0
  6162     0FF0  085B               	movf	DHT22_read@dht_humedad,w
  6163     0FF1  0084               	movwf	4
  6164     0FF2  0826               	movf	?___fldiv,w
  6165     0FF3  1383               	bcf	3,7	;select IRP bank0
  6166     0FF4  0080               	movwf	0
  6167     0FF5  0A84               	incf	4,f
  6168     0FF6  0827               	movf	?___fldiv+1,w
  6169     0FF7  0080               	movwf	0
  6170     0FF8  0A84               	incf	4,f
  6171     0FF9  0828               	movf	?___fldiv+2,w
  6172     0FFA  0080               	movwf	0
  6173     0FFB  0A84               	incf	4,f
  6174     0FFC  0829               	movf	?___fldiv+3,w
  6175     0FFD  0080               	movwf	0
  6176     0FFE                     l3221:
  6177                           
  6178                           ;dht22.c: 63: return 1;
  6179     0FFE  3001               	movlw	1
  6180     0FFF                     l277:
  6181     0FFF  0008               	return
  6182     1000                     __end_of_DHT22_read:
  6183                           
  6184                           	psect	text27
  6185     0A95                     __ptext27:	
  6186 ;; *************** function ___xxtofl *****************
  6187 ;; Defined at:
  6188 ;;		line 10 in file "C:\Program Files\Microchip\xc8\v3.10\pic\sources\c99\common\xxtofl.c"
  6189 ;; Parameters:    Size  Location     Type
  6190 ;;  sign            1    wreg     unsigned char 
  6191 ;;  val             4    6[COMMON] long 
  6192 ;; Auto vars:     Size  Location     Type
  6193 ;;  sign            1    0[BANK0 ] unsigned char 
  6194 ;;  arg             4    2[BANK0 ] unsigned long 
  6195 ;;  exp             1    1[BANK0 ] unsigned char 
  6196 ;; Return value:  Size  Location     Type
  6197 ;;                  4    6[COMMON] unsigned char 
  6198 ;; Registers used:
  6199 ;;		wreg, status,2, status,0
  6200 ;; Tracked objects:
  6201 ;;		On entry : 0/0
  6202 ;;		On exit  : 0/0
  6203 ;;		Unchanged: 0/0
  6204 ;; Data sizes:     COMMON   BANK0   BANK1   BANK3   BANK2
  6205 ;;      Params:         4       0       0       0       0
  6206 ;;      Locals:         0       6       0       0       0
  6207 ;;      Temps:          4       0       0       0       0
  6208 ;;      Totals:         8       6       0       0       0
  6209 ;;Total ram usage:       14 bytes
  6210 ;; Hardware stack levels used: 1
  6211 ;; This function calls:
  6212 ;;		Nothing
  6213 ;; This function is called by:
  6214 ;;		_float_to_string_dht22
  6215 ;;		_DHT22_read
  6216 ;;		_dht11_read
  6217 ;; This function uses a non-reentrant model
  6218 ;;
  6219                           
  6220     0A95                     ___xxtofl:	
  6221                           ;psect for function ___xxtofl
  6222                           
  6223                           
  6224                           ;incstack = 0
  6225                           ; Regs used in ___xxtofl: [wreg+status,2+status,0]
  6226                           ;___xxtofl@sign stored from wreg
  6227     0A95  1283               	bcf	3,5	;RP0=0, select bank0
  6228     0A96  1303               	bcf	3,6	;RP1=0, select bank0
  6229     0A97  00A0               	movwf	___xxtofl@sign
  6230     0A98                     l3037:
  6231     0A98  0820               	movf	___xxtofl@sign,w
  6232     0A99  1903               	btfsc	3,2
  6233     0A9A  2A9C               	goto	u4131
  6234     0A9B  2A9D               	goto	u4130
  6235     0A9C                     u4131:
  6236     0A9C  2AB1               	goto	l3043
  6237     0A9D                     u4130:
  6238     0A9D                     l3039:
  6239     0A9D  1FF9               	btfss	___xxtofl@val+3,7
  6240     0A9E  2AA0               	goto	u4141
  6241     0A9F  2AA1               	goto	u4140
  6242     0AA0                     u4141:
  6243     0AA0  2AB1               	goto	l3043
  6244     0AA1                     u4140:
  6245     0AA1                     l3041:
  6246     0AA1  0976               	comf	___xxtofl@val,w
  6247     0AA2  00A2               	movwf	___xxtofl@arg
  6248     0AA3  0977               	comf	___xxtofl@val+1,w
  6249     0AA4  00A3               	movwf	___xxtofl@arg+1
  6250     0AA5  0978               	comf	___xxtofl@val+2,w
  6251     0AA6  00A4               	movwf	___xxtofl@arg+2
  6252     0AA7  0979               	comf	___xxtofl@val+3,w
  6253     0AA8  00A5               	movwf	___xxtofl@arg+3
  6254     0AA9  0AA2               	incf	___xxtofl@arg,f
  6255     0AAA  1903               	skipnz
  6256     0AAB  0AA3               	incf	___xxtofl@arg+1,f
  6257     0AAC  1903               	skipnz
  6258     0AAD  0AA4               	incf	___xxtofl@arg+2,f
  6259     0AAE  1903               	skipnz
  6260     0AAF  0AA5               	incf	___xxtofl@arg+3,f
  6261     0AB0  2AB9               	goto	l819
  6262     0AB1                     l3043:
  6263     0AB1  0879               	movf	___xxtofl@val+3,w
  6264     0AB2  00A5               	movwf	___xxtofl@arg+3
  6265     0AB3  0878               	movf	___xxtofl@val+2,w
  6266     0AB4  00A4               	movwf	___xxtofl@arg+2
  6267     0AB5  0877               	movf	___xxtofl@val+1,w
  6268     0AB6  00A3               	movwf	___xxtofl@arg+1
  6269     0AB7  0876               	movf	___xxtofl@val,w
  6270     0AB8  00A2               	movwf	___xxtofl@arg
  6271     0AB9                     l819:
  6272     0AB9  0879               	movf	___xxtofl@val+3,w
  6273     0ABA  0478               	iorwf	___xxtofl@val+2,w
  6274     0ABB  0477               	iorwf	___xxtofl@val+1,w
  6275     0ABC  0476               	iorwf	___xxtofl@val,w
  6276     0ABD  1D03               	skipz
  6277     0ABE  2AC0               	goto	u4151
  6278     0ABF  2AC1               	goto	u4150
  6279     0AC0                     u4151:
  6280     0AC0  2ACA               	goto	l820
  6281     0AC1                     u4150:
  6282     0AC1                     l3045:
  6283     0AC1  3000               	movlw	0
  6284     0AC2  00F9               	movwf	?___xxtofl+3
  6285     0AC3  3000               	movlw	0
  6286     0AC4  00F8               	movwf	?___xxtofl+2
  6287     0AC5  3000               	movlw	0
  6288     0AC6  00F7               	movwf	?___xxtofl+1
  6289     0AC7  3000               	movlw	0
  6290     0AC8  00F6               	movwf	?___xxtofl
  6291     0AC9  2B4A               	goto	l821
  6292     0ACA                     l820:
  6293     0ACA  3096               	movlw	150
  6294     0ACB  00A1               	movwf	___xxtofl@exp
  6295     0ACC  2AD8               	goto	l3051
  6296     0ACD                     l3049:
  6297     0ACD  3001               	movlw	1
  6298     0ACE  07A1               	addwf	___xxtofl@exp,f
  6299     0ACF  3001               	movlw	1
  6300     0AD0                     u4165:
  6301     0AD0  1003               	clrc
  6302     0AD1  0CA5               	rrf	___xxtofl@arg+3,f
  6303     0AD2  0CA4               	rrf	___xxtofl@arg+2,f
  6304     0AD3  0CA3               	rrf	___xxtofl@arg+1,f
  6305     0AD4  0CA2               	rrf	___xxtofl@arg,f
  6306     0AD5  3EFF               	addlw	-1
  6307     0AD6  1D03               	skipz
  6308     0AD7  2AD0               	goto	u4165
  6309     0AD8                     l3051:
  6310     0AD8  30FE               	movlw	254
  6311     0AD9  0525               	andwf	___xxtofl@arg+3,w
  6312     0ADA  1D03               	btfss	3,2
  6313     0ADB  2ADD               	goto	u4171
  6314     0ADC  2ADE               	goto	u4170
  6315     0ADD                     u4171:
  6316     0ADD  2ACD               	goto	l3049
  6317     0ADE                     u4170:
  6318     0ADE  2AF8               	goto	l825
  6319     0ADF                     l3053:
  6320     0ADF  3001               	movlw	1
  6321     0AE0  07A1               	addwf	___xxtofl@exp,f
  6322     0AE1                     l3055:
  6323     0AE1  3001               	movlw	1
  6324     0AE2  07A2               	addwf	___xxtofl@arg,f
  6325     0AE3  3000               	movlw	0
  6326     0AE4  1803               	skipnc
  6327     0AE5  3001               	movlw	1
  6328     0AE6  07A3               	addwf	___xxtofl@arg+1,f
  6329     0AE7  3000               	movlw	0
  6330     0AE8  1803               	skipnc
  6331     0AE9  3001               	movlw	1
  6332     0AEA  07A4               	addwf	___xxtofl@arg+2,f
  6333     0AEB  3000               	movlw	0
  6334     0AEC  1803               	skipnc
  6335     0AED  3001               	movlw	1
  6336     0AEE  07A5               	addwf	___xxtofl@arg+3,f
  6337     0AEF                     l3057:
  6338     0AEF  3001               	movlw	1
  6339     0AF0                     u4185:
  6340     0AF0  1003               	clrc
  6341     0AF1  0CA5               	rrf	___xxtofl@arg+3,f
  6342     0AF2  0CA4               	rrf	___xxtofl@arg+2,f
  6343     0AF3  0CA3               	rrf	___xxtofl@arg+1,f
  6344     0AF4  0CA2               	rrf	___xxtofl@arg,f
  6345     0AF5  3EFF               	addlw	-1
  6346     0AF6  1D03               	skipz
  6347     0AF7  2AF0               	goto	u4185
  6348     0AF8                     l825:
  6349     0AF8  30FF               	movlw	255
  6350     0AF9  0525               	andwf	___xxtofl@arg+3,w
  6351     0AFA  1D03               	btfss	3,2
  6352     0AFB  2AFD               	goto	u4191
  6353     0AFC  2AFE               	goto	u4190
  6354     0AFD                     u4191:
  6355     0AFD  2ADF               	goto	l3053
  6356     0AFE                     u4190:
  6357     0AFE  2B0A               	goto	l3061
  6358     0AFF                     l3059:
  6359     0AFF  3001               	movlw	1
  6360     0B00  02A1               	subwf	___xxtofl@exp,f
  6361     0B01  3001               	movlw	1
  6362     0B02  00FA               	movwf	??___xxtofl
  6363     0B03                     u4205:
  6364     0B03  1003               	clrc
  6365     0B04  0DA2               	rlf	___xxtofl@arg,f
  6366     0B05  0DA3               	rlf	___xxtofl@arg+1,f
  6367     0B06  0DA4               	rlf	___xxtofl@arg+2,f
  6368     0B07  0DA5               	rlf	___xxtofl@arg+3,f
  6369     0B08  0BFA               	decfsz	??___xxtofl,f
  6370     0B09  2B03               	goto	u4205
  6371     0B0A                     l3061:
  6372     0B0A  1BA4               	btfsc	___xxtofl@arg+2,7
  6373     0B0B  2B0D               	goto	u4211
  6374     0B0C  2B0E               	goto	u4210
  6375     0B0D                     u4211:
  6376     0B0D  2B14               	goto	l832
  6377     0B0E                     u4210:
  6378     0B0E                     l3063:
  6379     0B0E  3002               	movlw	2
  6380     0B0F  0221               	subwf	___xxtofl@exp,w
  6381     0B10  1803               	skipnc
  6382     0B11  2B13               	goto	u4221
  6383     0B12  2B14               	goto	u4220
  6384     0B13                     u4221:
  6385     0B13  2AFF               	goto	l3059
  6386     0B14                     u4220:
  6387     0B14                     l832:
  6388     0B14  1821               	btfsc	___xxtofl@exp,0
  6389     0B15  2B17               	goto	u4231
  6390     0B16  2B18               	goto	u4230
  6391     0B17                     u4231:
  6392     0B17  2B20               	goto	l833
  6393     0B18                     u4230:
  6394     0B18                     l3065:
  6395     0B18  30FF               	movlw	255
  6396     0B19  05A2               	andwf	___xxtofl@arg,f
  6397     0B1A  30FF               	movlw	255
  6398     0B1B  05A3               	andwf	___xxtofl@arg+1,f
  6399     0B1C  307F               	movlw	127
  6400     0B1D  05A4               	andwf	___xxtofl@arg+2,f
  6401     0B1E  30FF               	movlw	255
  6402     0B1F  05A5               	andwf	___xxtofl@arg+3,f
  6403     0B20                     l833:
  6404     0B20  1003               	clrc
  6405     0B21  0CA1               	rrf	___xxtofl@exp,f
  6406     0B22                     l3067:
  6407     0B22  0821               	movf	___xxtofl@exp,w
  6408     0B23  00FA               	movwf	??___xxtofl
  6409     0B24  01FB               	clrf	??___xxtofl+1
  6410     0B25  01FC               	clrf	??___xxtofl+2
  6411     0B26  01FD               	clrf	??___xxtofl+3
  6412     0B27  3018               	movlw	24
  6413     0B28                     u4245:
  6414     0B28  1003               	clrc
  6415     0B29  0DFA               	rlf	??___xxtofl,f
  6416     0B2A  0DFB               	rlf	??___xxtofl+1,f
  6417     0B2B  0DFC               	rlf	??___xxtofl+2,f
  6418     0B2C  0DFD               	rlf	??___xxtofl+3,f
  6419     0B2D                     u4240:
  6420     0B2D  3EFF               	addlw	-1
  6421     0B2E  1D03               	skipz
  6422     0B2F  2B28               	goto	u4245
  6423     0B30  087A               	movf	??___xxtofl,w
  6424     0B31  04A2               	iorwf	___xxtofl@arg,f
  6425     0B32  087B               	movf	??___xxtofl+1,w
  6426     0B33  04A3               	iorwf	___xxtofl@arg+1,f
  6427     0B34  087C               	movf	??___xxtofl+2,w
  6428     0B35  04A4               	iorwf	___xxtofl@arg+2,f
  6429     0B36  087D               	movf	??___xxtofl+3,w
  6430     0B37  04A5               	iorwf	___xxtofl@arg+3,f
  6431     0B38                     l3069:
  6432     0B38  0820               	movf	___xxtofl@sign,w
  6433     0B39  1903               	btfsc	3,2
  6434     0B3A  2B3C               	goto	u4251
  6435     0B3B  2B3D               	goto	u4250
  6436     0B3C                     u4251:
  6437     0B3C  2B42               	goto	l3075
  6438     0B3D                     u4250:
  6439     0B3D                     l3071:
  6440     0B3D  1FF9               	btfss	___xxtofl@val+3,7
  6441     0B3E  2B40               	goto	u4261
  6442     0B3F  2B41               	goto	u4260
  6443     0B40                     u4261:
  6444     0B40  2B42               	goto	l3075
  6445     0B41                     u4260:
  6446     0B41                     l3073:
  6447     0B41  17A5               	bsf	___xxtofl@arg+3,7
  6448     0B42                     l3075:
  6449     0B42  0825               	movf	___xxtofl@arg+3,w
  6450     0B43  00F9               	movwf	?___xxtofl+3
  6451     0B44  0824               	movf	___xxtofl@arg+2,w
  6452     0B45  00F8               	movwf	?___xxtofl+2
  6453     0B46  0823               	movf	___xxtofl@arg+1,w
  6454     0B47  00F7               	movwf	?___xxtofl+1
  6455     0B48  0822               	movf	___xxtofl@arg,w
  6456     0B49  00F6               	movwf	?___xxtofl
  6457     0B4A                     l821:
  6458     0B4A  0008               	return
  6459     0B4B                     __end_of___xxtofl:
  6460                           
  6461                           	psect	text28
  6462     04A5                     __ptext28:	
  6463 ;; *************** function ___flmul *****************
  6464 ;; Defined at:
  6465 ;;		line 8 in file "C:\Program Files\Microchip\xc8\v3.10\pic\sources\c99\common\sprcmul.c"
  6466 ;; Parameters:    Size  Location     Type
  6467 ;;  b               4   32[BANK0 ] unsigned char 
  6468 ;;  a               4   36[BANK0 ] unsigned char 
  6469 ;; Auto vars:     Size  Location     Type
  6470 ;;  prod            4   52[BANK0 ] struct .
  6471 ;;  grs             4   46[BANK0 ] unsigned long 
  6472 ;;  temp            2   56[BANK0 ] struct .
  6473 ;;  bexp            1   51[BANK0 ] unsigned char 
  6474 ;;  aexp            1   50[BANK0 ] unsigned char 
  6475 ;;  sign            1   45[BANK0 ] unsigned char 
  6476 ;; Return value:  Size  Location     Type
  6477 ;;                  4   32[BANK0 ] unsigned char 
  6478 ;; Registers used:
  6479 ;;		wreg, status,2, status,0, pclath, btemp1, cstack
  6480 ;; Tracked objects:
  6481 ;;		On entry : 0/0
  6482 ;;		On exit  : 0/0
  6483 ;;		Unchanged: 0/0
  6484 ;; Data sizes:     COMMON   BANK0   BANK1   BANK3   BANK2
  6485 ;;      Params:         0       8       0       0       0
  6486 ;;      Locals:         0      13       0       0       0
  6487 ;;      Temps:          0       5       0       0       0
  6488 ;;      Totals:         0      26       0       0       0
  6489 ;;Total ram usage:       26 bytes
  6490 ;; Hardware stack levels used: 1
  6491 ;; This function calls:
  6492 ;;		__Umul8_16
  6493 ;; This function is called by:
  6494 ;;		_float_to_string_dht22
  6495 ;;		_DHT22_read
  6496 ;; This function uses a non-reentrant model
  6497 ;;
  6498                           
  6499     04A5                     ___flmul:	
  6500                           ;psect for function ___flmul
  6501                           
  6502     04A5                     l2895:	
  6503                           ;incstack = 0
  6504                           ; Regs used in ___flmul: [wreg+status,2+status,0+pclath+btemp1+cstack]
  6505                           
  6506     04A5  1283               	bcf	3,5	;RP0=0, select bank0
  6507     04A6  1303               	bcf	3,6	;RP1=0, select bank0
  6508     04A7  0843               	movf	___flmul@b+3,w
  6509     04A8  00CD               	movwf	___flmul@sign
  6510     04A9                     l2897:
  6511     04A9  3080               	movlw	128
  6512     04AA  05CD               	andwf	___flmul@sign,f
  6513     04AB                     l2899:
  6514     04AB  0843               	movf	___flmul@b+3,w
  6515     04AC  00C8               	movwf	??___flmul
  6516     04AD  0748               	addwf	??___flmul,w
  6517     04AE  00D3               	movwf	___flmul@bexp
  6518     04AF                     l2901:
  6519     04AF  1FC2               	btfss	___flmul@b+2,7
  6520     04B0  2CB2               	goto	u3761
  6521     04B1  2CB3               	goto	u3760
  6522     04B2                     u3761:
  6523     04B2  2CB4               	goto	l2905
  6524     04B3                     u3760:
  6525     04B3                     l2903:
  6526     04B3  1453               	bsf	___flmul@bexp,0
  6527     04B4                     l2905:
  6528     04B4  0853               	movf	___flmul@bexp,w
  6529     04B5  1903               	btfsc	3,2
  6530     04B6  2CB8               	goto	u3771
  6531     04B7  2CB9               	goto	u3770
  6532     04B8                     u3771:
  6533     04B8  2CC8               	goto	l2913
  6534     04B9                     u3770:
  6535     04B9                     l2907:
  6536     04B9  0A53               	incf	___flmul@bexp,w
  6537     04BA  1D03               	btfss	3,2
  6538     04BB  2CBD               	goto	u3781
  6539     04BC  2CBE               	goto	u3780
  6540     04BD                     u3781:
  6541     04BD  2CC6               	goto	l2911
  6542     04BE                     u3780:
  6543     04BE                     l2909:
  6544     04BE  3000               	movlw	0
  6545     04BF  00C3               	movwf	___flmul@b+3
  6546     04C0  3000               	movlw	0
  6547     04C1  00C2               	movwf	___flmul@b+2
  6548     04C2  3000               	movlw	0
  6549     04C3  00C1               	movwf	___flmul@b+1
  6550     04C4  3000               	movlw	0
  6551     04C5  00C0               	movwf	___flmul@b
  6552     04C6                     l2911:
  6553     04C6  17C2               	bsf	___flmul@b+2,7
  6554     04C7  2CD0               	goto	l2915
  6555     04C8                     l2913:
  6556     04C8  3000               	movlw	0
  6557     04C9  00C3               	movwf	___flmul@b+3
  6558     04CA  3000               	movlw	0
  6559     04CB  00C2               	movwf	___flmul@b+2
  6560     04CC  3000               	movlw	0
  6561     04CD  00C1               	movwf	___flmul@b+1
  6562     04CE  3000               	movlw	0
  6563     04CF  00C0               	movwf	___flmul@b
  6564     04D0                     l2915:
  6565     04D0  0847               	movf	___flmul@a+3,w
  6566     04D1  3980               	andlw	128
  6567     04D2  06CD               	xorwf	___flmul@sign,f
  6568     04D3                     l2917:
  6569     04D3  0847               	movf	___flmul@a+3,w
  6570     04D4  00C8               	movwf	??___flmul
  6571     04D5  0748               	addwf	??___flmul,w
  6572     04D6  00D2               	movwf	___flmul@aexp
  6573     04D7                     l2919:
  6574     04D7  1FC6               	btfss	___flmul@a+2,7
  6575     04D8  2CDA               	goto	u3791
  6576     04D9  2CDB               	goto	u3790
  6577     04DA                     u3791:
  6578     04DA  2CDC               	goto	l2923
  6579     04DB                     u3790:
  6580     04DB                     l2921:
  6581     04DB  1452               	bsf	___flmul@aexp,0
  6582     04DC                     l2923:
  6583     04DC  0852               	movf	___flmul@aexp,w
  6584     04DD  1903               	btfsc	3,2
  6585     04DE  2CE0               	goto	u3801
  6586     04DF  2CE1               	goto	u3800
  6587     04E0                     u3801:
  6588     04E0  2CF0               	goto	l2931
  6589     04E1                     u3800:
  6590     04E1                     l2925:
  6591     04E1  0A52               	incf	___flmul@aexp,w
  6592     04E2  1D03               	btfss	3,2
  6593     04E3  2CE5               	goto	u3811
  6594     04E4  2CE6               	goto	u3810
  6595     04E5                     u3811:
  6596     04E5  2CEE               	goto	l2929
  6597     04E6                     u3810:
  6598     04E6                     l2927:
  6599     04E6  3000               	movlw	0
  6600     04E7  00C7               	movwf	___flmul@a+3
  6601     04E8  3000               	movlw	0
  6602     04E9  00C6               	movwf	___flmul@a+2
  6603     04EA  3000               	movlw	0
  6604     04EB  00C5               	movwf	___flmul@a+1
  6605     04EC  3000               	movlw	0
  6606     04ED  00C4               	movwf	___flmul@a
  6607     04EE                     l2929:
  6608     04EE  17C6               	bsf	___flmul@a+2,7
  6609     04EF  2CF8               	goto	l2933
  6610     04F0                     l2931:
  6611     04F0  3000               	movlw	0
  6612     04F1  00C7               	movwf	___flmul@a+3
  6613     04F2  3000               	movlw	0
  6614     04F3  00C6               	movwf	___flmul@a+2
  6615     04F4  3000               	movlw	0
  6616     04F5  00C5               	movwf	___flmul@a+1
  6617     04F6  3000               	movlw	0
  6618     04F7  00C4               	movwf	___flmul@a
  6619     04F8                     l2933:
  6620     04F8  0852               	movf	___flmul@aexp,w
  6621     04F9  1903               	btfsc	3,2
  6622     04FA  2CFC               	goto	u3821
  6623     04FB  2CFD               	goto	u3820
  6624     04FC                     u3821:
  6625     04FC  2D02               	goto	l2937
  6626     04FD                     u3820:
  6627     04FD                     l2935:
  6628     04FD  0853               	movf	___flmul@bexp,w
  6629     04FE  1D03               	btfss	3,2
  6630     04FF  2D01               	goto	u3831
  6631     0500  2D02               	goto	u3830
  6632     0501                     u3831:
  6633     0501  2D0B               	goto	l2941
  6634     0502                     u3830:
  6635     0502                     l2937:
  6636     0502  3000               	movlw	0
  6637     0503  00C3               	movwf	?___flmul+3
  6638     0504  3000               	movlw	0
  6639     0505  00C2               	movwf	?___flmul+2
  6640     0506  3000               	movlw	0
  6641     0507  00C1               	movwf	?___flmul+1
  6642     0508  3000               	movlw	0
  6643     0509  00C0               	movwf	?___flmul
  6644     050A  2FE6               	goto	l775
  6645     050B                     l2941:
  6646     050B  0840               	movf	___flmul@b,w
  6647     050C  00F0               	movwf	__Umul8_16@multiplicand
  6648     050D  0846               	movf	___flmul@a+2,w
  6649     050E  160A  118A  2763  120A  118A  	fcall	__Umul8_16
  6650     0513  0871               	movf	?__Umul8_16+1,w
  6651     0514  1283               	bcf	3,5	;RP0=0, select bank0
  6652     0515  1303               	bcf	3,6	;RP1=0, select bank0
  6653     0516  00D9               	movwf	___flmul@temp+1
  6654     0517  0870               	movf	?__Umul8_16,w
  6655     0518  00D8               	movwf	___flmul@temp
  6656     0519                     l2943:
  6657     0519  0858               	movf	___flmul@temp,w
  6658     051A  00C8               	movwf	??___flmul
  6659     051B  01C9               	clrf	??___flmul+1
  6660     051C  01CA               	clrf	??___flmul+2
  6661     051D  01CB               	clrf	??___flmul+3
  6662     051E  084B               	movf	??___flmul+3,w
  6663     051F  00D1               	movwf	___flmul@grs+3
  6664     0520  084A               	movf	??___flmul+2,w
  6665     0521  00D0               	movwf	___flmul@grs+2
  6666     0522  0849               	movf	??___flmul+1,w
  6667     0523  00CF               	movwf	___flmul@grs+1
  6668     0524  0848               	movf	??___flmul,w
  6669     0525  00CE               	movwf	___flmul@grs
  6670     0526                     l2945:
  6671     0526  0859               	movf	___flmul@temp+1,w
  6672     0527  00C8               	movwf	??___flmul
  6673     0528  01C9               	clrf	??___flmul+1
  6674     0529  01CA               	clrf	??___flmul+2
  6675     052A  01CB               	clrf	??___flmul+3
  6676     052B  084B               	movf	??___flmul+3,w
  6677     052C  00D7               	movwf	___flmul@prod+3
  6678     052D  084A               	movf	??___flmul+2,w
  6679     052E  00D6               	movwf	___flmul@prod+2
  6680     052F  0849               	movf	??___flmul+1,w
  6681     0530  00D5               	movwf	___flmul@prod+1
  6682     0531  0848               	movf	??___flmul,w
  6683     0532  00D4               	movwf	___flmul@prod
  6684     0533  0841               	movf	___flmul@b+1,w
  6685     0534  00F0               	movwf	__Umul8_16@multiplicand
  6686     0535  0845               	movf	___flmul@a+1,w
  6687     0536  160A  118A  2763  120A  118A  	fcall	__Umul8_16
  6688     053B  0871               	movf	?__Umul8_16+1,w
  6689     053C  1283               	bcf	3,5	;RP0=0, select bank0
  6690     053D  1303               	bcf	3,6	;RP1=0, select bank0
  6691     053E  00D9               	movwf	___flmul@temp+1
  6692     053F  0870               	movf	?__Umul8_16,w
  6693     0540  00D8               	movwf	___flmul@temp
  6694     0541                     l2947:
  6695     0541  0858               	movf	___flmul@temp,w
  6696     0542  00C8               	movwf	??___flmul
  6697     0543  01C9               	clrf	??___flmul+1
  6698     0544  01CA               	clrf	??___flmul+2
  6699     0545  01CB               	clrf	??___flmul+3
  6700     0546  0848               	movf	??___flmul,w
  6701     0547  07CE               	addwf	___flmul@grs,f
  6702     0548  0849               	movf	??___flmul+1,w
  6703     0549  1103               	clrz
  6704     054A  1803               	skipnc
  6705     054B  3E01               	addlw	1
  6706     054C  1903               	skipnz
  6707     054D  2D4F               	goto	u3841
  6708     054E  07CF               	addwf	___flmul@grs+1,f
  6709     054F                     u3841:
  6710     054F  084A               	movf	??___flmul+2,w
  6711     0550  1103               	clrz
  6712     0551  1803               	skipnc
  6713     0552  3E01               	addlw	1
  6714     0553  1903               	skipnz
  6715     0554  2D56               	goto	u3842
  6716     0555  07D0               	addwf	___flmul@grs+2,f
  6717     0556                     u3842:
  6718     0556  084B               	movf	??___flmul+3,w
  6719     0557  1103               	clrz
  6720     0558  1803               	skipnc
  6721     0559  3E01               	addlw	1
  6722     055A  1903               	skipnz
  6723     055B  2D5D               	goto	u3843
  6724     055C  07D1               	addwf	___flmul@grs+3,f
  6725     055D                     u3843:
  6726     055D                     l2949:
  6727     055D  0859               	movf	___flmul@temp+1,w
  6728     055E  00C8               	movwf	??___flmul
  6729     055F  01C9               	clrf	??___flmul+1
  6730     0560  01CA               	clrf	??___flmul+2
  6731     0561  01CB               	clrf	??___flmul+3
  6732     0562  0848               	movf	??___flmul,w
  6733     0563  07D4               	addwf	___flmul@prod,f
  6734     0564  0849               	movf	??___flmul+1,w
  6735     0565  1103               	clrz
  6736     0566  1803               	skipnc
  6737     0567  3E01               	addlw	1
  6738     0568  1903               	skipnz
  6739     0569  2D6B               	goto	u3851
  6740     056A  07D5               	addwf	___flmul@prod+1,f
  6741     056B                     u3851:
  6742     056B  084A               	movf	??___flmul+2,w
  6743     056C  1103               	clrz
  6744     056D  1803               	skipnc
  6745     056E  3E01               	addlw	1
  6746     056F  1903               	skipnz
  6747     0570  2D72               	goto	u3852
  6748     0571  07D6               	addwf	___flmul@prod+2,f
  6749     0572                     u3852:
  6750     0572  084B               	movf	??___flmul+3,w
  6751     0573  1103               	clrz
  6752     0574  1803               	skipnc
  6753     0575  3E01               	addlw	1
  6754     0576  1903               	skipnz
  6755     0577  2D79               	goto	u3853
  6756     0578  07D7               	addwf	___flmul@prod+3,f
  6757     0579                     u3853:
  6758     0579  0842               	movf	___flmul@b+2,w
  6759     057A  00F0               	movwf	__Umul8_16@multiplicand
  6760     057B  0844               	movf	___flmul@a,w
  6761     057C  160A  118A  2763  120A  118A  	fcall	__Umul8_16
  6762     0581  0871               	movf	?__Umul8_16+1,w
  6763     0582  1283               	bcf	3,5	;RP0=0, select bank0
  6764     0583  1303               	bcf	3,6	;RP1=0, select bank0
  6765     0584  00D9               	movwf	___flmul@temp+1
  6766     0585  0870               	movf	?__Umul8_16,w
  6767     0586  00D8               	movwf	___flmul@temp
  6768     0587                     l2951:
  6769     0587  0858               	movf	___flmul@temp,w
  6770     0588  00C8               	movwf	??___flmul
  6771     0589  01C9               	clrf	??___flmul+1
  6772     058A  01CA               	clrf	??___flmul+2
  6773     058B  01CB               	clrf	??___flmul+3
  6774     058C  0848               	movf	??___flmul,w
  6775     058D  07CE               	addwf	___flmul@grs,f
  6776     058E  0849               	movf	??___flmul+1,w
  6777     058F  1103               	clrz
  6778     0590  1803               	skipnc
  6779     0591  3E01               	addlw	1
  6780     0592  1903               	skipnz
  6781     0593  2D95               	goto	u3861
  6782     0594  07CF               	addwf	___flmul@grs+1,f
  6783     0595                     u3861:
  6784     0595  084A               	movf	??___flmul+2,w
  6785     0596  1103               	clrz
  6786     0597  1803               	skipnc
  6787     0598  3E01               	addlw	1
  6788     0599  1903               	skipnz
  6789     059A  2D9C               	goto	u3862
  6790     059B  07D0               	addwf	___flmul@grs+2,f
  6791     059C                     u3862:
  6792     059C  084B               	movf	??___flmul+3,w
  6793     059D  1103               	clrz
  6794     059E  1803               	skipnc
  6795     059F  3E01               	addlw	1
  6796     05A0  1903               	skipnz
  6797     05A1  2DA3               	goto	u3863
  6798     05A2  07D1               	addwf	___flmul@grs+3,f
  6799     05A3                     u3863:
  6800     05A3                     l2953:
  6801     05A3  0859               	movf	___flmul@temp+1,w
  6802     05A4  00C8               	movwf	??___flmul
  6803     05A5  01C9               	clrf	??___flmul+1
  6804     05A6  01CA               	clrf	??___flmul+2
  6805     05A7  01CB               	clrf	??___flmul+3
  6806     05A8  0848               	movf	??___flmul,w
  6807     05A9  07D4               	addwf	___flmul@prod,f
  6808     05AA  0849               	movf	??___flmul+1,w
  6809     05AB  1103               	clrz
  6810     05AC  1803               	skipnc
  6811     05AD  3E01               	addlw	1
  6812     05AE  1903               	skipnz
  6813     05AF  2DB1               	goto	u3871
  6814     05B0  07D5               	addwf	___flmul@prod+1,f
  6815     05B1                     u3871:
  6816     05B1  084A               	movf	??___flmul+2,w
  6817     05B2  1103               	clrz
  6818     05B3  1803               	skipnc
  6819     05B4  3E01               	addlw	1
  6820     05B5  1903               	skipnz
  6821     05B6  2DB8               	goto	u3872
  6822     05B7  07D6               	addwf	___flmul@prod+2,f
  6823     05B8                     u3872:
  6824     05B8  084B               	movf	??___flmul+3,w
  6825     05B9  1103               	clrz
  6826     05BA  1803               	skipnc
  6827     05BB  3E01               	addlw	1
  6828     05BC  1903               	skipnz
  6829     05BD  2DBF               	goto	u3873
  6830     05BE  07D7               	addwf	___flmul@prod+3,f
  6831     05BF                     u3873:
  6832     05BF                     l2955:
  6833     05BF  3008               	movlw	8
  6834     05C0  00C8               	movwf	??___flmul
  6835     05C1                     u3885:
  6836     05C1  1003               	clrc
  6837     05C2  0DCE               	rlf	___flmul@grs,f
  6838     05C3  0DCF               	rlf	___flmul@grs+1,f
  6839     05C4  0DD0               	rlf	___flmul@grs+2,f
  6840     05C5  0DD1               	rlf	___flmul@grs+3,f
  6841     05C6  0BC8               	decfsz	??___flmul,f
  6842     05C7  2DC1               	goto	u3885
  6843     05C8                     l2957:
  6844     05C8  0841               	movf	___flmul@b+1,w
  6845     05C9  00F0               	movwf	__Umul8_16@multiplicand
  6846     05CA  0844               	movf	___flmul@a,w
  6847     05CB  160A  118A  2763  120A  118A  	fcall	__Umul8_16
  6848     05D0  0871               	movf	?__Umul8_16+1,w
  6849     05D1  1283               	bcf	3,5	;RP0=0, select bank0
  6850     05D2  1303               	bcf	3,6	;RP1=0, select bank0
  6851     05D3  00D9               	movwf	___flmul@temp+1
  6852     05D4  0870               	movf	?__Umul8_16,w
  6853     05D5  00D8               	movwf	___flmul@temp
  6854     05D6                     l2959:
  6855     05D6  0858               	movf	___flmul@temp,w
  6856     05D7  00C8               	movwf	??___flmul
  6857     05D8  0859               	movf	___flmul@temp+1,w
  6858     05D9  00C9               	movwf	??___flmul+1
  6859     05DA  01CA               	clrf	??___flmul+2
  6860     05DB  01CB               	clrf	??___flmul+3
  6861     05DC  0848               	movf	??___flmul,w
  6862     05DD  07CE               	addwf	___flmul@grs,f
  6863     05DE  0849               	movf	??___flmul+1,w
  6864     05DF  1103               	clrz
  6865     05E0  1803               	skipnc
  6866     05E1  3E01               	addlw	1
  6867     05E2  1903               	skipnz
  6868     05E3  2DE5               	goto	u3891
  6869     05E4  07CF               	addwf	___flmul@grs+1,f
  6870     05E5                     u3891:
  6871     05E5  084A               	movf	??___flmul+2,w
  6872     05E6  1103               	clrz
  6873     05E7  1803               	skipnc
  6874     05E8  3E01               	addlw	1
  6875     05E9  1903               	skipnz
  6876     05EA  2DEC               	goto	u3892
  6877     05EB  07D0               	addwf	___flmul@grs+2,f
  6878     05EC                     u3892:
  6879     05EC  084B               	movf	??___flmul+3,w
  6880     05ED  1103               	clrz
  6881     05EE  1803               	skipnc
  6882     05EF  3E01               	addlw	1
  6883     05F0  1903               	skipnz
  6884     05F1  2DF3               	goto	u3893
  6885     05F2  07D1               	addwf	___flmul@grs+3,f
  6886     05F3                     u3893:
  6887     05F3                     l2961:
  6888     05F3  0840               	movf	___flmul@b,w
  6889     05F4  00F0               	movwf	__Umul8_16@multiplicand
  6890     05F5  0845               	movf	___flmul@a+1,w
  6891     05F6  160A  118A  2763  120A  118A  	fcall	__Umul8_16
  6892     05FB  0871               	movf	?__Umul8_16+1,w
  6893     05FC  1283               	bcf	3,5	;RP0=0, select bank0
  6894     05FD  1303               	bcf	3,6	;RP1=0, select bank0
  6895     05FE  00D9               	movwf	___flmul@temp+1
  6896     05FF  0870               	movf	?__Umul8_16,w
  6897     0600  00D8               	movwf	___flmul@temp
  6898     0601                     l2963:
  6899     0601  0858               	movf	___flmul@temp,w
  6900     0602  00C8               	movwf	??___flmul
  6901     0603  0859               	movf	___flmul@temp+1,w
  6902     0604  00C9               	movwf	??___flmul+1
  6903     0605  01CA               	clrf	??___flmul+2
  6904     0606  01CB               	clrf	??___flmul+3
  6905     0607  0848               	movf	??___flmul,w
  6906     0608  07CE               	addwf	___flmul@grs,f
  6907     0609  0849               	movf	??___flmul+1,w
  6908     060A  1103               	clrz
  6909     060B  1803               	skipnc
  6910     060C  3E01               	addlw	1
  6911     060D  1903               	skipnz
  6912     060E  2E10               	goto	u3901
  6913     060F  07CF               	addwf	___flmul@grs+1,f
  6914     0610                     u3901:
  6915     0610  084A               	movf	??___flmul+2,w
  6916     0611  1103               	clrz
  6917     0612  1803               	skipnc
  6918     0613  3E01               	addlw	1
  6919     0614  1903               	skipnz
  6920     0615  2E17               	goto	u3902
  6921     0616  07D0               	addwf	___flmul@grs+2,f
  6922     0617                     u3902:
  6923     0617  084B               	movf	??___flmul+3,w
  6924     0618  1103               	clrz
  6925     0619  1803               	skipnc
  6926     061A  3E01               	addlw	1
  6927     061B  1903               	skipnz
  6928     061C  2E1E               	goto	u3903
  6929     061D  07D1               	addwf	___flmul@grs+3,f
  6930     061E                     u3903:
  6931     061E                     l2965:
  6932     061E  3008               	movlw	8
  6933     061F  00C8               	movwf	??___flmul
  6934     0620                     u3915:
  6935     0620  1003               	clrc
  6936     0621  0DCE               	rlf	___flmul@grs,f
  6937     0622  0DCF               	rlf	___flmul@grs+1,f
  6938     0623  0DD0               	rlf	___flmul@grs+2,f
  6939     0624  0DD1               	rlf	___flmul@grs+3,f
  6940     0625  0BC8               	decfsz	??___flmul,f
  6941     0626  2E20               	goto	u3915
  6942     0627  0840               	movf	___flmul@b,w
  6943     0628  00F0               	movwf	__Umul8_16@multiplicand
  6944     0629  0844               	movf	___flmul@a,w
  6945     062A  160A  118A  2763  120A  118A  	fcall	__Umul8_16
  6946     062F  0871               	movf	?__Umul8_16+1,w
  6947     0630  1283               	bcf	3,5	;RP0=0, select bank0
  6948     0631  1303               	bcf	3,6	;RP1=0, select bank0
  6949     0632  00D9               	movwf	___flmul@temp+1
  6950     0633  0870               	movf	?__Umul8_16,w
  6951     0634  00D8               	movwf	___flmul@temp
  6952     0635                     l2967:
  6953     0635  0858               	movf	___flmul@temp,w
  6954     0636  00C8               	movwf	??___flmul
  6955     0637  0859               	movf	___flmul@temp+1,w
  6956     0638  00C9               	movwf	??___flmul+1
  6957     0639  01CA               	clrf	??___flmul+2
  6958     063A  01CB               	clrf	??___flmul+3
  6959     063B  0848               	movf	??___flmul,w
  6960     063C  07CE               	addwf	___flmul@grs,f
  6961     063D  0849               	movf	??___flmul+1,w
  6962     063E  1103               	clrz
  6963     063F  1803               	skipnc
  6964     0640  3E01               	addlw	1
  6965     0641  1903               	skipnz
  6966     0642  2E44               	goto	u3921
  6967     0643  07CF               	addwf	___flmul@grs+1,f
  6968     0644                     u3921:
  6969     0644  084A               	movf	??___flmul+2,w
  6970     0645  1103               	clrz
  6971     0646  1803               	skipnc
  6972     0647  3E01               	addlw	1
  6973     0648  1903               	skipnz
  6974     0649  2E4B               	goto	u3922
  6975     064A  07D0               	addwf	___flmul@grs+2,f
  6976     064B                     u3922:
  6977     064B  084B               	movf	??___flmul+3,w
  6978     064C  1103               	clrz
  6979     064D  1803               	skipnc
  6980     064E  3E01               	addlw	1
  6981     064F  1903               	skipnz
  6982     0650  2E52               	goto	u3923
  6983     0651  07D1               	addwf	___flmul@grs+3,f
  6984     0652                     u3923:
  6985     0652                     l2969:
  6986     0652  0841               	movf	___flmul@b+1,w
  6987     0653  00F0               	movwf	__Umul8_16@multiplicand
  6988     0654  0846               	movf	___flmul@a+2,w
  6989     0655  160A  118A  2763  120A  118A  	fcall	__Umul8_16
  6990     065A  0871               	movf	?__Umul8_16+1,w
  6991     065B  1283               	bcf	3,5	;RP0=0, select bank0
  6992     065C  1303               	bcf	3,6	;RP1=0, select bank0
  6993     065D  00D9               	movwf	___flmul@temp+1
  6994     065E  0870               	movf	?__Umul8_16,w
  6995     065F  00D8               	movwf	___flmul@temp
  6996     0660  0858               	movf	___flmul@temp,w
  6997     0661  00C8               	movwf	??___flmul
  6998     0662  0859               	movf	___flmul@temp+1,w
  6999     0663  00C9               	movwf	??___flmul+1
  7000     0664  01CA               	clrf	??___flmul+2
  7001     0665  01CB               	clrf	??___flmul+3
  7002     0666  0848               	movf	??___flmul,w
  7003     0667  07D4               	addwf	___flmul@prod,f
  7004     0668  0849               	movf	??___flmul+1,w
  7005     0669  1103               	clrz
  7006     066A  1803               	skipnc
  7007     066B  3E01               	addlw	1
  7008     066C  1903               	skipnz
  7009     066D  2E6F               	goto	u3931
  7010     066E  07D5               	addwf	___flmul@prod+1,f
  7011     066F                     u3931:
  7012     066F  084A               	movf	??___flmul+2,w
  7013     0670  1103               	clrz
  7014     0671  1803               	skipnc
  7015     0672  3E01               	addlw	1
  7016     0673  1903               	skipnz
  7017     0674  2E76               	goto	u3932
  7018     0675  07D6               	addwf	___flmul@prod+2,f
  7019     0676                     u3932:
  7020     0676  084B               	movf	??___flmul+3,w
  7021     0677  1103               	clrz
  7022     0678  1803               	skipnc
  7023     0679  3E01               	addlw	1
  7024     067A  1903               	skipnz
  7025     067B  2E7D               	goto	u3933
  7026     067C  07D7               	addwf	___flmul@prod+3,f
  7027     067D                     u3933:
  7028     067D                     l2971:
  7029     067D  0842               	movf	___flmul@b+2,w
  7030     067E  00F0               	movwf	__Umul8_16@multiplicand
  7031     067F  0845               	movf	___flmul@a+1,w
  7032     0680  160A  118A  2763  120A  118A  	fcall	__Umul8_16
  7033     0685  0871               	movf	?__Umul8_16+1,w
  7034     0686  1283               	bcf	3,5	;RP0=0, select bank0
  7035     0687  1303               	bcf	3,6	;RP1=0, select bank0
  7036     0688  00D9               	movwf	___flmul@temp+1
  7037     0689  0870               	movf	?__Umul8_16,w
  7038     068A  00D8               	movwf	___flmul@temp
  7039     068B                     l2973:
  7040     068B  0858               	movf	___flmul@temp,w
  7041     068C  00C8               	movwf	??___flmul
  7042     068D  0859               	movf	___flmul@temp+1,w
  7043     068E  00C9               	movwf	??___flmul+1
  7044     068F  01CA               	clrf	??___flmul+2
  7045     0690  01CB               	clrf	??___flmul+3
  7046     0691  0848               	movf	??___flmul,w
  7047     0692  07D4               	addwf	___flmul@prod,f
  7048     0693  0849               	movf	??___flmul+1,w
  7049     0694  1103               	clrz
  7050     0695  1803               	skipnc
  7051     0696  3E01               	addlw	1
  7052     0697  1903               	skipnz
  7053     0698  2E9A               	goto	u3941
  7054     0699  07D5               	addwf	___flmul@prod+1,f
  7055     069A                     u3941:
  7056     069A  084A               	movf	??___flmul+2,w
  7057     069B  1103               	clrz
  7058     069C  1803               	skipnc
  7059     069D  3E01               	addlw	1
  7060     069E  1903               	skipnz
  7061     069F  2EA1               	goto	u3942
  7062     06A0  07D6               	addwf	___flmul@prod+2,f
  7063     06A1                     u3942:
  7064     06A1  084B               	movf	??___flmul+3,w
  7065     06A2  1103               	clrz
  7066     06A3  1803               	skipnc
  7067     06A4  3E01               	addlw	1
  7068     06A5  1903               	skipnz
  7069     06A6  2EA8               	goto	u3943
  7070     06A7  07D7               	addwf	___flmul@prod+3,f
  7071     06A8                     u3943:
  7072     06A8  0842               	movf	___flmul@b+2,w
  7073     06A9  00F0               	movwf	__Umul8_16@multiplicand
  7074     06AA  0846               	movf	___flmul@a+2,w
  7075     06AB  160A  118A  2763  120A  118A  	fcall	__Umul8_16
  7076     06B0  0871               	movf	?__Umul8_16+1,w
  7077     06B1  1283               	bcf	3,5	;RP0=0, select bank0
  7078     06B2  1303               	bcf	3,6	;RP1=0, select bank0
  7079     06B3  00D9               	movwf	___flmul@temp+1
  7080     06B4  0870               	movf	?__Umul8_16,w
  7081     06B5  00D8               	movwf	___flmul@temp
  7082     06B6                     l2975:
  7083     06B6  0858               	movf	___flmul@temp,w
  7084     06B7  00C8               	movwf	??___flmul
  7085     06B8  0859               	movf	___flmul@temp+1,w
  7086     06B9  00C9               	movwf	??___flmul+1
  7087     06BA  01CA               	clrf	??___flmul+2
  7088     06BB  01CB               	clrf	??___flmul+3
  7089     06BC  3008               	movlw	8
  7090     06BD                     u3955:
  7091     06BD  1003               	clrc
  7092     06BE  0DC8               	rlf	??___flmul,f
  7093     06BF  0DC9               	rlf	??___flmul+1,f
  7094     06C0  0DCA               	rlf	??___flmul+2,f
  7095     06C1  0DCB               	rlf	??___flmul+3,f
  7096     06C2                     u3950:
  7097     06C2  3EFF               	addlw	-1
  7098     06C3  1D03               	skipz
  7099     06C4  2EBD               	goto	u3955
  7100     06C5  0848               	movf	??___flmul,w
  7101     06C6  07D4               	addwf	___flmul@prod,f
  7102     06C7  0849               	movf	??___flmul+1,w
  7103     06C8  1103               	clrz
  7104     06C9  1803               	skipnc
  7105     06CA  3E01               	addlw	1
  7106     06CB  1903               	skipnz
  7107     06CC  2ECE               	goto	u3961
  7108     06CD  07D5               	addwf	___flmul@prod+1,f
  7109     06CE                     u3961:
  7110     06CE  084A               	movf	??___flmul+2,w
  7111     06CF  1103               	clrz
  7112     06D0  1803               	skipnc
  7113     06D1  3E01               	addlw	1
  7114     06D2  1903               	skipnz
  7115     06D3  2ED5               	goto	u3962
  7116     06D4  07D6               	addwf	___flmul@prod+2,f
  7117     06D5                     u3962:
  7118     06D5  084B               	movf	??___flmul+3,w
  7119     06D6  1103               	clrz
  7120     06D7  1803               	skipnc
  7121     06D8  3E01               	addlw	1
  7122     06D9  1903               	skipnz
  7123     06DA  2EDC               	goto	u3963
  7124     06DB  07D7               	addwf	___flmul@prod+3,f
  7125     06DC                     u3963:
  7126     06DC                     l2977:
  7127     06DC  084E               	movf	___flmul@grs,w
  7128     06DD  00C8               	movwf	??___flmul
  7129     06DE  084F               	movf	___flmul@grs+1,w
  7130     06DF  00C9               	movwf	??___flmul+1
  7131     06E0  0850               	movf	___flmul@grs+2,w
  7132     06E1  00CA               	movwf	??___flmul+2
  7133     06E2  0851               	movf	___flmul@grs+3,w
  7134     06E3  00CB               	movwf	??___flmul+3
  7135     06E4  3018               	movlw	24
  7136     06E5                     u3975:
  7137     06E5  1003               	clrc
  7138     06E6  0CCB               	rrf	??___flmul+3,f
  7139     06E7  0CCA               	rrf	??___flmul+2,f
  7140     06E8  0CC9               	rrf	??___flmul+1,f
  7141     06E9  0CC8               	rrf	??___flmul,f
  7142     06EA                     u3970:
  7143     06EA  3EFF               	addlw	-1
  7144     06EB  1D03               	skipz
  7145     06EC  2EE5               	goto	u3975
  7146     06ED  0848               	movf	??___flmul,w
  7147     06EE  07D4               	addwf	___flmul@prod,f
  7148     06EF  0849               	movf	??___flmul+1,w
  7149     06F0  1103               	clrz
  7150     06F1  1803               	skipnc
  7151     06F2  3E01               	addlw	1
  7152     06F3  1903               	skipnz
  7153     06F4  2EF6               	goto	u3981
  7154     06F5  07D5               	addwf	___flmul@prod+1,f
  7155     06F6                     u3981:
  7156     06F6  084A               	movf	??___flmul+2,w
  7157     06F7  1103               	clrz
  7158     06F8  1803               	skipnc
  7159     06F9  3E01               	addlw	1
  7160     06FA  1903               	skipnz
  7161     06FB  2EFD               	goto	u3982
  7162     06FC  07D6               	addwf	___flmul@prod+2,f
  7163     06FD                     u3982:
  7164     06FD  084B               	movf	??___flmul+3,w
  7165     06FE  1103               	clrz
  7166     06FF  1803               	skipnc
  7167     0700  3E01               	addlw	1
  7168     0701  1903               	skipnz
  7169     0702  2F04               	goto	u3983
  7170     0703  07D7               	addwf	___flmul@prod+3,f
  7171     0704                     u3983:
  7172     0704                     l2979:
  7173     0704  3008               	movlw	8
  7174     0705  00C8               	movwf	??___flmul
  7175     0706                     u3995:
  7176     0706  1003               	clrc
  7177     0707  0DCE               	rlf	___flmul@grs,f
  7178     0708  0DCF               	rlf	___flmul@grs+1,f
  7179     0709  0DD0               	rlf	___flmul@grs+2,f
  7180     070A  0DD1               	rlf	___flmul@grs+3,f
  7181     070B  0BC8               	decfsz	??___flmul,f
  7182     070C  2F06               	goto	u3995
  7183     070D                     l2981:
  7184     070D  0853               	movf	___flmul@bexp,w
  7185     070E  0752               	addwf	___flmul@aexp,w
  7186     070F  00C8               	movwf	??___flmul
  7187     0710  01C9               	clrf	??___flmul+1
  7188     0711  0DC9               	rlf	??___flmul+1,f
  7189     0712  0848               	movf	??___flmul,w
  7190     0713  3E82               	addlw	130
  7191     0714  00D8               	movwf	___flmul@temp
  7192     0715  0849               	movf	??___flmul+1,w
  7193     0716  1803               	skipnc
  7194     0717  3E01               	addlw	1
  7195     0718  3EFF               	addlw	255
  7196     0719  00D9               	movwf	___flmul@temp+1
  7197     071A  2F38               	goto	l2993
  7198     071B                     l2983:
  7199     071B  3001               	movlw	1
  7200     071C  00C8               	movwf	??___flmul
  7201     071D                     u4005:
  7202     071D  1003               	clrc
  7203     071E  0DD4               	rlf	___flmul@prod,f
  7204     071F  0DD5               	rlf	___flmul@prod+1,f
  7205     0720  0DD6               	rlf	___flmul@prod+2,f
  7206     0721  0DD7               	rlf	___flmul@prod+3,f
  7207     0722  0BC8               	decfsz	??___flmul,f
  7208     0723  2F1D               	goto	u4005
  7209     0724                     l2985:
  7210     0724  1FD1               	btfss	___flmul@grs+3,7
  7211     0725  2F27               	goto	u4011
  7212     0726  2F28               	goto	u4010
  7213     0727                     u4011:
  7214     0727  2F29               	goto	l2989
  7215     0728                     u4010:
  7216     0728                     l2987:
  7217     0728  1454               	bsf	___flmul@prod,0
  7218     0729                     l2989:
  7219     0729  3001               	movlw	1
  7220     072A  00C8               	movwf	??___flmul
  7221     072B                     u4025:
  7222     072B  1003               	clrc
  7223     072C  0DCE               	rlf	___flmul@grs,f
  7224     072D  0DCF               	rlf	___flmul@grs+1,f
  7225     072E  0DD0               	rlf	___flmul@grs+2,f
  7226     072F  0DD1               	rlf	___flmul@grs+3,f
  7227     0730  0BC8               	decfsz	??___flmul,f
  7228     0731  2F2B               	goto	u4025
  7229     0732                     l2991:
  7230     0732  30FF               	movlw	255
  7231     0733  07D8               	addwf	___flmul@temp,f
  7232     0734  1803               	skipnc
  7233     0735  0AD9               	incf	___flmul@temp+1,f
  7234     0736  30FF               	movlw	255
  7235     0737  07D9               	addwf	___flmul@temp+1,f
  7236     0738                     l2993:
  7237     0738  1FD6               	btfss	___flmul@prod+2,7
  7238     0739  2F3B               	goto	u4031
  7239     073A  2F3C               	goto	u4030
  7240     073B                     u4031:
  7241     073B  2F1B               	goto	l2983
  7242     073C                     u4030:
  7243     073C                     l2995:
  7244     073C  01D2               	clrf	___flmul@aexp
  7245     073D                     l2997:
  7246     073D  1FD1               	btfss	___flmul@grs+3,7
  7247     073E  2F40               	goto	u4041
  7248     073F  2F41               	goto	u4040
  7249     0740                     u4041:
  7250     0740  2F5D               	goto	l3005
  7251     0741                     u4040:
  7252     0741                     l2999:
  7253     0741  30FF               	movlw	255
  7254     0742  054E               	andwf	___flmul@grs,w
  7255     0743  00C8               	movwf	??___flmul
  7256     0744  30FF               	movlw	255
  7257     0745  054F               	andwf	___flmul@grs+1,w
  7258     0746  00C9               	movwf	??___flmul+1
  7259     0747  30FF               	movlw	255
  7260     0748  0550               	andwf	___flmul@grs+2,w
  7261     0749  00CA               	movwf	??___flmul+2
  7262     074A  307F               	movlw	127
  7263     074B  0551               	andwf	___flmul@grs+3,w
  7264     074C  00CB               	movwf	??___flmul+3
  7265     074D  084B               	movf	??___flmul+3,w
  7266     074E  044A               	iorwf	??___flmul+2,w
  7267     074F  0449               	iorwf	??___flmul+1,w
  7268     0750  0448               	iorwf	??___flmul,w
  7269     0751  1903               	skipnz
  7270     0752  2F54               	goto	u4051
  7271     0753  2F55               	goto	u4050
  7272     0754                     u4051:
  7273     0754  2F58               	goto	l781
  7274     0755                     u4050:
  7275     0755                     l3001:
  7276     0755  3001               	movlw	1
  7277     0756  00D2               	movwf	___flmul@aexp
  7278     0757  2F5D               	goto	l3005
  7279     0758                     l781:
  7280     0758  1C54               	btfss	___flmul@prod,0
  7281     0759  2F5B               	goto	u4061
  7282     075A  2F5C               	goto	u4060
  7283     075B                     u4061:
  7284     075B  2F5D               	goto	l3005
  7285     075C                     u4060:
  7286     075C  2F55               	goto	l3001
  7287     075D                     l3005:
  7288     075D  0852               	movf	___flmul@aexp,w
  7289     075E  1903               	btfsc	3,2
  7290     075F  2F61               	goto	u4071
  7291     0760  2F62               	goto	u4070
  7292     0761                     u4071:
  7293     0761  2F93               	goto	l3015
  7294     0762                     u4070:
  7295     0762                     l3007:
  7296     0762  3001               	movlw	1
  7297     0763  07D4               	addwf	___flmul@prod,f
  7298     0764  3000               	movlw	0
  7299     0765  1803               	skipnc
  7300     0766  3001               	movlw	1
  7301     0767  07D5               	addwf	___flmul@prod+1,f
  7302     0768  3000               	movlw	0
  7303     0769  1803               	skipnc
  7304     076A  3001               	movlw	1
  7305     076B  07D6               	addwf	___flmul@prod+2,f
  7306     076C  3000               	movlw	0
  7307     076D  1803               	skipnc
  7308     076E  3001               	movlw	1
  7309     076F  07D7               	addwf	___flmul@prod+3,f
  7310     0770                     l3009:
  7311     0770  1C57               	btfss	___flmul@prod+3,0
  7312     0771  2F73               	goto	u4081
  7313     0772  2F74               	goto	u4080
  7314     0773                     u4081:
  7315     0773  2F93               	goto	l3015
  7316     0774                     u4080:
  7317     0774                     l3011:
  7318     0774  0854               	movf	___flmul@prod,w
  7319     0775  00C8               	movwf	??___flmul
  7320     0776  0855               	movf	___flmul@prod+1,w
  7321     0777  00C9               	movwf	??___flmul+1
  7322     0778  0856               	movf	___flmul@prod+2,w
  7323     0779  00CA               	movwf	??___flmul+2
  7324     077A  0857               	movf	___flmul@prod+3,w
  7325     077B  00CB               	movwf	??___flmul+3
  7326     077C  3001               	movlw	1
  7327     077D  00CC               	movwf	??___flmul+4
  7328     077E                     u4095:
  7329     077E  0D4B               	rlf	??___flmul+3,w
  7330     077F  0CCB               	rrf	??___flmul+3,f
  7331     0780  0CCA               	rrf	??___flmul+2,f
  7332     0781  0CC9               	rrf	??___flmul+1,f
  7333     0782  0CC8               	rrf	??___flmul,f
  7334     0783                     u4090:
  7335     0783  0BCC               	decfsz	??___flmul+4,f
  7336     0784  2F7E               	goto	u4095
  7337     0785  084B               	movf	??___flmul+3,w
  7338     0786  00D7               	movwf	___flmul@prod+3
  7339     0787  084A               	movf	??___flmul+2,w
  7340     0788  00D6               	movwf	___flmul@prod+2
  7341     0789  0849               	movf	??___flmul+1,w
  7342     078A  00D5               	movwf	___flmul@prod+1
  7343     078B  0848               	movf	??___flmul,w
  7344     078C  00D4               	movwf	___flmul@prod
  7345     078D                     l3013:
  7346     078D  3001               	movlw	1
  7347     078E  07D8               	addwf	___flmul@temp,f
  7348     078F  1803               	skipnc
  7349     0790  0AD9               	incf	___flmul@temp+1,f
  7350     0791  3000               	movlw	0
  7351     0792  07D9               	addwf	___flmul@temp+1,f
  7352     0793                     l3015:
  7353     0793  0859               	movf	___flmul@temp+1,w
  7354     0794  3A80               	xorlw	128
  7355     0795  00FF               	movwf	btemp1
  7356     0796  3080               	movlw	128
  7357     0797  027F               	subwf	btemp1,w
  7358     0798  1D03               	skipz
  7359     0799  2F9C               	goto	u4105
  7360     079A  30FF               	movlw	255
  7361     079B  0258               	subwf	___flmul@temp,w
  7362     079C                     u4105:
  7363     079C  1C03               	skipc
  7364     079D  2F9F               	goto	u4101
  7365     079E  2FA0               	goto	u4100
  7366     079F                     u4101:
  7367     079F  2FAB               	goto	l3019
  7368     07A0                     u4100:
  7369     07A0                     l3017:
  7370     07A0  307F               	movlw	127
  7371     07A1  1283               	bcf	3,5	;RP0=0, select bank0
  7372     07A2  1303               	bcf	3,6	;RP1=0, select bank0
  7373     07A3  00D7               	movwf	___flmul@prod+3
  7374     07A4  3080               	movlw	128
  7375     07A5  00D6               	movwf	___flmul@prod+2
  7376     07A6  3000               	movlw	0
  7377     07A7  00D5               	movwf	___flmul@prod+1
  7378     07A8  3000               	movlw	0
  7379     07A9  00D4               	movwf	___flmul@prod
  7380     07AA  2FDC               	goto	l787
  7381     07AB                     l3019:
  7382     07AB  1283               	bcf	3,5	;RP0=0, select bank0
  7383     07AC  1303               	bcf	3,6	;RP1=0, select bank0
  7384     07AD  0859               	movf	___flmul@temp+1,w
  7385     07AE  3A80               	xorlw	128
  7386     07AF  00FF               	movwf	btemp1
  7387     07B0  3080               	movlw	128
  7388     07B1  027F               	subwf	btemp1,w
  7389     07B2  1D03               	skipz
  7390     07B3  2FB6               	goto	u4115
  7391     07B4  3001               	movlw	1
  7392     07B5  0258               	subwf	___flmul@temp,w
  7393     07B6                     u4115:
  7394     07B6  1803               	skipnc
  7395     07B7  2FB9               	goto	u4111
  7396     07B8  2FBA               	goto	u4110
  7397     07B9                     u4111:
  7398     07B9  2FC6               	goto	l3025
  7399     07BA                     u4110:
  7400     07BA                     l3021:
  7401     07BA  3000               	movlw	0
  7402     07BB  1283               	bcf	3,5	;RP0=0, select bank0
  7403     07BC  1303               	bcf	3,6	;RP1=0, select bank0
  7404     07BD  00D7               	movwf	___flmul@prod+3
  7405     07BE  3000               	movlw	0
  7406     07BF  00D6               	movwf	___flmul@prod+2
  7407     07C0  3000               	movlw	0
  7408     07C1  00D5               	movwf	___flmul@prod+1
  7409     07C2  3000               	movlw	0
  7410     07C3  00D4               	movwf	___flmul@prod
  7411     07C4                     l3023:
  7412     07C4  01CD               	clrf	___flmul@sign
  7413     07C5  2FDC               	goto	l787
  7414     07C6                     l3025:
  7415     07C6  1283               	bcf	3,5	;RP0=0, select bank0
  7416     07C7  1303               	bcf	3,6	;RP1=0, select bank0
  7417     07C8  0858               	movf	___flmul@temp,w
  7418     07C9  00D3               	movwf	___flmul@bexp
  7419     07CA  30FF               	movlw	255
  7420     07CB  05D4               	andwf	___flmul@prod,f
  7421     07CC  30FF               	movlw	255
  7422     07CD  05D5               	andwf	___flmul@prod+1,f
  7423     07CE  307F               	movlw	127
  7424     07CF  05D6               	andwf	___flmul@prod+2,f
  7425     07D0  3000               	movlw	0
  7426     07D1  05D7               	andwf	___flmul@prod+3,f
  7427     07D2                     l3027:
  7428     07D2  1C53               	btfss	___flmul@bexp,0
  7429     07D3  2FD5               	goto	u4121
  7430     07D4  2FD6               	goto	u4120
  7431     07D5                     u4121:
  7432     07D5  2FD7               	goto	l3031
  7433     07D6                     u4120:
  7434     07D6                     l3029:
  7435     07D6  17D6               	bsf	___flmul@prod+2,7
  7436     07D7                     l3031:
  7437     07D7  0853               	movf	___flmul@bexp,w
  7438     07D8  00C8               	movwf	??___flmul
  7439     07D9  1003               	clrc
  7440     07DA  0C48               	rrf	??___flmul,w
  7441     07DB  00D7               	movwf	___flmul@prod+3
  7442     07DC                     l787:
  7443     07DC  084D               	movf	___flmul@sign,w
  7444     07DD  04D7               	iorwf	___flmul@prod+3,f
  7445     07DE                     l3033:
  7446     07DE  0857               	movf	___flmul@prod+3,w
  7447     07DF  00C3               	movwf	?___flmul+3
  7448     07E0  0856               	movf	___flmul@prod+2,w
  7449     07E1  00C2               	movwf	?___flmul+2
  7450     07E2  0855               	movf	___flmul@prod+1,w
  7451     07E3  00C1               	movwf	?___flmul+1
  7452     07E4  0854               	movf	___flmul@prod,w
  7453     07E5  00C0               	movwf	?___flmul
  7454     07E6                     l775:
  7455     07E6  0008               	return
  7456     07E7                     __end_of___flmul:
  7457                           
  7458                           	psect	text29
  7459     1763                     __ptext29:	
  7460 ;; *************** function __Umul8_16 *****************
  7461 ;; Defined at:
  7462 ;;		line 4 in file "C:\Program Files\Microchip\xc8\v3.10\pic\sources\c99\common\Umul8_16.c"
  7463 ;; Parameters:    Size  Location     Type
  7464 ;;  multiplier      1    wreg     unsigned char 
  7465 ;;  multiplicand    1    0[COMMON] unsigned char 
  7466 ;; Auto vars:     Size  Location     Type
  7467 ;;  multiplier      1    8[COMMON] unsigned char 
  7468 ;;  word_mpld       2    6[COMMON] unsigned short 
  7469 ;;  product         2    4[COMMON] unsigned short 
  7470 ;; Return value:  Size  Location     Type
  7471 ;;                  2    0[COMMON] unsigned int 
  7472 ;; Registers used:
  7473 ;;		wreg, status,2, status,0
  7474 ;; Tracked objects:
  7475 ;;		On entry : 0/0
  7476 ;;		On exit  : 0/0
  7477 ;;		Unchanged: 0/0
  7478 ;; Data sizes:     COMMON   BANK0   BANK1   BANK3   BANK2
  7479 ;;      Params:         2       0       0       0       0
  7480 ;;      Locals:         5       0       0       0       0
  7481 ;;      Temps:          2       0       0       0       0
  7482 ;;      Totals:         9       0       0       0       0
  7483 ;;Total ram usage:        9 bytes
  7484 ;; Hardware stack levels used: 1
  7485 ;; This function calls:
  7486 ;;		Nothing
  7487 ;; This function is called by:
  7488 ;;		___flmul
  7489 ;; This function uses a non-reentrant model
  7490 ;;
  7491                           
  7492     1763                     __Umul8_16:	
  7493                           ;psect for function __Umul8_16
  7494                           
  7495                           
  7496                           ;incstack = 0
  7497                           ; Regs used in __Umul8_16: [wreg+status,2+status,0]
  7498                           ;__Umul8_16@multiplier stored from wreg
  7499     1763  00F8               	movwf	__Umul8_16@multiplier
  7500     1764                     l2585:
  7501     1764  01F4               	clrf	__Umul8_16@product
  7502     1765  01F5               	clrf	__Umul8_16@product+1
  7503     1766                     l2587:
  7504     1766  0870               	movf	__Umul8_16@multiplicand,w
  7505     1767  00F2               	movwf	??__Umul8_16
  7506     1768  01F3               	clrf	??__Umul8_16+1
  7507     1769  0872               	movf	??__Umul8_16,w
  7508     176A  00F6               	movwf	__Umul8_16@word_mpld
  7509     176B  0873               	movf	??__Umul8_16+1,w
  7510     176C  00F7               	movwf	__Umul8_16@word_mpld+1
  7511     176D                     l2589:
  7512     176D  1C78               	btfss	__Umul8_16@multiplier,0
  7513     176E  2F70               	goto	u3191
  7514     176F  2F71               	goto	u3190
  7515     1770                     u3191:
  7516     1770  2F77               	goto	l794
  7517     1771                     u3190:
  7518     1771                     l2591:
  7519     1771  0876               	movf	__Umul8_16@word_mpld,w
  7520     1772  07F4               	addwf	__Umul8_16@product,f
  7521     1773  1803               	skipnc
  7522     1774  0AF5               	incf	__Umul8_16@product+1,f
  7523     1775  0877               	movf	__Umul8_16@word_mpld+1,w
  7524     1776  07F5               	addwf	__Umul8_16@product+1,f
  7525     1777                     l794:
  7526     1777  3001               	movlw	1
  7527     1778                     u3205:
  7528     1778  1003               	clrc
  7529     1779  0DF6               	rlf	__Umul8_16@word_mpld,f
  7530     177A  0DF7               	rlf	__Umul8_16@word_mpld+1,f
  7531     177B  3EFF               	addlw	-1
  7532     177C  1D03               	skipz
  7533     177D  2F78               	goto	u3205
  7534     177E  1003               	clrc
  7535     177F  0CF8               	rrf	__Umul8_16@multiplier,f
  7536     1780                     l2593:
  7537     1780  0878               	movf	__Umul8_16@multiplier,w
  7538     1781  1D03               	btfss	3,2
  7539     1782  2F84               	goto	u3211
  7540     1783  2F85               	goto	u3210
  7541     1784                     u3211:
  7542     1784  2F6D               	goto	l2589
  7543     1785                     u3210:
  7544     1785                     l2595:
  7545     1785  0875               	movf	__Umul8_16@product+1,w
  7546     1786  00F1               	movwf	?__Umul8_16+1
  7547     1787  0874               	movf	__Umul8_16@product,w
  7548     1788  00F0               	movwf	?__Umul8_16
  7549     1789                     l796:
  7550     1789  0008               	return
  7551     178A                     __end_of__Umul8_16:
  7552                           
  7553                           	psect	text30
  7554     007F                     __ptext30:	
  7555 ;; *************** function ___fldiv *****************
  7556 ;; Defined at:
  7557 ;;		line 8 in file "C:\Program Files\Microchip\xc8\v3.10\pic\sources\c99\common\sprcdiv.c"
  7558 ;; Parameters:    Size  Location     Type
  7559 ;;  a               4    6[BANK0 ] unsigned int 
  7560 ;;  b               4   10[BANK0 ] unsigned int 
  7561 ;; Auto vars:     Size  Location     Type
  7562 ;;  grs             4   26[BANK0 ] unsigned long 
  7563 ;;  rem             4   19[BANK0 ] unsigned long 
  7564 ;;  new_exp         2   24[BANK0 ] short 
  7565 ;;  aexp            1   31[BANK0 ] unsigned char 
  7566 ;;  bexp            1   30[BANK0 ] unsigned char 
  7567 ;;  sign            1   23[BANK0 ] unsigned char 
  7568 ;; Return value:  Size  Location     Type
  7569 ;;                  4    6[BANK0 ] unsigned char 
  7570 ;; Registers used:
  7571 ;;		wreg, status,2, status,0, btemp1
  7572 ;; Tracked objects:
  7573 ;;		On entry : 0/0
  7574 ;;		On exit  : 0/0
  7575 ;;		Unchanged: 0/0
  7576 ;; Data sizes:     COMMON   BANK0   BANK1   BANK3   BANK2
  7577 ;;      Params:         0       8       0       0       0
  7578 ;;      Locals:         0      13       0       0       0
  7579 ;;      Temps:          0       5       0       0       0
  7580 ;;      Totals:         0      26       0       0       0
  7581 ;;Total ram usage:       26 bytes
  7582 ;; Hardware stack levels used: 1
  7583 ;; This function calls:
  7584 ;;		Nothing
  7585 ;; This function is called by:
  7586 ;;		_DHT22_read
  7587 ;;		_dht11_read
  7588 ;; This function uses a non-reentrant model
  7589 ;;
  7590                           
  7591     007F                     ___fldiv:	
  7592                           ;psect for function ___fldiv
  7593                           
  7594     007F                     l2751:	
  7595                           ;incstack = 0
  7596                           ; Regs used in ___fldiv: [wreg+status,2+status,0+btemp1]
  7597                           
  7598     007F  1283               	bcf	3,5	;RP0=0, select bank0
  7599     0080  1303               	bcf	3,6	;RP1=0, select bank0
  7600     0081  082D               	movf	___fldiv@b+3,w
  7601     0082  00B7               	movwf	___fldiv@sign
  7602     0083                     l2753:
  7603     0083  3080               	movlw	128
  7604     0084  05B7               	andwf	___fldiv@sign,f
  7605     0085                     l2755:
  7606     0085  082D               	movf	___fldiv@b+3,w
  7607     0086  00AE               	movwf	??___fldiv
  7608     0087  072E               	addwf	??___fldiv,w
  7609     0088  00BE               	movwf	___fldiv@bexp
  7610     0089                     l2757:
  7611     0089  1FAC               	btfss	___fldiv@b+2,7
  7612     008A  288C               	goto	u3471
  7613     008B  288D               	goto	u3470
  7614     008C                     u3471:
  7615     008C  288E               	goto	l2761
  7616     008D                     u3470:
  7617     008D                     l2759:
  7618     008D  143E               	bsf	___fldiv@bexp,0
  7619     008E                     l2761:
  7620     008E  083E               	movf	___fldiv@bexp,w
  7621     008F  1903               	btfsc	3,2
  7622     0090  2892               	goto	u3481
  7623     0091  2893               	goto	u3480
  7624     0092                     u3481:
  7625     0092  28A3               	goto	l2771
  7626     0093                     u3480:
  7627     0093                     l2763:
  7628     0093  0A3E               	incf	___fldiv@bexp,w
  7629     0094  1D03               	btfss	3,2
  7630     0095  2897               	goto	u3491
  7631     0096  2898               	goto	u3490
  7632     0097                     u3491:
  7633     0097  28A0               	goto	l2767
  7634     0098                     u3490:
  7635     0098                     l2765:
  7636     0098  3000               	movlw	0
  7637     0099  00AD               	movwf	___fldiv@b+3
  7638     009A  3000               	movlw	0
  7639     009B  00AC               	movwf	___fldiv@b+2
  7640     009C  3000               	movlw	0
  7641     009D  00AB               	movwf	___fldiv@b+1
  7642     009E  3000               	movlw	0
  7643     009F  00AA               	movwf	___fldiv@b
  7644     00A0                     l2767:
  7645     00A0  17AC               	bsf	___fldiv@b+2,7
  7646     00A1                     l2769:
  7647     00A1  01AD               	clrf	___fldiv@b+3
  7648     00A2  28AB               	goto	l2773
  7649     00A3                     l2771:
  7650     00A3  3000               	movlw	0
  7651     00A4  00AD               	movwf	___fldiv@b+3
  7652     00A5  3000               	movlw	0
  7653     00A6  00AC               	movwf	___fldiv@b+2
  7654     00A7  3000               	movlw	0
  7655     00A8  00AB               	movwf	___fldiv@b+1
  7656     00A9  3000               	movlw	0
  7657     00AA  00AA               	movwf	___fldiv@b
  7658     00AB                     l2773:
  7659     00AB  0829               	movf	___fldiv@a+3,w
  7660     00AC  3980               	andlw	128
  7661     00AD  06B7               	xorwf	___fldiv@sign,f
  7662     00AE                     l2775:
  7663     00AE  0829               	movf	___fldiv@a+3,w
  7664     00AF  00AE               	movwf	??___fldiv
  7665     00B0  072E               	addwf	??___fldiv,w
  7666     00B1  00BF               	movwf	___fldiv@aexp
  7667     00B2                     l2777:
  7668     00B2  1FA8               	btfss	___fldiv@a+2,7
  7669     00B3  28B5               	goto	u3501
  7670     00B4  28B6               	goto	u3500
  7671     00B5                     u3501:
  7672     00B5  28B7               	goto	l2781
  7673     00B6                     u3500:
  7674     00B6                     l2779:
  7675     00B6  143F               	bsf	___fldiv@aexp,0
  7676     00B7                     l2781:
  7677     00B7  083F               	movf	___fldiv@aexp,w
  7678     00B8  1903               	btfsc	3,2
  7679     00B9  28BB               	goto	u3511
  7680     00BA  28BC               	goto	u3510
  7681     00BB                     u3511:
  7682     00BB  28CC               	goto	l2791
  7683     00BC                     u3510:
  7684     00BC                     l2783:
  7685     00BC  0A3F               	incf	___fldiv@aexp,w
  7686     00BD  1D03               	btfss	3,2
  7687     00BE  28C0               	goto	u3521
  7688     00BF  28C1               	goto	u3520
  7689     00C0                     u3521:
  7690     00C0  28C9               	goto	l2787
  7691     00C1                     u3520:
  7692     00C1                     l2785:
  7693     00C1  3000               	movlw	0
  7694     00C2  00A9               	movwf	___fldiv@a+3
  7695     00C3  3000               	movlw	0
  7696     00C4  00A8               	movwf	___fldiv@a+2
  7697     00C5  3000               	movlw	0
  7698     00C6  00A7               	movwf	___fldiv@a+1
  7699     00C7  3000               	movlw	0
  7700     00C8  00A6               	movwf	___fldiv@a
  7701     00C9                     l2787:
  7702     00C9  17A8               	bsf	___fldiv@a+2,7
  7703     00CA                     l2789:
  7704     00CA  01A9               	clrf	___fldiv@a+3
  7705     00CB  28D4               	goto	l735
  7706     00CC                     l2791:
  7707     00CC  3000               	movlw	0
  7708     00CD  00A9               	movwf	___fldiv@a+3
  7709     00CE  3000               	movlw	0
  7710     00CF  00A8               	movwf	___fldiv@a+2
  7711     00D0  3000               	movlw	0
  7712     00D1  00A7               	movwf	___fldiv@a+1
  7713     00D2  3000               	movlw	0
  7714     00D3  00A6               	movwf	___fldiv@a
  7715     00D4                     l735:
  7716     00D4  0829               	movf	___fldiv@a+3,w
  7717     00D5  0428               	iorwf	___fldiv@a+2,w
  7718     00D6  0427               	iorwf	___fldiv@a+1,w
  7719     00D7  0426               	iorwf	___fldiv@a,w
  7720     00D8  1D03               	skipz
  7721     00D9  28DB               	goto	u3531
  7722     00DA  28DC               	goto	u3530
  7723     00DB                     u3531:
  7724     00DB  28F3               	goto	l2801
  7725     00DC                     u3530:
  7726     00DC                     l2793:
  7727     00DC  3000               	movlw	0
  7728     00DD  00AD               	movwf	___fldiv@b+3
  7729     00DE  3000               	movlw	0
  7730     00DF  00AC               	movwf	___fldiv@b+2
  7731     00E0  3000               	movlw	0
  7732     00E1  00AB               	movwf	___fldiv@b+1
  7733     00E2  3000               	movlw	0
  7734     00E3  00AA               	movwf	___fldiv@b
  7735     00E4  3080               	movlw	128
  7736     00E5  04AC               	iorwf	___fldiv@b+2,f
  7737     00E6  307F               	movlw	127
  7738     00E7  04AD               	iorwf	___fldiv@b+3,f
  7739     00E8                     l2795:
  7740     00E8  0837               	movf	___fldiv@sign,w
  7741     00E9  04AD               	iorwf	___fldiv@b+3,f
  7742     00EA                     l2797:
  7743     00EA  082D               	movf	___fldiv@b+3,w
  7744     00EB  00A9               	movwf	?___fldiv+3
  7745     00EC  082C               	movf	___fldiv@b+2,w
  7746     00ED  00A8               	movwf	?___fldiv+2
  7747     00EE  082B               	movf	___fldiv@b+1,w
  7748     00EF  00A7               	movwf	?___fldiv+1
  7749     00F0  082A               	movf	___fldiv@b,w
  7750     00F1  00A6               	movwf	?___fldiv
  7751     00F2  2A48               	goto	l737
  7752     00F3                     l2801:
  7753     00F3  083E               	movf	___fldiv@bexp,w
  7754     00F4  1D03               	btfss	3,2
  7755     00F5  28F7               	goto	u3541
  7756     00F6  28F8               	goto	u3540
  7757     00F7                     u3541:
  7758     00F7  2901               	goto	l2807
  7759     00F8                     u3540:
  7760     00F8                     l2803:
  7761     00F8  3000               	movlw	0
  7762     00F9  00A9               	movwf	?___fldiv+3
  7763     00FA  3000               	movlw	0
  7764     00FB  00A8               	movwf	?___fldiv+2
  7765     00FC  3000               	movlw	0
  7766     00FD  00A7               	movwf	?___fldiv+1
  7767     00FE  3000               	movlw	0
  7768     00FF  00A6               	movwf	?___fldiv
  7769     0100  2A48               	goto	l737
  7770     0101                     l2807:
  7771     0101  083E               	movf	___fldiv@bexp,w
  7772     0102  00AE               	movwf	??___fldiv
  7773     0103  01AF               	clrf	??___fldiv+1
  7774     0104  082F               	movf	??___fldiv+1,w
  7775     0105  00B1               	movwf	??___fldiv+3
  7776     0106  083F               	movf	___fldiv@aexp,w
  7777     0107  022E               	subwf	??___fldiv,w
  7778     0108  00B0               	movwf	??___fldiv+2
  7779     0109  1C03               	skipc
  7780     010A  03B1               	decf	??___fldiv+3,f
  7781     010B  0830               	movf	??___fldiv+2,w
  7782     010C  3E7F               	addlw	127
  7783     010D  00B8               	movwf	___fldiv@new_exp
  7784     010E  0831               	movf	??___fldiv+3,w
  7785     010F  1803               	skipnc
  7786     0110  3E01               	addlw	1
  7787     0111  3E00               	addlw	0
  7788     0112  00B9               	movwf	___fldiv@new_exp+1
  7789     0113                     l2809:
  7790     0113  082D               	movf	___fldiv@b+3,w
  7791     0114  00B6               	movwf	___fldiv@rem+3
  7792     0115  082C               	movf	___fldiv@b+2,w
  7793     0116  00B5               	movwf	___fldiv@rem+2
  7794     0117  082B               	movf	___fldiv@b+1,w
  7795     0118  00B4               	movwf	___fldiv@rem+1
  7796     0119  082A               	movf	___fldiv@b,w
  7797     011A  00B3               	movwf	___fldiv@rem
  7798     011B                     l2811:
  7799     011B  3000               	movlw	0
  7800     011C  00AD               	movwf	___fldiv@b+3
  7801     011D  3000               	movlw	0
  7802     011E  00AC               	movwf	___fldiv@b+2
  7803     011F  3000               	movlw	0
  7804     0120  00AB               	movwf	___fldiv@b+1
  7805     0121  3000               	movlw	0
  7806     0122  00AA               	movwf	___fldiv@b
  7807     0123                     l2813:
  7808     0123  3000               	movlw	0
  7809     0124  00BD               	movwf	___fldiv@grs+3
  7810     0125  3000               	movlw	0
  7811     0126  00BC               	movwf	___fldiv@grs+2
  7812     0127  3000               	movlw	0
  7813     0128  00BB               	movwf	___fldiv@grs+1
  7814     0129  3000               	movlw	0
  7815     012A  00BA               	movwf	___fldiv@grs
  7816     012B                     l2815:
  7817     012B  01BF               	clrf	___fldiv@aexp
  7818     012C  2975               	goto	l2835
  7819     012D                     l2817:
  7820     012D  083F               	movf	___fldiv@aexp,w
  7821     012E  1903               	btfsc	3,2
  7822     012F  2931               	goto	u3551
  7823     0130  2932               	goto	u3550
  7824     0131                     u3551:
  7825     0131  2952               	goto	l2827
  7826     0132                     u3550:
  7827     0132                     l2819:
  7828     0132  3001               	movlw	1
  7829     0133  00AE               	movwf	??___fldiv
  7830     0134                     u3565:
  7831     0134  1003               	clrc
  7832     0135  0DB3               	rlf	___fldiv@rem,f
  7833     0136  0DB4               	rlf	___fldiv@rem+1,f
  7834     0137  0DB5               	rlf	___fldiv@rem+2,f
  7835     0138  0DB6               	rlf	___fldiv@rem+3,f
  7836     0139  0BAE               	decfsz	??___fldiv,f
  7837     013A  2934               	goto	u3565
  7838     013B  3001               	movlw	1
  7839     013C  00AE               	movwf	??___fldiv
  7840     013D                     u3575:
  7841     013D  1003               	clrc
  7842     013E  0DAA               	rlf	___fldiv@b,f
  7843     013F  0DAB               	rlf	___fldiv@b+1,f
  7844     0140  0DAC               	rlf	___fldiv@b+2,f
  7845     0141  0DAD               	rlf	___fldiv@b+3,f
  7846     0142  0BAE               	decfsz	??___fldiv,f
  7847     0143  293D               	goto	u3575
  7848     0144                     l2821:
  7849     0144  1FBD               	btfss	___fldiv@grs+3,7
  7850     0145  2947               	goto	u3581
  7851     0146  2948               	goto	u3580
  7852     0147                     u3581:
  7853     0147  2949               	goto	l2825
  7854     0148                     u3580:
  7855     0148                     l2823:
  7856     0148  142A               	bsf	___fldiv@b,0
  7857     0149                     l2825:
  7858     0149  3001               	movlw	1
  7859     014A  00AE               	movwf	??___fldiv
  7860     014B                     u3595:
  7861     014B  1003               	clrc
  7862     014C  0DBA               	rlf	___fldiv@grs,f
  7863     014D  0DBB               	rlf	___fldiv@grs+1,f
  7864     014E  0DBC               	rlf	___fldiv@grs+2,f
  7865     014F  0DBD               	rlf	___fldiv@grs+3,f
  7866     0150  0BAE               	decfsz	??___fldiv,f
  7867     0151  294B               	goto	u3595
  7868     0152                     l2827:
  7869     0152  0829               	movf	___fldiv@a+3,w
  7870     0153  0236               	subwf	___fldiv@rem+3,w
  7871     0154  1D03               	skipz
  7872     0155  2960               	goto	u3605
  7873     0156  0828               	movf	___fldiv@a+2,w
  7874     0157  0235               	subwf	___fldiv@rem+2,w
  7875     0158  1D03               	skipz
  7876     0159  2960               	goto	u3605
  7877     015A  0827               	movf	___fldiv@a+1,w
  7878     015B  0234               	subwf	___fldiv@rem+1,w
  7879     015C  1D03               	skipz
  7880     015D  2960               	goto	u3605
  7881     015E  0826               	movf	___fldiv@a,w
  7882     015F  0233               	subwf	___fldiv@rem,w
  7883     0160                     u3605:
  7884     0160  1C03               	skipc
  7885     0161  2963               	goto	u3601
  7886     0162  2964               	goto	u3600
  7887     0163                     u3601:
  7888     0163  2973               	goto	l2833
  7889     0164                     u3600:
  7890     0164                     l2829:
  7891     0164  173D               	bsf	___fldiv@grs+3,6
  7892     0165                     l2831:
  7893     0165  0826               	movf	___fldiv@a,w
  7894     0166  02B3               	subwf	___fldiv@rem,f
  7895     0167  0827               	movf	___fldiv@a+1,w
  7896     0168  1C03               	skipc
  7897     0169  0F27               	incfsz	___fldiv@a+1,w
  7898     016A  02B4               	subwf	___fldiv@rem+1,f
  7899     016B  0828               	movf	___fldiv@a+2,w
  7900     016C  1C03               	skipc
  7901     016D  0F28               	incfsz	___fldiv@a+2,w
  7902     016E  02B5               	subwf	___fldiv@rem+2,f
  7903     016F  0829               	movf	___fldiv@a+3,w
  7904     0170  1C03               	skipc
  7905     0171  0F29               	incfsz	___fldiv@a+3,w
  7906     0172  02B6               	subwf	___fldiv@rem+3,f
  7907     0173                     l2833:
  7908     0173  3001               	movlw	1
  7909     0174  07BF               	addwf	___fldiv@aexp,f
  7910     0175                     l2835:
  7911     0175  301A               	movlw	26
  7912     0176  023F               	subwf	___fldiv@aexp,w
  7913     0177  1C03               	skipc
  7914     0178  297A               	goto	u3611
  7915     0179  297B               	goto	u3610
  7916     017A                     u3611:
  7917     017A  292D               	goto	l2817
  7918     017B                     u3610:
  7919     017B                     l2837:
  7920     017B  0836               	movf	___fldiv@rem+3,w
  7921     017C  0435               	iorwf	___fldiv@rem+2,w
  7922     017D  0434               	iorwf	___fldiv@rem+1,w
  7923     017E  0433               	iorwf	___fldiv@rem,w
  7924     017F  1903               	skipnz
  7925     0180  2982               	goto	u3621
  7926     0181  2983               	goto	u3620
  7927     0182                     u3621:
  7928     0182  29A2               	goto	l2851
  7929     0183                     u3620:
  7930     0183                     l2839:
  7931     0183  143A               	bsf	___fldiv@grs,0
  7932     0184  29A2               	goto	l2851
  7933     0185                     l2841:
  7934     0185  3001               	movlw	1
  7935     0186  00AE               	movwf	??___fldiv
  7936     0187                     u3635:
  7937     0187  1003               	clrc
  7938     0188  0DAA               	rlf	___fldiv@b,f
  7939     0189  0DAB               	rlf	___fldiv@b+1,f
  7940     018A  0DAC               	rlf	___fldiv@b+2,f
  7941     018B  0DAD               	rlf	___fldiv@b+3,f
  7942     018C  0BAE               	decfsz	??___fldiv,f
  7943     018D  2987               	goto	u3635
  7944     018E                     l2843:
  7945     018E  1FBD               	btfss	___fldiv@grs+3,7
  7946     018F  2991               	goto	u3641
  7947     0190  2992               	goto	u3640
  7948     0191                     u3641:
  7949     0191  2993               	goto	l2847
  7950     0192                     u3640:
  7951     0192                     l2845:
  7952     0192  142A               	bsf	___fldiv@b,0
  7953     0193                     l2847:
  7954     0193  3001               	movlw	1
  7955     0194  00AE               	movwf	??___fldiv
  7956     0195                     u3655:
  7957     0195  1003               	clrc
  7958     0196  0DBA               	rlf	___fldiv@grs,f
  7959     0197  0DBB               	rlf	___fldiv@grs+1,f
  7960     0198  0DBC               	rlf	___fldiv@grs+2,f
  7961     0199  0DBD               	rlf	___fldiv@grs+3,f
  7962     019A  0BAE               	decfsz	??___fldiv,f
  7963     019B  2995               	goto	u3655
  7964     019C                     l2849:
  7965     019C  30FF               	movlw	255
  7966     019D  07B8               	addwf	___fldiv@new_exp,f
  7967     019E  1803               	skipnc
  7968     019F  0AB9               	incf	___fldiv@new_exp+1,f
  7969     01A0  30FF               	movlw	255
  7970     01A1  07B9               	addwf	___fldiv@new_exp+1,f
  7971     01A2                     l2851:
  7972     01A2  1FAC               	btfss	___fldiv@b+2,7
  7973     01A3  29A5               	goto	u3661
  7974     01A4  29A6               	goto	u3660
  7975     01A5                     u3661:
  7976     01A5  2985               	goto	l2841
  7977     01A6                     u3660:
  7978     01A6                     l2853:
  7979     01A6  01BF               	clrf	___fldiv@aexp
  7980     01A7                     l2855:
  7981     01A7  1FBD               	btfss	___fldiv@grs+3,7
  7982     01A8  29AA               	goto	u3671
  7983     01A9  29AB               	goto	u3670
  7984     01AA                     u3671:
  7985     01AA  29C7               	goto	l2863
  7986     01AB                     u3670:
  7987     01AB                     l2857:
  7988     01AB  30FF               	movlw	255
  7989     01AC  053A               	andwf	___fldiv@grs,w
  7990     01AD  00AE               	movwf	??___fldiv
  7991     01AE  30FF               	movlw	255
  7992     01AF  053B               	andwf	___fldiv@grs+1,w
  7993     01B0  00AF               	movwf	??___fldiv+1
  7994     01B1  30FF               	movlw	255
  7995     01B2  053C               	andwf	___fldiv@grs+2,w
  7996     01B3  00B0               	movwf	??___fldiv+2
  7997     01B4  307F               	movlw	127
  7998     01B5  053D               	andwf	___fldiv@grs+3,w
  7999     01B6  00B1               	movwf	??___fldiv+3
  8000     01B7  0831               	movf	??___fldiv+3,w
  8001     01B8  0430               	iorwf	??___fldiv+2,w
  8002     01B9  042F               	iorwf	??___fldiv+1,w
  8003     01BA  042E               	iorwf	??___fldiv,w
  8004     01BB  1903               	skipnz
  8005     01BC  29BE               	goto	u3681
  8006     01BD  29BF               	goto	u3680
  8007     01BE                     u3681:
  8008     01BE  29C2               	goto	l751
  8009     01BF                     u3680:
  8010     01BF                     l2859:
  8011     01BF  3001               	movlw	1
  8012     01C0  00BF               	movwf	___fldiv@aexp
  8013     01C1  29C7               	goto	l2863
  8014     01C2                     l751:
  8015     01C2  1C2A               	btfss	___fldiv@b,0
  8016     01C3  29C5               	goto	u3691
  8017     01C4  29C6               	goto	u3690
  8018     01C5                     u3691:
  8019     01C5  29C7               	goto	l2863
  8020     01C6                     u3690:
  8021     01C6  29BF               	goto	l2859
  8022     01C7                     l2863:
  8023     01C7  083F               	movf	___fldiv@aexp,w
  8024     01C8  1903               	btfsc	3,2
  8025     01C9  29CB               	goto	u3701
  8026     01CA  29CC               	goto	u3700
  8027     01CB                     u3701:
  8028     01CB  29FD               	goto	l2873
  8029     01CC                     u3700:
  8030     01CC                     l2865:
  8031     01CC  3001               	movlw	1
  8032     01CD  07AA               	addwf	___fldiv@b,f
  8033     01CE  3000               	movlw	0
  8034     01CF  1803               	skipnc
  8035     01D0  3001               	movlw	1
  8036     01D1  07AB               	addwf	___fldiv@b+1,f
  8037     01D2  3000               	movlw	0
  8038     01D3  1803               	skipnc
  8039     01D4  3001               	movlw	1
  8040     01D5  07AC               	addwf	___fldiv@b+2,f
  8041     01D6  3000               	movlw	0
  8042     01D7  1803               	skipnc
  8043     01D8  3001               	movlw	1
  8044     01D9  07AD               	addwf	___fldiv@b+3,f
  8045     01DA                     l2867:
  8046     01DA  1C2D               	btfss	___fldiv@b+3,0
  8047     01DB  29DD               	goto	u3711
  8048     01DC  29DE               	goto	u3710
  8049     01DD                     u3711:
  8050     01DD  29FD               	goto	l2873
  8051     01DE                     u3710:
  8052     01DE                     l2869:
  8053     01DE  082A               	movf	___fldiv@b,w
  8054     01DF  00AE               	movwf	??___fldiv
  8055     01E0  082B               	movf	___fldiv@b+1,w
  8056     01E1  00AF               	movwf	??___fldiv+1
  8057     01E2  082C               	movf	___fldiv@b+2,w
  8058     01E3  00B0               	movwf	??___fldiv+2
  8059     01E4  082D               	movf	___fldiv@b+3,w
  8060     01E5  00B1               	movwf	??___fldiv+3
  8061     01E6  3001               	movlw	1
  8062     01E7  00B2               	movwf	??___fldiv+4
  8063     01E8                     u3725:
  8064     01E8  0D31               	rlf	??___fldiv+3,w
  8065     01E9  0CB1               	rrf	??___fldiv+3,f
  8066     01EA  0CB0               	rrf	??___fldiv+2,f
  8067     01EB  0CAF               	rrf	??___fldiv+1,f
  8068     01EC  0CAE               	rrf	??___fldiv,f
  8069     01ED                     u3720:
  8070     01ED  0BB2               	decfsz	??___fldiv+4,f
  8071     01EE  29E8               	goto	u3725
  8072     01EF  0831               	movf	??___fldiv+3,w
  8073     01F0  00AD               	movwf	___fldiv@b+3
  8074     01F1  0830               	movf	??___fldiv+2,w
  8075     01F2  00AC               	movwf	___fldiv@b+2
  8076     01F3  082F               	movf	??___fldiv+1,w
  8077     01F4  00AB               	movwf	___fldiv@b+1
  8078     01F5  082E               	movf	??___fldiv,w
  8079     01F6  00AA               	movwf	___fldiv@b
  8080     01F7                     l2871:
  8081     01F7  3001               	movlw	1
  8082     01F8  07B8               	addwf	___fldiv@new_exp,f
  8083     01F9  1803               	skipnc
  8084     01FA  0AB9               	incf	___fldiv@new_exp+1,f
  8085     01FB  3000               	movlw	0
  8086     01FC  07B9               	addwf	___fldiv@new_exp+1,f
  8087     01FD                     l2873:
  8088     01FD  0839               	movf	___fldiv@new_exp+1,w
  8089     01FE  3A80               	xorlw	128
  8090     01FF  00FF               	movwf	btemp1
  8091     0200  3080               	movlw	128
  8092     0201  027F               	subwf	btemp1,w
  8093     0202  1D03               	skipz
  8094     0203  2A06               	goto	u3735
  8095     0204  30FF               	movlw	255
  8096     0205  0238               	subwf	___fldiv@new_exp,w
  8097     0206                     u3735:
  8098     0206  1C03               	skipc
  8099     0207  2A09               	goto	u3731
  8100     0208  2A0A               	goto	u3730
  8101     0209                     u3731:
  8102     0209  2A18               	goto	l2877
  8103     020A                     u3730:
  8104     020A                     l2875:
  8105     020A  30FF               	movlw	255
  8106     020B  1283               	bcf	3,5	;RP0=0, select bank0
  8107     020C  1303               	bcf	3,6	;RP1=0, select bank0
  8108     020D  00B8               	movwf	___fldiv@new_exp
  8109     020E  3000               	movlw	0
  8110     020F  00B9               	movwf	___fldiv@new_exp+1
  8111     0210  3000               	movlw	0
  8112     0211  00AD               	movwf	___fldiv@b+3
  8113     0212  3000               	movlw	0
  8114     0213  00AC               	movwf	___fldiv@b+2
  8115     0214  3000               	movlw	0
  8116     0215  00AB               	movwf	___fldiv@b+1
  8117     0216  3000               	movlw	0
  8118     0217  00AA               	movwf	___fldiv@b
  8119     0218                     l2877:
  8120     0218  1283               	bcf	3,5	;RP0=0, select bank0
  8121     0219  1303               	bcf	3,6	;RP1=0, select bank0
  8122     021A  0839               	movf	___fldiv@new_exp+1,w
  8123     021B  3A80               	xorlw	128
  8124     021C  00FF               	movwf	btemp1
  8125     021D  3080               	movlw	128
  8126     021E  027F               	subwf	btemp1,w
  8127     021F  1D03               	skipz
  8128     0220  2A23               	goto	u3745
  8129     0221  3001               	movlw	1
  8130     0222  0238               	subwf	___fldiv@new_exp,w
  8131     0223                     u3745:
  8132     0223  1803               	skipnc
  8133     0224  2A26               	goto	u3741
  8134     0225  2A27               	goto	u3740
  8135     0226                     u3741:
  8136     0226  2A34               	goto	l757
  8137     0227                     u3740:
  8138     0227                     l2879:
  8139     0227  1283               	bcf	3,5	;RP0=0, select bank0
  8140     0228  1303               	bcf	3,6	;RP1=0, select bank0
  8141     0229  01B8               	clrf	___fldiv@new_exp
  8142     022A  01B9               	clrf	___fldiv@new_exp+1
  8143     022B                     l2881:
  8144     022B  3000               	movlw	0
  8145     022C  00AD               	movwf	___fldiv@b+3
  8146     022D  3000               	movlw	0
  8147     022E  00AC               	movwf	___fldiv@b+2
  8148     022F  3000               	movlw	0
  8149     0230  00AB               	movwf	___fldiv@b+1
  8150     0231  3000               	movlw	0
  8151     0232  00AA               	movwf	___fldiv@b
  8152     0233                     l2883:
  8153     0233  01B7               	clrf	___fldiv@sign
  8154     0234                     l757:
  8155     0234  1283               	bcf	3,5	;RP0=0, select bank0
  8156     0235  1303               	bcf	3,6	;RP1=0, select bank0
  8157     0236  0838               	movf	___fldiv@new_exp,w
  8158     0237  00BE               	movwf	___fldiv@bexp
  8159     0238                     l2885:
  8160     0238  1C3E               	btfss	___fldiv@bexp,0
  8161     0239  2A3B               	goto	u3751
  8162     023A  2A3C               	goto	u3750
  8163     023B                     u3751:
  8164     023B  2A3E               	goto	l2889
  8165     023C                     u3750:
  8166     023C                     l2887:
  8167     023C  17AC               	bsf	___fldiv@b+2,7
  8168     023D  2A40               	goto	l759
  8169     023E                     l2889:
  8170     023E  307F               	movlw	127
  8171     023F  05AC               	andwf	___fldiv@b+2,f
  8172     0240                     l759:
  8173     0240  083E               	movf	___fldiv@bexp,w
  8174     0241  00AE               	movwf	??___fldiv
  8175     0242  1003               	clrc
  8176     0243  0C2E               	rrf	??___fldiv,w
  8177     0244  00AD               	movwf	___fldiv@b+3
  8178     0245  0837               	movf	___fldiv@sign,w
  8179     0246  04AD               	iorwf	___fldiv@b+3,f
  8180     0247  28EA               	goto	l2797
  8181     0248                     l737:
  8182     0248  0008               	return
  8183     0249                     __end_of___fldiv:
  8184                           
  8185                           	psect	text31
  8186     1606                     __ptext31:	
  8187 ;; *************** function _DHT22_init *****************
  8188 ;; Defined at:
  8189 ;;		line 3 in file "dht22.c"
  8190 ;; Parameters:    Size  Location     Type
  8191 ;;		None
  8192 ;; Auto vars:     Size  Location     Type
  8193 ;;		None
  8194 ;; Return value:  Size  Location     Type
  8195 ;;                  1    wreg      void 
  8196 ;; Registers used:
  8197 ;;		None
  8198 ;; Tracked objects:
  8199 ;;		On entry : 0/0
  8200 ;;		On exit  : 0/0
  8201 ;;		Unchanged: 0/0
  8202 ;; Data sizes:     COMMON   BANK0   BANK1   BANK3   BANK2
  8203 ;;      Params:         0       0       0       0       0
  8204 ;;      Locals:         0       0       0       0       0
  8205 ;;      Temps:          0       0       0       0       0
  8206 ;;      Totals:         0       0       0       0       0
  8207 ;;Total ram usage:        0 bytes
  8208 ;; Hardware stack levels used: 1
  8209 ;; This function calls:
  8210 ;;		Nothing
  8211 ;; This function is called by:
  8212 ;;		_main
  8213 ;; This function uses a non-reentrant model
  8214 ;;
  8215                           
  8216     1606                     _DHT22_init:	
  8217                           ;psect for function _DHT22_init
  8218                           
  8219     1606                     l3127:	
  8220                           ;incstack = 0
  8221                           ; Regs used in _DHT22_init: []
  8222                           
  8223                           
  8224                           ;dht22.c: 4: TRISAbits.TRISA0 = 0;
  8225     1606  1683               	bsf	3,5	;RP0=1, select bank1
  8226     1607  1303               	bcf	3,6	;RP1=0, select bank1
  8227     1608  1005               	bcf	5,0	;volatile
  8228                           
  8229                           ;dht22.c: 5: PORTAbits.RA0 = 1;
  8230     1609  1283               	bcf	3,5	;RP0=0, select bank0
  8231     160A  1303               	bcf	3,6	;RP1=0, select bank0
  8232     160B  1405               	bsf	5,0	;volatile
  8233     160C                     l273:
  8234     160C  0008               	return
  8235     160D                     __end_of_DHT22_init:
  8236     0002                     ___latbits      equ	2
  8237     007E                     btemp           set	126	;btemp
  8238     007E                     btemp0          set	126
  8239     007F                     btemp1          set	127
  8240     007E                     wtemp0          set	126
  8241     007F                     wtemp0a         set	127
  8242     007F                     ttemp0a         set	127
  8243     0080                     ltemp0a         set	128
  8244                           
  8245                           	psect	config
  8246                           
  8247                           ;Config register CONFIG1 @ 0x2007
  8248                           ;	Oscillator Selection bits
  8249                           ;	FOSC = HS, HS oscillator: High-speed crystal/resonator on RA6/OSC2/CLKOUT and RA7/OSC1
      +                          /CLKIN
  8250                           ;	Watchdog Timer Enable bit
  8251                           ;	WDTE = OFF, WDT disabled and can be enabled by SWDTEN bit of the WDTCON register
  8252                           ;	Power-up Timer Enable bit
  8253                           ;	PWRTE = ON, PWRT enabled
  8254                           ;	RE3/MCLR pin function select bit
  8255                           ;	MCLRE = ON, RE3/MCLR pin function is MCLR
  8256                           ;	Code Protection bit
  8257                           ;	CP = OFF, Program memory code protection is disabled
  8258                           ;	Data Code Protection bit
  8259                           ;	CPD = OFF, Data memory code protection is disabled
  8260                           ;	Brown Out Reset Selection bits
  8261                           ;	BOREN = ON, BOR enabled
  8262                           ;	Internal External Switchover bit
  8263                           ;	IESO = OFF, Internal/External Switchover mode is disabled
  8264                           ;	Fail-Safe Clock Monitor Enabled bit
  8265                           ;	FCMEN = OFF, Fail-Safe Clock Monitor is disabled
  8266                           ;	Low Voltage Programming Enable bit
  8267                           ;	LVP = OFF, RB3 pin has digital I/O, HV on MCLR must be used for programming
  8268                           ;	In-Circuit Debugger Mode bit
  8269                           ;	DEBUG = OFF, In-Circuit Debugger disabled, RB6/ICSPCLK and RB7/ICSPDAT are general pur
      +                          pose I/O pins
  8270     2007                     	org	8199
  8271     2007  23E2               	dw	9186

Data Sizes:
    Strings     78
    Constant    0
    Data        0
    BSS         75
    Persistent  0
    Stack       0

Auto Spaces:
    Space          Size  Autos    Used
    COMMON           14     14      14
    BANK0            80     79      80
    BANK1            80     19      61
    BANK3            96      0      32
    BANK2            96      0       0

Pointer List with Targets:

    DHT22_read@dht_humedad	PTR float  size(1) Largest target is 4
		 -> main@tem(BANK1[4]), 

    DHT22_read@dht_temperatura	PTR float  size(1) Largest target is 4
		 -> main@hum(BANK1[4]), 

    f$.$buffer	PTR unsigned char  size(2) Largest target is 16
		 -> buffer_hum(BANK1[16]), buffer_tem(BANK1[16]), 

    f$.$source	PTR const unsigned char  size(1) Largest target is 0

    float_to_string_dht22@buffer	PTR unsigned char  size(1) Largest target is 16
		 -> buffer_hum(BANK1[16]), buffer_tem(BANK1[16]), 

    fputc@fp	PTR struct _IO_FILE size(2) Largest target is 11
		 -> sprintf@f(BANK0[11]), 

    fputc@fp$.$buffer	PTR unsigned char  size(2) Largest target is 16
		 -> buffer_hum(BANK1[16]), buffer_tem(BANK1[16]), 

    fputc@fp$.$source	PTR const unsigned char  size(1) Largest target is 0

    Lcd_Write_String@str	PTR const unsigned char  size(2) Largest target is 16
		 -> buffer_hum(BANK1[16]), buffer_tem(BANK1[16]), STR_3(CODE[12]), STR_4(CODE[7]), 
		 -> STR_5(CODE[7]), STR_6(CODE[13]), STR_7(CODE[16]), STR_8(CODE[16]), 

    S858$buffer	PTR unsigned char  size(2) Largest target is 16
		 -> buffer_hum(BANK1[16]), buffer_tem(BANK1[16]), 

    S858$source	PTR const unsigned char  size(1) Largest target is 0

    sprintf@ap	PTR void [1] size(1) Largest target is 2
		 -> ?_sprintf(BANK0[2]), 

    sprintf@fmt	PTR const unsigned char  size(1) Largest target is 7
		 -> STR_1(CODE[7]), STR_2(CODE[6]), 

    sprintf@s	PTR unsigned char  size(1) Largest target is 16
		 -> buffer_hum(BANK1[16]), buffer_tem(BANK1[16]), 

    vfpfcnvrt@ap	PTR PTR void  size(1) Largest target is 1
		 -> sprintf@ap(BANK0[1]), 

    vfpfcnvrt@cp	PTR unsigned char  size(1) Largest target is 7
		 -> STR_1(CODE[7]), STR_2(CODE[6]), 

    vfpfcnvrt@fmt	PTR PTR unsigned char  size(1) Largest target is 1
		 -> vfprintf@cfmt(COMMON[1]), 

    vfpfcnvrt@fp	PTR struct _IO_FILE size(2) Largest target is 11
		 -> sprintf@f(BANK0[11]), 

    vfprintf@ap	PTR PTR void  size(1) Largest target is 1
		 -> sprintf@ap(BANK0[1]), 

    vfprintf@cfmt	PTR unsigned char  size(1) Largest target is 7
		 -> STR_1(CODE[7]), STR_2(CODE[6]), 

    vfprintf@fmt	PTR const unsigned char  size(1) Largest target is 7
		 -> STR_1(CODE[7]), STR_2(CODE[6]), 

    vfprintf@fp	PTR struct _IO_FILE size(2) Largest target is 11
		 -> sprintf@f(BANK0[11]), 


Critical Paths under _main in COMMON

    _float_to_string_dht22->___xxtofl
    _sprintf->_vfprintf
    _vfpfcnvrt->_fputc
    _abs->___awmod
    ___fltol->___xxtofl
    ___flsub->___xxtofl
    _Lcd_Write_String->_Lcd_Write_Char
    _Lcd_Write_Char->_I2C_Write
    _Lcd_Set_Cursor->_Lcd_Cmd
    _Lcd_Init->_Lcd_Cmd
    _Lcd_Clear->_Lcd_Cmd
    _Lcd_Cmd->_I2C_Write
    _DHT22_read->___xxtofl
    ___xxtofl->___wmul
    ___flmul->___xxtofl
    ___fldiv->___xxtofl

Critical Paths under _main in BANK0

    _main->_DHT22_read
    _float_to_string_dht22->___fltol
    _sprintf->_vfprintf
    _vfprintf->_vfpfcnvrt
    ___fltol->___flsub
    ___flsub->___flmul
    _DHT22_read->___flmul
    ___flmul->___fldiv
    ___fldiv->___xxtofl

Critical Paths under _main in BANK1

    _main->_float_to_string_dht22

Critical Paths under _main in BANK3

    None.

Critical Paths under _main in BANK2

    None.

Call Graph Tables:

 ---------------------------------------------------------------------------------
 (Depth) Function   	        Calls       Base Space   Used Autos Params    Refs
 ---------------------------------------------------------------------------------
 (0) _main                                                12    12      0   11459
                                             76 BANK0      3     3      0
                                             10 BANK1      9     9      0
                         _DHT22_init
                         _DHT22_read
                    _I2C_Init_Master
                          _Lcd_Clear
                           _Lcd_Init
                     _Lcd_Set_Cursor
                     _Lcd_Write_Char
                   _Lcd_Write_String
              _float_to_string_dht22
 ---------------------------------------------------------------------------------
 (1) _float_to_string_dht22                               10     5      5    6587
                                              0 BANK1     10     5      5
                             ___flge
                            ___flmul
                            ___flneg
                            ___flsub
                            ___fltol
                             ___wmul
                           ___xxtofl
                            _sprintf
 ---------------------------------------------------------------------------------
 (2) _sprintf                                             21    15      6    1766
                                             17 BANK0     19    13      6
                           _vfprintf
 ---------------------------------------------------------------------------------
 (3) _vfprintf                                             5     1      4    1563
                                             13 COMMON     1     1      0
                                             13 BANK0      4     0      4
                          _vfpfcnvrt
 ---------------------------------------------------------------------------------
 (4) _vfpfcnvrt                                           13     9      4    1438
                                              0 BANK0     13     9      4
                            ___awdiv
                            ___awmod
                                _abs
                              _fputc
 ---------------------------------------------------------------------------------
 (5) _fputc                                               13     9      4     230
                                              0 COMMON    13     9      4
                              _putch
 ---------------------------------------------------------------------------------
 (6) _putch                                                1     1      0       0
 ---------------------------------------------------------------------------------
 (5) _abs                                                  4     2      2      67
                                              6 COMMON     4     2      2
                            ___awmod (ARG)
 ---------------------------------------------------------------------------------
 (5) ___awmod                                              6     2      4     300
                                              0 COMMON     6     2      4
 ---------------------------------------------------------------------------------
 (5) ___awdiv                                              8     4      4     304
                                              0 COMMON     8     4      4
 ---------------------------------------------------------------------------------
 (2) ___wmul                                               6     2      4      94
                                              0 COMMON     6     2      4
 ---------------------------------------------------------------------------------
 (2) ___fltol                                             10     6      4     231
                                             66 BANK0     10     6      4
                            ___flmul (ARG)
                            ___flsub (ARG)
                             ___wmul (ARG)
                           ___xxtofl (ARG)
 ---------------------------------------------------------------------------------
 (2) ___flsub                                              8     0      8    2039
                                             58 BANK0      8     0      8
                            ___fladd
                            ___flmul (ARG)
                             ___wmul (ARG)
                           ___xxtofl (ARG)
 ---------------------------------------------------------------------------------
 (3) ___fladd                                             20    12      8    1992
                                              0 COMMON    12     4      8
                                              0 BANK0      8     8      0
 ---------------------------------------------------------------------------------
 (2) ___flneg                                              4     0      4      46
                                              0 COMMON     4     0      4
 ---------------------------------------------------------------------------------
 (2) ___flge                                              12     4      8     184
                                              0 COMMON    12     4      8
 ---------------------------------------------------------------------------------
 (1) _Lcd_Write_String                                     2     0      2     232
                                              6 COMMON     2     0      2
                     _Lcd_Write_Char
 ---------------------------------------------------------------------------------
 (2) _Lcd_Write_Char                                       4     4      0     179
                                              2 COMMON     4     4      0
                          _I2C_Start
                           _I2C_Stop
                          _I2C_Write
 ---------------------------------------------------------------------------------
 (1) _Lcd_Set_Cursor                                       3     2      1     263
                                              6 COMMON     3     2      1
                            _Lcd_Cmd
 ---------------------------------------------------------------------------------
 (1) _Lcd_Init                                             2     2      0     179
                                              6 COMMON     2     2      0
                            _Lcd_Cmd
 ---------------------------------------------------------------------------------
 (1) _Lcd_Clear                                            2     2      0     179
                                              6 COMMON     2     2      0
                            _Lcd_Cmd
 ---------------------------------------------------------------------------------
 (2) _Lcd_Cmd                                              4     4      0     179
                                              2 COMMON     4     4      0
                          _I2C_Start
                           _I2C_Stop
                          _I2C_Write
 ---------------------------------------------------------------------------------
 (3) _I2C_Write                                            2     2      0      29
                                              0 COMMON     2     2      0
 ---------------------------------------------------------------------------------
 (3) _I2C_Stop                                             0     0      0       0
 ---------------------------------------------------------------------------------
 (3) _I2C_Start                                            0     0      0       0
 ---------------------------------------------------------------------------------
 (1) _I2C_Init_Master                                      1     1      0      87
                                              0 COMMON     1     1      0
 ---------------------------------------------------------------------------------
 (1) _DHT22_read                                          18    16      2    3634
                                             58 BANK0     18    16      2
                            ___fldiv
                            ___flmul
                           ___xxtofl
 ---------------------------------------------------------------------------------
 (2) ___xxtofl                                            14    10      4     344
                                              6 COMMON     8     4      4
                                              0 BANK0      6     6      0
                             ___wmul (ARG)
 ---------------------------------------------------------------------------------
 (2) ___flmul                                             26    18      8    1610
                                             32 BANK0     26    18      8
                          __Umul8_16
                            ___fldiv (ARG)
                           ___xxtofl (ARG)
 ---------------------------------------------------------------------------------
 (3) __Umul8_16                                            9     7      2     139
                                              0 COMMON     9     7      2
 ---------------------------------------------------------------------------------
 (2) ___fldiv                                             26    18      8    1132
                                              6 BANK0     26    18      8
                           ___xxtofl (ARG)
 ---------------------------------------------------------------------------------
 (1) _DHT22_init                                           0     0      0       0
 ---------------------------------------------------------------------------------
 Estimated maximum stack depth 6
 ---------------------------------------------------------------------------------

 Call Graph Graphs:

 _main (ROOT)
   _DHT22_init
   _DHT22_read
     ___fldiv
       ___xxtofl (ARG)
         ___wmul (ARG)
     ___flmul
       __Umul8_16
       ___fldiv (ARG)
       ___xxtofl (ARG)
     ___xxtofl
   _I2C_Init_Master
   _Lcd_Clear
     _Lcd_Cmd
       _I2C_Start
       _I2C_Stop
       _I2C_Write
   _Lcd_Init
     _Lcd_Cmd
   _Lcd_Set_Cursor
     _Lcd_Cmd
   _Lcd_Write_Char
     _I2C_Start
     _I2C_Stop
     _I2C_Write
   _Lcd_Write_String
     _Lcd_Write_Char
   _float_to_string_dht22
     ___flge
     ___flmul
     ___flneg
     ___flsub
       ___fladd
       ___flmul (ARG)
       ___wmul (ARG)
       ___xxtofl (ARG)
     ___fltol
       ___flmul (ARG)
       ___flsub (ARG)
       ___wmul (ARG)
       ___xxtofl (ARG)
     ___wmul
     ___xxtofl
     _sprintf
       _vfprintf
         _vfpfcnvrt
           ___awdiv
           ___awmod
           _abs
             ___awmod (ARG)
           _fputc
             _putch

Address spaces:
Name               Size   Autos  Total    Usage
BITCOMMON           14      0       0      0.0%
BITBANK0            80      0       0      0.0%
BITBANK1            80      0       0      0.0%
BITBANK3            96      0       0      0.0%
BITBANK2            96      0       0      0.0%
COMMON              14     14      14    100.0%
BANK0               80     79      80    100.0%
BANK1               80     19      61     76.2%
BANK3               96      0      32     33.3%
BANK2               96      0       0      0.0%
STACK                0      0       0      0.0%
DATA                 0      0     187      0.0%


Microchip Technology PIC Macro Assembler V3.10 build 20250813170317 
Symbol Table                                                                                   Wed Nov  5 12:47:53 2025

                      ___fldiv@aexp 003F                        ___fldiv@bexp 003E  
                                 pc 0002                        ___fldiv@sign 0037  
                                l34 0D56                                  l71 1618  
                                l80 1628                                  l73 161D  
                                l74 161E                                  l68 1685  
                                l77 1622                                  l79 1627  
                      ___awdiv@sign 0075                                  fsr 0004  
               ___wmul@multiplicand 0072                 __Umul8_16@word_mpld 0076  
                               l101 165A                                 l103 165E  
                               l104 1666                                 l123 17C0  
                               l126 17FF                                 l135 171B  
                               l136 171E                                 l137 1721  
                               l129 089E                                 l145 1762  
                               l139 173C                                 l148 1643  
                               l280 0F16                                 l273 160C  
                               l283 0EDE                                 l531 0958  
                               l292 0FCB                                 l700 03F1  
                               l380 16F1                                 l277 0FFF  
                               l710 043A                                 l287 0EFC  
                               l704 0417                                 l544 08F5  
                               l721 0498                                 l713 0478  
                               l722 04A4                                 l378 16D9  
                               l820 0ACA                                 l564 0A94  
                               l556 0A0F                                 l572 007E  
                               l821 0B4A                                 l725 16CC  
                               l582 007E                                 l751 01C2  
                               l735 00D4                                 l559 0A7B  
                               l832 0B14                                 l568 1633  
                               l904 09F2                                 l737 0248  
                               l833 0B20                                 l825 0AF8  
                               l841 16A8                                 l674 0275  
                               l819 0AB9                                 l683 0325  
                               l579 0069                                 l915 0008  
                               l692 04A4                                 l757 0234  
                               l781 0758                                 l685 02FE  
                               l759 0240                                 l775 07E6  
                               l679 02A6                                 l794 1777  
                               l787 07DC                                 l796 1789  
                               l892 1654                                 l885 1716  
                               l879 0C34                                 _abs 1644  
                               fsr0 0004                                 indf 0000  
                      ___awmod@sign 0075                        ___flmul@aexp 0052  
                      ___flmul@bexp 0053                        ___flmul@sign 004D  
                      ___flmul@temp 0058                        ___flmul@prod 0054  
                      ___fltol@exp1 006B                                ?_abs 0076  
                              l3001 0755                                l3011 0774  
                              l3021 07BA                                l3013 078D  
                              l3005 075D                                l3101 166E  
                              l2221 08F6                                l3031 07D7  
                              l3023 07C4                                l3007 0762  
                              l3015 0793                                l3111 1683  
                              l3103 1672                                l2231 0906  
                              l2223 08F7                                l2311 0984  
                              l2303 0959                                l3033 07DE  
                              l3025 07C6                                l3017 07A0  
                              l3009 0770                                l3041 0AA1  
                              l3201 0F00                                l3105 1675  
                              l3121 17A5                                l3113 178A  
                              l2401 0262                                l2241 0918  
                              l2233 090B                                l2225 08FB  
                              l2321 1649                                l2313 09B6  
                              l2305 095F                                l3027 07D2  
                              l3019 07AB                                l3051 0AD8  
                              l3043 0AB1                                l3211 0F1C  
                              l3203 0F02                                l3107 167B  
                              l3123 17AB                                l3115 1793  
                              l3131 1719                                l2411 0279  
                              l2403 026A                                l2251 093C  
                              l2243 091F                                l2235 090D  
                              l2227 0900                                l2307 0965  
                              l2331 0B65                                l3029 07D6  
                              l3061 0B0A                                l3053 0ADF  
                              l3045 0AC1                                l3037 0A98  
                              l3221 0FFE                                l3213 0F29  
                              l3205 0F08                                l3109 167E  
                              l3125 17B1                                l3117 1799  
                              l3141 1735                                l2501 035F  
                              l2421 0289                                l2413 027F  
                              l2405 026B                                l2261 0954  
                              l2253 093D                                l2245 0921  
                              l2237 090F                                l2229 0902  
                              l2317 1644                                l2309 096C  
                              l2341 0B95                                l2333 0B69  
                              l2325 0B4B                                l3301 0E7A  
                              l3127 1606                                l3071 0B3D  
                              l3063 0B0E                                l3055 0AE1  
                              l3039 0A9D                                l3215 0F47  
                              l3207 0F0E                                l3151 0E95  
                              l3231 163A                                l3119 179F  
                              l3143 173D                                l2503 0361  
                              l2511 0374                                l2423 028E  
                              l2431 029E                                l2415 0280  
                              l2407 026D                                l2255 0944  
                              l2247 0925                                l2239 0915  
                              l2271 08A9                                l2319 1648  
                              l2351 0BD7                                l2343 0B9A  
                              l2335 0B6F                                l2327 0B5B  
                              l3303 0E83                                l3073 0B41  
                              l3065 0B18                                l3057 0AEF  
                              l3049 0ACD                                l3217 0F4B  
                              l3209 0F10                                l3161 0EAD  
                              l3153 0E95                                l3137 1724  
                              l3129 1718                                l3145 173E  
                              l2521 03D4                                l2513 038A  
                              l2505 0365                                l2441 02B6  
                              l2433 02AC                                l2425 0293  
                              l2417 0284                                l2409 0277  
                              l2249 0936                                l2257 094A  
                              l2281 08BD                                l2273 08AB  
                              l2265 089F                                l2361 0BF5  
                              l2353 0BDD                                l2345 0B9C  
                              l2337 0B7B                                l2329 0B5F  
                              l2601 16F7                                l3081 0C38  
                              l3241 0D77                                l3233 0D57  
                              l3075 0B42                                l3067 0B22  
                              l3059 0AFF                                l3219 0F98  
                              l3171 0EBE                                l3163 0EB0  
                              l3155 0E98                                l3139 1732  
                              l3147 174C                                l2531 0407  
                              l2515 03CA                                l2523 03E3  
                              l2507 0366                                l2451 02C0  
                              l2443 02B8                                l2435 02B0  
                              l2427 029B                                l2419 0288  
                              l2259 094F                                l2291 08DA  
                              l2283 08C4                                l2275 08AF  
                              l2267 08A0                                l2363 0C09  
                              l2355 0BE2                                l2347 0BA3  
                              l2339 0B87                                l2371 0C1B  
                              l2603 1706                                l2611 168A  
                              l3091 0D0A                                l3083 0C51  
                              l3251 0DA9                                l3243 0D85  
                              l3235 0D5E                                l3069 0B38  
                              l3181 0ED2                                l3173 0EC5  
                              l3165 0EB6                                l3157 0EA3  
                              l2381 1656                                l3229 1634  
                              l3149 1752                                l2701 1629  
                              l2541 0421                                l2533 0412  
                              l2525 03F9                                l2517 03CC  
                              l2509 0371                                l2461 02CA  
                              l2453 02C2                                l2445 02BA  
                              l2437 02B2                                l2429 029C  
                              l2293 08E1                                l2285 08C6  
                              l2277 08B4                                l2269 08A4  
                              l2357 0BE7                                l2365 0C0D  
                              l2349 0BC2                                l2605 1712  
                              l2613 168E                                l3093 0D0F  
                              l3085 0C55                                l3261 0DE1  
                              l3253 0DB9                                l3245 0D8A  
                              l3237 0D64                                l3183 0ED9  
                              l3175 0ECB                                l3167 0EBC  
                              l3159 0EA6                                l2383 165F  
                              l2631 0872                                l2623 0861  
                              l2703 1631                                l2551 0431  
                              l2543 0426                                l2535 0416  
                              l2527 03FE                                l2519 03CF  
                              l2471 02E8                                l2463 02CC  
                              l2455 02C4                                l2447 02BC  
                              l2439 02B4                                l2391 024D  
                              l2711 0014                                l2287 08CA  
                              l2279 08BA                                l2295 08E7  
                              l2359 0BEC                                l2367 0C14  
                              l2615 1690                                l3095 0D33  
                              l3087 0C6C                                l3079 0C35  
                              l3271 0E0C                                l3263 0DEB  
                              l3255 0DBC                                l3247 0D92  
                              l3239 0D72                                l2801 00F3  
                              l3097 1668                                l2377 1615  
                              l2641 0892                                l2633 0877  
                              l2625 0863                                l2705 1633  
                              l2561 0452                                l2553 0437  
                              l2537 041B                                l2545 0428  
                              l2481 0312                                l2473 0302  
                              l2465 02CE                                l2457 02C6  
                              l2449 02BE                                l2393 0253  
                              l2721 0039                                l2297 08EC  
                              l2289 08D4                                l2617 1692  
                              l2609 1686                                l3089 0C95  
                              l3281 0E30                                l3273 0E12  
                              l3265 0DF3                                l3257 0DCB  
                              l3249 0D9B                                l2811 011B  
                              l2803 00F8                                l3195 0EE2  
                              l3099 166C                                l2379 161F  
                              l2651 17D1                                l2643 0899  
                              l2635 087D                                l2627 0865  
                              l2571 048A                                l2563 0456  
                              l2539 041F                                l2547 042C  
                              l2483 031D                                l2475 030B  
                              l2459 02C8                                l2467 02D0  
                              l2395 0257                                l2387 0249  
                              l2731 0047                                l2723 003B  
                              l2715 001D                                l2299 08F1  
                              l2619 169F                                l3291 0E4F  
                              l3283 0E39                                l3275 0E18  
                              l3267 0DFA                                l3259 0DDC  
                              l2821 0144                                l2813 0123  
                              l2901 04AF                                l3197 0EE9  
                              l3189 0EDC                                l2661 17EC  
                              l2653 17D3                                l2645 17C2  
                              l2637 0884                                l2629 0870  
                              l2581 049F                                l2573 048F  
                              l2565 0476                                l2557 043F  
                              l2549 042D                                l2493 0337  
                              l2477 030D                                l2485 031F  
                              l2469 02D1                                l2397 0258  
                              l2389 024B                                l2741 006E  
                              l2725 003F                                l2733 0057  
                              l2717 0030                                l2709 0009  
                              l3293 0E57                                l3285 0E3F  
                              l3277 0E20                                l3269 0E03  
                              l2831 0165                                l2823 0148  
                              l2815 012B                                l2807 0101  
                              l2751 007F                                l2591 1771  
                              l2911 04C6                                l2903 04B3  
                              l3199 0EEF                                l2663 17F3  
                              l2655 17D8                                l2647 17C4  
                              l2639 088B                                l2583 04A3  
                              l2575 0490                                l2567 047D  
                              l2559 0444                                l2495 034E  
                              l2487 0329                                l2479 0311  
                              l2399 025D                                l2743 0073  
                              l2719 0031                                l2671 16D3  
                              l3295 0E60                                l3279 0E27  
                              l3287 0E46                                l2841 0185  
                              l2833 0173                                l2825 0149  
                              l2817 012D                                l2809 0113  
                              l2761 008E                                l2753 0083  
                              l2593 1780                                l2585 1764  
                              l2921 04DB                                l2913 04C8  
                              l2905 04B4                                l2665 17FA  
                              l2657 17DE                                l2649 17C6  
                              l2681 09F3                                l2577 0494  
                              l2569 0482                                l2497 0352  
                              l2489 032E                                l2745 16A9  
                              l2673 16E0                                l3297 0E68  
                              l3289 0E4A                                l2843 018E  
                              l2851 01A2                                l2819 0132  
                              l2827 0152                                l2835 0175  
                              l2763 0093                                l2771 00A3  
                              l2755 0085                                l2595 1785  
                              l2587 1766                                l2931 04F0  
                              l2923 04DC                                l2915 04D0  
                              l2907 04B9                                l2659 17E5  
                              l2691 0A53                                l2683 0A07  
                              l2579 0496                                l2499 0356  
                              l2747 16AD                                l2739 005E  
                              l2675 16E7                                l2667 16CD  
                              l3299 0E70                                l2853 01A6  
                              l2845 0192                                l2837 017B  
                              l2829 0164                                l2781 00B7  
                              l2773 00AB                                l2765 0098  
                              l2757 0089                                l2589 176D  
                              l2941 050B                                l2933 04F8  
                              l2925 04E1                                l2917 04D3  
                              l2909 04BE                                l2693 0A57  
                              l2685 0A23                                l2677 16ED  
                              l2669 16CF                                l2871 01F7  
                              l2863 01C7                                l2855 01A7  
                              l2847 0193                                l2839 0183  
                              l2783 00BC                                l2791 00CC  
                              l2775 00AE                                l2767 00A0  
                              l2759 008D                                l2951 0587  
                              l2943 0519                                l2935 04FD  
                              l2927 04E6                                l2919 04D7  
                              l2695 0A91                                l2687 0A2B  
                              l2599 16F2                                l2881 022B  
                              l2865 01CC                                l2873 01FD  
                              l2857 01AB                                l2849 019C  
                              l2793 00DC                                l2785 00C1  
                              l2777 00B2                                l2769 00A1  
                              l2961 05F3                                l2953 05A3  
                              l2945 0526                                l2937 0502  
                              l2929 04EE                                l2697 0A93  
                              l2689 0A2F                                l2883 0233  
                              l2875 020A                                l2867 01DA  
                              l2859 01BF                                l2795 00E8  
                              l2787 00C9                                l2779 00B6  
                              l2971 067D                                l2963 0601  
                              l2955 05BF                                l2947 0541  
                              l2885 0238                                l2877 0218  
                              l2869 01DE                                l2797 00EA  
                              l2789 00CA                                l2981 070D  
                              l2973 068B                                l2965 061E  
                              l2957 05C8                                l2949 055D  
                              l2887 023C                                l2879 0227  
                              l2991 0732                                l2983 071B  
                              l2975 06B6                                l2967 0635  
                              l2959 05D6                                l2895 04A5  
                              l2889 023E                                l2985 0724  
                              l2993 0738                                l2977 06DC  
                              l2969 0652                                l2897 04A9  
                              l2995 073C                                l2987 0728  
                              l2979 0704                                l2899 04AB  
                              l2997 073D                                l2989 0729  
                              l2999 0741                                STR_1 0857  
                              STR_2 0858                                STR_3 083D  
                              STR_4 0850                                STR_5 0849  
                              STR_6 0830                                STR_7 0810  
                              STR_8 0820                                u3000 03F9  
                              u3001 03F8                                u3010 03FE  
                              u3011 03FD                                u3100 0444  
                              u3101 0443                                u3110 0456  
                              u3030 0416                                u3111 0455  
                              u3031 0415                                u3120 0467  
                              u3040 041B                                u3041 041A  
                              u3025 040B                                u3210 1785  
                              u4010 0728                                u3130 0476  
                              u3050 0426                                u2410 0936  
                              u3211 1784                                u4011 0727  
                              u3131 0475                                u3051 0425  
                              u2411 0935                                u4100 07A0  
                              u3300 0A23                                u3140 047D  
                              u3060 042C                                u2500 08D4  
                              u3220 1712                                u3205 1778  
                              u4101 079F                                u4005 071D  
                              u3301 0A22                                u3141 047C  
                              u3125 0462                                u3061 042B  
                              u2405 0926                                u2501 08D3  
                              u3221 1711                                u4110 07BA  
                              u4030 073C                                u3310 0A2F  
                              u3150 0482                                u3070 0431  
                              u2430 094A                                u2350 08FB  
                              u4111 07B9                                u4031 073B  
                              u3311 0A2E                                u3151 0481  
                              u3071 0430                                u2431 0949  
                              u2415 0932                                u2351 08FA  
                              u4120 07D6                                u4040 0741  
                              u3160 048F                                u3080 0437  
                              u3400 0046                                u2440 094F  
                              u2360 0906                                u2520 08E7  
                              u2600 0B5B                                u4121 07D5  
                              u4105 079C                                u4041 0740  
                              u4025 072B                                u3321 0A3E  
                              u3161 048E                                u3081 0436  
                              u3401 0045                                u2441 094E  
                              u2425 093E                                u2361 0905  
                              u2521 08E6                                u2505 08D0  
                              u2601 0B5A                                u4050 0755  
                              u4210 0B0E                                u4130 0A9D  
                              u3330 0A57                                u3322 0A3F  
                              u3170 0494                                u3090 043E  
                              u3250 16D3                                u2370 0915  
                              u2530 08EC                                u2450 08A4  
                              u2610 0B7B                                u4115 07B6  
                              u4051 0754                                u4211 0B0D  
                              u4131 0A9C                                u3235 0868  
                              u3331 0A56                                u3323 0A44  
                              u3171 0493                                u3091 043D  
                              u3251 16D2                                u2371 0914  
                              u2531 08EB                                u2515 08DB  
                              u2451 08A3                                u2611 0B7A  
                              u3500 00B6                                u4060 075C  
                              u4220 0B14                                u4140 0AA1  
                              u4300 1683                                u2700 161D  
                              u3324 0A45                                u3180 04A3  
                              u3420 0056                                u2460 08AF  
                              u2540 095F                                u2620 0B87  
                              u3501 00B5                                u4061 075B  
                              u4221 0B13                                u4205 0B03  
                              u4141 0AA0                                u4301 1682  
                              u2701 161C                                u3245 17C9  
                              u3341 0A66                                u3325 0A4A  
                              u3181 04A2                                u3421 0055  
                              u2461 08AE                                u2541 095E  
                              u2621 0B86                                u3510 00BC  
                              u3190 1771                                u4070 0762  
                              u4230 0B18                                u4150 0AC1  
                              u2710 1627                                u4310 1762  
                              u3350 0A91                                u3342 0A67  
                              u3326 0A4B                                u3430 005D  
                              u2390 0925                                u2470 08BA  
                              u2550 0965                                u2630 0BA1  
                              u3511 00BB                                u3191 1770  
                              u4071 0761                                u4231 0B17  
                              u4151 0AC0                                u2711 1626  
                              u4311 1761                                u3351 0A90  
                              u3343 0A6C                                u3431 005C  
                              u3415 0048                                u2391 0924  
                              u2471 08B9                                u2551 0964  
                              u2631 0B9F                                u3600 0164  
                              u3520 00C1                                u4080 0774  
                              u4240 0B2D                                u4400 0F29  
                              u4320 0EB6                                u2720 165E  
                              u3344 0A6D                                u3360 1631  
                              u2800 02AC                                u3280 16ED  
                              u2560 0984                                u2640 0BA2  
                              u3601 0163                                u3521 00C0  
                              u4081 0773                                u4401 0F28  
                              u4321 0EB5                                u2721 165D  
                              u3345 0A72                                u3361 1630  
                              u2801 02AB                                u3281 16EC  
                              u3265 16DA                                u2385 0919  
                              u2561 0983                                u3610 017B  
                              u3530 00DC                                u4090 0783  
                              u4250 0B3D                                u4170 0ADE  
                              u4410 0F4B                                u4330 0ECB  
                              u3346 0A73                                u3290 0A07  
                              u2810 02B0                                u2730 0257  
                              u3450 006E                                u3370 0014  
                              u2490 08CA                                u2570 09B6  
                              u2650 0BDD                                u3611 017A  
                              u3531 00DB                                u4251 0B3C  
                              u4171 0ADD                                u4411 0F4A  
                              u4331 0ECA                                u3355 0A8D  
                              u3291 0A06                                u2811 02AF  
                              u2731 0256                                u3451 006D  
                              u3371 0013                                u3275 16E1  
                              u2491 08C9                                u2571 09B5  
                              u2651 0BDC                                u3700 01CC  
                              u3620 0183                                u3540 00F8  
                              u4260 0B41                                u4340 0EE2  
                              u2900 032E                                u2820 02E8  
                              u2740 025D                                u3460 0073  
                              u3380 002B                                u2580 09D7  
                              u2660 0BE2                                u4420 0DB9  
                              u3701 01CB                                u3621 0182  
                              u3605 0160                                u3541 00F7  
                              u4261 0B40                                u4245 0B28  
                              u4165 0AD0                                u4341 0EE1  
                              u2901 032D                                u2821 02E7  
                              u2741 025C                                u3461 0072  
                              u3445 0060                                u2485 08BE  
                              u2661 0BE1                                u4421 0DB8  
                              u3710 01DE                                u3550 0132  
                              u3470 008D                                u4190 0AFE  
                              u4350 0EEF                                u2830 02F1  
                              u2750 0262                                u3390 003F  
                              u2590 1648                                u2670 0BE7  
                              u4270 0C51                                u4430 0E70  
                              u3711 01DD                                u3551 0131  
                              u3471 008C                                u4095 077E  
                              u4191 0AFD                                u4351 0EEE  
                              u2911 0340                                u2831 02EF  
                              u2751 0261                                u3391 003E  
                              u2591 1647                                u2575 09B2  
                              u2671 0BE6                                u4271 0C50  
                              u4431 0E6F                                u3720 01ED  
                              u3640 0192                                u3480 0093  
                              u3800 04E1                                u2920 0352  
                              u2912 0347                                u2840 02F2  
                              u2760 027F                                u2680 0BEC  
                              u4280 0D0F                                u3641 0191  
                              u3481 0092                                u3801 04E0  
                              u4185 0AF0                                u2921 0351  
                              u2913 034E                                u2825 02E4  
                              u2761 027E                                u3385 0026  
                              u2681 0BEB                                u4281 0D0E  
                              u3730 020A                                u3490 0098  
                              u3810 04E6                                u4370 0F00  
                              u4290 167B                                u2930 0356  
                              u2850 0302                                u2770 0288  
                              u2690 0C13                                u3731 0209  
                              u3635 0187                                u3491 0097  
                              u3811 04E5                                u4371 0EFF  
                              u4291 167A                                u2931 0355  
                              u2851 0301                                u2771 0287  
                              u2691 0C12                                u3740 0227  
                              u3660 01A6                                u3580 0148  
                              u3820 04FD                                u4380 0F08  
                              u4364 0EF7                                u2940 0365  
                              u2860 0311                                u2780 028E  
                              u3741 0226                                u3725 01E8  
                              u3661 01A5                                u3581 0147  
                              u3565 0134                                u3901 0610  
                              u3821 04FC                                u4381 0F07  
                              u4365 0EF5                                u2941 0364  
                              u2861 0310                                u2781 028D  
                              u3750 023C                                u3670 01AB  
                              u3902 0617                                u3830 0502  
                              u4390 0F16                                u2790 0293  
                              u3751 023B                                u3735 0206  
                              u3671 01AA                                u3655 0195  
                              u3575 013D                                u3903 061E  
                              u3831 0501                                u4391 0F15  
                              u2791 0292                                u3680 01BF  
                              u3760 04B3                                u2960 038A  
                              u2880 0325                                u3745 0223  
                              u3681 01BE                                u3921 0644  
                              u3841 054F                                u3761 04B2  
                              u2961 0389                                u2881 0324  
                              u3690 01C6                                u3922 064B  
                              u3842 0556                                u3770 04B9  
                              u2890 0329                                u3691 01C5  
                              u3595 014B                                u3931 066F  
                              u3923 0652                                u3915 0620  
                              u3851 056B                                u3843 055D  
                              u3771 04B8                                u2971 03A3  
                              u2963 0386                                u2955 036A  
                              u2891 0328                                u2875 0316  
                              u4707 0E8B                                u3932 0676  
                              u3852 0572                                u3780 04BE  
                              u2980 03B7                                u2972 03A4  
                              u3941 069A                                u3933 067D  
                              u3861 0595                                u3853 0579  
                              u3781 04BD                                u4717 178E  
                              u2981 03B8                                u2973 03A9  
                              u3950 06C2                                u3942 06A1  
                              u3862 059C                                u3790 04DB  
                              u2990 03D4                                u2982 03BD  
                              u2974 03AA                                u3943 06A8  
                              u3871 05B1                                u3863 05A3  
                              u3791 04DA                                u4727 17BB  
                              u2991 03D3                                u2983 03BE  
                              u2975 03AF                                u4647 0D6C  
                              u3872 05B8                                u2976 03B0  
                              u3961 06CE                                u3873 05BF  
                              u4737 163E                                u4657 0D7F  
                              u3970 06EA                                u3962 06D5  
                              u3963 06DC                                u3955 06BD  
                              u3891 05E5                                u4747 0E9E  
                              u4667 0DA3                                u3892 05EC  
                              u3981 06F6                                u3893 05F3  
                              u3885 05C1                                u4757 0EAA  
                              u4677 0DE7                                u3982 06FD  
                              u3983 0704                                u3975 06E5  
                              u4767 0EC2                                u4687 0DF7  
                              u4777 0ED6                                u4697 0E24  
                              u3995 0706                                u4787 0EE6  
                              _TMR0 0001                 Lcd_Write_String@str 0076  
                              abs@a 0076                   ?_Lcd_Write_String 0076  
                              _dbuf 0190                                _main 0D57  
                              _prec 00A7                                btemp 007E  
                  __end_of_I2C_Stop 1629                                start 0000  
                ??_Lcd_Write_String 0078                    ?_I2C_Init_Master 0070  
             DHT22_read@dht_humedad 005B                     ___fldiv@new_exp 0038  
                   __end_of_Lcd_Cmd 1800       __end_of_float_to_string_dht22 0D57  
                             ??_abs 0078                       ___fltol@sign1 006A  
                   __end_of___fladd 04A5                               ?_main 0070  
                   __end_of___fldiv 0249                     __end_of___awdiv 0959  
                   __end_of___flneg 1634                     __end_of___awmod 08F6  
                   __end_of___flmul 07E7                     __end_of___flsub 16CD  
                   __end_of___fltol 007F                               _ANSEL 0188  
                   ___awdiv@divisor 0070                     ___awdiv@counter 0074  
                      vfpfcnvrt@fmt 0022                      DHT22_read@bits 0063  
                      main@intentos 00D4       float_to_string_dht22@negativo 00CF  
                             _flags 00A9                               _fputc 0959  
                             btemp0 007E                               btemp1 007F  
                             _width 00A5                               _putch 0008  
                 __end_of_I2C_Start 161F                   __end_of_I2C_Write 1667  
                             pclath 000A                               status 0003  
                             wtemp0 007E                     __end_of_sprintf 16A9  
                  __end_of_Lcd_Init 17C1                     __initialization 07E7  
                      __end_of_main 0E95                              ??_main 006C  
                            ?_fputc 0070                    ___awdiv@dividend 0072  
                            ?_putch 0070                              _ANSELH 0189  
                         ??_Lcd_Cmd 0072                       vfpfcnvrt@done 0026  
                            _SSPADD 0093                              _SSPCON 0014  
                            _SSPBUF 0013                    __end_of___xxtofl 0B4B  
                      ??_DHT22_init 0070                        ??_DHT22_read 005C  
                      vfprintf@cfmt 007D                              ___flge 09F3  
                         ??___fladd 0020                              ___wmul 16CD  
                         ??___fldiv 002E                           ??___awdiv 0074  
                         ??___flneg 0074                           ??___awmod 0074  
                         ??___flmul 0048                           ??___flsub 007E  
                         ??___fltol 0066                    ___awdiv@quotient 0076  
                   ___awmod@divisor 0070                     ___awmod@counter 0074  
                            fputc@c 0070                              ltemp0a 0080  
                         ?_I2C_Stop 0070                              putch@c 0070  
                            ttemp0a 007F                    __end_of_vfprintf 1717  
                __end_of_DHT22_init 160D                  __end_of_DHT22_read 1000  
                         ??_sprintf 0037                              wtemp0a 007F  
                        ___flge@ff1 0070                          ___flge@ff2 0074  
                      ___xxtofl@arg 0022                        ___xxtofl@exp 0021  
                      ___xxtofl@val 0076             __end_of__initialization 07FC  
                        ___flneg@f1 0070                   __end_of_Lcd_Clear 1644  
                        ___fltol@f1 0062                      __pcstackCOMMON 0070  
                        _dht11_byte 00A0                       __end_of_fputc 09F3  
                     __end_of_putch 0009               DHT22_read@rawhumidity 0060  
                    _Lcd_Set_Cursor 1717                      _OPTION_REGbits 0081  
                        ??_I2C_Stop 0070                           ?_Lcd_Init 0070  
                           ??_fputc 0074                             ??_putch 0070  
                        __pbssBANK0 006F                          __pbssBANK1 00A0  
                        __pbssBANK3 0190                   __end_of__Umul8_16 178A  
          DHT22_read@rawtemperature 0068                          __pmaintext 0D57  
                           ?___flge 0070                             ?___wmul 0070  
            __end_of_Lcd_Set_Cursor 173D                           ?___xxtofl 0076  
                        _buffer_hum 00AA                          _buffer_tem 00BA  
                        ??_Lcd_Init 0076                             _SSPCON2 0091  
                           _SSPSTAT 0094                          __stringtab 0800  
                    _Lcd_Write_Char 0860                             _Lcd_Cmd 17C1  
                  DHT22_read@result 0062                           _I2C_Start 1615  
                         _I2C_Write 1655                       Lcd_Cmd@data_l 0075  
                     Lcd_Cmd@data_u 0074                             ___fladd 0249  
                           ___fldiv 007F                             ___awdiv 08F6  
                           ___flneg 1629                             ___awmod 089F  
                           ___flmul 04A5                             ___flsub 16A9  
                           ___fltol 0009                           ?_vfprintf 002D  
                   ?_Lcd_Set_Cursor 0076               _float_to_string_dht22 0C35  
                           __ptext1 0C35                             __ptext2 1686  
                           __ptext3 16F2                             __ptext4 0B4B  
                           __ptext5 0959                             __ptext6 0008  
                           __ptext7 1644                             __ptext8 089F  
                           __ptext9 08F6                          ??___xxtofl 007A  
                  ___awmod@dividend 0072                             _sprintf 1686  
                           main@hum 00D9                             clrloop0 160E  
                           main@tem 00D5              __end_of_Lcd_Write_Char 089F  
              end_of_initialization 07FC                             fputc@fp 0072  
                        ?_I2C_Start 0070                          ?_I2C_Write 0070  
                 __end_of_vfpfcnvrt 0C35                    vfpfcnvrt@convarg 0028  
                        ??_vfprintf 007D                           _PORTAbits 0005  
                       ___fladd@grs 007B                       ___xxtofl@sign 0020  
 float_to_string_dht22@parte_entera 00D2                           _TRISAbits 0085  
                         _TRISCbits 0087                         ___fldiv@grs 003A  
                       ___fldiv@rem 0033                     ?_Lcd_Write_Char 0070  
                       ___flmul@grs 004E                           _Lcd_Clear 1634  
                    __end_of___flge 0A95              ?_float_to_string_dht22 00CA  
                       vfpfcnvrt@ap 0023                         vfpfcnvrt@cp 0027  
                       vfpfcnvrt@fp 0020                      __end_of___wmul 16F2  
                  _Lcd_Write_String 173D               Lcd_Set_Cursor@address 0078  
               start_initialization 07E7                   ??_I2C_Init_Master 0070  
                       __end_of_abs 1655               I2C_Init_Master@sp_i2c 0070  
                       ??_I2C_Start 0070                         ??_I2C_Write 0070  
                       vfprintf@fmt 002F                          ?_Lcd_Clear 0070  
                          ??___flge 0078                            ??___wmul 0074  
                         __Umul8_16 1763                     Lcd_Write_Char@c 0073  
                         ___fladd@a 0074                           ___fladd@b 0070  
                         ___fldiv@a 0026                           ___fldiv@b 002A  
                         ___flmul@a 0044                           ___flmul@b 0040  
              Lcd_Write_Char@data_l 0075                Lcd_Write_Char@data_u 0074  
                         ___flsub@a 005A                           ___flsub@b 005E  
                         ___latbits 0002                       __pcstackBANK0 0020  
                     __pcstackBANK1 00CA                           _dht11_aux 006F  
                          ?_Lcd_Cmd 0070                    ??_Lcd_Set_Cursor 0077  
                          ?___fladd 0070                            ?___fldiv 0026  
                          ?___awdiv 0070                            ?___flneg 0070  
                          ?___awmod 0070                            ?___flmul 0040  
                          ?___flsub 005A                            ?___fltol 0062  
                        ?__Umul8_16 0070           DHT22_read@dht_temperatura 005A  
                         __pstrings 0800                            _I2C_Stop 161F  
                          ?_sprintf 0031                      ___wmul@product 0074  
                         clear_ram0 160D                            _PIR1bits 000C  
                       ??_Lcd_Clear 0076                           _vfpfcnvrt 0B4B  
                       __stringbase 080F                   ___wmul@multiplier 0070  
                  ??_Lcd_Write_Char 0072                         DHT22_read@i 006A  
                       DHT22_read@j 006B                            _Lcd_Init 178A  
                        vfpfcnvrt@c 002C            __end_of_Lcd_Write_String 1763  
                        _DHT22_init 1606                          _DHT22_read 0E95  
                        vfprintf@ap 0030                          vfprintf@fp 002D  
           ??_float_to_string_dht22 007E                     _I2C_Init_Master 1667  
                     I2C_Write@data 0071                         ??__Umul8_16 0072  
                        ?_vfpfcnvrt 0020                  __end_of__stringtab 0810  
                        sprintf@fmt 0032                            ___xxtofl 0A95  
                          __ptext10 16CD                            __ptext11 0009  
                          __ptext20 1634                            __ptext12 16A9  
                          __ptext21 17C1                            __ptext13 0249  
                          __ptext30 007F                            __ptext22 1655  
                          __ptext14 1629                            __ptext31 1606  
                          __ptext23 161F                            __ptext15 09F3  
                          __ptext24 1615                            __ptext16 173D  
                          __ptext25 1667                            __ptext17 0860  
                          __ptext26 0E95                            __ptext18 1717  
                          __ptext27 0A95                            __ptext19 178A  
                          __ptext28 04A5                            __ptext29 1763  
                          _vfprintf 16F2                           sprintf@ap 0038  
           __end_of_I2C_Init_Master 1686                          Lcd_Cmd@cmd 0073  
                         stringcode 080A                         ?_DHT22_init 0070  
                       ?_DHT22_read 005A                         ??_vfpfcnvrt 0024  
            __Umul8_16@multiplicand 0070                            sprintf@f 0039  
                          sprintf@s 0031                            stringdir 080A  
                          stringtab 0800                         _SSPCON2bits 0091  
                 Lcd_Set_Cursor@col 0077                   Lcd_Set_Cursor@row 0076  
                     ___fladd@signs 0078         float_to_string_dht22@buffer 00CE  
                      ___fladd@aexp 0079                        ___fladd@bexp 007A  
float_to_string_dht22@parte_decimal 00D0                __Umul8_16@multiplier 0078  
        float_to_string_dht22@value 00CA                   __Umul8_16@product 0074  
