Microchip MPLAB XC8 Compiler V3.10

Linker command line:

-W-3 \
  --edf=C:\Program Files\Microchip\xc8\v3.10\pic\dat\20250813170317_en.msgs \
  -cn -h+dist/default/production\lcd.X.production.sym \
  --cmf=dist/default/production\lcd.X.production.cmf -z -Q16F887 \
  -oC:\Users\jhona\AppData\Local\Temp\xcAs8bk.0\driver_tmp_3.o \
  --defsym=__MPLAB_BUILD=1 --fixupoverflow=error \
  -Mdist/default/production/lcd.X.production.map \
  --md=C:\Users\jhona\AppData\Local\Temp\xcAs8bk.0\driver_tmp_0.dat -E1 \
  -ver=XC8 Compiler -ACODE=00h-07FFhx4 -ASTRCODE=00h-01FFFh \
  -ASTRING=00h-0FFhx32 -ACONST=00h-0FFhx32 -AENTRY=00h-0FFhx32 \
  -ACOMMON=070h-07Fh -ABANK0=020h-06Fh -ABANK1=0A0h-0EFh \
  -ABANK2=0110h-016Fh -ABANK3=0190h-01EFh \
  -ARAM=020h-06Fh,0A0h-0EFh,0110h-016Fh,0190h-01EFh \
  -AABS1=020h-07Fh,0A0h-0EFh,0110h-016Fh,0190h-01EFh -ASFR0=00h-01Fh \
  -ASFR1=080h-09Fh -ASFR2=0100h-010Fh -ASFR3=0180h-018Fh \
  -ACONFIG=02007h-02008h -DCONFIG=2 -AIDLOC=02000h-02003h -DIDLOC=2 \
  -AEEDATA=00h-0FFh/02100h -peeprom_data=EEDATA -DEEDATA=2 -DCODE=2 \
  -DSTRCODE=2 -DSTRING=2 -DCONST=2 -DENTRY=2 \
  -preset_vec=00h,intentry,sivt,init,end_init -ppowerup=CODE -pcinit=CODE \
  -pfunctab=ENTRY -k \
  C:\Users\jhona\AppData\Local\Temp\xcAs8bk.0\driver_tmp_17.o \
  dist/default/production\lcd.X.production.o 

Object code version is 3.11

Machine type is 16F887



                Name                               Link     Load   Length Selector   Space Scale
C:\Users\jhona\AppData\Local\Temp\xcAs8bk.0\driver_tmp_17.o
                end_init                              0        0        3        0       0
                config                             2007     2007        2        0       4
dist/default/production\lcd.X.production.o
                cinit                               7EB      7EB       15      FD6       0
                config                             2007     2007        2        0       4
                text35                               53       53       13       A6       0
                text34                              F33      F33       1B     1E66       0
                text33                              EE2      EE2        B     1DC4       0
                text32                              EED      EED        B     1DDA       0
                text31                              EF8      EF8        B     1DF0       0
                text30                              EC4      EC4        A     1D88       0
                text29                              ECE      ECE        A     1D9C       0
                text28                              ED8      ED8        A     1DB0       0
                text27                              F03      F03        E     1E06       0
                text26                              36D      36D       61      6DA       0
                text25                              431      431       67      862       0
                text24                               EA       EA       39      1D4       0
                text23                              3CE      3CE       63      79C       0
                text22                              316      316       57      62C       0
                text21                               B9       B9       31      172       0
                text20                              15C      15C       41      2B8       0
                text19                              19D      19D       41      33A       0
                text18                              F4E      F4E       1F     1E9C       0
                text17                              1DE      1DE       49      3BC       0
                text16                              F11      F11       11     1E22       0
                text15                              123      123       39      246       0
                text14                              FD8      FD8       28     1FB0       0
                text13                              227      227       49      44E       0
                text12                               66       66       28       CC       0
                text11                              F22      F22       11     1E44       0
                text10                               52       52        1       A4       0
                text9                               498      498       9A      930       0
                text8                                8E       8E       2B      11C       0
                text7                               270      270       53      4E0       0
                text6                               5E8      5E8       C3      BD0       0
                text5                               FB3      FB3       25     1F66       0
                text4                               2C3      2C3       53      586       0
                text3                               532      532       B6      A64       0
                text2                               F6D      F6D       23     1EDA       0
                text1                               F90      F90       23     1F20       0
                maintext                            6AB      6AB      140      D56       0
                cstackBANK0                          20       20       47       20       1
                cstackCOMMON                         70       70        E       70       1
                cstackBANK1                          A0       A0       28       A0       1
                clrtext                             EBC      EBC        8     1D78       0
                bssBANK1                             C8       C8       22       A0       1
                bssBANK0                             67       67        9       20       1
                strings                               3        3       4B        6       0

TOTAL           Name                               Link     Load   Length     Space
        CLASS   CODE           
                end_init                              0        0        3         0
                cinit                               7EB      7EB       15         0
                text35                               53       53       13         0
                text34                              F33      F33       1B         0
                text33                              EE2      EE2        B         0
                text32                              EED      EED        B         0
                text31                              EF8      EF8        B         0
                text30                              EC4      EC4        A         0
                text29                              ECE      ECE        A         0
                text28                              ED8      ED8        A         0
                text27                              F03      F03        E         0
                text26                              36D      36D       61         0
                text25                              431      431       67         0
                text24                               EA       EA       39         0
                text23                              3CE      3CE       63         0
                text22                              316      316       57         0
                text21                               B9       B9       31         0
                text20                              15C      15C       41         0
                text19                              19D      19D       41         0
                text18                              F4E      F4E       1F         0
                text17                              1DE      1DE       49         0
                text16                              F11      F11       11         0
                text15                              123      123       39         0
                text14                              FD8      FD8       28         0
                text13                              227      227       49         0
                text12                               66       66       28         0
                text11                              F22      F22       11         0
                text10                               52       52        1         0
                text9                               498      498       9A         0
                text8                                8E       8E       2B         0
                text7                               270      270       53         0
                text6                               5E8      5E8       C3         0
                text5                               FB3      FB3       25         0
                text4                               2C3      2C3       53         0
                text3                               532      532       B6         0
                text2                               F6D      F6D       23         0
                text1                               F90      F90       23         0
                maintext                            6AB      6AB      140         0
                clrtext                             EBC      EBC        8         0

        CLASS   STRCODE        

        CLASS   STRING         
                strings                               3        3       4B         0

        CLASS   CONST          

        CLASS   ENTRY          

        CLASS   COMMON         
                cstackCOMMON                         70       70        E         1

        CLASS   BANK0          
                cstackBANK0                          20       20       47         1
                bssBANK0                             67       67        9         1

        CLASS   BANK1          
                cstackBANK1                          A0       A0       28         1
                bssBANK1                             C8       C8       22         1

        CLASS   BANK2          

        CLASS   BANK3          

        CLASS   RAM            

        CLASS   ABS1           
                abs_s1                               7E       7E        2         1

        CLASS   SFR0           

        CLASS   SFR1           

        CLASS   SFR2           

        CLASS   SFR3           

        CLASS   CONFIG         
                config                             2007     2007        2         4

        CLASS   IDLOC          

        CLASS   EEDATA         

        CLASS   HEAP           

        CLASS   STACK          



SEGMENTS        Name                           Load    Length   Top    Selector   Space  Class     Delta

                reset_vec                      000000  000003  000003         0       0  CODE        2
                strings                        000003  00004B  00004E         6       0  STRING      2
                cstackBANK0                    000020  000050  000070        20       1  BANK0       1
                cstackCOMMON                   000070  00000E  00007E        70       1  COMMON      1
                cstackBANK1                    0000A0  00004A  0000EA        A0       1  BANK1       1
                text10                         000052  000001  000053        A4       0  CODE        2
                text35                         000053  000013  000066        A6       0  CODE        2
                text12                         000066  000028  00008E        CC       0  CODE        2
                text8                          00008E  00002B  0000B9       11C       0  CODE        2
                text21                         0000B9  000031  0000EA       172       0  CODE        2
                text24                         0000EA  000039  000123       1D4       0  CODE        2
                text15                         000123  000039  00015C       246       0  CODE        2
                text20                         00015C  000041  00019D       2B8       0  CODE        2
                text19                         00019D  000041  0001DE       33A       0  CODE        2
                text17                         0001DE  000049  000227       3BC       0  CODE        2
                text13                         000227  000049  000270       44E       0  CODE        2
                text7                          000270  000053  0002C3       4E0       0  CODE        2
                text4                          0002C3  000053  000316       586       0  CODE        2
                text22                         000316  000057  00036D       62C       0  CODE        2
                text26                         00036D  000061  0003CE       6DA       0  CODE        2
                text23                         0003CE  000063  000431       79C       0  CODE        2
                text25                         000431  000067  000498       862       0  CODE        2
                text9                          000498  00009A  000532       930       0  CODE        2
                text3                          000532  0000B6  0005E8       A64       0  CODE        2
                text6                          0005E8  0000C3  0006AB       BD0       0  CODE        2
                maintext                       0006AB  000140  0007EB       D56       0  CODE        2
                cinit                          0007EB  000015  000800       FD6       0  CODE        2
                clrtext                        000EBC  000008  000EC4      1D78       0  CODE        2
                text30                         000EC4  00000A  000ECE      1D88       0  CODE        2
                text29                         000ECE  00000A  000ED8      1D9C       0  CODE        2
                text28                         000ED8  00000A  000EE2      1DB0       0  CODE        2
                text33                         000EE2  00000B  000EED      1DC4       0  CODE        2
                text32                         000EED  00000B  000EF8      1DDA       0  CODE        2
                text31                         000EF8  00000B  000F03      1DF0       0  CODE        2
                text27                         000F03  00000E  000F11      1E06       0  CODE        2
                text16                         000F11  000011  000F22      1E22       0  CODE        2
                text11                         000F22  000011  000F33      1E44       0  CODE        2
                text34                         000F33  00001B  000F4E      1E66       0  CODE        2
                text18                         000F4E  00001F  000F6D      1E9C       0  CODE        2
                text2                          000F6D  000023  000F90      1EDA       0  CODE        2
                text1                          000F90  000023  000FB3      1F20       0  CODE        2
                text5                          000FB3  000025  000FD8      1F66       0  CODE        2
                text14                         000FD8  000028  001000      1FB0       0  CODE        2


UNUSED ADDRESS RANGES

        Name                Unused          Largest block    Delta
        BANK1            00EA-00EF              6           1
        BANK2            0110-016F             60           1
        BANK3            0190-01EF             60           1
        CODE             004E-0051              4           2
                         0800-0EBB            6BC
                         1000-1FFF            800
        CONST            004E-0051              4           2
                         0800-0EBB            100
                         1000-1FFF            100
        EEDATA           2100-21FF            100           2
        ENTRY            004E-0051              4           2
                         0800-0EBB            100
                         1000-1FFF            100
        IDLOC            2000-2003              4           2
        RAM              00EA-00EF              6           1
                         0110-016F             60
                         0190-01EF             60
        SFR0             0000-001F             20           1
        SFR1             0080-009F             20           1
        SFR2             0100-010F             10           1
        SFR3             0180-018F             10           1
        STRCODE          004E-0051              4           2
                         0800-0EBB            6BC
                         1000-1FFF           1000
        STRING           004E-0051              4           2
                         0800-0EBB            100
                         1000-1FFF            100

                                  Symbol Table

?___awdiv                   cstackCOMMON 0070
?___awmod                   cstackCOMMON 0070
?___wmul                    cstackCOMMON 0070
?_abs                       cstackCOMMON 0076
?_read_prec_or_width        cstackCOMMON 0076
?_sprintf                   cstackBANK0  004C
?_vfprintf                  cstackBANK0  0047
BCD_To_Dec@bcd_byte         cstackCOMMON 0076
BCD_To_Dec@decenas          cstackCOMMON 0074
BCD_To_Dec@unidades         cstackCOMMON 0075
DS1307_GetDate@day          cstackBANK0  0020
DS1307_GetDate@month        cstackBANK0  0021
DS1307_GetDate@year         cstackBANK0  0022
DS1307_GetTime@hour         cstackBANK0  0020
DS1307_GetTime@min          cstackBANK0  0021
DS1307_GetTime@sec          cstackBANK0  0022
DS1307_GetTime@temp         cstackBANK0  0023
DS1307_SetDate@day          cstackBANK0  0022
DS1307_SetDate@month        cstackBANK0  0020
DS1307_SetDate@year         cstackBANK0  0021
DS1307_SetTime@hour         cstackBANK0  0022
DS1307_SetTime@min          cstackBANK0  0020
DS1307_SetTime@sec          cstackBANK0  0021
Dec_To_BCD@dec_byte         cstackCOMMON 007C
Dec_To_BCD@decenas          cstackCOMMON 007A
Dec_To_BCD@unidades         cstackCOMMON 007B
I2C_Init_Master@sp_i2c      cstackCOMMON 0070
I2C_Write@data              cstackCOMMON 007D
Lcd_Cmd@cmd                 cstackBANK0  0021
Lcd_Cmd@data_l              cstackBANK0  0023
Lcd_Cmd@data_u              cstackBANK0  0022
Lcd_Set_Cursor@address      cstackBANK0  0026
Lcd_Set_Cursor@col          cstackBANK0  0025
Lcd_Set_Cursor@row          cstackBANK0  0024
Lcd_Write_Char@c            cstackBANK0  0021
Lcd_Write_Char@data_l       cstackBANK0  0023
Lcd_Write_Char@data_u       cstackBANK0  0022
Lcd_Write_String@str        cstackBANK0  0024
_ANSEL                      (abs)        0188
_ANSELH                     (abs)        0189
_BCD_To_Dec                 text34       0F33
_DS1307_GetDate             text26       036D
_DS1307_GetTime             text25       0431
_DS1307_Init                text24       00EA
_DS1307_SetDate             text20       015C
_DS1307_SetTime             text19       019D
_Dec_To_BCD                 text21       00B9
_I2C_Ack                    text33       0EE2
_I2C_Init_Master            text18       0F4E
_I2C_Nack                   text32       0EED
_I2C_Read                   text31       0EF8
_I2C_Restart                text30       0EC4
_I2C_Start                  text29       0ECE
_I2C_Stop                   text28       0ED8
_I2C_Write                  text27       0F03
_Lcd_Clear                  text16       0F11
_Lcd_Cmd                    text17       01DE
_Lcd_Init                   text15       0123
_Lcd_Set_Cursor             text14       0FD8
_Lcd_Write_Char             text13       0227
_Lcd_Write_String           text12       0066
_OPTION_REGbits             (abs)        0081
_PIR1bits                   (abs)        000C
_PORTAbits                  (abs)        0005
_SSPADD                     (abs)        0093
_SSPBUF                     (abs)        0013
_SSPCON                     (abs)        0014
_SSPCON2                    (abs)        0091
_SSPCON2bits                (abs)        0091
_SSPSTAT                    (abs)        0094
_TMR0                       (abs)        0001
_TRISAbits                  (abs)        0085
_TRISCbits                  (abs)        0087
__H__absolute__             __absolute__ 0000
__Habs1                     abs1         0000
__Hbank0                    bank0        0000
__Hbank1                    bank1        0000
__Hbank2                    bank2        0000
__Hbank3                    bank3        0000
__HbssBANK0                 bssBANK0     0000
__HbssBANK1                 bssBANK1     0000
__Hcinit                    cinit        0800
__Hclrtext                  clrtext      0000
__Hcode                     code         0000
__Hcommon                   common       0000
__Hconfig                   config       2009
__HcstackBANK0              cstackBANK0  0000
__HcstackBANK1              cstackBANK1  0000
__HcstackCOMMON             cstackCOMMON 0000
__Heeprom_data              eeprom_data  0000
__Hend_init                 end_init     0003
__Hfunctab                  functab      0000
__Hheap                     heap         0000
__Hinit                     init         0000
__Hintentry                 intentry     0000
__Hmaintext                 maintext     0000
__Hpowerup                  powerup      0000
__Hram                      ram          0000
__Hreset_vec                reset_vec    0000
__Hsfr0                     sfr0         0000
__Hsfr1                     sfr1         0000
__Hsfr2                     sfr2         0000
__Hsfr3                     sfr3         0000
__Hsivt                     sivt         0000
__Hspace_0                  (abs)        1000
__Hspace_1                  (abs)        00EA
__Hspace_2                  (abs)        0000
__Hspace_3                  (abs)        0000
__Hspace_4                  (abs)        4010
__Hstack                    stack        0000
__Hstrings                  strings      0000
__Htext                     text         0000
__L__absolute__             __absolute__ 0000
__Labs1                     abs1         0000
__Lbank0                    bank0        0000
__Lbank1                    bank1        0000
__Lbank2                    bank2        0000
__Lbank3                    bank3        0000
__LbssBANK0                 bssBANK0     0000
__LbssBANK1                 bssBANK1     0000
__Lcinit                    cinit        07EB
__Lclrtext                  clrtext      0000
__Lcode                     code         0000
__Lcommon                   common       0000
__Lconfig                   config       0000
__LcstackBANK0              cstackBANK0  0000
__LcstackBANK1              cstackBANK1  0000
__LcstackCOMMON             cstackCOMMON 0000
__Leeprom_data              eeprom_data  0000
__Lend_init                 end_init     0000
__Lfunctab                  functab      0000
__Lheap                     heap         0000
__Linit                     init         0000
__Lintentry                 intentry     0000
__Lmaintext                 maintext     0000
__Lpowerup                  powerup      0000
__Lram                      ram          0000
__Lreset_vec                reset_vec    0000
__Lsfr0                     sfr0         0000
__Lsfr1                     sfr1         0000
__Lsfr2                     sfr2         0000
__Lsfr3                     sfr3         0000
__Lsivt                     sivt         0000
__Lspace_0                  (abs)        0000
__Lspace_1                  (abs)        0000
__Lspace_2                  (abs)        0000
__Lspace_3                  (abs)        0000
__Lspace_4                  (abs)        0000
__Lstack                    stack        0000
__Lstrings                  strings      0000
__Ltext                     text         0000
__S0                        (abs)        1000
__S1                        (abs)        00EA
__S3                        (abs)        0000
___awdiv                    text23       03CE
___awdiv@counter            cstackCOMMON 0074
___awdiv@dividend           cstackCOMMON 0072
___awdiv@divisor            cstackCOMMON 0070
___awdiv@quotient           cstackCOMMON 0076
___awdiv@sign               cstackCOMMON 0075
___awmod                    text22       0316
___awmod@counter            cstackCOMMON 0074
___awmod@dividend           cstackCOMMON 0072
___awmod@divisor            cstackCOMMON 0070
___awmod@sign               cstackCOMMON 0075
___bmul                     text35       0053
___bmul@multiplicand        cstackCOMMON 0070
___bmul@multiplier          cstackCOMMON 0072
___bmul@product             cstackCOMMON 0071
___heap_hi                  (abs)        0000
___heap_lo                  (abs)        0000
___int_sp                   stack        0000
___int_stack_hi             stack        0000
___int_stack_lo             stack        0000
___latbits                  (abs)        0002
___sp                       stack        0000
___stack_hi                 stack        0000
___stack_lo                 stack        0000
___stackhi                  (abs)        0000
___stacklo                  (abs)        0000
___wmul                     text5        0FB3
___wmul@multiplicand        cstackCOMMON 0072
___wmul@multiplier          cstackCOMMON 0070
___wmul@product             cstackCOMMON 0074
__end_of_BCD_To_Dec         text34       0F4E
__end_of_DS1307_GetDate     text26       03CE
__end_of_DS1307_GetTime     text25       0498
__end_of_DS1307_Init        text24       0123
__end_of_DS1307_SetDate     text20       019D
__end_of_DS1307_SetTime     text19       01DE
__end_of_Dec_To_BCD         text21       00EA
__end_of_I2C_Ack            text33       0EED
__end_of_I2C_Init_Master    text18       0F6D
__end_of_I2C_Nack           text32       0EF8
__end_of_I2C_Read           text31       0F03
__end_of_I2C_Restart        text30       0ECE
__end_of_I2C_Start          text29       0ED8
__end_of_I2C_Stop           text28       0EE2
__end_of_I2C_Write          text27       0F11
__end_of_Lcd_Clear          text16       0F22
__end_of_Lcd_Cmd            text17       0227
__end_of_Lcd_Init           text15       015C
__end_of_Lcd_Set_Cursor     text14       1000
__end_of_Lcd_Write_Char     text13       0270
__end_of_Lcd_Write_String   text12       008E
__end_of___awdiv            text23       0431
__end_of___awmod            text22       036D
__end_of___bmul             text35       0066
__end_of___wmul             text5        0FD8
__end_of__initialization    cinit        07FC
__end_of__stringtab         strings      0013
__end_of_abs                text11       0F33
__end_of_dtoa               text6        06AB
__end_of_fputc              text9        0532
__end_of_fputs              text8        00B9
__end_of_main               maintext     07EB
__end_of_pad                text7        02C3
__end_of_putch              text10       0053
__end_of_read_prec_or_width text4        0316
__end_of_sprintf            text1        0FB3
__end_of_vfpfcnvrt          text3        05E8
__end_of_vfprintf           text2        0F90
__initialization            cinit        07EB
__pbssBANK0                 bssBANK0     0067
__pbssBANK1                 bssBANK1     00C8
__pcstackBANK0              cstackBANK0  0020
__pcstackBANK1              cstackBANK1  00A0
__pcstackCOMMON             cstackCOMMON 0070
__pmaintext                 maintext     06AB
__pstrings                  strings      0003
__ptext1                    text1        0F90
__ptext10                   text10       0052
__ptext11                   text11       0F22
__ptext12                   text12       0066
__ptext13                   text13       0227
__ptext14                   text14       0FD8
__ptext15                   text15       0123
__ptext16                   text16       0F11
__ptext17                   text17       01DE
__ptext18                   text18       0F4E
__ptext19                   text19       019D
__ptext2                    text2        0F6D
__ptext20                   text20       015C
__ptext21                   text21       00B9
__ptext22                   text22       0316
__ptext23                   text23       03CE
__ptext24                   text24       00EA
__ptext25                   text25       0431
__ptext26                   text26       036D
__ptext27                   text27       0F03
__ptext28                   text28       0ED8
__ptext29                   text29       0ECE
__ptext3                    text3        0532
__ptext30                   text30       0EC4
__ptext31                   text31       0EF8
__ptext32                   text32       0EED
__ptext33                   text33       0EE2
__ptext34                   text34       0F33
__ptext35                   text35       0053
__ptext4                    text4        02C3
__ptext5                    text5        0FB3
__ptext6                    text6        05E8
__ptext7                    text7        0270
__ptext8                    text8        008E
__ptext9                    text9        0498
__stringbase                strings      0012
__stringtab                 strings      0003
_abs                        text11       0F22
_dbuf                       bssBANK1     00CA
_dht11_aux                  bssBANK0     006F
_dht11_byte                 bssBANK0     0067
_dtoa                       text6        05E8
_dtoa$911                   cstackBANK0  0033
_flags                      bssBANK0     006E
_fputc                      text9        0498
_fputs                      text8        008E
_main                       maintext     06AB
_pad                        text7        0270
_prec                       bssBANK1     00C8
_putch                      text10       0052
_read_prec_or_width         text4        02C3
_sprintf                    text1        0F90
_vfpfcnvrt                  text3        0532
_vfprintf                   text2        0F6D
_width                      bssBANK0     006C
abs@a                       cstackCOMMON 0076
btemp                       (abs)        007E
btemp0                      (abs)        007E
btemp1                      (abs)        007F
clear_ram0                  clrtext      0EBC
dtoa@d                      cstackBANK0  0031
dtoa@fp                     cstackBANK0  002F
dtoa@i                      cstackBANK0  0039
dtoa@p                      cstackBANK0  0035
dtoa@s                      cstackBANK0  0038
dtoa@w                      cstackBANK0  0036
end_of_initialization       cinit        07FC
fputc@c                     cstackCOMMON 0070
fputc@fp                    cstackCOMMON 0072
fputs@c                     cstackBANK0  0025
fputs@fp                    cstackBANK0  0021
fputs@i                     cstackBANK0  0026
fputs@s                     cstackBANK0  0020
intlevel0                   functab      0000
intlevel1                   functab      0000
intlevel2                   functab      0000
intlevel3                   functab      0000
intlevel4                   functab      0000
intlevel5                   functab      0000
ltemp0a                     (abs)        0080
main@ano                    cstackBANK1  00C7
main@dia                    cstackBANK1  00C5
main@hora                   cstackBANK1  00C2
main@linea1                 cstackBANK1  00A0
main@linea2                 cstackBANK1  00B1
main@mes                    cstackBANK1  00C6
main@min                    cstackBANK1  00C3
main@seg                    cstackBANK1  00C4
pad@buf                     cstackBANK0  002A
pad@fp                      cstackBANK0  0028
pad@i                       cstackBANK0  002D
pad@p                       cstackBANK0  002B
read_prec_or_width@ap       cstackCOMMON 0077
read_prec_or_width@c        cstackCOMMON 0078
read_prec_or_width@fmt      cstackCOMMON 0076
read_prec_or_width@n        cstackCOMMON 0079
reset_vec                   reset_vec    0000
sprintf@ap                  cstackBANK0  0055
sprintf@f                   cstackBANK0  0056
sprintf@fmt                 cstackBANK0  004D
sprintf@s                   cstackBANK0  004C
start                       init         0000
start_initialization        cinit        07EB
ttemp0a                     (abs)        007F
vfpfcnvrt@ap                cstackBANK0  003E
vfpfcnvrt@convarg           cstackBANK0  0041
vfpfcnvrt@cp                cstackBANK0  0046
vfpfcnvrt@done              cstackBANK0  0045
vfpfcnvrt@fmt               cstackBANK0  003D
vfpfcnvrt@fp                cstackBANK0  003B
vfprintf@ap                 cstackBANK0  004A
vfprintf@cfmt               cstackBANK0  004B
vfprintf@fmt                cstackBANK0  0049
vfprintf@fp                 cstackBANK0  0047
wtemp0                      (abs)        007E
wtemp0a                     (abs)        007F


MODULE INFORMATION

Module		Function		Class		Link	Load	Size
C:\Program Files\Microchip\xc8\v3.10\pic\sources\c99\common\awmod.c
		___awmod       		CODE           	0316	0000	87

C:\Program Files\Microchip\xc8\v3.10\pic\sources\c99\common\awmod.c estimated size: 87

C:\Program Files\Microchip\xc8\v3.10\pic\sources\c99\common\putch.c
		_putch         		CODE           	0052	0000	1

C:\Program Files\Microchip\xc8\v3.10\pic\sources\c99\common\putch.c estimated size: 1

C:\Program Files\Microchip\xc8\v3.10\pic\sources\c99\common\abs.c
		_abs           		CODE           	0F22	0000	17

C:\Program Files\Microchip\xc8\v3.10\pic\sources\c99\common\abs.c estimated size: 17

C:\Program Files\Microchip\xc8\v3.10\pic\sources\c99\common\nf_fputs.c
		_fputs         		CODE           	008E	0000	43

C:\Program Files\Microchip\xc8\v3.10\pic\sources\c99\common\nf_fputs.c estimated size: 43

i2c.c
		_I2C_Init_Master		CODE           	0F4E	0000	31
		_I2C_Write     		CODE           	0F03	0000	14
		_I2C_Stop      		CODE           	0ED8	0000	10
		_I2C_Read      		CODE           	0EF8	0000	11
		_I2C_Ack       		CODE           	0EE2	0000	11
		_I2C_Nack      		CODE           	0EED	0000	11
		_I2C_Start     		CODE           	0ECE	0000	10
		_I2C_Restart   		CODE           	0EC4	0000	10

i2c.c estimated size: 108

lcd_i2c.c
		_Lcd_Write_String		CODE           	0066	0000	40
		_Lcd_Init      		CODE           	0123	0000	57
		_Lcd_Write_Char		CODE           	0227	0000	73
		_Lcd_Cmd       		CODE           	01DE	0000	73
		_Lcd_Set_Cursor		CODE           	0FD8	0000	40
		_Lcd_Clear     		CODE           	0F11	0000	17

lcd_i2c.c estimated size: 300

ds1307.c
		_BCD_To_Dec    		CODE           	0F33	0000	27
		_Dec_To_BCD    		CODE           	00B9	0000	49
		_DS1307_Init   		CODE           	00EA	0000	57
		_DS1307_GetDate		CODE           	036D	0000	97
		_DS1307_SetDate		CODE           	015C	0000	65
		_DS1307_GetTime		CODE           	0431	0000	103
		_DS1307_SetTime		CODE           	019D	0000	65

ds1307.c estimated size: 463

C:\Program Files\Microchip\xc8\v3.10\pic\sources\c99\common\awdiv.c
		___awdiv       		CODE           	03CE	0000	99

C:\Program Files\Microchip\xc8\v3.10\pic\sources\c99\common\awdiv.c estimated size: 99

C:\Program Files\Microchip\xc8\v3.10\pic\sources\c99\common\Umul8.c
		___bmul        		CODE           	0053	0000	19

C:\Program Files\Microchip\xc8\v3.10\pic\sources\c99\common\Umul8.c estimated size: 19

C:\Program Files\Microchip\xc8\v3.10\pic\sources\c99\common\nf_sprintf.c
		_sprintf       		CODE           	0F90	0000	35

C:\Program Files\Microchip\xc8\v3.10\pic\sources\c99\common\nf_sprintf.c estimated size: 35

shared
		__stringtab    		STRING         	0003	0000	16
		__initialization		CODE           	07EB	0000	17

shared estimated size: 33

C:\Program Files\Microchip\xc8\v3.10\pic\sources\c99\common\nf_fputc.c
		_fputc         		CODE           	0498	0000	154

C:\Program Files\Microchip\xc8\v3.10\pic\sources\c99\common\nf_fputc.c estimated size: 154

lcd.c
		_main          		CODE           	06AB	0000	320

lcd.c estimated size: 320

C:\Program Files\Microchip\xc8\v3.10\pic\sources\c99\common\doprnt.c
		_read_prec_or_width		CODE           	02C3	0000	83
		_vfpfcnvrt     		CODE           	0532	0000	182
		_pad           		CODE           	0270	0000	83
		_dtoa          		CODE           	05E8	0000	195
		_vfprintf      		CODE           	0F6D	0000	35

C:\Program Files\Microchip\xc8\v3.10\pic\sources\c99\common\doprnt.c estimated size: 578

C:\Program Files\Microchip\xc8\v3.10\pic\sources\c99\common\Umul16.c
		___wmul        		CODE           	0FB3	0000	37

C:\Program Files\Microchip\xc8\v3.10\pic\sources\c99\common\Umul16.c estimated size: 37

