Microchip MPLAB XC8 Compiler V3.10

Linker command line:

-W-3 \
  --edf=C:\Program Files\Microchip\xc8\v3.10\pic\dat\20250813170317_en.msgs \
  -cn -h+dist/default/production\lcd.X.production.sym \
  --cmf=dist/default/production\lcd.X.production.cmf -z -Q16F887 \
  -oC:\Users\jhona\AppData\Local\Temp\xcAs6ko.0\driver_tmp_3.o \
  --defsym=__MPLAB_BUILD=1 --fixupoverflow=error \
  -Mdist/default/production/lcd.X.production.map \
  --md=C:\Users\jhona\AppData\Local\Temp\xcAs6ko.0\driver_tmp_0.dat -E1 \
  -ver=XC8 Compiler -ACODE=00h-07FFhx4 -ASTRCODE=00h-01FFFh \
  -ASTRING=00h-0FFhx32 -ACONST=00h-0FFhx32 -AENTRY=00h-0FFhx32 \
  -ACOMMON=070h-07Fh -ABANK0=020h-06Fh -ABANK1=0A0h-0EFh \
  -ABANK2=0110h-016Fh -ABANK3=0190h-01EFh \
  -ARAM=020h-06Fh,0A0h-0EFh,0110h-016Fh,0190h-01EFh \
  -AABS1=020h-07Fh,0A0h-0EFh,0110h-016Fh,0190h-01EFh -ASFR0=00h-01Fh \
  -ASFR1=080h-09Fh -ASFR2=0100h-010Fh -ASFR3=0180h-018Fh \
  -ACONFIG=02007h-02008h -DCONFIG=2 -AIDLOC=02000h-02003h -DIDLOC=2 \
  -AEEDATA=00h-0FFh/02100h -peeprom_data=EEDATA -DEEDATA=2 -DCODE=2 \
  -DSTRCODE=2 -DSTRING=2 -DCONST=2 -DENTRY=2 \
  -preset_vec=00h,intentry,sivt,init,end_init -ppowerup=CODE -pcinit=CODE \
  -pfunctab=ENTRY -k \
  C:\Users\jhona\AppData\Local\Temp\xcAs6ko.0\driver_tmp_17.o \
  dist/default/production\lcd.X.production.o 

Object code version is 3.11

Machine type is 16F887



                Name                               Link     Load   Length Selector   Space Scale
C:\Users\jhona\AppData\Local\Temp\xcAs6ko.0\driver_tmp_17.o
                end_init                              0        0        3        0       0
                config                             2007     2007        1        0       4
dist/default/production\lcd.X.production.o
                cinit                               7E7      7E7       19      FCE       0
                config                             2007     2007        1        0       4
                text31                             1606     1606        7     2C0C       0
                text30                               7F       7F      1CA       FE       0
                text29                             1763     1763       27     2EC6       0
                text28                              4A5      4A5      342      94A       0
                text27                              A95      A95       B6     152A       0
                text26                              E95      E95      16B     1D2A       0
                text25                             1667     1667       1F     2CCE       0
                text24                             1615     1615        A     2C2A       0
                text23                             161F     161F        A     2C3E       0
                text22                             1655     1655       12     2CAA       0
                text21                             17C1     17C1       3F     2F82       0
                text20                             1634     1634       10     2C68       0
                text19                             178A     178A       37     2F14       0
                text18                             1717     1717       26     2E2E       0
                text17                              860      860       3F     10C0       0
                text16                             173D     173D       26     2E7A       0
                text15                              9F3      9F3       A2     13E6       0
                text14                             1629     1629        B     2C52       0
                text13                              249      249      25C      492       0
                text12                             16A9     16A9       24     2D52       0
                text11                                9        9       76       12       0
                text10                             16CD     16CD       25     2D9A       0
                text9                               8F6      8F6       63     11EC       0
                text8                               89F      89F       57     113E       0
                text7                              1644     1644       11     2C88       0
                text6                                 8        8        1       10       0
                text5                               959      959       9A     12B2       0
                text4                               B4B      B4B       EA     1696       0
                text3                              16F2     16F2       25     2DE4       0
                text2                              1686     1686       23     2D0C       0
                text1                               C35      C35      122     186A       0
                maintext                            D57      D57      13E     1AAE       0
                cstackBANK0                          20       20       4F       20       1
                cstackCOMMON                         70       70        E       70       1
                cstackBANK1                          CA       CA       13       A0       1
                clrtext                            160D     160D        8     2C1A       0
                bssBANK3                            190      190       20      190       1
                bssBANK1                             A0       A0       2A       A0       1
                bssBANK0                             6F       6F        1       20       1
                strings                             800      800       5E     1000       0

TOTAL           Name                               Link     Load   Length     Space
        CLASS   CODE           
                end_init                              0        0        3         0
                cinit                               7E7      7E7       19         0
                text31                             1606     1606        7         0
                text30                               7F       7F      1CA         0
                text29                             1763     1763       27         0
                text28                              4A5      4A5      342         0
                text27                              A95      A95       B6         0
                text26                              E95      E95      16B         0
                text25                             1667     1667       1F         0
                text24                             1615     1615        A         0
                text23                             161F     161F        A         0
                text22                             1655     1655       12         0
                text21                             17C1     17C1       3F         0
                text20                             1634     1634       10         0
                text19                             178A     178A       37         0
                text18                             1717     1717       26         0
                text17                              860      860       3F         0
                text16                             173D     173D       26         0
                text15                              9F3      9F3       A2         0
                text14                             1629     1629        B         0
                text13                              249      249      25C         0
                text12                             16A9     16A9       24         0
                text11                                9        9       76         0
                text10                             16CD     16CD       25         0
                text9                               8F6      8F6       63         0
                text8                               89F      89F       57         0
                text7                              1644     1644       11         0
                text6                                 8        8        1         0
                text5                               959      959       9A         0
                text4                               B4B      B4B       EA         0
                text3                              16F2     16F2       25         0
                text2                              1686     1686       23         0
                text1                               C35      C35      122         0
                maintext                            D57      D57      13E         0
                clrtext                            160D     160D        8         0

        CLASS   STRCODE        

        CLASS   STRING         
                strings                             800      800       5E         0

        CLASS   CONST          

        CLASS   ENTRY          

        CLASS   COMMON         
                cstackCOMMON                         70       70        E         1

        CLASS   BANK0          
                cstackBANK0                          20       20       4F         1
                bssBANK0                             6F       6F        1         1

        CLASS   BANK1          
                cstackBANK1                          CA       CA       13         1
                bssBANK1                             A0       A0       2A         1

        CLASS   BANK2          

        CLASS   BANK3          
                bssBANK3                            190      190       20         1

        CLASS   RAM            

        CLASS   ABS1           
                abs_s1                               7E       7E        2         1

        CLASS   SFR0           

        CLASS   SFR1           

        CLASS   SFR2           

        CLASS   SFR3           

        CLASS   CONFIG         
                config                             2007     2007        1         4

        CLASS   IDLOC          

        CLASS   EEDATA         

        CLASS   HEAP           

        CLASS   STACK          



SEGMENTS        Name                           Load    Length   Top    Selector   Space  Class     Delta

                reset_vec                      000000  000003  000003         0       0  CODE        2
                text6                          000008  000001  000009        10       0  CODE        2
                text11                         000009  000076  00007F        12       0  CODE        2
                cstackBANK0                    000020  000050  000070        20       1  BANK0       1
                cstackCOMMON                   000070  00000E  00007E        70       1  COMMON      1
                bssBANK1                       0000A0  00003D  0000DD        A0       1  BANK1       1
                text30                         00007F  0001CA  000249        FE       0  CODE        2
                bssBANK3                       000190  000020  0001B0       190       1  BANK3       1
                text13                         000249  00025C  0004A5       492       0  CODE        2
                text28                         0004A5  000342  0007E7       94A       0  CODE        2
                cinit                          0007E7  000019  000800       FCE       0  CODE        2
                strings                        000800  00005E  00085E      1000       0  STRING      2
                text17                         000860  00003F  00089F      10C0       0  CODE        2
                text8                          00089F  000057  0008F6      113E       0  CODE        2
                text9                          0008F6  000063  000959      11EC       0  CODE        2
                text5                          000959  00009A  0009F3      12B2       0  CODE        2
                text15                         0009F3  0000A2  000A95      13E6       0  CODE        2
                text27                         000A95  0000B6  000B4B      152A       0  CODE        2
                text4                          000B4B  0000EA  000C35      1696       0  CODE        2
                text1                          000C35  000122  000D57      186A       0  CODE        2
                maintext                       000D57  00013E  000E95      1AAE       0  CODE        2
                text26                         000E95  00016B  001000      1D2A       0  CODE        2
                text31                         001606  000007  00160D      2C0C       0  CODE        2
                clrtext                        00160D  000008  001615      2C1A       0  CODE        2
                text24                         001615  00000A  00161F      2C2A       0  CODE        2
                text23                         00161F  00000A  001629      2C3E       0  CODE        2
                text14                         001629  00000B  001634      2C52       0  CODE        2
                text20                         001634  000010  001644      2C68       0  CODE        2
                text7                          001644  000011  001655      2C88       0  CODE        2
                text22                         001655  000012  001667      2CAA       0  CODE        2
                text25                         001667  00001F  001686      2CCE       0  CODE        2
                text2                          001686  000023  0016A9      2D0C       0  CODE        2
                text12                         0016A9  000024  0016CD      2D52       0  CODE        2
                text10                         0016CD  000025  0016F2      2D9A       0  CODE        2
                text3                          0016F2  000025  001717      2DE4       0  CODE        2
                text18                         001717  000026  00173D      2E2E       0  CODE        2
                text16                         00173D  000026  001763      2E7A       0  CODE        2
                text29                         001763  000027  00178A      2EC6       0  CODE        2
                text19                         00178A  000037  0017C1      2F14       0  CODE        2
                text21                         0017C1  00003F  001800      2F82       0  CODE        2


UNUSED ADDRESS RANGES

        Name                Unused          Largest block    Delta
        BANK1            00DD-00EF             13           1
        BANK2            0110-016F             60           1
        BANK3            01B0-01EF             40           1
        CODE             0003-0007              5           2
                         085E-085F              2
                         1000-1605            606
                         1800-1FFF            800
        CONFIG           2008-2008              1           2
        CONST            0003-0007              5           2
                         085E-085F              2
                         1000-1605            100
                         1800-1FFF            100
        EEDATA           2100-21FF            100           2
        ENTRY            0003-0007              5           2
                         085E-085F              2
                         1000-1605            100
                         1800-1FFF            100
        IDLOC            2000-2003              4           2
        RAM              00DD-00EF             13           1
                         0110-016F             60
                         01B0-01EF             40
        SFR0             0000-001F             20           1
        SFR1             0080-009F             20           1
        SFR2             0100-010F             10           1
        SFR3             0180-018F             10           1
        STRCODE          0003-0007              5           2
                         085E-085F              2
                         1000-1605            606
                         1800-1FFF            800
        STRING           0003-0007              5           2
                         085E-085F              2
                         1000-1605            100
                         1800-1FFF            100

                                  Symbol Table

?__Umul8_16                         cstackCOMMON 0070
?___awdiv                           cstackCOMMON 0070
?___awmod                           cstackCOMMON 0070
?___fladd                           cstackCOMMON 0070
?___fldiv                           cstackBANK0  0026
?___flmul                           cstackBANK0  0040
?___flneg                           cstackCOMMON 0070
?___flsub                           cstackBANK0  005A
?___fltol                           cstackBANK0  0062
?___wmul                            cstackCOMMON 0070
?___xxtofl                          cstackCOMMON 0076
?_abs                               cstackCOMMON 0076
?_sprintf                           cstackBANK0  0031
?_vfprintf                          cstackBANK0  002D
DHT22_read@bits                     cstackBANK0  0063
DHT22_read@dht_humedad              cstackBANK0  005B
DHT22_read@dht_temperatura          cstackBANK0  005A
DHT22_read@i                        cstackBANK0  006A
DHT22_read@j                        cstackBANK0  006B
DHT22_read@rawhumidity              cstackBANK0  0060
DHT22_read@rawtemperature           cstackBANK0  0068
DHT22_read@result                   cstackBANK0  0062
I2C_Init_Master@sp_i2c              cstackCOMMON 0070
I2C_Write@data                      cstackCOMMON 0071
Lcd_Cmd@cmd                         cstackCOMMON 0073
Lcd_Cmd@data_l                      cstackCOMMON 0075
Lcd_Cmd@data_u                      cstackCOMMON 0074
Lcd_Set_Cursor@address              cstackCOMMON 0078
Lcd_Set_Cursor@col                  cstackCOMMON 0077
Lcd_Set_Cursor@row                  cstackCOMMON 0076
Lcd_Write_Char@c                    cstackCOMMON 0073
Lcd_Write_Char@data_l               cstackCOMMON 0075
Lcd_Write_Char@data_u               cstackCOMMON 0074
Lcd_Write_String@str                cstackCOMMON 0076
_ANSEL                              (abs)        0188
_ANSELH                             (abs)        0189
_DHT22_init                         text31       1606
_DHT22_read                         text26       0E95
_I2C_Init_Master                    text25       1667
_I2C_Start                          text24       1615
_I2C_Stop                           text23       161F
_I2C_Write                          text22       1655
_Lcd_Clear                          text20       1634
_Lcd_Cmd                            text21       17C1
_Lcd_Init                           text19       178A
_Lcd_Set_Cursor                     text18       1717
_Lcd_Write_Char                     text17       0860
_Lcd_Write_String                   text16       173D
_OPTION_REGbits                     (abs)        0081
_PIR1bits                           (abs)        000C
_PORTAbits                          (abs)        0005
_SSPADD                             (abs)        0093
_SSPBUF                             (abs)        0013
_SSPCON                             (abs)        0014
_SSPCON2                            (abs)        0091
_SSPCON2bits                        (abs)        0091
_SSPSTAT                            (abs)        0094
_TMR0                               (abs)        0001
_TRISAbits                          (abs)        0085
_TRISCbits                          (abs)        0087
__H__absolute__                     __absolute__ 0000
__Habs1                             abs1         0000
__Hbank0                            bank0        0000
__Hbank1                            bank1        0000
__Hbank2                            bank2        0000
__Hbank3                            bank3        0000
__HbssBANK0                         bssBANK0     0000
__HbssBANK1                         bssBANK1     0000
__HbssBANK3                         bssBANK3     0000
__Hcinit                            cinit        0800
__Hclrtext                          clrtext      0000
__Hcode                             code         0000
__Hcommon                           common       0000
__Hconfig                           config       2008
__HcstackBANK0                      cstackBANK0  0000
__HcstackBANK1                      cstackBANK1  0000
__HcstackCOMMON                     cstackCOMMON 0000
__Heeprom_data                      eeprom_data  0000
__Hend_init                         end_init     0003
__Hfunctab                          functab      0000
__Hheap                             heap         0000
__Hinit                             init         0000
__Hintentry                         intentry     0000
__Hmaintext                         maintext     0000
__Hpowerup                          powerup      0000
__Hram                              ram          0000
__Hreset_vec                        reset_vec    0000
__Hsfr0                             sfr0         0000
__Hsfr1                             sfr1         0000
__Hsfr2                             sfr2         0000
__Hsfr3                             sfr3         0000
__Hsivt                             sivt         0000
__Hspace_0                          (abs)        1800
__Hspace_1                          (abs)        01B0
__Hspace_2                          (abs)        0000
__Hspace_3                          (abs)        0000
__Hspace_4                          (abs)        400F
__Hstack                            stack        0000
__Hstrings                          strings      0000
__Htext                             text         0000
__L__absolute__                     __absolute__ 0000
__Labs1                             abs1         0000
__Lbank0                            bank0        0000
__Lbank1                            bank1        0000
__Lbank2                            bank2        0000
__Lbank3                            bank3        0000
__LbssBANK0                         bssBANK0     0000
__LbssBANK1                         bssBANK1     0000
__LbssBANK3                         bssBANK3     0000
__Lcinit                            cinit        07E7
__Lclrtext                          clrtext      0000
__Lcode                             code         0000
__Lcommon                           common       0000
__Lconfig                           config       0000
__LcstackBANK0                      cstackBANK0  0000
__LcstackBANK1                      cstackBANK1  0000
__LcstackCOMMON                     cstackCOMMON 0000
__Leeprom_data                      eeprom_data  0000
__Lend_init                         end_init     0000
__Lfunctab                          functab      0000
__Lheap                             heap         0000
__Linit                             init         0000
__Lintentry                         intentry     0000
__Lmaintext                         maintext     0000
__Lpowerup                          powerup      0000
__Lram                              ram          0000
__Lreset_vec                        reset_vec    0000
__Lsfr0                             sfr0         0000
__Lsfr1                             sfr1         0000
__Lsfr2                             sfr2         0000
__Lsfr3                             sfr3         0000
__Lsivt                             sivt         0000
__Lspace_0                          (abs)        0000
__Lspace_1                          (abs)        0000
__Lspace_2                          (abs)        0000
__Lspace_3                          (abs)        0000
__Lspace_4                          (abs)        0000
__Lstack                            stack        0000
__Lstrings                          strings      0000
__Ltext                             text         0000
__S0                                (abs)        1800
__S1                                (abs)        01B0
__S3                                (abs)        0000
__Umul8_16                          text29       1763
__Umul8_16@multiplicand             cstackCOMMON 0070
__Umul8_16@multiplier               cstackCOMMON 0078
__Umul8_16@product                  cstackCOMMON 0074
__Umul8_16@word_mpld                cstackCOMMON 0076
___awdiv                            text9        08F6
___awdiv@counter                    cstackCOMMON 0074
___awdiv@dividend                   cstackCOMMON 0072
___awdiv@divisor                    cstackCOMMON 0070
___awdiv@quotient                   cstackCOMMON 0076
___awdiv@sign                       cstackCOMMON 0075
___awmod                            text8        089F
___awmod@counter                    cstackCOMMON 0074
___awmod@dividend                   cstackCOMMON 0072
___awmod@divisor                    cstackCOMMON 0070
___awmod@sign                       cstackCOMMON 0075
___fladd                            text13       0249
___fladd@a                          cstackCOMMON 0074
___fladd@aexp                       cstackCOMMON 0079
___fladd@b                          cstackCOMMON 0070
___fladd@bexp                       cstackCOMMON 007A
___fladd@grs                        cstackCOMMON 007B
___fladd@signs                      cstackCOMMON 0078
___fldiv                            text30       007F
___fldiv@a                          cstackBANK0  0026
___fldiv@aexp                       cstackBANK0  003F
___fldiv@b                          cstackBANK0  002A
___fldiv@bexp                       cstackBANK0  003E
___fldiv@grs                        cstackBANK0  003A
___fldiv@new_exp                    cstackBANK0  0038
___fldiv@rem                        cstackBANK0  0033
___fldiv@sign                       cstackBANK0  0037
___flge                             text15       09F3
___flge@ff1                         cstackCOMMON 0070
___flge@ff2                         cstackCOMMON 0074
___flmul                            text28       04A5
___flmul@a                          cstackBANK0  0044
___flmul@aexp                       cstackBANK0  0052
___flmul@b                          cstackBANK0  0040
___flmul@bexp                       cstackBANK0  0053
___flmul@grs                        cstackBANK0  004E
___flmul@prod                       cstackBANK0  0054
___flmul@sign                       cstackBANK0  004D
___flmul@temp                       cstackBANK0  0058
___flneg                            text14       1629
___flneg@f1                         cstackCOMMON 0070
___flsub                            text12       16A9
___flsub@a                          cstackBANK0  005A
___flsub@b                          cstackBANK0  005E
___fltol                            text11       0009
___fltol@exp1                       cstackBANK0  006B
___fltol@f1                         cstackBANK0  0062
___fltol@sign1                      cstackBANK0  006A
___heap_hi                          (abs)        0000
___heap_lo                          (abs)        0000
___int_sp                           stack        0000
___int_stack_hi                     stack        0000
___int_stack_lo                     stack        0000
___latbits                          (abs)        0002
___sp                               stack        0000
___stack_hi                         stack        0000
___stack_lo                         stack        0000
___stackhi                          (abs)        0000
___stacklo                          (abs)        0000
___wmul                             text10       16CD
___wmul@multiplicand                cstackCOMMON 0072
___wmul@multiplier                  cstackCOMMON 0070
___wmul@product                     cstackCOMMON 0074
___xxtofl                           text27       0A95
___xxtofl@arg                       cstackBANK0  0022
___xxtofl@exp                       cstackBANK0  0021
___xxtofl@sign                      cstackBANK0  0020
___xxtofl@val                       cstackCOMMON 0076
__end_of_DHT22_init                 text31       160D
__end_of_DHT22_read                 text26       1000
__end_of_I2C_Init_Master            text25       1686
__end_of_I2C_Start                  text24       161F
__end_of_I2C_Stop                   text23       1629
__end_of_I2C_Write                  text22       1667
__end_of_Lcd_Clear                  text20       1644
__end_of_Lcd_Cmd                    text21       1800
__end_of_Lcd_Init                   text19       17C1
__end_of_Lcd_Set_Cursor             text18       173D
__end_of_Lcd_Write_Char             text17       089F
__end_of_Lcd_Write_String           text16       1763
__end_of__Umul8_16                  text29       178A
__end_of___awdiv                    text9        0959
__end_of___awmod                    text8        08F6
__end_of___fladd                    text13       04A5
__end_of___fldiv                    text30       0249
__end_of___flge                     text15       0A95
__end_of___flmul                    text28       07E7
__end_of___flneg                    text14       1634
__end_of___flsub                    text12       16CD
__end_of___fltol                    text11       007F
__end_of___wmul                     text10       16F2
__end_of___xxtofl                   text27       0B4B
__end_of__initialization            cinit        07FC
__end_of__stringtab                 strings      0810
__end_of_abs                        text7        1655
__end_of_float_to_string_dht22      text1        0D57
__end_of_fputc                      text5        09F3
__end_of_main                       maintext     0E95
__end_of_putch                      text6        0009
__end_of_sprintf                    text2        16A9
__end_of_vfpfcnvrt                  text4        0C35
__end_of_vfprintf                   text3        1717
__initialization                    cinit        07E7
__pbssBANK0                         bssBANK0     006F
__pbssBANK1                         bssBANK1     00A0
__pbssBANK3                         bssBANK3     0190
__pcstackBANK0                      cstackBANK0  0020
__pcstackBANK1                      cstackBANK1  00CA
__pcstackCOMMON                     cstackCOMMON 0070
__pmaintext                         maintext     0D57
__pstrings                          strings      0800
__ptext1                            text1        0C35
__ptext10                           text10       16CD
__ptext11                           text11       0009
__ptext12                           text12       16A9
__ptext13                           text13       0249
__ptext14                           text14       1629
__ptext15                           text15       09F3
__ptext16                           text16       173D
__ptext17                           text17       0860
__ptext18                           text18       1717
__ptext19                           text19       178A
__ptext2                            text2        1686
__ptext20                           text20       1634
__ptext21                           text21       17C1
__ptext22                           text22       1655
__ptext23                           text23       161F
__ptext24                           text24       1615
__ptext25                           text25       1667
__ptext26                           text26       0E95
__ptext27                           text27       0A95
__ptext28                           text28       04A5
__ptext29                           text29       1763
__ptext3                            text3        16F2
__ptext30                           text30       007F
__ptext31                           text31       1606
__ptext4                            text4        0B4B
__ptext5                            text5        0959
__ptext6                            text6        0008
__ptext7                            text7        1644
__ptext8                            text8        089F
__ptext9                            text9        08F6
__stringbase                        strings      080F
__stringtab                         strings      0800
_abs                                text7        1644
_buffer_hum                         bssBANK1     00AA
_buffer_tem                         bssBANK1     00BA
_dbuf                               bssBANK3     0190
_dht11_aux                          bssBANK0     006F
_dht11_byte                         bssBANK1     00A0
_flags                              bssBANK1     00A9
_float_to_string_dht22              text1        0C35
_fputc                              text5        0959
_main                               maintext     0D57
_prec                               bssBANK1     00A7
_putch                              text6        0008
_sprintf                            text2        1686
_vfpfcnvrt                          text4        0B4B
_vfprintf                           text3        16F2
_width                              bssBANK1     00A5
abs@a                               cstackCOMMON 0076
btemp                               (abs)        007E
btemp0                              (abs)        007E
btemp1                              (abs)        007F
clear_ram0                          clrtext      160D
end_of_initialization               cinit        07FC
float_to_string_dht22@buffer        cstackBANK1  00CE
float_to_string_dht22@negativo      cstackBANK1  00CF
float_to_string_dht22@parte_decimal cstackBANK1  00D0
float_to_string_dht22@parte_entera  cstackBANK1  00D2
float_to_string_dht22@value         cstackBANK1  00CA
fputc@c                             cstackCOMMON 0070
fputc@fp                            cstackCOMMON 0072
intlevel0                           functab      0000
intlevel1                           functab      0000
intlevel2                           functab      0000
intlevel3                           functab      0000
intlevel4                           functab      0000
intlevel5                           functab      0000
ltemp0a                             (abs)        0080
main@hum                            cstackBANK1  00D9
main@intentos                       cstackBANK1  00D4
main@tem                            cstackBANK1  00D5
reset_vec                           reset_vec    0000
sprintf@ap                          cstackBANK0  0038
sprintf@f                           cstackBANK0  0039
sprintf@fmt                         cstackBANK0  0032
sprintf@s                           cstackBANK0  0031
start                               init         0000
start_initialization                cinit        07E7
ttemp0a                             (abs)        007F
vfpfcnvrt@ap                        cstackBANK0  0023
vfpfcnvrt@c                         cstackBANK0  002C
vfpfcnvrt@convarg                   cstackBANK0  0028
vfpfcnvrt@cp                        cstackBANK0  0027
vfpfcnvrt@done                      cstackBANK0  0026
vfpfcnvrt@fmt                       cstackBANK0  0022
vfpfcnvrt@fp                        cstackBANK0  0020
vfprintf@ap                         cstackBANK0  0030
vfprintf@cfmt                       cstackCOMMON 007D
vfprintf@fmt                        cstackBANK0  002F
vfprintf@fp                         cstackBANK0  002D
wtemp0                              (abs)        007E
wtemp0a                             (abs)        007F


MODULE INFORMATION

Module		Function		Class		Link	Load	Size
C:\Program Files\Microchip\xc8\v3.10\pic\sources\c99\common\flge.c
		___flge        		CODE           	09F3	0000	162

C:\Program Files\Microchip\xc8\v3.10\pic\sources\c99\common\flge.c estimated size: 162

C:\Program Files\Microchip\xc8\v3.10\pic\sources\c99\common\awmod.c
		___awmod       		CODE           	089F	0000	87

C:\Program Files\Microchip\xc8\v3.10\pic\sources\c99\common\awmod.c estimated size: 87

C:\Program Files\Microchip\xc8\v3.10\pic\sources\c99\common\putch.c
		_putch         		CODE           	0008	0000	1

C:\Program Files\Microchip\xc8\v3.10\pic\sources\c99\common\putch.c estimated size: 1

C:\Program Files\Microchip\xc8\v3.10\pic\sources\c99\common\abs.c
		_abs           		CODE           	1644	0000	17

C:\Program Files\Microchip\xc8\v3.10\pic\sources\c99\common\abs.c estimated size: 17

i2c.c
		_I2C_Init_Master		CODE           	1667	0000	31
		_I2C_Write     		CODE           	1655	0000	18
		_I2C_Stop      		CODE           	161F	0000	10
		_I2C_Start     		CODE           	1615	0000	10

i2c.c estimated size: 69

lcd_i2c.c
		_Lcd_Write_String		CODE           	173D	0000	38
		_Lcd_Init      		CODE           	178A	0000	55
		_Lcd_Write_Char		CODE           	0860	0000	63
		_Lcd_Cmd       		CODE           	17C1	0000	63
		_Lcd_Set_Cursor		CODE           	1717	0000	38
		_Lcd_Clear     		CODE           	1634	0000	16

lcd_i2c.c estimated size: 273

C:\Program Files\Microchip\xc8\v3.10\pic\sources\c99\common\awdiv.c
		___awdiv       		CODE           	08F6	0000	99

C:\Program Files\Microchip\xc8\v3.10\pic\sources\c99\common\awdiv.c estimated size: 99

C:\Program Files\Microchip\xc8\v3.10\pic\sources\c99\common\fltol.c
		___fltol       		CODE           	0009	0000	118

C:\Program Files\Microchip\xc8\v3.10\pic\sources\c99\common\fltol.c estimated size: 118

C:\Program Files\Microchip\xc8\v3.10\pic\sources\c99\common\sprcmul.c
		___flmul       		CODE           	04A5	0000	834

C:\Program Files\Microchip\xc8\v3.10\pic\sources\c99\common\sprcmul.c estimated size: 834

C:\Program Files\Microchip\xc8\v3.10\pic\sources\c99\common\Umul8_16.c
		__Umul8_16     		CODE           	1763	0000	39

C:\Program Files\Microchip\xc8\v3.10\pic\sources\c99\common\Umul8_16.c estimated size: 39

C:\Program Files\Microchip\xc8\v3.10\pic\sources\c99\common\nf_sprintf.c
		_sprintf       		CODE           	1686	0000	35

C:\Program Files\Microchip\xc8\v3.10\pic\sources\c99\common\nf_sprintf.c estimated size: 35

C:\Program Files\Microchip\xc8\v3.10\pic\sources\c99\common\xxtofl.c
		___xxtofl      		CODE           	0A95	0000	182

C:\Program Files\Microchip\xc8\v3.10\pic\sources\c99\common\xxtofl.c estimated size: 182

C:\Program Files\Microchip\xc8\v3.10\pic\sources\c99\common\sprcdiv.c
		___fldiv       		CODE           	007F	0000	458

C:\Program Files\Microchip\xc8\v3.10\pic\sources\c99\common\sprcdiv.c estimated size: 458

shared
		__stringtab    		STRING         	0800	0000	16
		__initialization		CODE           	07E7	0000	21

shared estimated size: 37

C:\Program Files\Microchip\xc8\v3.10\pic\sources\c99\common\nf_fputc.c
		_fputc         		CODE           	0959	0000	154

C:\Program Files\Microchip\xc8\v3.10\pic\sources\c99\common\nf_fputc.c estimated size: 154

lcd.c
		_main          		CODE           	0D57	0000	318
		_float_to_string_dht22		CODE           	0C35	0000	290

lcd.c estimated size: 608

C:\Program Files\Microchip\xc8\v3.10\pic\sources\c99\common\flneg.c
		___flneg       		CODE           	1629	0000	11

C:\Program Files\Microchip\xc8\v3.10\pic\sources\c99\common\flneg.c estimated size: 11

C:\Program Files\Microchip\xc8\v3.10\pic\sources\c99\common\doprnt.c
		_vfpfcnvrt     		CODE           	0B4B	0000	234
		_vfprintf      		CODE           	16F2	0000	37

C:\Program Files\Microchip\xc8\v3.10\pic\sources\c99\common\doprnt.c estimated size: 271

dht22.c
		_DHT22_init    		CODE           	1606	0000	7
		_DHT22_read    		CODE           	0E95	0000	363

dht22.c estimated size: 370

C:\Program Files\Microchip\xc8\v3.10\pic\sources\c99\common\sprcadd.c
		___flsub       		CODE           	16A9	0000	36
		___fladd       		CODE           	0249	0000	604

C:\Program Files\Microchip\xc8\v3.10\pic\sources\c99\common\sprcadd.c estimated size: 640

C:\Program Files\Microchip\xc8\v3.10\pic\sources\c99\common\Umul16.c
		___wmul        		CODE           	16CD	0000	37

C:\Program Files\Microchip\xc8\v3.10\pic\sources\c99\common\Umul16.c estimated size: 37

