

Microchip MPLAB XC8 Assembler V3.10 build 20250813170317 
                                                                                               Wed Oct 29 21:09:11 2025

Microchip MPLAB XC8 C Compiler v3.10 (Free license) build 20250813170317 Og1 
     1                           	processor	16F887
     2                           	pagewidth 120
     3                           	opt	flic
     4                           	psect	strings,global,class=STRING,space=0,delta=2,noexec
     5                           	psect	cinit,global,class=CODE,space=0,merge=1,delta=2
     6                           	psect	bssBANK0,global,class=BANK0,space=1,delta=1,noexec
     7                           	psect	bssBANK1,global,class=BANK1,space=1,delta=1,noexec
     8                           	psect	clrtext,global,class=CODE,space=0,delta=2
     9                           	psect	cstackBANK1,global,class=BANK1,space=1,delta=1,noexec
    10                           	psect	cstackCOMMON,global,class=COMMON,space=1,delta=1,noexec
    11                           	psect	cstackBANK0,global,class=BANK0,space=1,delta=1,noexec
    12                           	psect	maintext,global,class=CODE,space=0,split=1,delta=2
    13                           	psect	text1,local,class=CODE,space=0,merge=1,delta=2,group=3
    14                           	psect	text2,local,class=CODE,space=0,merge=1,delta=2,group=1
    15                           	psect	text3,local,class=CODE,space=0,merge=1,delta=2,group=1
    16                           	psect	text4,local,class=CODE,space=0,merge=1,delta=2,group=1
    17                           	psect	text5,local,class=CODE,space=0,merge=1,delta=2,group=2
    18                           	psect	text6,local,class=CODE,space=0,merge=1,delta=2,group=1
    19                           	psect	text7,local,class=CODE,space=0,merge=1,delta=2,group=1
    20                           	psect	text8,local,class=CODE,space=0,merge=1,delta=2,group=3
    21                           	psect	text9,local,class=CODE,space=0,merge=1,delta=2,group=3
    22                           	psect	text10,local,class=CODE,space=0,merge=1,delta=2,group=3
    23                           	psect	text11,local,class=CODE,space=0,merge=1,delta=2,group=3
    24                           	psect	text12,local,class=CODE,space=0,merge=1,delta=2
    25                           	psect	text13,local,class=CODE,space=0,merge=1,delta=2
    26                           	psect	text14,local,class=CODE,space=0,merge=1,delta=2
    27                           	psect	text15,local,class=CODE,space=0,merge=1,delta=2
    28                           	psect	text16,local,class=CODE,space=0,merge=1,delta=2
    29                           	psect	text17,local,class=CODE,space=0,merge=1,delta=2
    30                           	psect	text18,local,class=CODE,space=0,merge=1,delta=2
    31                           	psect	text19,local,class=CODE,space=0,merge=1,delta=2
    32                           	psect	text20,local,class=CODE,space=0,merge=1,delta=2
    33                           	psect	text21,local,class=CODE,space=0,merge=1,delta=2
    34                           	psect	text22,local,class=CODE,space=0,merge=1,delta=2,group=2
    35                           	psect	text23,local,class=CODE,space=0,merge=1,delta=2,group=2
    36                           	psect	text24,local,class=CODE,space=0,merge=1,delta=2
    37                           	psect	text25,local,class=CODE,space=0,merge=1,delta=2
    38                           	psect	text26,local,class=CODE,space=0,merge=1,delta=2
    39                           	psect	text27,local,class=CODE,space=0,merge=1,delta=2
    40                           	psect	text28,local,class=CODE,space=0,merge=1,delta=2
    41                           	psect	text29,local,class=CODE,space=0,merge=1,delta=2
    42                           	psect	text30,local,class=CODE,space=0,merge=1,delta=2
    43                           	psect	text31,local,class=CODE,space=0,merge=1,delta=2
    44                           	psect	text32,local,class=CODE,space=0,merge=1,delta=2
    45                           	psect	text33,local,class=CODE,space=0,merge=1,delta=2
    46                           	psect	text34,local,class=CODE,space=0,merge=1,delta=2
    47                           	psect	text35,local,class=CODE,space=0,merge=1,delta=2,group=2
    48                           	psect	config,global,abs,ovrld,class=CONFIG,space=4,delta=2,noexec
    49                           	dabs	1,0x7E,2
    50     0000                     
    51                           ; Generated 12/10/2023 GMT
    52                           ; 
    53                           ; Copyright © 2023, Microchip Technology Inc. and its subsidiaries ("Microchip")
    54                           ; All rights reserved.
    55                           ; 
    56                           ; This software is developed by Microchip Technology Inc. and its subsidiaries ("Microch
      +                          ip").
    57                           ; 
    58                           ; Redistribution and use in source and binary forms, with or without modification, are
    59                           ; permitted provided that the following conditions are met:
    60                           ; 
    61                           ;     1. Redistributions of source code must retain the above copyright notice, this lis
      +                          t of
    62                           ;        conditions and the following disclaimer.
    63                           ; 
    64                           ;     2. Redistributions in binary form must reproduce the above copyright notice, this 
      +                          list
    65                           ;        of conditions and the following disclaimer in the documentation and/or other
    66                           ;        materials provided with the distribution. Publication is not required when
    67                           ;        this file is used in an embedded application.
    68                           ; 
    69                           ;     3. Microchip's name may not be used to endorse or promote products derived from th
      +                          is
    70                           ;        software without specific prior written permission.
    71                           ; 
    72                           ; THIS SOFTWARE IS PROVIDED BY MICROCHIP "AS IS" AND ANY EXPRESS OR IMPLIED WARRANTIES,
    73                           ; INCLUDING, BUT NOT LIMITED TO, THE IMPLIED WARRANTIES OF MERCHANTABILITY AND FITNESS F
      +                          OR
    74                           ; PURPOSE ARE DISCLAIMED.  IN NO EVENT SHALL MICROCHIP BE LIABLE FOR ANY DIRECT, INDIREC
      +                          T,
    75                           ; INCIDENTAL, SPECIAL, EXEMPLARY, OR CONSEQUENTIAL DAMAGES (INCLUDING BUT NOT LIMITED TO
    76                           ; PROCUREMENT OF SUBSTITUTE GOODS OR SERVICES; LOSS OF USE, DATA OR PROFITS; OR BUSINESS
    77                           ; INTERRUPTION) HOWSOEVER CAUSED AND ON ANY THEORY OF LIABILITY, WHETHER IN CONTRACT, ST
      +                          RICT
    78                           ; LIABILITY, OR TORT (INCLUDING NEGLIGENCE OR OTHERWISE) ARISING IN ANY WAY OUT OF THE U
      +                          SE OF
    79                           ; THIS SOFTWARE, EVEN IF ADVISED OF THE POSSIBILITY OF SUCH DAMAGE.
    80                           ; 
    81                           ; 
    82                           ; Code-generator required, PIC16F887 Definitions
    83                           ; 
    84                           ; SFR Addresses
    85     0004                     fsr             equ	4
    86     0004                     fsr0            equ	4
    87     0000                     indf            equ	0
    88     0000                     indf0           equ	0
    89     0002                     pc              equ	2
    90     0002                     pcl             equ	2
    91     000A                     pclath          equ	10
    92     0003                     status          equ	3
    93     0000                     INDF            equ	0	;# 
    94     0001                     TMR0            equ	1	;# 
    95     0002                     PCL             equ	2	;# 
    96     0003                     STATUS          equ	3	;# 
    97     0004                     FSR             equ	4	;# 
    98     0005                     PORTA           equ	5	;# 
    99     0006                     PORTB           equ	6	;# 
   100     0007                     PORTC           equ	7	;# 
   101     0008                     PORTD           equ	8	;# 
   102     0009                     PORTE           equ	9	;# 
   103     000A                     PCLATH          equ	10	;# 
   104     000B                     INTCON          equ	11	;# 
   105     000C                     PIR1            equ	12	;# 
   106     000D                     PIR2            equ	13	;# 
   107     000E                     TMR1            equ	14	;# 
   108     000E                     TMR1L           equ	14	;# 
   109     000F                     TMR1H           equ	15	;# 
   110     0010                     T1CON           equ	16	;# 
   111     0011                     TMR2            equ	17	;# 
   112     0012                     T2CON           equ	18	;# 
   113     0013                     SSPBUF          equ	19	;# 
   114     0014                     SSPCON          equ	20	;# 
   115     0015                     CCPR1           equ	21	;# 
   116     0015                     CCPR1L          equ	21	;# 
   117     0016                     CCPR1H          equ	22	;# 
   118     0017                     CCP1CON         equ	23	;# 
   119     0018                     RCSTA           equ	24	;# 
   120     0019                     TXREG           equ	25	;# 
   121     001A                     RCREG           equ	26	;# 
   122     001B                     CCPR2           equ	27	;# 
   123     001B                     CCPR2L          equ	27	;# 
   124     001C                     CCPR2H          equ	28	;# 
   125     001D                     CCP2CON         equ	29	;# 
   126     001E                     ADRESH          equ	30	;# 
   127     001F                     ADCON0          equ	31	;# 
   128     0081                     OPTION_REG      equ	129	;# 
   129     0085                     TRISA           equ	133	;# 
   130     0086                     TRISB           equ	134	;# 
   131     0087                     TRISC           equ	135	;# 
   132     0088                     TRISD           equ	136	;# 
   133     0089                     TRISE           equ	137	;# 
   134     008C                     PIE1            equ	140	;# 
   135     008D                     PIE2            equ	141	;# 
   136     008E                     PCON            equ	142	;# 
   137     008F                     OSCCON          equ	143	;# 
   138     0090                     OSCTUNE         equ	144	;# 
   139     0091                     SSPCON2         equ	145	;# 
   140     0092                     PR2             equ	146	;# 
   141     0093                     SSPADD          equ	147	;# 
   142     0093                     SSPMSK          equ	147	;# 
   143     0093                     MSK             equ	147	;# 
   144     0094                     SSPSTAT         equ	148	;# 
   145     0095                     WPUB            equ	149	;# 
   146     0096                     IOCB            equ	150	;# 
   147     0097                     VRCON           equ	151	;# 
   148     0098                     TXSTA           equ	152	;# 
   149     0099                     SPBRG           equ	153	;# 
   150     009A                     SPBRGH          equ	154	;# 
   151     009B                     PWM1CON         equ	155	;# 
   152     009C                     ECCPAS          equ	156	;# 
   153     009D                     PSTRCON         equ	157	;# 
   154     009E                     ADRESL          equ	158	;# 
   155     009F                     ADCON1          equ	159	;# 
   156     0105                     WDTCON          equ	261	;# 
   157     0107                     CM1CON0         equ	263	;# 
   158     0108                     CM2CON0         equ	264	;# 
   159     0109                     CM2CON1         equ	265	;# 
   160     010C                     EEDATA          equ	268	;# 
   161     010C                     EEDAT           equ	268	;# 
   162     010D                     EEADR           equ	269	;# 
   163     010E                     EEDATH          equ	270	;# 
   164     010F                     EEADRH          equ	271	;# 
   165     0185                     SRCON           equ	389	;# 
   166     0187                     BAUDCTL         equ	391	;# 
   167     0188                     ANSEL           equ	392	;# 
   168     0189                     ANSELH          equ	393	;# 
   169     018C                     EECON1          equ	396	;# 
   170     018D                     EECON2          equ	397	;# 
   171     0000                     INDF            equ	0	;# 
   172     0001                     TMR0            equ	1	;# 
   173     0002                     PCL             equ	2	;# 
   174     0003                     STATUS          equ	3	;# 
   175     0004                     FSR             equ	4	;# 
   176     0005                     PORTA           equ	5	;# 
   177     0006                     PORTB           equ	6	;# 
   178     0007                     PORTC           equ	7	;# 
   179     0008                     PORTD           equ	8	;# 
   180     0009                     PORTE           equ	9	;# 
   181     000A                     PCLATH          equ	10	;# 
   182     000B                     INTCON          equ	11	;# 
   183     000C                     PIR1            equ	12	;# 
   184     000D                     PIR2            equ	13	;# 
   185     000E                     TMR1            equ	14	;# 
   186     000E                     TMR1L           equ	14	;# 
   187     000F                     TMR1H           equ	15	;# 
   188     0010                     T1CON           equ	16	;# 
   189     0011                     TMR2            equ	17	;# 
   190     0012                     T2CON           equ	18	;# 
   191     0013                     SSPBUF          equ	19	;# 
   192     0014                     SSPCON          equ	20	;# 
   193     0015                     CCPR1           equ	21	;# 
   194     0015                     CCPR1L          equ	21	;# 
   195     0016                     CCPR1H          equ	22	;# 
   196     0017                     CCP1CON         equ	23	;# 
   197     0018                     RCSTA           equ	24	;# 
   198     0019                     TXREG           equ	25	;# 
   199     001A                     RCREG           equ	26	;# 
   200     001B                     CCPR2           equ	27	;# 
   201     001B                     CCPR2L          equ	27	;# 
   202     001C                     CCPR2H          equ	28	;# 
   203     001D                     CCP2CON         equ	29	;# 
   204     001E                     ADRESH          equ	30	;# 
   205     001F                     ADCON0          equ	31	;# 
   206     0081                     OPTION_REG      equ	129	;# 
   207     0085                     TRISA           equ	133	;# 
   208     0086                     TRISB           equ	134	;# 
   209     0087                     TRISC           equ	135	;# 
   210     0088                     TRISD           equ	136	;# 
   211     0089                     TRISE           equ	137	;# 
   212     008C                     PIE1            equ	140	;# 
   213     008D                     PIE2            equ	141	;# 
   214     008E                     PCON            equ	142	;# 
   215     008F                     OSCCON          equ	143	;# 
   216     0090                     OSCTUNE         equ	144	;# 
   217     0091                     SSPCON2         equ	145	;# 
   218     0092                     PR2             equ	146	;# 
   219     0093                     SSPADD          equ	147	;# 
   220     0093                     SSPMSK          equ	147	;# 
   221     0093                     MSK             equ	147	;# 
   222     0094                     SSPSTAT         equ	148	;# 
   223     0095                     WPUB            equ	149	;# 
   224     0096                     IOCB            equ	150	;# 
   225     0097                     VRCON           equ	151	;# 
   226     0098                     TXSTA           equ	152	;# 
   227     0099                     SPBRG           equ	153	;# 
   228     009A                     SPBRGH          equ	154	;# 
   229     009B                     PWM1CON         equ	155	;# 
   230     009C                     ECCPAS          equ	156	;# 
   231     009D                     PSTRCON         equ	157	;# 
   232     009E                     ADRESL          equ	158	;# 
   233     009F                     ADCON1          equ	159	;# 
   234     0105                     WDTCON          equ	261	;# 
   235     0107                     CM1CON0         equ	263	;# 
   236     0108                     CM2CON0         equ	264	;# 
   237     0109                     CM2CON1         equ	265	;# 
   238     010C                     EEDATA          equ	268	;# 
   239     010C                     EEDAT           equ	268	;# 
   240     010D                     EEADR           equ	269	;# 
   241     010E                     EEDATH          equ	270	;# 
   242     010F                     EEADRH          equ	271	;# 
   243     0185                     SRCON           equ	389	;# 
   244     0187                     BAUDCTL         equ	391	;# 
   245     0188                     ANSEL           equ	392	;# 
   246     0189                     ANSELH          equ	393	;# 
   247     018C                     EECON1          equ	396	;# 
   248     018D                     EECON2          equ	397	;# 
   249     0000                     INDF            equ	0	;# 
   250     0001                     TMR0            equ	1	;# 
   251     0002                     PCL             equ	2	;# 
   252     0003                     STATUS          equ	3	;# 
   253     0004                     FSR             equ	4	;# 
   254     0005                     PORTA           equ	5	;# 
   255     0006                     PORTB           equ	6	;# 
   256     0007                     PORTC           equ	7	;# 
   257     0008                     PORTD           equ	8	;# 
   258     0009                     PORTE           equ	9	;# 
   259     000A                     PCLATH          equ	10	;# 
   260     000B                     INTCON          equ	11	;# 
   261     000C                     PIR1            equ	12	;# 
   262     000D                     PIR2            equ	13	;# 
   263     000E                     TMR1            equ	14	;# 
   264     000E                     TMR1L           equ	14	;# 
   265     000F                     TMR1H           equ	15	;# 
   266     0010                     T1CON           equ	16	;# 
   267     0011                     TMR2            equ	17	;# 
   268     0012                     T2CON           equ	18	;# 
   269     0013                     SSPBUF          equ	19	;# 
   270     0014                     SSPCON          equ	20	;# 
   271     0015                     CCPR1           equ	21	;# 
   272     0015                     CCPR1L          equ	21	;# 
   273     0016                     CCPR1H          equ	22	;# 
   274     0017                     CCP1CON         equ	23	;# 
   275     0018                     RCSTA           equ	24	;# 
   276     0019                     TXREG           equ	25	;# 
   277     001A                     RCREG           equ	26	;# 
   278     001B                     CCPR2           equ	27	;# 
   279     001B                     CCPR2L          equ	27	;# 
   280     001C                     CCPR2H          equ	28	;# 
   281     001D                     CCP2CON         equ	29	;# 
   282     001E                     ADRESH          equ	30	;# 
   283     001F                     ADCON0          equ	31	;# 
   284     0081                     OPTION_REG      equ	129	;# 
   285     0085                     TRISA           equ	133	;# 
   286     0086                     TRISB           equ	134	;# 
   287     0087                     TRISC           equ	135	;# 
   288     0088                     TRISD           equ	136	;# 
   289     0089                     TRISE           equ	137	;# 
   290     008C                     PIE1            equ	140	;# 
   291     008D                     PIE2            equ	141	;# 
   292     008E                     PCON            equ	142	;# 
   293     008F                     OSCCON          equ	143	;# 
   294     0090                     OSCTUNE         equ	144	;# 
   295     0091                     SSPCON2         equ	145	;# 
   296     0092                     PR2             equ	146	;# 
   297     0093                     SSPADD          equ	147	;# 
   298     0093                     SSPMSK          equ	147	;# 
   299     0093                     MSK             equ	147	;# 
   300     0094                     SSPSTAT         equ	148	;# 
   301     0095                     WPUB            equ	149	;# 
   302     0096                     IOCB            equ	150	;# 
   303     0097                     VRCON           equ	151	;# 
   304     0098                     TXSTA           equ	152	;# 
   305     0099                     SPBRG           equ	153	;# 
   306     009A                     SPBRGH          equ	154	;# 
   307     009B                     PWM1CON         equ	155	;# 
   308     009C                     ECCPAS          equ	156	;# 
   309     009D                     PSTRCON         equ	157	;# 
   310     009E                     ADRESL          equ	158	;# 
   311     009F                     ADCON1          equ	159	;# 
   312     0105                     WDTCON          equ	261	;# 
   313     0107                     CM1CON0         equ	263	;# 
   314     0108                     CM2CON0         equ	264	;# 
   315     0109                     CM2CON1         equ	265	;# 
   316     010C                     EEDATA          equ	268	;# 
   317     010C                     EEDAT           equ	268	;# 
   318     010D                     EEADR           equ	269	;# 
   319     010E                     EEDATH          equ	270	;# 
   320     010F                     EEADRH          equ	271	;# 
   321     0185                     SRCON           equ	389	;# 
   322     0187                     BAUDCTL         equ	391	;# 
   323     0188                     ANSEL           equ	392	;# 
   324     0189                     ANSELH          equ	393	;# 
   325     018C                     EECON1          equ	396	;# 
   326     018D                     EECON2          equ	397	;# 
   327     0000                     INDF            equ	0	;# 
   328     0001                     TMR0            equ	1	;# 
   329     0002                     PCL             equ	2	;# 
   330     0003                     STATUS          equ	3	;# 
   331     0004                     FSR             equ	4	;# 
   332     0005                     PORTA           equ	5	;# 
   333     0006                     PORTB           equ	6	;# 
   334     0007                     PORTC           equ	7	;# 
   335     0008                     PORTD           equ	8	;# 
   336     0009                     PORTE           equ	9	;# 
   337     000A                     PCLATH          equ	10	;# 
   338     000B                     INTCON          equ	11	;# 
   339     000C                     PIR1            equ	12	;# 
   340     000D                     PIR2            equ	13	;# 
   341     000E                     TMR1            equ	14	;# 
   342     000E                     TMR1L           equ	14	;# 
   343     000F                     TMR1H           equ	15	;# 
   344     0010                     T1CON           equ	16	;# 
   345     0011                     TMR2            equ	17	;# 
   346     0012                     T2CON           equ	18	;# 
   347     0013                     SSPBUF          equ	19	;# 
   348     0014                     SSPCON          equ	20	;# 
   349     0015                     CCPR1           equ	21	;# 
   350     0015                     CCPR1L          equ	21	;# 
   351     0016                     CCPR1H          equ	22	;# 
   352     0017                     CCP1CON         equ	23	;# 
   353     0018                     RCSTA           equ	24	;# 
   354     0019                     TXREG           equ	25	;# 
   355     001A                     RCREG           equ	26	;# 
   356     001B                     CCPR2           equ	27	;# 
   357     001B                     CCPR2L          equ	27	;# 
   358     001C                     CCPR2H          equ	28	;# 
   359     001D                     CCP2CON         equ	29	;# 
   360     001E                     ADRESH          equ	30	;# 
   361     001F                     ADCON0          equ	31	;# 
   362     0081                     OPTION_REG      equ	129	;# 
   363     0085                     TRISA           equ	133	;# 
   364     0086                     TRISB           equ	134	;# 
   365     0087                     TRISC           equ	135	;# 
   366     0088                     TRISD           equ	136	;# 
   367     0089                     TRISE           equ	137	;# 
   368     008C                     PIE1            equ	140	;# 
   369     008D                     PIE2            equ	141	;# 
   370     008E                     PCON            equ	142	;# 
   371     008F                     OSCCON          equ	143	;# 
   372     0090                     OSCTUNE         equ	144	;# 
   373     0091                     SSPCON2         equ	145	;# 
   374     0092                     PR2             equ	146	;# 
   375     0093                     SSPADD          equ	147	;# 
   376     0093                     SSPMSK          equ	147	;# 
   377     0093                     MSK             equ	147	;# 
   378     0094                     SSPSTAT         equ	148	;# 
   379     0095                     WPUB            equ	149	;# 
   380     0096                     IOCB            equ	150	;# 
   381     0097                     VRCON           equ	151	;# 
   382     0098                     TXSTA           equ	152	;# 
   383     0099                     SPBRG           equ	153	;# 
   384     009A                     SPBRGH          equ	154	;# 
   385     009B                     PWM1CON         equ	155	;# 
   386     009C                     ECCPAS          equ	156	;# 
   387     009D                     PSTRCON         equ	157	;# 
   388     009E                     ADRESL          equ	158	;# 
   389     009F                     ADCON1          equ	159	;# 
   390     0105                     WDTCON          equ	261	;# 
   391     0107                     CM1CON0         equ	263	;# 
   392     0108                     CM2CON0         equ	264	;# 
   393     0109                     CM2CON1         equ	265	;# 
   394     010C                     EEDATA          equ	268	;# 
   395     010C                     EEDAT           equ	268	;# 
   396     010D                     EEADR           equ	269	;# 
   397     010E                     EEDATH          equ	270	;# 
   398     010F                     EEADRH          equ	271	;# 
   399     0185                     SRCON           equ	389	;# 
   400     0187                     BAUDCTL         equ	391	;# 
   401     0188                     ANSEL           equ	392	;# 
   402     0189                     ANSELH          equ	393	;# 
   403     018C                     EECON1          equ	396	;# 
   404     018D                     EECON2          equ	397	;# 
   405     0000                     INDF            equ	0	;# 
   406     0001                     TMR0            equ	1	;# 
   407     0002                     PCL             equ	2	;# 
   408     0003                     STATUS          equ	3	;# 
   409     0004                     FSR             equ	4	;# 
   410     0005                     PORTA           equ	5	;# 
   411     0006                     PORTB           equ	6	;# 
   412     0007                     PORTC           equ	7	;# 
   413     0008                     PORTD           equ	8	;# 
   414     0009                     PORTE           equ	9	;# 
   415     000A                     PCLATH          equ	10	;# 
   416     000B                     INTCON          equ	11	;# 
   417     000C                     PIR1            equ	12	;# 
   418     000D                     PIR2            equ	13	;# 
   419     000E                     TMR1            equ	14	;# 
   420     000E                     TMR1L           equ	14	;# 
   421     000F                     TMR1H           equ	15	;# 
   422     0010                     T1CON           equ	16	;# 
   423     0011                     TMR2            equ	17	;# 
   424     0012                     T2CON           equ	18	;# 
   425     0013                     SSPBUF          equ	19	;# 
   426     0014                     SSPCON          equ	20	;# 
   427     0015                     CCPR1           equ	21	;# 
   428     0015                     CCPR1L          equ	21	;# 
   429     0016                     CCPR1H          equ	22	;# 
   430     0017                     CCP1CON         equ	23	;# 
   431     0018                     RCSTA           equ	24	;# 
   432     0019                     TXREG           equ	25	;# 
   433     001A                     RCREG           equ	26	;# 
   434     001B                     CCPR2           equ	27	;# 
   435     001B                     CCPR2L          equ	27	;# 
   436     001C                     CCPR2H          equ	28	;# 
   437     001D                     CCP2CON         equ	29	;# 
   438     001E                     ADRESH          equ	30	;# 
   439     001F                     ADCON0          equ	31	;# 
   440     0081                     OPTION_REG      equ	129	;# 
   441     0085                     TRISA           equ	133	;# 
   442     0086                     TRISB           equ	134	;# 
   443     0087                     TRISC           equ	135	;# 
   444     0088                     TRISD           equ	136	;# 
   445     0089                     TRISE           equ	137	;# 
   446     008C                     PIE1            equ	140	;# 
   447     008D                     PIE2            equ	141	;# 
   448     008E                     PCON            equ	142	;# 
   449     008F                     OSCCON          equ	143	;# 
   450     0090                     OSCTUNE         equ	144	;# 
   451     0091                     SSPCON2         equ	145	;# 
   452     0092                     PR2             equ	146	;# 
   453     0093                     SSPADD          equ	147	;# 
   454     0093                     SSPMSK          equ	147	;# 
   455     0093                     MSK             equ	147	;# 
   456     0094                     SSPSTAT         equ	148	;# 
   457     0095                     WPUB            equ	149	;# 
   458     0096                     IOCB            equ	150	;# 
   459     0097                     VRCON           equ	151	;# 
   460     0098                     TXSTA           equ	152	;# 
   461     0099                     SPBRG           equ	153	;# 
   462     009A                     SPBRGH          equ	154	;# 
   463     009B                     PWM1CON         equ	155	;# 
   464     009C                     ECCPAS          equ	156	;# 
   465     009D                     PSTRCON         equ	157	;# 
   466     009E                     ADRESL          equ	158	;# 
   467     009F                     ADCON1          equ	159	;# 
   468     0105                     WDTCON          equ	261	;# 
   469     0107                     CM1CON0         equ	263	;# 
   470     0108                     CM2CON0         equ	264	;# 
   471     0109                     CM2CON1         equ	265	;# 
   472     010C                     EEDATA          equ	268	;# 
   473     010C                     EEDAT           equ	268	;# 
   474     010D                     EEADR           equ	269	;# 
   475     010E                     EEDATH          equ	270	;# 
   476     010F                     EEADRH          equ	271	;# 
   477     0185                     SRCON           equ	389	;# 
   478     0187                     BAUDCTL         equ	391	;# 
   479     0188                     ANSEL           equ	392	;# 
   480     0189                     ANSELH          equ	393	;# 
   481     018C                     EECON1          equ	396	;# 
   482     018D                     EECON2          equ	397	;# 
   483     0000                     INDF            equ	0	;# 
   484     0001                     TMR0            equ	1	;# 
   485     0002                     PCL             equ	2	;# 
   486     0003                     STATUS          equ	3	;# 
   487     0004                     FSR             equ	4	;# 
   488     0005                     PORTA           equ	5	;# 
   489     0006                     PORTB           equ	6	;# 
   490     0007                     PORTC           equ	7	;# 
   491     0008                     PORTD           equ	8	;# 
   492     0009                     PORTE           equ	9	;# 
   493     000A                     PCLATH          equ	10	;# 
   494     000B                     INTCON          equ	11	;# 
   495     000C                     PIR1            equ	12	;# 
   496     000D                     PIR2            equ	13	;# 
   497     000E                     TMR1            equ	14	;# 
   498     000E                     TMR1L           equ	14	;# 
   499     000F                     TMR1H           equ	15	;# 
   500     0010                     T1CON           equ	16	;# 
   501     0011                     TMR2            equ	17	;# 
   502     0012                     T2CON           equ	18	;# 
   503     0013                     SSPBUF          equ	19	;# 
   504     0014                     SSPCON          equ	20	;# 
   505     0015                     CCPR1           equ	21	;# 
   506     0015                     CCPR1L          equ	21	;# 
   507     0016                     CCPR1H          equ	22	;# 
   508     0017                     CCP1CON         equ	23	;# 
   509     0018                     RCSTA           equ	24	;# 
   510     0019                     TXREG           equ	25	;# 
   511     001A                     RCREG           equ	26	;# 
   512     001B                     CCPR2           equ	27	;# 
   513     001B                     CCPR2L          equ	27	;# 
   514     001C                     CCPR2H          equ	28	;# 
   515     001D                     CCP2CON         equ	29	;# 
   516     001E                     ADRESH          equ	30	;# 
   517     001F                     ADCON0          equ	31	;# 
   518     0081                     OPTION_REG      equ	129	;# 
   519     0085                     TRISA           equ	133	;# 
   520     0086                     TRISB           equ	134	;# 
   521     0087                     TRISC           equ	135	;# 
   522     0088                     TRISD           equ	136	;# 
   523     0089                     TRISE           equ	137	;# 
   524     008C                     PIE1            equ	140	;# 
   525     008D                     PIE2            equ	141	;# 
   526     008E                     PCON            equ	142	;# 
   527     008F                     OSCCON          equ	143	;# 
   528     0090                     OSCTUNE         equ	144	;# 
   529     0091                     SSPCON2         equ	145	;# 
   530     0092                     PR2             equ	146	;# 
   531     0093                     SSPADD          equ	147	;# 
   532     0093                     SSPMSK          equ	147	;# 
   533     0093                     MSK             equ	147	;# 
   534     0094                     SSPSTAT         equ	148	;# 
   535     0095                     WPUB            equ	149	;# 
   536     0096                     IOCB            equ	150	;# 
   537     0097                     VRCON           equ	151	;# 
   538     0098                     TXSTA           equ	152	;# 
   539     0099                     SPBRG           equ	153	;# 
   540     009A                     SPBRGH          equ	154	;# 
   541     009B                     PWM1CON         equ	155	;# 
   542     009C                     ECCPAS          equ	156	;# 
   543     009D                     PSTRCON         equ	157	;# 
   544     009E                     ADRESL          equ	158	;# 
   545     009F                     ADCON1          equ	159	;# 
   546     0105                     WDTCON          equ	261	;# 
   547     0107                     CM1CON0         equ	263	;# 
   548     0108                     CM2CON0         equ	264	;# 
   549     0109                     CM2CON1         equ	265	;# 
   550     010C                     EEDATA          equ	268	;# 
   551     010C                     EEDAT           equ	268	;# 
   552     010D                     EEADR           equ	269	;# 
   553     010E                     EEDATH          equ	270	;# 
   554     010F                     EEADRH          equ	271	;# 
   555     0185                     SRCON           equ	389	;# 
   556     0187                     BAUDCTL         equ	391	;# 
   557     0188                     ANSEL           equ	392	;# 
   558     0189                     ANSELH          equ	393	;# 
   559     018C                     EECON1          equ	396	;# 
   560     018D                     EECON2          equ	397	;# 
   561     0005                     _PORTAbits      set	5
   562     0001                     _TMR0           set	1
   563     0013                     _SSPBUF         set	19
   564     000C                     _PIR1bits       set	12
   565     0014                     _SSPCON         set	20
   566     0081                     _OPTION_REGbits set	129
   567     0085                     _TRISAbits      set	133
   568     0091                     _SSPCON2bits    set	145
   569     0093                     _SSPADD         set	147
   570     0091                     _SSPCON2        set	145
   571     0094                     _SSPSTAT        set	148
   572     0087                     _TRISCbits      set	135
   573     0189                     _ANSELH         set	393
   574     0188                     _ANSEL          set	392
   575                           
   576                           	psect	strings
   577     0003                     __pstrings:
   578     0003                     stringtab:
   579     0003                     __stringtab:
   580                           
   581                           ;	String table - string pointers are 1 byte each
   582     0003  1BFF               	btfsc	btemp+1,7
   583     0004  280D               	ljmp	stringcode
   584     0005  1383               	bcf	3,7
   585     0006  187F               	btfsc	btemp+1,0
   586     0007  1783               	bsf	3,7
   587     0008  0800               	movf	0,w
   588     0009  0A84               	incf	4,f
   589     000A  1903               	skipnz
   590     000B  0AFF               	incf	btemp+1,f
   591     000C  0008               	return
   592     000D                     stringcode:
   593     000D                     stringdir:
   594     000D  3000               	movlw	high stringdir
   595     000E  008A               	movwf	10
   596     000F  0804               	movf	4,w
   597     0010  0A84               	incf	4,f
   598     0011  0782               	addwf	2,f
   599     0012                     __stringbase:
   600     0012  3400               	retlw	0
   601     0013                     __end_of__stringtab:
   602     0013                     STR_3:
   603     0013  3446               	retlw	70	;'F'
   604     0014  3465               	retlw	101	;'e'
   605     0015  3463               	retlw	99	;'c'
   606     0016  3468               	retlw	104	;'h'
   607     0017  3461               	retlw	97	;'a'
   608     0018  343A               	retlw	58	;':'
   609     0019  3425               	retlw	37	;'%'
   610     001A  3430               	retlw	48	;'0'
   611     001B  3432               	retlw	50	;'2'
   612     001C  3464               	retlw	100	;'d'
   613     001D  342F               	retlw	47	;'/'
   614     001E  3425               	retlw	37	;'%'
   615     001F  3430               	retlw	48	;'0'
   616     0020  3432               	retlw	50	;'2'
   617     0021  3464               	retlw	100	;'d'
   618     0022  342F               	retlw	47	;'/'
   619     0023  3425               	retlw	37	;'%'
   620     0024  3430               	retlw	48	;'0'
   621     0025  3432               	retlw	50	;'2'
   622     0026  3464               	retlw	100	;'d'
   623     0027  3400               	retlw	0
   624     0028                     STR_2:
   625     0028  3448               	retlw	72	;'H'
   626     0029  346F               	retlw	111	;'o'
   627     002A  3472               	retlw	114	;'r'
   628     002B  3461               	retlw	97	;'a'
   629     002C  343A               	retlw	58	;':'
   630     002D  3420               	retlw	32	;' '
   631     002E  3425               	retlw	37	;'%'
   632     002F  3430               	retlw	48	;'0'
   633     0030  3432               	retlw	50	;'2'
   634     0031  3464               	retlw	100	;'d'
   635     0032  343A               	retlw	58	;':'
   636     0033  3425               	retlw	37	;'%'
   637     0034  3430               	retlw	48	;'0'
   638     0035  3432               	retlw	50	;'2'
   639     0036  3464               	retlw	100	;'d'
   640     0037  343A               	retlw	58	;':'
   641     0038  3425               	retlw	37	;'%'
   642     0039  3430               	retlw	48	;'0'
   643     003A  3432               	retlw	50	;'2'
   644     003B  3464               	retlw	100	;'d'
   645     003C  3400               	retlw	0
   646     003D                     STR_1:
   647     003D  3420               	retlw	32	;' '
   648     003E  3420               	retlw	32	;' '
   649     003F  3449               	retlw	73	;'I'
   650     0040  346E               	retlw	110	;'n'
   651     0041  3469               	retlw	105	;'i'
   652     0042  3463               	retlw	99	;'c'
   653     0043  3469               	retlw	105	;'i'
   654     0044  3461               	retlw	97	;'a'
   655     0045  346E               	retlw	110	;'n'
   656     0046  3464               	retlw	100	;'d'
   657     0047  346F               	retlw	111	;'o'
   658     0048  342E               	retlw	46	;'.'
   659     0049  342E               	retlw	46	;'.'
   660     004A  342E               	retlw	46	;'.'
   661     004B  3420               	retlw	32	;' '
   662     004C  3420               	retlw	32	;' '
   663     004D  3400               	retlw	0
   664                           
   665                           	psect	cinit
   666     07EB                     start_initialization:	
   667                           ; #config settings
   668                           
   669     07EB                     __initialization:
   670                           
   671                           ; Clear objects allocated to BANK0
   672     07EB  1383               	bcf	3,7	;select IRP bank0
   673     07EC  3067               	movlw	low __pbssBANK0
   674     07ED  0084               	movwf	4
   675     07EE  3070               	movlw	low (__pbssBANK0+9)
   676     07EF  120A  158A  26BC  120A  118A  	fcall	clear_ram0
   677                           
   678                           ; Clear objects allocated to BANK1
   679     07F4  30C8               	movlw	low __pbssBANK1
   680     07F5  0084               	movwf	4
   681     07F6  30EA               	movlw	low (__pbssBANK1+34)
   682     07F7  120A  158A  26BC  120A  118A  	fcall	clear_ram0
   683     07FC                     end_of_initialization:	
   684                           ;End of C runtime variable initialization code
   685                           
   686     07FC                     __end_of__initialization:
   687     07FC  0183               	clrf	3
   688     07FD  120A  118A  2EAB   	ljmp	_main	;jump to C main() function
   689                           
   690                           	psect	bssBANK0
   691     0067                     __pbssBANK0:
   692     0067                     _dht11_byte:
   693     0067                     	ds	5
   694     006C                     _width:
   695     006C                     	ds	2
   696     006E                     _flags:
   697     006E                     	ds	1
   698     006F                     _dht11_aux:
   699     006F                     	ds	1
   700                           
   701                           	psect	bssBANK1
   702     00C8                     __pbssBANK1:
   703     00C8                     _prec:
   704     00C8                     	ds	2
   705     00CA                     _dbuf:
   706     00CA                     	ds	32
   707                           
   708                           	psect	clrtext
   709     0EBC                     clear_ram0:	
   710                           ;	Called with FSR containing the base address, and
   711                           ;	W with the last address+1
   712                           
   713     0EBC  0064               	clrwdt	;clear the watchdog before getting into this loop
   714     0EBD                     clrloop0:
   715     0EBD  0180               	clrf	0	;clear RAM location pointed to by FSR
   716     0EBE  0A84               	incf	4,f	;increment pointer
   717     0EBF  0604               	xorwf	4,w	;XOR with final address
   718     0EC0  1903               	btfsc	3,2	;have we reached the end yet?
   719     0EC1  3400               	retlw	0	;all done for this memory range, return
   720     0EC2  0604               	xorwf	4,w	;XOR again to restore value
   721     0EC3  2EBD               	goto	clrloop0	;do the next byte
   722                           
   723                           	psect	cstackBANK1
   724     00A0                     __pcstackBANK1:
   725     00A0                     main@linea1:
   726                           
   727                           ; 17 bytes @ 0x0
   728     00A0                     	ds	17
   729     00B1                     main@linea2:
   730                           
   731                           ; 17 bytes @ 0x11
   732     00B1                     	ds	17
   733     00C2                     main@hora:
   734                           
   735                           ; 1 bytes @ 0x22
   736     00C2                     	ds	1
   737     00C3                     main@min:
   738                           
   739                           ; 1 bytes @ 0x23
   740     00C3                     	ds	1
   741     00C4                     main@seg:
   742                           
   743                           ; 1 bytes @ 0x24
   744     00C4                     	ds	1
   745     00C5                     main@dia:
   746                           
   747                           ; 1 bytes @ 0x25
   748     00C5                     	ds	1
   749     00C6                     main@mes:
   750                           
   751                           ; 1 bytes @ 0x26
   752     00C6                     	ds	1
   753     00C7                     main@ano:
   754                           
   755                           ; 1 bytes @ 0x27
   756     00C7                     	ds	1
   757                           
   758                           	psect	cstackCOMMON
   759     0070                     __pcstackCOMMON:
   760     0070                     ?_I2C_Init_Master:
   761     0070                     ?_Lcd_Init:	
   762                           ; 1 bytes @ 0x0
   763                           
   764     0070                     ?_Lcd_Clear:	
   765                           ; 1 bytes @ 0x0
   766                           
   767     0070                     ?_DS1307_Init:	
   768                           ; 1 bytes @ 0x0
   769                           
   770     0070                     ?_Lcd_Cmd:	
   771                           ; 1 bytes @ 0x0
   772                           
   773     0070                     ?_putch:	
   774                           ; 1 bytes @ 0x0
   775                           
   776     0070                     ?_main:	
   777                           ; 1 bytes @ 0x0
   778                           
   779     0070                     ?_I2C_Start:	
   780                           ; 1 bytes @ 0x0
   781                           
   782     0070                     ?_I2C_Stop:	
   783                           ; 1 bytes @ 0x0
   784                           
   785     0070                     ?_I2C_Restart:	
   786                           ; 1 bytes @ 0x0
   787                           
   788     0070                     ?_I2C_Ack:	
   789                           ; 1 bytes @ 0x0
   790                           
   791     0070                     ?_I2C_Nack:	
   792                           ; 1 bytes @ 0x0
   793                           
   794     0070                     ?_I2C_Write:	
   795                           ; 1 bytes @ 0x0
   796                           
   797     0070                     ?_I2C_Read:	
   798                           ; 1 bytes @ 0x0
   799                           
   800     0070                     ?_Lcd_Write_Char:	
   801                           ; 1 bytes @ 0x0
   802                           
   803     0070                     ?_BCD_To_Dec:	
   804                           ; 1 bytes @ 0x0
   805                           
   806     0070                     ?_Dec_To_BCD:	
   807                           ; 1 bytes @ 0x0
   808                           
   809     0070                     ?___bmul:	
   810                           ; 1 bytes @ 0x0
   811                           
   812     0070                     ?_fputc:	
   813                           ; 1 bytes @ 0x0
   814                           
   815     0070                     ?___wmul:	
   816                           ; 2 bytes @ 0x0
   817                           
   818     0070                     ?___awdiv:	
   819                           ; 2 bytes @ 0x0
   820                           
   821     0070                     ?___awmod:	
   822                           ; 2 bytes @ 0x0
   823                           
   824     0070                     I2C_Init_Master@sp_i2c:	
   825                           ; 2 bytes @ 0x0
   826                           
   827     0070                     ___bmul@multiplicand:	
   828                           ; 1 bytes @ 0x0
   829                           
   830     0070                     putch@c:	
   831                           ; 1 bytes @ 0x0
   832                           
   833     0070                     ___wmul@multiplier:	
   834                           ; 1 bytes @ 0x0
   835                           
   836     0070                     ___awdiv@divisor:	
   837                           ; 2 bytes @ 0x0
   838                           
   839     0070                     ___awmod@divisor:	
   840                           ; 2 bytes @ 0x0
   841                           
   842     0070                     fputc@c:	
   843                           ; 2 bytes @ 0x0
   844                           
   845     0070                     ??_I2C_Init_Master:	
   846                           ; 2 bytes @ 0x0
   847                           
   848     0070                     ??_putch:	
   849                           ; 1 bytes @ 0x0
   850                           
   851     0070                     ??_I2C_Start:	
   852                           ; 1 bytes @ 0x0
   853                           
   854     0070                     ??_I2C_Stop:	
   855                           ; 1 bytes @ 0x0
   856                           
   857     0070                     ??_I2C_Restart:	
   858                           ; 1 bytes @ 0x0
   859                           
   860     0070                     ??_I2C_Ack:	
   861                           ; 1 bytes @ 0x0
   862                           
   863     0070                     ??_I2C_Nack:	
   864                           ; 1 bytes @ 0x0
   865                           
   866     0070                     ??_I2C_Read:	
   867                           ; 1 bytes @ 0x0
   868                           
   869                           
   870                           ; 1 bytes @ 0x0
   871     0070                     	ds	1
   872     0071                     ___bmul@product:
   873     0071                     ??___bmul:	
   874                           ; 1 bytes @ 0x1
   875                           
   876                           
   877                           ; 1 bytes @ 0x1
   878     0071                     	ds	1
   879     0072                     ___bmul@multiplier:
   880     0072                     ___wmul@multiplicand:	
   881                           ; 1 bytes @ 0x2
   882                           
   883     0072                     ___awdiv@dividend:	
   884                           ; 2 bytes @ 0x2
   885                           
   886     0072                     ___awmod@dividend:	
   887                           ; 2 bytes @ 0x2
   888                           
   889     0072                     fputc@fp:	
   890                           ; 2 bytes @ 0x2
   891                           
   892                           
   893                           ; 2 bytes @ 0x2
   894     0072                     	ds	1
   895     0073                     ??_BCD_To_Dec:
   896                           
   897                           ; 1 bytes @ 0x3
   898     0073                     	ds	1
   899     0074                     BCD_To_Dec@decenas:
   900     0074                     ___awdiv@counter:	
   901                           ; 1 bytes @ 0x4
   902                           
   903     0074                     ___awmod@counter:	
   904                           ; 1 bytes @ 0x4
   905                           
   906     0074                     ___wmul@product:	
   907                           ; 1 bytes @ 0x4
   908                           
   909     0074                     ??_fputc:	
   910                           ; 2 bytes @ 0x4
   911                           
   912     0074                     ??___wmul:	
   913                           ; 1 bytes @ 0x4
   914                           
   915     0074                     ??___awdiv:	
   916                           ; 1 bytes @ 0x4
   917                           
   918     0074                     ??___awmod:	
   919                           ; 1 bytes @ 0x4
   920                           
   921                           
   922                           ; 1 bytes @ 0x4
   923     0074                     	ds	1
   924     0075                     BCD_To_Dec@unidades:
   925     0075                     ___awdiv@sign:	
   926                           ; 1 bytes @ 0x5
   927                           
   928     0075                     ___awmod@sign:	
   929                           ; 1 bytes @ 0x5
   930                           
   931                           
   932                           ; 1 bytes @ 0x5
   933     0075                     	ds	1
   934     0076                     ?_abs:
   935     0076                     ?_read_prec_or_width:	
   936                           ; 2 bytes @ 0x6
   937                           
   938     0076                     BCD_To_Dec@bcd_byte:	
   939                           ; 2 bytes @ 0x6
   940                           
   941     0076                     read_prec_or_width@fmt:	
   942                           ; 1 bytes @ 0x6
   943                           
   944     0076                     ___awdiv@quotient:	
   945                           ; 1 bytes @ 0x6
   946                           
   947     0076                     abs@a:	
   948                           ; 2 bytes @ 0x6
   949                           
   950                           
   951                           ; 2 bytes @ 0x6
   952     0076                     	ds	1
   953     0077                     read_prec_or_width@ap:
   954                           
   955                           ; 1 bytes @ 0x7
   956     0077                     	ds	1
   957     0078                     read_prec_or_width@c:
   958     0078                     ??_abs:	
   959                           ; 1 bytes @ 0x8
   960                           
   961     0078                     ??_Dec_To_BCD:	
   962                           ; 1 bytes @ 0x8
   963                           
   964     0078                     ??_read_prec_or_width:	
   965                           ; 1 bytes @ 0x8
   966                           
   967                           
   968                           ; 1 bytes @ 0x8
   969     0078                     	ds	1
   970     0079                     read_prec_or_width@n:
   971                           
   972                           ; 2 bytes @ 0x9
   973     0079                     	ds	1
   974     007A                     Dec_To_BCD@decenas:
   975                           
   976                           ; 1 bytes @ 0xA
   977     007A                     	ds	1
   978     007B                     Dec_To_BCD@unidades:
   979                           
   980                           ; 1 bytes @ 0xB
   981     007B                     	ds	1
   982     007C                     Dec_To_BCD@dec_byte:
   983                           
   984                           ; 1 bytes @ 0xC
   985     007C                     	ds	1
   986     007D                     I2C_Write@data:
   987     007D                     ??_I2C_Write:	
   988                           ; 1 bytes @ 0xD
   989                           
   990     007D                     ??_pad:	
   991                           ; 1 bytes @ 0xD
   992                           
   993                           
   994                           ; 1 bytes @ 0xD
   995     007D                     	ds	1
   996     007E                     ??_Lcd_Set_Cursor:
   997     007E                     ??_Lcd_Write_String:	
   998                           ; 1 bytes @ 0xE
   999                           
  1000     007E                     ??_DS1307_Init:	
  1001                           ; 1 bytes @ 0xE
  1002                           
  1003     007E                     ??_DS1307_SetTime:	
  1004                           ; 1 bytes @ 0xE
  1005                           
  1006     007E                     ??_DS1307_SetDate:	
  1007                           ; 1 bytes @ 0xE
  1008                           
  1009     007E                     ??_DS1307_GetTime:	
  1010                           ; 1 bytes @ 0xE
  1011                           
  1012     007E                     ??_DS1307_GetDate:	
  1013                           ; 1 bytes @ 0xE
  1014                           
  1015     007E                     ??_vfprintf:	
  1016                           ; 1 bytes @ 0xE
  1017                           
  1018     007E                     ??_dtoa:	
  1019                           ; 1 bytes @ 0xE
  1020                           
  1021                           
  1022                           	psect	cstackBANK0
  1023     0020                     __pcstackBANK0:	
  1024                           ; 1 bytes @ 0xE
  1025                           
  1026     0020                     ?_DS1307_SetTime:
  1027     0020                     ?_DS1307_SetDate:	
  1028                           ; 1 bytes @ 0x0
  1029                           
  1030     0020                     ?_DS1307_GetTime:	
  1031                           ; 1 bytes @ 0x0
  1032                           
  1033     0020                     ?_DS1307_GetDate:	
  1034                           ; 1 bytes @ 0x0
  1035                           
  1036     0020                     ?_fputs:	
  1037                           ; 1 bytes @ 0x0
  1038                           
  1039     0020                     DS1307_SetDate@month:	
  1040                           ; 2 bytes @ 0x0
  1041                           
  1042     0020                     DS1307_SetTime@min:	
  1043                           ; 1 bytes @ 0x0
  1044                           
  1045     0020                     DS1307_GetDate@day:	
  1046                           ; 1 bytes @ 0x0
  1047                           
  1048     0020                     DS1307_GetTime@hour:	
  1049                           ; 1 bytes @ 0x0
  1050                           
  1051     0020                     fputs@s:	
  1052                           ; 1 bytes @ 0x0
  1053                           
  1054     0020                     ??_Lcd_Cmd:	
  1055                           ; 1 bytes @ 0x0
  1056                           
  1057     0020                     ??_Lcd_Write_Char:	
  1058                           ; 1 bytes @ 0x0
  1059                           
  1060                           
  1061                           ; 1 bytes @ 0x0
  1062     0020                     	ds	1
  1063     0021                     Lcd_Cmd@cmd:
  1064     0021                     Lcd_Write_Char@c:	
  1065                           ; 1 bytes @ 0x1
  1066                           
  1067     0021                     DS1307_SetDate@year:	
  1068                           ; 1 bytes @ 0x1
  1069                           
  1070     0021                     DS1307_SetTime@sec:	
  1071                           ; 1 bytes @ 0x1
  1072                           
  1073     0021                     DS1307_GetDate@month:	
  1074                           ; 1 bytes @ 0x1
  1075                           
  1076     0021                     DS1307_GetTime@min:	
  1077                           ; 1 bytes @ 0x1
  1078                           
  1079     0021                     fputs@fp:	
  1080                           ; 1 bytes @ 0x1
  1081                           
  1082                           
  1083                           ; 2 bytes @ 0x1
  1084     0021                     	ds	1
  1085     0022                     Lcd_Cmd@data_u:
  1086     0022                     Lcd_Write_Char@data_u:	
  1087                           ; 1 bytes @ 0x2
  1088                           
  1089     0022                     DS1307_SetDate@day:	
  1090                           ; 1 bytes @ 0x2
  1091                           
  1092     0022                     DS1307_SetTime@hour:	
  1093                           ; 1 bytes @ 0x2
  1094                           
  1095     0022                     DS1307_GetDate@year:	
  1096                           ; 1 bytes @ 0x2
  1097                           
  1098     0022                     DS1307_GetTime@sec:	
  1099                           ; 1 bytes @ 0x2
  1100                           
  1101                           
  1102                           ; 1 bytes @ 0x2
  1103     0022                     	ds	1
  1104     0023                     Lcd_Cmd@data_l:
  1105     0023                     Lcd_Write_Char@data_l:	
  1106                           ; 1 bytes @ 0x3
  1107                           
  1108     0023                     DS1307_GetTime@temp:	
  1109                           ; 1 bytes @ 0x3
  1110                           
  1111     0023                     ??_fputs:	
  1112                           ; 1 bytes @ 0x3
  1113                           
  1114                           
  1115                           ; 1 bytes @ 0x3
  1116     0023                     	ds	1
  1117     0024                     ?_Lcd_Set_Cursor:
  1118     0024                     ?_Lcd_Write_String:	
  1119                           ; 1 bytes @ 0x4
  1120                           
  1121     0024                     Lcd_Set_Cursor@row:	
  1122                           ; 1 bytes @ 0x4
  1123                           
  1124     0024                     Lcd_Write_String@str:	
  1125                           ; 1 bytes @ 0x4
  1126                           
  1127     0024                     ??_Lcd_Init:	
  1128                           ; 2 bytes @ 0x4
  1129                           
  1130     0024                     ??_Lcd_Clear:	
  1131                           ; 1 bytes @ 0x4
  1132                           
  1133                           
  1134                           ; 1 bytes @ 0x4
  1135     0024                     	ds	1
  1136     0025                     Lcd_Set_Cursor@col:
  1137     0025                     fputs@c:	
  1138                           ; 1 bytes @ 0x5
  1139                           
  1140                           
  1141                           ; 1 bytes @ 0x5
  1142     0025                     	ds	1
  1143     0026                     Lcd_Set_Cursor@address:
  1144     0026                     fputs@i:	
  1145                           ; 1 bytes @ 0x6
  1146                           
  1147                           
  1148                           ; 2 bytes @ 0x6
  1149     0026                     	ds	2
  1150     0028                     ?_pad:
  1151     0028                     pad@fp:	
  1152                           ; 1 bytes @ 0x8
  1153                           
  1154                           
  1155                           ; 2 bytes @ 0x8
  1156     0028                     	ds	2
  1157     002A                     pad@buf:
  1158                           
  1159                           ; 1 bytes @ 0xA
  1160     002A                     	ds	1
  1161     002B                     pad@p:
  1162                           
  1163                           ; 2 bytes @ 0xB
  1164     002B                     	ds	2
  1165     002D                     pad@i:
  1166                           
  1167                           ; 2 bytes @ 0xD
  1168     002D                     	ds	2
  1169     002F                     ?_dtoa:
  1170     002F                     dtoa@fp:	
  1171                           ; 1 bytes @ 0xF
  1172                           
  1173                           
  1174                           ; 2 bytes @ 0xF
  1175     002F                     	ds	2
  1176     0031                     dtoa@d:
  1177                           
  1178                           ; 2 bytes @ 0x11
  1179     0031                     	ds	2
  1180     0033                     _dtoa$911:
  1181                           
  1182                           ; 2 bytes @ 0x13
  1183     0033                     	ds	2
  1184     0035                     dtoa@p:
  1185                           
  1186                           ; 1 bytes @ 0x15
  1187     0035                     	ds	1
  1188     0036                     dtoa@w:
  1189                           
  1190                           ; 2 bytes @ 0x16
  1191     0036                     	ds	2
  1192     0038                     dtoa@s:
  1193                           
  1194                           ; 1 bytes @ 0x18
  1195     0038                     	ds	1
  1196     0039                     dtoa@i:
  1197                           
  1198                           ; 2 bytes @ 0x19
  1199     0039                     	ds	2
  1200     003B                     ?_vfpfcnvrt:
  1201     003B                     vfpfcnvrt@fp:	
  1202                           ; 1 bytes @ 0x1B
  1203                           
  1204                           
  1205                           ; 2 bytes @ 0x1B
  1206     003B                     	ds	2
  1207     003D                     vfpfcnvrt@fmt:
  1208                           
  1209                           ; 1 bytes @ 0x1D
  1210     003D                     	ds	1
  1211     003E                     vfpfcnvrt@ap:
  1212                           
  1213                           ; 1 bytes @ 0x1E
  1214     003E                     	ds	1
  1215     003F                     ??_vfpfcnvrt:
  1216                           
  1217                           ; 1 bytes @ 0x1F
  1218     003F                     	ds	2
  1219     0041                     vfpfcnvrt@convarg:
  1220                           
  1221                           ; 4 bytes @ 0x21
  1222     0041                     	ds	4
  1223     0045                     vfpfcnvrt@done:
  1224                           
  1225                           ; 1 bytes @ 0x25
  1226     0045                     	ds	1
  1227     0046                     vfpfcnvrt@cp:
  1228                           
  1229                           ; 1 bytes @ 0x26
  1230     0046                     	ds	1
  1231     0047                     ?_vfprintf:
  1232     0047                     vfprintf@fp:	
  1233                           ; 2 bytes @ 0x27
  1234                           
  1235                           
  1236                           ; 2 bytes @ 0x27
  1237     0047                     	ds	2
  1238     0049                     vfprintf@fmt:
  1239                           
  1240                           ; 1 bytes @ 0x29
  1241     0049                     	ds	1
  1242     004A                     vfprintf@ap:
  1243                           
  1244                           ; 1 bytes @ 0x2A
  1245     004A                     	ds	1
  1246     004B                     vfprintf@cfmt:
  1247                           
  1248                           ; 1 bytes @ 0x2B
  1249     004B                     	ds	1
  1250     004C                     ?_sprintf:
  1251     004C                     sprintf@s:	
  1252                           ; 2 bytes @ 0x2C
  1253                           
  1254                           
  1255                           ; 1 bytes @ 0x2C
  1256     004C                     	ds	1
  1257     004D                     sprintf@fmt:
  1258                           
  1259                           ; 1 bytes @ 0x2D
  1260     004D                     	ds	7
  1261     0054                     ??_sprintf:
  1262                           
  1263                           ; 1 bytes @ 0x34
  1264     0054                     	ds	1
  1265     0055                     sprintf@ap:
  1266                           
  1267                           ; 1 bytes @ 0x35
  1268     0055                     	ds	1
  1269     0056                     sprintf@f:
  1270                           
  1271                           ; 11 bytes @ 0x36
  1272     0056                     	ds	11
  1273     0061                     ??_main:
  1274                           
  1275                           ; 1 bytes @ 0x41
  1276     0061                     	ds	6
  1277                           
  1278                           	psect	maintext
  1279     06AB                     __pmaintext:	
  1280 ;;
  1281 ;;Main: autosize = 0, tempsize = 6, incstack = 0, save=0
  1282 ;;
  1283 ;; *************** function _main *****************
  1284 ;; Defined at:
  1285 ;;		line 26 in file "lcd.c"
  1286 ;; Parameters:    Size  Location     Type
  1287 ;;		None
  1288 ;; Auto vars:     Size  Location     Type
  1289 ;;  linea2         17   17[BANK1 ] unsigned char [17]
  1290 ;;  linea1         17    0[BANK1 ] unsigned char [17]
  1291 ;;  ano             1   39[BANK1 ] unsigned char 
  1292 ;;  mes             1   38[BANK1 ] unsigned char 
  1293 ;;  dia             1   37[BANK1 ] unsigned char 
  1294 ;;  seg             1   36[BANK1 ] unsigned char 
  1295 ;;  min             1   35[BANK1 ] unsigned char 
  1296 ;;  hora            1   34[BANK1 ] unsigned char 
  1297 ;; Return value:  Size  Location     Type
  1298 ;;                  1    wreg      void 
  1299 ;; Registers used:
  1300 ;;		wreg, fsr0l, fsr0h, status,2, status,0, pclath, btemp1, cstack
  1301 ;; Tracked objects:
  1302 ;;		On entry : B00/0
  1303 ;;		On exit  : 0/0
  1304 ;;		Unchanged: 0/0
  1305 ;; Data sizes:     COMMON   BANK0   BANK1   BANK3   BANK2
  1306 ;;      Params:         0       0       0       0       0
  1307 ;;      Locals:         0       0      40       0       0
  1308 ;;      Temps:          0       6       0       0       0
  1309 ;;      Totals:         0       6      40       0       0
  1310 ;;Total ram usage:       46 bytes
  1311 ;; Hardware stack levels required when called: 7
  1312 ;; This function calls:
  1313 ;;		_DS1307_GetDate
  1314 ;;		_DS1307_GetTime
  1315 ;;		_DS1307_Init
  1316 ;;		_DS1307_SetDate
  1317 ;;		_DS1307_SetTime
  1318 ;;		_I2C_Init_Master
  1319 ;;		_Lcd_Clear
  1320 ;;		_Lcd_Init
  1321 ;;		_Lcd_Set_Cursor
  1322 ;;		_Lcd_Write_String
  1323 ;;		_sprintf
  1324 ;; This function is called by:
  1325 ;;		Startup code after reset
  1326 ;; This function uses a non-reentrant model
  1327 ;;
  1328                           
  1329     06AB                     _main:	
  1330                           ;psect for function _main
  1331                           
  1332     06AB                     l2091:	
  1333                           ;incstack = 0
  1334                           ; Regs used in _main: [wreg-fsr0h+status,2+status,0+pclath+btemp1+cstack]
  1335                           
  1336                           
  1337                           ;lcd.c: 28: ;lcd.c: 29: ;lcd.c: 30:     DS1307_Init();;lcd.c: 31:     _delay((unsigned l
      +                          ong)((100)*(20000000/4000.0)));;lcd.c: 34: 
  1338     06AB  1683               	bsf	3,5	;RP0=1, select bank3
  1339     06AC  1703               	bsf	3,6	;RP1=1, select bank3
  1340     06AD  0188               	clrf	8	;volatile
  1341                           
  1342                           ;lcd.c: 35: 
  1343     06AE  0189               	clrf	9	;volatile
  1344     06AF                     l2093:
  1345                           
  1346                           ;lcd.c: 37:     DS1307_SetDate(29, 10, 24);
  1347     06AF  300D               	movlw	13
  1348     06B0  1283               	bcf	3,5	;RP0=0, select bank0
  1349     06B1  1303               	bcf	3,6	;RP1=0, select bank0
  1350     06B2  00E3               	movwf	??_main+2
  1351     06B3  30AF               	movlw	175
  1352     06B4  00E2               	movwf	??_main+1
  1353     06B5  30B5               	movlw	181
  1354     06B6  00E1               	movwf	??_main
  1355     06B7                     u2527:
  1356     06B7  0BE1               	decfsz	??_main,f
  1357     06B8  2EB7               	goto	u2527
  1358     06B9  0BE2               	decfsz	??_main+1,f
  1359     06BA  2EB7               	goto	u2527
  1360     06BB  0BE3               	decfsz	??_main+2,f
  1361     06BC  2EB7               	goto	u2527
  1362     06BD  2EBE               	nop2
  1363     06BE                     l2095:
  1364                           
  1365                           ;lcd.c: 40:     Lcd_Clear();
  1366     06BE  3080               	movlw	128
  1367     06BF  120A  158A  274E  120A  118A  	fcall	_I2C_Init_Master
  1368     06C4                     l2097:
  1369                           
  1370                           ;lcd.c: 41: 
  1371     06C4  3003               	movlw	3
  1372     06C5  1283               	bcf	3,5	;RP0=0, select bank0
  1373     06C6  1303               	bcf	3,6	;RP1=0, select bank0
  1374     06C7  00E3               	movwf	??_main+2
  1375     06C8  308A               	movlw	138
  1376     06C9  00E2               	movwf	??_main+1
  1377     06CA  3055               	movlw	85
  1378     06CB  00E1               	movwf	??_main
  1379     06CC                     u2537:
  1380     06CC  0BE1               	decfsz	??_main,f
  1381     06CD  2ECC               	goto	u2537
  1382     06CE  0BE2               	decfsz	??_main+1,f
  1383     06CF  2ECC               	goto	u2537
  1384     06D0  0BE3               	decfsz	??_main+2,f
  1385     06D1  2ECC               	goto	u2537
  1386     06D2                     l2099:
  1387                           
  1388                           ;lcd.c: 44:     {
  1389     06D2  120A  118A  2123  120A  118A  	fcall	_Lcd_Init
  1390     06D7                     l2101:
  1391                           
  1392                           ;lcd.c: 45: 
  1393     06D7  3003               	movlw	3
  1394     06D8  1283               	bcf	3,5	;RP0=0, select bank0
  1395     06D9  1303               	bcf	3,6	;RP1=0, select bank0
  1396     06DA  00E3               	movwf	??_main+2
  1397     06DB  308A               	movlw	138
  1398     06DC  00E2               	movwf	??_main+1
  1399     06DD  3055               	movlw	85
  1400     06DE  00E1               	movwf	??_main
  1401     06DF                     u2547:
  1402     06DF  0BE1               	decfsz	??_main,f
  1403     06E0  2EDF               	goto	u2547
  1404     06E1  0BE2               	decfsz	??_main+1,f
  1405     06E2  2EDF               	goto	u2547
  1406     06E3  0BE3               	decfsz	??_main+2,f
  1407     06E4  2EDF               	goto	u2547
  1408     06E5                     l2103:
  1409                           
  1410                           ;lcd.c: 48: 
  1411     06E5  120A  158A  2711  120A  118A  	fcall	_Lcd_Clear
  1412     06EA                     l2105:
  1413                           
  1414                           ;lcd.c: 49: 
  1415     06EA  1283               	bcf	3,5	;RP0=0, select bank0
  1416     06EB  1303               	bcf	3,6	;RP1=0, select bank0
  1417     06EC  01A4               	clrf	Lcd_Set_Cursor@row
  1418     06ED  0AA4               	incf	Lcd_Set_Cursor@row,f
  1419     06EE  3001               	movlw	1
  1420     06EF  120A  158A  27D8  120A  118A  	fcall	_Lcd_Set_Cursor
  1421     06F4                     l2107:
  1422                           
  1423                           ;lcd.c: 50:         Lcd_Set_Cursor(1, 1);
  1424     06F4  302B               	movlw	(low ((STR_1-__stringbase)| (0+32768)))& (0+255)
  1425     06F5  1283               	bcf	3,5	;RP0=0, select bank0
  1426     06F6  1303               	bcf	3,6	;RP1=0, select bank0
  1427     06F7  00A4               	movwf	Lcd_Write_String@str
  1428     06F8  3080               	movlw	128
  1429     06F9  00A5               	movwf	Lcd_Write_String@str+1
  1430     06FA  120A  118A  2066  120A  118A  	fcall	_Lcd_Write_String
  1431     06FF                     l2109:
  1432                           
  1433                           ;lcd.c: 51:         sprintf(linea1, "Hora: %02d:%02d:%02d", hora, min, seg);
  1434     06FF  301A               	movlw	26
  1435     0700  1283               	bcf	3,5	;RP0=0, select bank0
  1436     0701  1303               	bcf	3,6	;RP1=0, select bank0
  1437     0702  00E3               	movwf	??_main+2
  1438     0703  305E               	movlw	94
  1439     0704  00E2               	movwf	??_main+1
  1440     0705  306D               	movlw	109
  1441     0706  00E1               	movwf	??_main
  1442     0707                     u2557:
  1443     0707  0BE1               	decfsz	??_main,f
  1444     0708  2F07               	goto	u2557
  1445     0709  0BE2               	decfsz	??_main+1,f
  1446     070A  2F07               	goto	u2557
  1447     070B  0BE3               	decfsz	??_main+2,f
  1448     070C  2F07               	goto	u2557
  1449     070D  2F0E               	nop2
  1450     070E                     l2111:
  1451                           
  1452                           ;lcd.c: 54: 
  1453     070E  120A  118A  20EA  120A  118A  	fcall	_DS1307_Init
  1454     0713                     l2113:
  1455                           
  1456                           ;lcd.c: 55:         Lcd_Set_Cursor(2, 1);
  1457     0713  3003               	movlw	3
  1458     0714  1283               	bcf	3,5	;RP0=0, select bank0
  1459     0715  1303               	bcf	3,6	;RP1=0, select bank0
  1460     0716  00E3               	movwf	??_main+2
  1461     0717  308A               	movlw	138
  1462     0718  00E2               	movwf	??_main+1
  1463     0719  3055               	movlw	85
  1464     071A  00E1               	movwf	??_main
  1465     071B                     u2567:
  1466     071B  0BE1               	decfsz	??_main,f
  1467     071C  2F1B               	goto	u2567
  1468     071D  0BE2               	decfsz	??_main+1,f
  1469     071E  2F1B               	goto	u2567
  1470     071F  0BE3               	decfsz	??_main+2,f
  1471     0720  2F1B               	goto	u2567
  1472     0721                     l2115:
  1473                           
  1474                           ;lcd.c: 60:     }
  1475     0721  1283               	bcf	3,5	;RP0=0, select bank0
  1476     0722  1303               	bcf	3,6	;RP1=0, select bank0
  1477     0723  01A0               	clrf	DS1307_SetTime@min
  1478     0724  01A1               	clrf	DS1307_SetTime@sec
  1479     0725  300C               	movlw	12
  1480     0726  120A  118A  219D  120A  118A  	fcall	_DS1307_SetTime
  1481     072B                     l2117:
  1482                           
  1483                           ;lcd.c: 61: }
  1484     072B  300A               	movlw	10
  1485     072C  1283               	bcf	3,5	;RP0=0, select bank0
  1486     072D  1303               	bcf	3,6	;RP1=0, select bank0
  1487     072E  00A0               	movwf	DS1307_SetDate@month
  1488     072F  3018               	movlw	24
  1489     0730  00A1               	movwf	DS1307_SetDate@year
  1490     0731  301D               	movlw	29
  1491     0732  120A  118A  215C  120A  118A  	fcall	_DS1307_SetDate
  1492     0737                     l2119:
  1493     0737  120A  158A  2711  120A  118A  	fcall	_Lcd_Clear
  1494     073C                     l2121:
  1495     073C  30C2               	movlw	(low (main@hora| 0))& (0+255)
  1496     073D  1283               	bcf	3,5	;RP0=0, select bank0
  1497     073E  1303               	bcf	3,6	;RP1=0, select bank0
  1498     073F  00A0               	movwf	DS1307_GetTime@hour
  1499     0740  30C3               	movlw	(low (main@min| 0))& (0+255)
  1500     0741  00A1               	movwf	DS1307_GetTime@min
  1501     0742  30C4               	movlw	(low (main@seg| 0))& (0+255)
  1502     0743  00A2               	movwf	DS1307_GetTime@sec
  1503     0744  120A  118A  2431  120A  118A  	fcall	_DS1307_GetTime
  1504     0749                     l2123:
  1505     0749  30C5               	movlw	(low (main@dia| 0))& (0+255)
  1506     074A  1283               	bcf	3,5	;RP0=0, select bank0
  1507     074B  1303               	bcf	3,6	;RP1=0, select bank0
  1508     074C  00A0               	movwf	DS1307_GetDate@day
  1509     074D  30C6               	movlw	(low (main@mes| 0))& (0+255)
  1510     074E  00A1               	movwf	DS1307_GetDate@month
  1511     074F  30C7               	movlw	(low (main@ano| 0))& (0+255)
  1512     0750  00A2               	movwf	DS1307_GetDate@year
  1513     0751  120A  118A  236D  120A  118A  	fcall	_DS1307_GetDate
  1514     0756                     l2125:
  1515     0756  1283               	bcf	3,5	;RP0=0, select bank0
  1516     0757  1303               	bcf	3,6	;RP1=0, select bank0
  1517     0758  01A4               	clrf	Lcd_Set_Cursor@row
  1518     0759  0AA4               	incf	Lcd_Set_Cursor@row,f
  1519     075A  3001               	movlw	1
  1520     075B  120A  158A  27D8  120A  118A  	fcall	_Lcd_Set_Cursor
  1521     0760                     l2127:
  1522     0760  30A0               	movlw	(low (main@linea1| 0))& (0+255)
  1523     0761  1283               	bcf	3,5	;RP0=0, select bank0
  1524     0762  1303               	bcf	3,6	;RP1=0, select bank0
  1525     0763  00CC               	movwf	sprintf@s
  1526     0764  3016               	movlw	(low ((STR_2-__stringbase)| (0+32768)))& (0+255)
  1527     0765  00CD               	movwf	sprintf@fmt
  1528     0766  1683               	bsf	3,5	;RP0=1, select bank1
  1529     0767  1303               	bcf	3,6	;RP1=0, select bank1
  1530     0768  0842               	movf	main@hora^(0+128),w
  1531     0769  1283               	bcf	3,5	;RP0=0, select bank0
  1532     076A  1303               	bcf	3,6	;RP1=0, select bank0
  1533     076B  00E1               	movwf	??_main
  1534     076C  01E2               	clrf	??_main+1
  1535     076D  0861               	movf	??_main,w
  1536     076E  00CE               	movwf	?_sprintf+2
  1537     076F  0862               	movf	??_main+1,w
  1538     0770  00CF               	movwf	?_sprintf+3
  1539     0771  1683               	bsf	3,5	;RP0=1, select bank1
  1540     0772  1303               	bcf	3,6	;RP1=0, select bank1
  1541     0773  0843               	movf	main@min^(0+128),w
  1542     0774  1283               	bcf	3,5	;RP0=0, select bank0
  1543     0775  1303               	bcf	3,6	;RP1=0, select bank0
  1544     0776  00E3               	movwf	??_main+2
  1545     0777  01E4               	clrf	??_main+3
  1546     0778  0863               	movf	??_main+2,w
  1547     0779  00D0               	movwf	?_sprintf+4
  1548     077A  0864               	movf	??_main+3,w
  1549     077B  00D1               	movwf	?_sprintf+5
  1550     077C  1683               	bsf	3,5	;RP0=1, select bank1
  1551     077D  1303               	bcf	3,6	;RP1=0, select bank1
  1552     077E  0844               	movf	main@seg^(0+128),w
  1553     077F  1283               	bcf	3,5	;RP0=0, select bank0
  1554     0780  1303               	bcf	3,6	;RP1=0, select bank0
  1555     0781  00E5               	movwf	??_main+4
  1556     0782  01E6               	clrf	??_main+5
  1557     0783  0865               	movf	??_main+4,w
  1558     0784  00D2               	movwf	?_sprintf+6
  1559     0785  0866               	movf	??_main+5,w
  1560     0786  00D3               	movwf	?_sprintf+7
  1561     0787  120A  158A  2790  120A  118A  	fcall	_sprintf
  1562     078C                     l2129:
  1563     078C  30A0               	movlw	(low (main@linea1| 0))& (0+255)
  1564     078D  1283               	bcf	3,5	;RP0=0, select bank0
  1565     078E  1303               	bcf	3,6	;RP1=0, select bank0
  1566     078F  00A4               	movwf	Lcd_Write_String@str
  1567     0790  3000               	movlw	0
  1568     0791  00A5               	movwf	Lcd_Write_String@str+1
  1569     0792  120A  118A  2066  120A  118A  	fcall	_Lcd_Write_String
  1570     0797                     l2131:
  1571     0797  1283               	bcf	3,5	;RP0=0, select bank0
  1572     0798  1303               	bcf	3,6	;RP1=0, select bank0
  1573     0799  01A4               	clrf	Lcd_Set_Cursor@row
  1574     079A  0AA4               	incf	Lcd_Set_Cursor@row,f
  1575     079B  3002               	movlw	2
  1576     079C  120A  158A  27D8  120A  118A  	fcall	_Lcd_Set_Cursor
  1577     07A1                     l2133:
  1578     07A1  30B1               	movlw	(low (main@linea2| 0))& (0+255)
  1579     07A2  1283               	bcf	3,5	;RP0=0, select bank0
  1580     07A3  1303               	bcf	3,6	;RP1=0, select bank0
  1581     07A4  00CC               	movwf	sprintf@s
  1582     07A5  3001               	movlw	(low ((STR_3-__stringbase)| (0+32768)))& (0+255)
  1583     07A6  00CD               	movwf	sprintf@fmt
  1584     07A7  1683               	bsf	3,5	;RP0=1, select bank1
  1585     07A8  1303               	bcf	3,6	;RP1=0, select bank1
  1586     07A9  0845               	movf	main@dia^(0+128),w
  1587     07AA  1283               	bcf	3,5	;RP0=0, select bank0
  1588     07AB  1303               	bcf	3,6	;RP1=0, select bank0
  1589     07AC  00E1               	movwf	??_main
  1590     07AD  01E2               	clrf	??_main+1
  1591     07AE  0861               	movf	??_main,w
  1592     07AF  00CE               	movwf	?_sprintf+2
  1593     07B0  0862               	movf	??_main+1,w
  1594     07B1  00CF               	movwf	?_sprintf+3
  1595     07B2  1683               	bsf	3,5	;RP0=1, select bank1
  1596     07B3  1303               	bcf	3,6	;RP1=0, select bank1
  1597     07B4  0846               	movf	main@mes^(0+128),w
  1598     07B5  1283               	bcf	3,5	;RP0=0, select bank0
  1599     07B6  1303               	bcf	3,6	;RP1=0, select bank0
  1600     07B7  00E3               	movwf	??_main+2
  1601     07B8  01E4               	clrf	??_main+3
  1602     07B9  0863               	movf	??_main+2,w
  1603     07BA  00D0               	movwf	?_sprintf+4
  1604     07BB  0864               	movf	??_main+3,w
  1605     07BC  00D1               	movwf	?_sprintf+5
  1606     07BD  1683               	bsf	3,5	;RP0=1, select bank1
  1607     07BE  1303               	bcf	3,6	;RP1=0, select bank1
  1608     07BF  0847               	movf	main@ano^(0+128),w
  1609     07C0  1283               	bcf	3,5	;RP0=0, select bank0
  1610     07C1  1303               	bcf	3,6	;RP1=0, select bank0
  1611     07C2  00E5               	movwf	??_main+4
  1612     07C3  01E6               	clrf	??_main+5
  1613     07C4  0865               	movf	??_main+4,w
  1614     07C5  00D2               	movwf	?_sprintf+6
  1615     07C6  0866               	movf	??_main+5,w
  1616     07C7  00D3               	movwf	?_sprintf+7
  1617     07C8  120A  158A  2790  120A  118A  	fcall	_sprintf
  1618     07CD                     l2135:
  1619     07CD  30B1               	movlw	(low (main@linea2| 0))& (0+255)
  1620     07CE  1283               	bcf	3,5	;RP0=0, select bank0
  1621     07CF  1303               	bcf	3,6	;RP1=0, select bank0
  1622     07D0  00A4               	movwf	Lcd_Write_String@str
  1623     07D1  3000               	movlw	0
  1624     07D2  00A5               	movwf	Lcd_Write_String@str+1
  1625     07D3  120A  118A  2066  120A  118A  	fcall	_Lcd_Write_String
  1626     07D8                     l2137:
  1627     07D8  301A               	movlw	26
  1628     07D9  1283               	bcf	3,5	;RP0=0, select bank0
  1629     07DA  1303               	bcf	3,6	;RP1=0, select bank0
  1630     07DB  00E3               	movwf	??_main+2
  1631     07DC  305E               	movlw	94
  1632     07DD  00E2               	movwf	??_main+1
  1633     07DE  306D               	movlw	109
  1634     07DF  00E1               	movwf	??_main
  1635     07E0                     u2577:
  1636     07E0  0BE1               	decfsz	??_main,f
  1637     07E1  2FE0               	goto	u2577
  1638     07E2  0BE2               	decfsz	??_main+1,f
  1639     07E3  2FE0               	goto	u2577
  1640     07E4  0BE3               	decfsz	??_main+2,f
  1641     07E5  2FE0               	goto	u2577
  1642     07E6  2FE7               	nop2
  1643     07E7  2F3C               	goto	l2121
  1644     07E8  120A  118A  2800   	ljmp	start
  1645     07EB                     __end_of_main:
  1646                           
  1647                           	psect	text1
  1648     0F90                     __ptext1:	
  1649 ;; *************** function _sprintf *****************
  1650 ;; Defined at:
  1651 ;;		line 9 in file "C:\Program Files\Microchip\xc8\v3.10\pic\sources\c99\common\nf_sprintf.c"
  1652 ;; Parameters:    Size  Location     Type
  1653 ;;  s               1   44[BANK0 ] PTR unsigned char 
  1654 ;;		 -> main@linea2(17), main@linea1(17), 
  1655 ;;  fmt             1   45[BANK0 ] PTR const unsigned char 
  1656 ;;		 -> STR_3(21), STR_2(21), 
  1657 ;; Auto vars:     Size  Location     Type
  1658 ;;  f              11   54[BANK0 ] struct _IO_FILE
  1659 ;;  ret             2    0        int 
  1660 ;;  ap              1   53[BANK0 ] PTR void [1]
  1661 ;;		 -> ?_sprintf(2), 
  1662 ;; Return value:  Size  Location     Type
  1663 ;;                  2   44[BANK0 ] int 
  1664 ;; Registers used:
  1665 ;;		wreg, fsr0l, fsr0h, status,2, status,0, pclath, btemp1, cstack
  1666 ;; Tracked objects:
  1667 ;;		On entry : 0/0
  1668 ;;		On exit  : 0/0
  1669 ;;		Unchanged: 0/0
  1670 ;; Data sizes:     COMMON   BANK0   BANK1   BANK3   BANK2
  1671 ;;      Params:         0       8       0       0       0
  1672 ;;      Locals:         0      12       0       0       0
  1673 ;;      Temps:          0       1       0       0       0
  1674 ;;      Totals:         0      21       0       0       0
  1675 ;;Total ram usage:       21 bytes
  1676 ;; Hardware stack levels used: 1
  1677 ;; Hardware stack levels required when called: 6
  1678 ;; This function calls:
  1679 ;;		_vfprintf
  1680 ;; This function is called by:
  1681 ;;		_main
  1682 ;; This function uses a non-reentrant model
  1683 ;;
  1684                           
  1685     0F90                     _sprintf:	
  1686                           ;psect for function _sprintf
  1687                           
  1688     0F90                     l2077:	
  1689                           ;incstack = 0
  1690                           ; Regs used in _sprintf: [wreg-fsr0h+status,2+status,0+pclath+btemp1+cstack]
  1691                           
  1692     0F90  304E               	movlw	(low ((?_sprintf| 0+2)))& (0+255)
  1693     0F91  1283               	bcf	3,5	;RP0=0, select bank0
  1694     0F92  1303               	bcf	3,6	;RP1=0, select bank0
  1695     0F93  00D5               	movwf	sprintf@ap
  1696     0F94                     l2079:
  1697     0F94  084C               	movf	sprintf@s,w
  1698     0F95  00D6               	movwf	sprintf@f
  1699     0F96  3000               	movlw	0
  1700     0F97  00D7               	movwf	sprintf@f+1
  1701     0F98                     l2081:
  1702     0F98  01D8               	clrf	sprintf@f+2
  1703     0F99  01D9               	clrf	sprintf@f+3
  1704     0F9A                     l2083:
  1705     0F9A  01DF               	clrf	sprintf@f+9
  1706     0F9B  01E0               	clrf	sprintf@f+10
  1707     0F9C                     l2085:
  1708     0F9C  3056               	movlw	low sprintf@f
  1709     0F9D  00C7               	movwf	vfprintf@fp
  1710     0F9E  3000               	movlw	high sprintf@f
  1711     0F9F  00C8               	movwf	vfprintf@fp+1
  1712     0FA0  084D               	movf	sprintf@fmt,w
  1713     0FA1  00C9               	movwf	vfprintf@fmt
  1714     0FA2  3055               	movlw	(low (sprintf@ap| 0))& (0+255)
  1715     0FA3  00CA               	movwf	vfprintf@ap
  1716     0FA4  120A  158A  276D  120A  158A  	fcall	_vfprintf
  1717     0FA9                     l2087:
  1718     0FA9  1283               	bcf	3,5	;RP0=0, select bank0
  1719     0FAA  1303               	bcf	3,6	;RP1=0, select bank0
  1720     0FAB  0858               	movf	sprintf@f+2,w
  1721     0FAC  074C               	addwf	sprintf@s,w
  1722     0FAD  00D4               	movwf	??_sprintf
  1723     0FAE  0854               	movf	??_sprintf,w
  1724     0FAF  0084               	movwf	4
  1725     0FB0  1383               	bcf	3,7	;select IRP bank0
  1726     0FB1  0180               	clrf	0
  1727     0FB2                     l793:
  1728     0FB2  0008               	return
  1729     0FB3                     __end_of_sprintf:
  1730                           
  1731                           	psect	text2
  1732     0F6D                     __ptext2:	
  1733 ;; *************** function _vfprintf *****************
  1734 ;; Defined at:
  1735 ;;		line 1817 in file "C:\Program Files\Microchip\xc8\v3.10\pic\sources\c99\common\doprnt.c"
  1736 ;; Parameters:    Size  Location     Type
  1737 ;;  fp              2   39[BANK0 ] PTR struct _IO_FILE
  1738 ;;		 -> sprintf@f(11), 
  1739 ;;  fmt             1   41[BANK0 ] PTR const unsigned char 
  1740 ;;		 -> STR_3(21), STR_2(21), 
  1741 ;;  ap              1   42[BANK0 ] PTR PTR void 
  1742 ;;		 -> sprintf@ap(1), 
  1743 ;; Auto vars:     Size  Location     Type
  1744 ;;  cfmt            1   43[BANK0 ] PTR unsigned char 
  1745 ;;		 -> STR_3(21), STR_2(21), 
  1746 ;; Return value:  Size  Location     Type
  1747 ;;                  2   39[BANK0 ] int 
  1748 ;; Registers used:
  1749 ;;		wreg, fsr0l, fsr0h, status,2, status,0, pclath, btemp1, cstack
  1750 ;; Tracked objects:
  1751 ;;		On entry : 0/0
  1752 ;;		On exit  : 0/0
  1753 ;;		Unchanged: 0/0
  1754 ;; Data sizes:     COMMON   BANK0   BANK1   BANK3   BANK2
  1755 ;;      Params:         0       4       0       0       0
  1756 ;;      Locals:         0       1       0       0       0
  1757 ;;      Temps:          0       0       0       0       0
  1758 ;;      Totals:         0       5       0       0       0
  1759 ;;Total ram usage:        5 bytes
  1760 ;; Hardware stack levels used: 1
  1761 ;; Hardware stack levels required when called: 5
  1762 ;; This function calls:
  1763 ;;		_vfpfcnvrt
  1764 ;; This function is called by:
  1765 ;;		_sprintf
  1766 ;; This function uses a non-reentrant model
  1767 ;;
  1768                           
  1769     0F6D                     _vfprintf:	
  1770                           ;psect for function _vfprintf
  1771                           
  1772     0F6D                     l1917:	
  1773                           ;incstack = 0
  1774                           ; Regs used in _vfprintf: [wreg-fsr0h+status,2+status,0+pclath+btemp1+cstack]
  1775                           
  1776                           
  1777                           ;C:\Program Files\Microchip\xc8\v3.10\pic\sources\c99\common\doprnt.c: 1817: int vfprint
      +                          f(FILE *fp, const char *fmt, va_list ap);C:\Program Files\Microchip\xc8\v3.10\pic\source
      +                          s\c99\common\doprnt.c: 1818: {;C:\Program Files\Microchip\xc8\v3.10\pic\sources\c99\comm
      +                          on\doprnt.c: 1820:     char *cfmt;;C:\Program Files\Microchip\xc8\v3.10\pic\sources\c99\
      +                          common\doprnt.c: 1822:     cfmt = (char *)fmt;
  1778     0F6D  1283               	bcf	3,5	;RP0=0, select bank0
  1779     0F6E  1303               	bcf	3,6	;RP1=0, select bank0
  1780     0F6F  0849               	movf	vfprintf@fmt,w
  1781     0F70  00CB               	movwf	vfprintf@cfmt
  1782                           
  1783                           ;C:\Program Files\Microchip\xc8\v3.10\pic\sources\c99\common\doprnt.c: 1826:     while (
      +                          *cfmt) {
  1784     0F71  2F7F               	goto	l1921
  1785     0F72                     l1919:
  1786                           
  1787                           ;C:\Program Files\Microchip\xc8\v3.10\pic\sources\c99\common\doprnt.c: 1830:    vfpfcnvr
      +                          t(fp, &cfmt, ap);
  1788     0F72  0847               	movf	vfprintf@fp,w
  1789     0F73  00BB               	movwf	vfpfcnvrt@fp
  1790     0F74  0848               	movf	vfprintf@fp+1,w
  1791     0F75  00BC               	movwf	vfpfcnvrt@fp+1
  1792     0F76  304B               	movlw	(low (vfprintf@cfmt| 0))& (0+255)
  1793     0F77  00BD               	movwf	vfpfcnvrt@fmt
  1794     0F78  084A               	movf	vfprintf@ap,w
  1795     0F79  00BE               	movwf	vfpfcnvrt@ap
  1796     0F7A  120A  118A  2532  120A  158A  	fcall	_vfpfcnvrt
  1797     0F7F                     l1921:
  1798                           
  1799                           ;C:\Program Files\Microchip\xc8\v3.10\pic\sources\c99\common\doprnt.c: 1826:     while (
      +                          *cfmt) {
  1800     0F7F  1283               	bcf	3,5	;RP0=0, select bank0
  1801     0F80  1303               	bcf	3,6	;RP1=0, select bank0
  1802     0F81  084B               	movf	vfprintf@cfmt,w
  1803     0F82  0084               	movwf	4
  1804     0F83  120A  118A  200D  120A  158A  	fcall	stringdir
  1805     0F88  3A00               	xorlw	0
  1806     0F89  1D03               	skipz
  1807     0F8A  2F8C               	goto	u1461
  1808     0F8B  2F8D               	goto	u1460
  1809     0F8C                     u1461:
  1810     0F8C  2F72               	goto	l1919
  1811     0F8D                     u1460:
  1812     0F8D                     l1923:
  1813                           
  1814                           ;C:\Program Files\Microchip\xc8\v3.10\pic\sources\c99\common\doprnt.c: 1835:  return 0;
  1815     0F8D  01C7               	clrf	?_vfprintf
  1816     0F8E  01C8               	clrf	?_vfprintf+1
  1817     0F8F                     l863:
  1818     0F8F  0008               	return
  1819     0F90                     __end_of_vfprintf:
  1820                           
  1821                           	psect	text3
  1822     0532                     __ptext3:	
  1823 ;; *************** function _vfpfcnvrt *****************
  1824 ;; Defined at:
  1825 ;;		line 1177 in file "C:\Program Files\Microchip\xc8\v3.10\pic\sources\c99\common\doprnt.c"
  1826 ;; Parameters:    Size  Location     Type
  1827 ;;  fp              2   27[BANK0 ] PTR struct _IO_FILE
  1828 ;;		 -> sprintf@f(11), 
  1829 ;;  fmt             1   29[BANK0 ] PTR PTR unsigned char 
  1830 ;;		 -> vfprintf@cfmt(1), 
  1831 ;;  ap              1   30[BANK0 ] PTR PTR void 
  1832 ;;		 -> sprintf@ap(1), 
  1833 ;; Auto vars:     Size  Location     Type
  1834 ;;  convarg         4   33[BANK0 ] struct .
  1835 ;;  cp              1   38[BANK0 ] PTR unsigned char 
  1836 ;;		 -> STR_3(21), STR_2(21), 
  1837 ;;  done            1   37[BANK0 ] _Bool 
  1838 ;;  c               1    0        unsigned char 
  1839 ;; Return value:  Size  Location     Type
  1840 ;;                  1    wreg      void 
  1841 ;; Registers used:
  1842 ;;		wreg, fsr0l, fsr0h, status,2, status,0, pclath, btemp1, cstack
  1843 ;; Tracked objects:
  1844 ;;		On entry : 0/0
  1845 ;;		On exit  : 0/0
  1846 ;;		Unchanged: 0/0
  1847 ;; Data sizes:     COMMON   BANK0   BANK1   BANK3   BANK2
  1848 ;;      Params:         0       4       0       0       0
  1849 ;;      Locals:         0       6       0       0       0
  1850 ;;      Temps:          0       2       0       0       0
  1851 ;;      Totals:         0      12       0       0       0
  1852 ;;Total ram usage:       12 bytes
  1853 ;; Hardware stack levels used: 1
  1854 ;; Hardware stack levels required when called: 4
  1855 ;; This function calls:
  1856 ;;		_dtoa
  1857 ;;		_fputc
  1858 ;;		_read_prec_or_width
  1859 ;; This function is called by:
  1860 ;;		_vfprintf
  1861 ;; This function uses a non-reentrant model
  1862 ;;
  1863                           
  1864     0532                     _vfpfcnvrt:	
  1865                           ;psect for function _vfpfcnvrt
  1866                           
  1867     0532                     l1795:	
  1868                           ;incstack = 0
  1869                           ; Regs used in _vfpfcnvrt: [wreg-fsr0h+status,2+status,0+pclath+btemp1+cstack]
  1870                           
  1871                           
  1872                           ;C:\Program Files\Microchip\xc8\v3.10\pic\sources\c99\common\doprnt.c: 1177: vfpfcnvrt(F
      +                          ILE *fp, char *fmt[], va_list ap);C:\Program Files\Microchip\xc8\v3.10\pic\sources\c99\c
      +                          ommon\doprnt.c: 1178: {;C:\Program Files\Microchip\xc8\v3.10\pic\sources\c99\common\dopr
      +                          nt.c: 1179:     char c, *cp;;C:\Program Files\Microchip\xc8\v3.10\pic\sources\c99\common
      +                          \doprnt.c: 1180:     _Bool done;;C:\Program Files\Microchip\xc8\v3.10\pic\sources\c99\co
      +                          mmon\doprnt.c: 1188:  } convarg;;C:\Program Files\Microchip\xc8\v3.10\pic\sources\c99\co
      +                          mmon\doprnt.c: 1201:     if ((*fmt)[0] == '%') {
  1873     0532  1283               	bcf	3,5	;RP0=0, select bank0
  1874     0533  1303               	bcf	3,6	;RP1=0, select bank0
  1875     0534  083D               	movf	vfpfcnvrt@fmt,w
  1876     0535  0084               	movwf	4
  1877     0536  1383               	bcf	3,7	;select IRP bank0
  1878     0537  0800               	movf	0,w
  1879     0538  0084               	movwf	4
  1880     0539  120A  118A  200D  120A  118A  	fcall	stringdir
  1881     053E  3A25               	xorlw	37
  1882     053F  1D03               	skipz
  1883     0540  2D42               	goto	u1331
  1884     0541  2D43               	goto	u1330
  1885     0542                     u1331:
  1886     0542  2DCE               	goto	l1839
  1887     0543                     u1330:
  1888     0543                     l1797:
  1889                           
  1890                           ;C:\Program Files\Microchip\xc8\v3.10\pic\sources\c99\common\doprnt.c: 1202:         ++*
      +                          fmt;
  1891     0543  083D               	movf	vfpfcnvrt@fmt,w
  1892     0544  0084               	movwf	4
  1893     0545  3001               	movlw	1
  1894     0546  0780               	addwf	0,f
  1895     0547                     l1799:
  1896                           
  1897                           ;C:\Program Files\Microchip\xc8\v3.10\pic\sources\c99\common\doprnt.c: 1204:         fla
      +                          gs = width = 0;
  1898     0547  01EC               	clrf	_width
  1899     0548  01ED               	clrf	_width+1
  1900     0549  3000               	movlw	0
  1901     054A  00EE               	movwf	_flags
  1902     054B                     l1801:
  1903                           
  1904                           ;C:\Program Files\Microchip\xc8\v3.10\pic\sources\c99\common\doprnt.c: 1205:         pre
      +                          c = -1;
  1905     054B  30FF               	movlw	255
  1906     054C  1683               	bsf	3,5	;RP0=1, select bank1
  1907     054D  1303               	bcf	3,6	;RP1=0, select bank1
  1908     054E  00C8               	movwf	_prec^(0+128)
  1909     054F  30FF               	movlw	255
  1910     0550  00C9               	movwf	(_prec^(0+128)+1)
  1911     0551                     l1803:
  1912                           
  1913                           ;C:\Program Files\Microchip\xc8\v3.10\pic\sources\c99\common\doprnt.c: 1209:         don
      +                          e = 0;
  1914     0551  1283               	bcf	3,5	;RP0=0, select bank0
  1915     0552  1303               	bcf	3,6	;RP1=0, select bank0
  1916     0553  01C5               	clrf	vfpfcnvrt@done
  1917                           
  1918                           ;C:\Program Files\Microchip\xc8\v3.10\pic\sources\c99\common\doprnt.c: 1210:         whi
      +                          le (!done) {
  1919     0554  2D6B               	goto	l1811
  1920     0555                     l849:	
  1921                           ;C:\Program Files\Microchip\xc8\v3.10\pic\sources\c99\common\doprnt.c: 1219:            
      +                               case '0' :
  1922                           
  1923                           
  1924                           ;C:\Program Files\Microchip\xc8\v3.10\pic\sources\c99\common\doprnt.c: 1220:            
      +                                   flags |= (1 << 1);
  1925     0555  14EE               	bsf	_flags,1
  1926     0556                     l1805:
  1927                           
  1928                           ;C:\Program Files\Microchip\xc8\v3.10\pic\sources\c99\common\doprnt.c: 1221:            
      +                                   ++*fmt;
  1929     0556  083D               	movf	vfpfcnvrt@fmt,w
  1930     0557  0084               	movwf	4
  1931     0558  3001               	movlw	1
  1932     0559  0780               	addwf	0,f
  1933                           
  1934                           ;C:\Program Files\Microchip\xc8\v3.10\pic\sources\c99\common\doprnt.c: 1222:            
      +                                   break;
  1935     055A  2D6B               	goto	l1811
  1936     055B                     l851:	
  1937                           ;C:\Program Files\Microchip\xc8\v3.10\pic\sources\c99\common\doprnt.c: 1242:            
      +                               default:
  1938                           
  1939                           
  1940                           ;C:\Program Files\Microchip\xc8\v3.10\pic\sources\c99\common\doprnt.c: 1243:            
      +                                   done = 1;
  1941     055B  3001               	movlw	1
  1942     055C  00C5               	movwf	vfpfcnvrt@done
  1943                           
  1944                           ;C:\Program Files\Microchip\xc8\v3.10\pic\sources\c99\common\doprnt.c: 1244:            
      +                                   break;
  1945     055D  2D6B               	goto	l1811
  1946     055E                     l1809:
  1947     055E  083D               	movf	vfpfcnvrt@fmt,w
  1948     055F  0084               	movwf	4
  1949     0560  0800               	movf	0,w
  1950     0561  0084               	movwf	4
  1951     0562  120A  118A  200D  120A  118A  	fcall	stringdir
  1952                           
  1953                           ; Switch size 1, requested type "simple"
  1954                           ; Number of cases is 1, Range of values is 48 to 48
  1955                           ; switch strategies available:
  1956                           ; Name         Instructions Cycles
  1957                           ; simple_byte            4     3 (average)
  1958                           ; direct_byte           14    11 (fixed)
  1959                           ; jumptable            263     9 (fixed)
  1960                           ;	Chosen strategy is simple_byte
  1961     0567  3A30               	xorlw	48	; case 48
  1962     0568  1903               	skipnz
  1963     0569  2D55               	goto	l849
  1964     056A  2D5B               	goto	l851
  1965     056B                     l1811:
  1966                           
  1967                           ;C:\Program Files\Microchip\xc8\v3.10\pic\sources\c99\common\doprnt.c: 1210:         whi
      +                          le (!done) {
  1968     056B  0845               	movf	vfpfcnvrt@done,w
  1969     056C  1903               	btfsc	3,2
  1970     056D  2D6F               	goto	u1341
  1971     056E  2D70               	goto	u1340
  1972     056F                     u1341:
  1973     056F  2D5E               	goto	l1809
  1974     0570                     u1340:
  1975     0570                     l1813:
  1976                           
  1977                           ;C:\Program Files\Microchip\xc8\v3.10\pic\sources\c99\common\doprnt.c: 1256:   width = r
      +                          ead_prec_or_width(fmt, ap);
  1978     0570  083D               	movf	vfpfcnvrt@fmt,w
  1979     0571  00F6               	movwf	read_prec_or_width@fmt
  1980     0572  083E               	movf	vfpfcnvrt@ap,w
  1981     0573  00F7               	movwf	read_prec_or_width@ap
  1982     0574  120A  118A  22C3  120A  118A  	fcall	_read_prec_or_width
  1983     0579  0877               	movf	?_read_prec_or_width+1,w
  1984     057A  1283               	bcf	3,5	;RP0=0, select bank0
  1985     057B  1303               	bcf	3,6	;RP1=0, select bank0
  1986     057C  00ED               	movwf	_width+1
  1987     057D  0876               	movf	?_read_prec_or_width,w
  1988     057E  00EC               	movwf	_width
  1989     057F                     l1815:
  1990                           
  1991                           ;C:\Program Files\Microchip\xc8\v3.10\pic\sources\c99\common\doprnt.c: 1257:   if (width
      +                           < 0) {
  1992     057F  1FED               	btfss	_width+1,7
  1993     0580  2D82               	goto	u1351
  1994     0581  2D83               	goto	u1350
  1995     0582                     u1351:
  1996     0582  2D89               	goto	l1821
  1997     0583                     u1350:
  1998     0583                     l1817:
  1999                           
  2000                           ;C:\Program Files\Microchip\xc8\v3.10\pic\sources\c99\common\doprnt.c: 1258:    flags |=
      +                           (1 << 0);
  2001     0583  146E               	bsf	_flags,0
  2002     0584                     l1819:
  2003                           
  2004                           ;C:\Program Files\Microchip\xc8\v3.10\pic\sources\c99\common\doprnt.c: 1259:    width = 
      +                          -width;
  2005     0584  09EC               	comf	_width,f
  2006     0585  09ED               	comf	_width+1,f
  2007     0586  0AEC               	incf	_width,f
  2008     0587  1903               	skipnz
  2009     0588  0AED               	incf	_width+1,f
  2010     0589                     l1821:
  2011                           
  2012                           ;C:\Program Files\Microchip\xc8\v3.10\pic\sources\c99\common\doprnt.c: 1291:   cp = *fmt
      +                          ;
  2013     0589  083D               	movf	vfpfcnvrt@fmt,w
  2014     058A  0084               	movwf	4
  2015     058B  1383               	bcf	3,7	;select IRP bank0
  2016     058C  0800               	movf	0,w
  2017     058D  00C6               	movwf	vfpfcnvrt@cp
  2018     058E                     l1823:
  2019                           
  2020                           ;C:\Program Files\Microchip\xc8\v3.10\pic\sources\c99\common\doprnt.c: 1361:   if (*cp =
      +                          = 'd' || *cp == 'i') {
  2021     058E  0846               	movf	vfpfcnvrt@cp,w
  2022     058F  0084               	movwf	4
  2023     0590  120A  118A  200D  120A  118A  	fcall	stringdir
  2024     0595  3A64               	xorlw	100
  2025     0596  1903               	skipnz
  2026     0597  2D99               	goto	u1361
  2027     0598  2D9A               	goto	u1360
  2028     0599                     u1361:
  2029     0599  2DA6               	goto	l1827
  2030     059A                     u1360:
  2031     059A                     l1825:
  2032     059A  0846               	movf	vfpfcnvrt@cp,w
  2033     059B  0084               	movwf	4
  2034     059C  120A  118A  200D  120A  118A  	fcall	stringdir
  2035     05A1  3A69               	xorlw	105
  2036     05A2  1D03               	skipz
  2037     05A3  2DA5               	goto	u1371
  2038     05A4  2DA6               	goto	u1370
  2039     05A5                     u1371:
  2040     05A5  2DC6               	goto	l1835
  2041     05A6                     u1370:
  2042     05A6                     l1827:
  2043                           
  2044                           ;C:\Program Files\Microchip\xc8\v3.10\pic\sources\c99\common\doprnt.c: 1404:    convarg.
      +                          sint = (vfpf_sint_t)(int)(*(int *)__va_arg(*(int **)ap, (int)0));
  2045     05A6  083E               	movf	vfpfcnvrt@ap,w
  2046     05A7  0084               	movwf	4
  2047     05A8  0800               	movf	0,w
  2048     05A9  00FF               	movwf	btemp1
  2049     05AA  3002               	movlw	2
  2050     05AB  0780               	addwf	0,f
  2051     05AC  087F               	movf	btemp1,w
  2052     05AD  0084               	movwf	4
  2053     05AE  0800               	movf	0,w
  2054     05AF  00C1               	movwf	vfpfcnvrt@convarg
  2055     05B0  0A84               	incf	4,f
  2056     05B1  0800               	movf	0,w
  2057     05B2  00C2               	movwf	vfpfcnvrt@convarg+1
  2058     05B3                     l1829:
  2059                           
  2060                           ;C:\Program Files\Microchip\xc8\v3.10\pic\sources\c99\common\doprnt.c: 1406:    *fmt = c
      +                          p+1;
  2061     05B3  083D               	movf	vfpfcnvrt@fmt,w
  2062     05B4  0084               	movwf	4
  2063     05B5  0846               	movf	vfpfcnvrt@cp,w
  2064     05B6  3E01               	addlw	1
  2065     05B7  0080               	movwf	0
  2066     05B8                     l1831:
  2067                           
  2068                           ;C:\Program Files\Microchip\xc8\v3.10\pic\sources\c99\common\doprnt.c: 1432:    return (
      +                          void) dtoa(fp, convarg.sint);;	Return value of _vfpfcnvrt is never used
  2069     05B8  083B               	movf	vfpfcnvrt@fp,w
  2070     05B9  00AF               	movwf	dtoa@fp
  2071     05BA  083C               	movf	vfpfcnvrt@fp+1,w
  2072     05BB  00B0               	movwf	dtoa@fp+1
  2073     05BC  0842               	movf	vfpfcnvrt@convarg+1,w
  2074     05BD  00B2               	movwf	dtoa@d+1
  2075     05BE  0841               	movf	vfpfcnvrt@convarg,w
  2076     05BF  00B1               	movwf	dtoa@d
  2077     05C0  120A  118A  25E8  120A  118A  	fcall	_dtoa
  2078     05C5  2DE7               	goto	l857
  2079     05C6                     l1835:
  2080                           
  2081                           ;C:\Program Files\Microchip\xc8\v3.10\pic\sources\c99\common\doprnt.c: 1806:         ++*
      +                          fmt;
  2082     05C6  1283               	bcf	3,5	;RP0=0, select bank0
  2083     05C7  1303               	bcf	3,6	;RP1=0, select bank0
  2084     05C8  083D               	movf	vfpfcnvrt@fmt,w
  2085     05C9  0084               	movwf	4
  2086     05CA  3001               	movlw	1
  2087     05CB  1383               	bcf	3,7	;select IRP bank0
  2088     05CC  0780               	addwf	0,f
  2089     05CD  2DE7               	goto	l857
  2090     05CE                     l1839:
  2091                           
  2092                           ;C:\Program Files\Microchip\xc8\v3.10\pic\sources\c99\common\doprnt.c: 1811:     fputc((
      +                          int)(*fmt)[0], fp);
  2093     05CE  083D               	movf	vfpfcnvrt@fmt,w
  2094     05CF  0084               	movwf	4
  2095     05D0  0800               	movf	0,w
  2096     05D1  0084               	movwf	4
  2097     05D2  120A  118A  200D  120A  118A  	fcall	stringdir
  2098     05D7  00BF               	movwf	??_vfpfcnvrt
  2099     05D8  01C0               	clrf	??_vfpfcnvrt+1
  2100     05D9  083F               	movf	??_vfpfcnvrt,w
  2101     05DA  00F0               	movwf	fputc@c
  2102     05DB  0840               	movf	??_vfpfcnvrt+1,w
  2103     05DC  00F1               	movwf	fputc@c+1
  2104     05DD  083B               	movf	vfpfcnvrt@fp,w
  2105     05DE  00F2               	movwf	fputc@fp
  2106     05DF  083C               	movf	vfpfcnvrt@fp+1,w
  2107     05E0  00F3               	movwf	fputc@fp+1
  2108     05E1  120A  118A  2498  120A  118A  	fcall	_fputc
  2109     05E6  2DC6               	goto	l1835
  2110     05E7                     l857:
  2111     05E7  0008               	return
  2112     05E8                     __end_of_vfpfcnvrt:
  2113                           
  2114                           	psect	text4
  2115     02C3                     __ptext4:	
  2116 ;; *************** function _read_prec_or_width *****************
  2117 ;; Defined at:
  2118 ;;		line 1158 in file "C:\Program Files\Microchip\xc8\v3.10\pic\sources\c99\common\doprnt.c"
  2119 ;; Parameters:    Size  Location     Type
  2120 ;;  fmt             1    6[COMMON] PTR PTR const unsigned c
  2121 ;;		 -> vfprintf@cfmt(1), 
  2122 ;;  ap              1    7[COMMON] PTR PTR void [1]
  2123 ;;		 -> sprintf@ap(1), 
  2124 ;; Auto vars:     Size  Location     Type
  2125 ;;  c               1    8[COMMON] unsigned char 
  2126 ;;  n               2    9[COMMON] int 
  2127 ;; Return value:  Size  Location     Type
  2128 ;;                  2    6[COMMON] int 
  2129 ;; Registers used:
  2130 ;;		wreg, fsr0l, fsr0h, status,2, status,0, pclath, btemp1, cstack
  2131 ;; Tracked objects:
  2132 ;;		On entry : 0/0
  2133 ;;		On exit  : 0/0
  2134 ;;		Unchanged: 0/0
  2135 ;; Data sizes:     COMMON   BANK0   BANK1   BANK3   BANK2
  2136 ;;      Params:         2       0       0       0       0
  2137 ;;      Locals:         3       0       0       0       0
  2138 ;;      Temps:          0       0       0       0       0
  2139 ;;      Totals:         5       0       0       0       0
  2140 ;;Total ram usage:        5 bytes
  2141 ;; Hardware stack levels used: 1
  2142 ;; Hardware stack levels required when called: 1
  2143 ;; This function calls:
  2144 ;;		___wmul
  2145 ;; This function is called by:
  2146 ;;		_vfpfcnvrt
  2147 ;; This function uses a non-reentrant model
  2148 ;;
  2149                           
  2150     02C3                     _read_prec_or_width:	
  2151                           ;psect for function _read_prec_or_width
  2152                           
  2153     02C3                     l1757:	
  2154                           ;incstack = 0
  2155                           ; Regs used in _read_prec_or_width: [wreg-fsr0h+status,2+status,0+pclath+btemp1+cstack]
  2156                           
  2157                           
  2158                           ;C:\Program Files\Microchip\xc8\v3.10\pic\sources\c99\common\doprnt.c: 1159:     int n =
      +                           0;
  2159     02C3  01F9               	clrf	read_prec_or_width@n
  2160     02C4  01FA               	clrf	read_prec_or_width@n+1
  2161     02C5                     l1759:
  2162                           
  2163                           ;C:\Program Files\Microchip\xc8\v3.10\pic\sources\c99\common\doprnt.c: 1160:     if ((*f
      +                          mt)[0] == '*') {
  2164     02C5  0876               	movf	read_prec_or_width@fmt,w
  2165     02C6  0084               	movwf	4
  2166     02C7  1383               	bcf	3,7	;select IRP bank0
  2167     02C8  0800               	movf	0,w
  2168     02C9  0084               	movwf	4
  2169     02CA  120A  118A  200D  120A  118A  	fcall	stringdir
  2170     02CF  3A2A               	xorlw	42
  2171     02D0  1D03               	skipz
  2172     02D1  2AD3               	goto	u1261
  2173     02D2  2AD4               	goto	u1260
  2174     02D3                     u1261:
  2175     02D3  2B00               	goto	l1769
  2176     02D4                     u1260:
  2177     02D4                     l1761:
  2178                           
  2179                           ;C:\Program Files\Microchip\xc8\v3.10\pic\sources\c99\common\doprnt.c: 1161:         ++*
      +                          fmt;
  2180     02D4  0876               	movf	read_prec_or_width@fmt,w
  2181     02D5  0084               	movwf	4
  2182     02D6  3001               	movlw	1
  2183     02D7  0780               	addwf	0,f
  2184     02D8                     l1763:
  2185                           
  2186                           ;C:\Program Files\Microchip\xc8\v3.10\pic\sources\c99\common\doprnt.c: 1162:         n =
      +                           (*(int *)__va_arg(*(int **)*ap, (int)0));
  2187     02D8  0877               	movf	read_prec_or_width@ap,w
  2188     02D9  0084               	movwf	4
  2189     02DA  0800               	movf	0,w
  2190     02DB  00FF               	movwf	btemp1
  2191     02DC  3002               	movlw	2
  2192     02DD  0780               	addwf	0,f
  2193     02DE  087F               	movf	btemp1,w
  2194     02DF  0084               	movwf	4
  2195     02E0  0800               	movf	0,w
  2196     02E1  00F9               	movwf	read_prec_or_width@n
  2197     02E2  0A84               	incf	4,f
  2198     02E3  0800               	movf	0,w
  2199     02E4  00FA               	movwf	read_prec_or_width@n+1
  2200                           
  2201                           ;C:\Program Files\Microchip\xc8\v3.10\pic\sources\c99\common\doprnt.c: 1163:     } else 
      +                          {
  2202     02E5  2B11               	goto	l1771
  2203     02E6                     l1765:
  2204                           
  2205                           ;C:\Program Files\Microchip\xc8\v3.10\pic\sources\c99\common\doprnt.c: 1166:            
      +                           n = n * 10 + c;
  2206     02E6  087A               	movf	read_prec_or_width@n+1,w
  2207     02E7  00F1               	movwf	___wmul@multiplier+1
  2208     02E8  0879               	movf	read_prec_or_width@n,w
  2209     02E9  00F0               	movwf	___wmul@multiplier
  2210     02EA  300A               	movlw	10
  2211     02EB  00F2               	movwf	___wmul@multiplicand
  2212     02EC  3000               	movlw	0
  2213     02ED  00F3               	movwf	___wmul@multiplicand+1
  2214     02EE  120A  158A  27B3  120A  118A  	fcall	___wmul
  2215     02F3  0878               	movf	read_prec_or_width@c,w
  2216     02F4  0770               	addwf	?___wmul,w
  2217     02F5  00F9               	movwf	read_prec_or_width@n
  2218     02F6  3000               	movlw	0
  2219     02F7  1803               	skipnc
  2220     02F8  3001               	movlw	1
  2221     02F9  0771               	addwf	?___wmul+1,w
  2222     02FA  00FA               	movwf	read_prec_or_width@n+1
  2223     02FB                     l1767:
  2224                           
  2225                           ;C:\Program Files\Microchip\xc8\v3.10\pic\sources\c99\common\doprnt.c: 1167:            
      +                           ++*fmt;
  2226     02FB  0876               	movf	read_prec_or_width@fmt,w
  2227     02FC  0084               	movwf	4
  2228     02FD  3001               	movlw	1
  2229     02FE  1383               	bcf	3,7	;select IRP bank0
  2230     02FF  0780               	addwf	0,f
  2231     0300                     l1769:
  2232                           
  2233                           ;C:\Program Files\Microchip\xc8\v3.10\pic\sources\c99\common\doprnt.c: 1165:         whi
      +                          le ((c = ((unsigned)(*fmt)[0]) - '0') < 10) {
  2234     0300  0876               	movf	read_prec_or_width@fmt,w
  2235     0301  0084               	movwf	4
  2236     0302  0800               	movf	0,w
  2237     0303  0084               	movwf	4
  2238     0304  120A  118A  200D  120A  118A  	fcall	stringdir
  2239     0309  3ED0               	addlw	208
  2240     030A  00F8               	movwf	read_prec_or_width@c
  2241     030B  300A               	movlw	10
  2242     030C  0278               	subwf	read_prec_or_width@c,w
  2243     030D  1C03               	skipc
  2244     030E  2B10               	goto	u1271
  2245     030F  2B11               	goto	u1270
  2246     0310                     u1271:
  2247     0310  2AE6               	goto	l1765
  2248     0311                     u1270:
  2249     0311                     l1771:
  2250                           
  2251                           ;C:\Program Files\Microchip\xc8\v3.10\pic\sources\c99\common\doprnt.c: 1170:     return 
      +                          n;
  2252     0311  087A               	movf	read_prec_or_width@n+1,w
  2253     0312  00F7               	movwf	?_read_prec_or_width+1
  2254     0313  0879               	movf	read_prec_or_width@n,w
  2255     0314  00F6               	movwf	?_read_prec_or_width
  2256     0315                     l842:
  2257     0315  0008               	return
  2258     0316                     __end_of_read_prec_or_width:
  2259                           
  2260                           	psect	text5
  2261     0FB3                     __ptext5:	
  2262 ;; *************** function ___wmul *****************
  2263 ;; Defined at:
  2264 ;;		line 15 in file "C:\Program Files\Microchip\xc8\v3.10\pic\sources\c99\common\Umul16.c"
  2265 ;; Parameters:    Size  Location     Type
  2266 ;;  multiplier      2    0[COMMON] unsigned int 
  2267 ;;  multiplicand    2    2[COMMON] unsigned int 
  2268 ;; Auto vars:     Size  Location     Type
  2269 ;;  product         2    4[COMMON] unsigned int 
  2270 ;; Return value:  Size  Location     Type
  2271 ;;                  2    0[COMMON] unsigned int 
  2272 ;; Registers used:
  2273 ;;		wreg, status,2, status,0
  2274 ;; Tracked objects:
  2275 ;;		On entry : 0/0
  2276 ;;		On exit  : 0/0
  2277 ;;		Unchanged: 0/0
  2278 ;; Data sizes:     COMMON   BANK0   BANK1   BANK3   BANK2
  2279 ;;      Params:         4       0       0       0       0
  2280 ;;      Locals:         2       0       0       0       0
  2281 ;;      Temps:          0       0       0       0       0
  2282 ;;      Totals:         6       0       0       0       0
  2283 ;;Total ram usage:        6 bytes
  2284 ;; Hardware stack levels used: 1
  2285 ;; This function calls:
  2286 ;;		Nothing
  2287 ;; This function is called by:
  2288 ;;		_read_prec_or_width
  2289 ;; This function uses a non-reentrant model
  2290 ;;
  2291                           
  2292     0FB3                     ___wmul:	
  2293                           ;psect for function ___wmul
  2294                           
  2295     0FB3                     l1591:	
  2296                           ;incstack = 0
  2297                           ; Regs used in ___wmul: [wreg+status,2+status,0]
  2298                           
  2299     0FB3  01F4               	clrf	___wmul@product
  2300     0FB4  01F5               	clrf	___wmul@product+1
  2301     0FB5                     l1593:
  2302     0FB5  1C70               	btfss	___wmul@multiplier,0
  2303     0FB6  2FB8               	goto	u881
  2304     0FB7  2FB9               	goto	u880
  2305     0FB8                     u881:
  2306     0FB8  2FBF               	goto	l330
  2307     0FB9                     u880:
  2308     0FB9                     l1595:
  2309     0FB9  0872               	movf	___wmul@multiplicand,w
  2310     0FBA  07F4               	addwf	___wmul@product,f
  2311     0FBB  1803               	skipnc
  2312     0FBC  0AF5               	incf	___wmul@product+1,f
  2313     0FBD  0873               	movf	___wmul@multiplicand+1,w
  2314     0FBE  07F5               	addwf	___wmul@product+1,f
  2315     0FBF                     l330:
  2316     0FBF  3001               	movlw	1
  2317     0FC0                     u895:
  2318     0FC0  1003               	clrc
  2319     0FC1  0DF2               	rlf	___wmul@multiplicand,f
  2320     0FC2  0DF3               	rlf	___wmul@multiplicand+1,f
  2321     0FC3  3EFF               	addlw	-1
  2322     0FC4  1D03               	skipz
  2323     0FC5  2FC0               	goto	u895
  2324     0FC6                     l1597:
  2325     0FC6  3001               	movlw	1
  2326     0FC7                     u905:
  2327     0FC7  1003               	clrc
  2328     0FC8  0CF1               	rrf	___wmul@multiplier+1,f
  2329     0FC9  0CF0               	rrf	___wmul@multiplier,f
  2330     0FCA  3EFF               	addlw	-1
  2331     0FCB  1D03               	skipz
  2332     0FCC  2FC7               	goto	u905
  2333     0FCD                     l1599:
  2334     0FCD  0870               	movf	___wmul@multiplier,w
  2335     0FCE  0471               	iorwf	___wmul@multiplier+1,w
  2336     0FCF  1D03               	btfss	3,2
  2337     0FD0  2FD2               	goto	u911
  2338     0FD1  2FD3               	goto	u910
  2339     0FD2                     u911:
  2340     0FD2  2FB5               	goto	l1593
  2341     0FD3                     u910:
  2342     0FD3                     l1601:
  2343     0FD3  0875               	movf	___wmul@product+1,w
  2344     0FD4  00F1               	movwf	?___wmul+1
  2345     0FD5  0874               	movf	___wmul@product,w
  2346     0FD6  00F0               	movwf	?___wmul
  2347     0FD7                     l332:
  2348     0FD7  0008               	return
  2349     0FD8                     __end_of___wmul:
  2350                           
  2351                           	psect	text6
  2352     05E8                     __ptext6:	
  2353 ;; *************** function _dtoa *****************
  2354 ;; Defined at:
  2355 ;;		line 513 in file "C:\Program Files\Microchip\xc8\v3.10\pic\sources\c99\common\doprnt.c"
  2356 ;; Parameters:    Size  Location     Type
  2357 ;;  fp              2   15[BANK0 ] PTR struct _IO_FILE
  2358 ;;		 -> sprintf@f(11), 
  2359 ;;  d               2   17[BANK0 ] int 
  2360 ;; Auto vars:     Size  Location     Type
  2361 ;;  i               2   25[BANK0 ] int 
  2362 ;;  w               2   22[BANK0 ] int 
  2363 ;;  s               1   24[BANK0 ] unsigned char 
  2364 ;;  p               1   21[BANK0 ] _Bool 
  2365 ;; Return value:  Size  Location     Type
  2366 ;;                  1    wreg      void 
  2367 ;; Registers used:
  2368 ;;		wreg, fsr0l, fsr0h, status,2, status,0, pclath, btemp1, cstack
  2369 ;; Tracked objects:
  2370 ;;		On entry : 0/0
  2371 ;;		On exit  : 0/0
  2372 ;;		Unchanged: 0/0
  2373 ;; Data sizes:     COMMON   BANK0   BANK1   BANK3   BANK2
  2374 ;;      Params:         0       4       0       0       0
  2375 ;;      Locals:         0       8       0       0       0
  2376 ;;      Temps:          0       0       0       0       0
  2377 ;;      Totals:         0      12       0       0       0
  2378 ;;Total ram usage:       12 bytes
  2379 ;; Hardware stack levels used: 1
  2380 ;; Hardware stack levels required when called: 3
  2381 ;; This function calls:
  2382 ;;		___awdiv
  2383 ;;		___awmod
  2384 ;;		_abs
  2385 ;;		_pad
  2386 ;; This function is called by:
  2387 ;;		_vfpfcnvrt
  2388 ;; This function uses a non-reentrant model
  2389 ;;
  2390                           
  2391     05E8                     _dtoa:	
  2392                           ;psect for function _dtoa
  2393                           
  2394     05E8                     l1711:	
  2395                           ;incstack = 0
  2396                           ; Regs used in _dtoa: [wreg-fsr0h+status,2+status,0+pclath+btemp1+cstack]
  2397                           
  2398                           
  2399                           ;C:\Program Files\Microchip\xc8\v3.10\pic\sources\c99\common\doprnt.c: 513: static void 
      +                          dtoa(FILE *fp, vfpf_sint_t d);C:\Program Files\Microchip\xc8\v3.10\pic\sources\c99\commo
      +                          n\doprnt.c: 514: {;C:\Program Files\Microchip\xc8\v3.10\pic\sources\c99\common\doprnt.c:
      +                           515:  char s;;C:\Program Files\Microchip\xc8\v3.10\pic\sources\c99\common\doprnt.c: 516
      +                          :     int i, w;;C:\Program Files\Microchip\xc8\v3.10\pic\sources\c99\common\doprnt.c: 52
      +                          0:  _Bool p = 1;
  2400     05E8  3001               	movlw	1
  2401     05E9  1283               	bcf	3,5	;RP0=0, select bank0
  2402     05EA  1303               	bcf	3,6	;RP1=0, select bank0
  2403     05EB  00B5               	movwf	dtoa@p
  2404     05EC                     l1713:
  2405                           
  2406                           ;C:\Program Files\Microchip\xc8\v3.10\pic\sources\c99\common\doprnt.c: 524:     s = d < 
      +                          0 ? 1 : 0;
  2407     05EC  1BB2               	btfsc	dtoa@d+1,7
  2408     05ED  2DEF               	goto	u1161
  2409     05EE  2DF1               	goto	u1160
  2410     05EF                     u1161:
  2411     05EF  3001               	movlw	1
  2412     05F0  2DF2               	goto	u1170
  2413     05F1                     u1160:
  2414     05F1  3000               	movlw	0
  2415     05F2                     u1170:
  2416     05F2  00B8               	movwf	dtoa@s
  2417                           
  2418                           ;C:\Program Files\Microchip\xc8\v3.10\pic\sources\c99\common\doprnt.c: 535:     w = widt
      +                          h;
  2419     05F3  086D               	movf	_width+1,w
  2420     05F4  00B7               	movwf	dtoa@w+1
  2421     05F5  086C               	movf	_width,w
  2422     05F6  00B6               	movwf	dtoa@w
  2423     05F7                     l1715:
  2424                           
  2425                           ;C:\Program Files\Microchip\xc8\v3.10\pic\sources\c99\common\doprnt.c: 536:     if (s
  2426     05F7  0838               	movf	dtoa@s,w
  2427     05F8  1903               	btfsc	3,2
  2428     05F9  2DFB               	goto	u1181
  2429     05FA  2DFC               	goto	u1180
  2430     05FB                     u1181:
  2431     05FB  2E12               	goto	l821
  2432     05FC                     u1180:
  2433     05FC                     l1717:
  2434                           
  2435                           ;C:\Program Files\Microchip\xc8\v3.10\pic\sources\c99\common\doprnt.c: 540:     ) {;C:\P
      +                          rogram Files\Microchip\xc8\v3.10\pic\sources\c99\common\doprnt.c: 541:         --w;
  2436     05FC  30FF               	movlw	255
  2437     05FD  07B6               	addwf	dtoa@w,f
  2438     05FE  1803               	skipnc
  2439     05FF  0AB7               	incf	dtoa@w+1,f
  2440     0600  30FF               	movlw	255
  2441     0601  07B7               	addwf	dtoa@w+1,f
  2442     0602                     l1719:
  2443                           
  2444                           ;C:\Program Files\Microchip\xc8\v3.10\pic\sources\c99\common\doprnt.c: 542:   s = s ? '-
      +                          ' : '+';
  2445     0602  0838               	movf	dtoa@s,w
  2446     0603  1D03               	btfss	3,2
  2447     0604  2E06               	goto	u1191
  2448     0605  2E07               	goto	u1190
  2449     0606                     u1191:
  2450     0606  2E0C               	goto	l1723
  2451     0607                     u1190:
  2452     0607                     l1721:
  2453     0607  302B               	movlw	43
  2454     0608  00B3               	movwf	_dtoa$911
  2455     0609  3000               	movlw	0
  2456     060A  00B4               	movwf	_dtoa$911+1
  2457     060B  2E10               	goto	l825
  2458     060C                     l1723:
  2459     060C  302D               	movlw	45
  2460     060D  00B3               	movwf	_dtoa$911
  2461     060E  3000               	movlw	0
  2462     060F  00B4               	movwf	_dtoa$911+1
  2463     0610                     l825:
  2464     0610  0833               	movf	_dtoa$911,w
  2465     0611  00B8               	movwf	dtoa@s
  2466     0612                     l821:	
  2467                           ;C:\Program Files\Microchip\xc8\v3.10\pic\sources\c99\common\doprnt.c: 543:     }
  2468                           
  2469                           
  2470                           ;C:\Program Files\Microchip\xc8\v3.10\pic\sources\c99\common\doprnt.c: 552:     i = size
      +                          of(dbuf) - 1;
  2471     0612  301F               	movlw	31
  2472     0613  00B9               	movwf	dtoa@i
  2473     0614  3000               	movlw	0
  2474     0615  00BA               	movwf	dtoa@i+1
  2475     0616                     l1725:
  2476                           
  2477                           ;C:\Program Files\Microchip\xc8\v3.10\pic\sources\c99\common\doprnt.c: 553:     dbuf[i] 
      +                          = '\0';
  2478     0616  1683               	bsf	3,5	;RP0=1, select bank1
  2479     0617  1303               	bcf	3,6	;RP1=0, select bank1
  2480     0618  01E9               	clrf	(_dbuf^(0+128)+31)
  2481                           
  2482                           ;C:\Program Files\Microchip\xc8\v3.10\pic\sources\c99\common\doprnt.c: 554:     while (!
      +                          (i < 1) && (d != 0
  2483     0619  2E59               	goto	l1737
  2484     061A                     l1727:
  2485                           
  2486                           ;C:\Program Files\Microchip\xc8\v3.10\pic\sources\c99\common\doprnt.c: 563:     )) {;C:\
      +                          Program Files\Microchip\xc8\v3.10\pic\sources\c99\common\doprnt.c: 564:         --i;
  2487     061A  30FF               	movlw	255
  2488     061B  07B9               	addwf	dtoa@i,f
  2489     061C  1803               	skipnc
  2490     061D  0ABA               	incf	dtoa@i+1,f
  2491     061E  30FF               	movlw	255
  2492     061F  07BA               	addwf	dtoa@i+1,f
  2493     0620                     l1729:
  2494                           
  2495                           ;C:\Program Files\Microchip\xc8\v3.10\pic\sources\c99\common\doprnt.c: 565:         dbuf
      +                          [i] = (char)((int)'0' + abs(d % 10));
  2496     0620  0839               	movf	dtoa@i,w
  2497     0621  3ECA               	addlw	(low (_dbuf| 0))& (0+255)
  2498     0622  0084               	movwf	4
  2499     0623  300A               	movlw	10
  2500     0624  00F0               	movwf	___awmod@divisor
  2501     0625  3000               	movlw	0
  2502     0626  00F1               	movwf	___awmod@divisor+1
  2503     0627  0832               	movf	dtoa@d+1,w
  2504     0628  00F3               	movwf	___awmod@dividend+1
  2505     0629  0831               	movf	dtoa@d,w
  2506     062A  00F2               	movwf	___awmod@dividend
  2507     062B  120A  118A  2316  120A  118A  	fcall	___awmod
  2508     0630  0871               	movf	?___awmod+1,w
  2509     0631  00F7               	movwf	abs@a+1
  2510     0632  0870               	movf	?___awmod,w
  2511     0633  00F6               	movwf	abs@a
  2512     0634  120A  158A  2722  120A  118A  	fcall	_abs
  2513     0639  0876               	movf	?_abs,w
  2514     063A  3E30               	addlw	48
  2515     063B  1383               	bcf	3,7	;select IRP bank1
  2516     063C  0080               	movwf	0
  2517     063D                     l1731:
  2518                           
  2519                           ;C:\Program Files\Microchip\xc8\v3.10\pic\sources\c99\common\doprnt.c: 569:   p = 0;
  2520     063D  1283               	bcf	3,5	;RP0=0, select bank0
  2521     063E  1303               	bcf	3,6	;RP1=0, select bank0
  2522     063F  01B5               	clrf	dtoa@p
  2523     0640                     l1733:
  2524                           
  2525                           ;C:\Program Files\Microchip\xc8\v3.10\pic\sources\c99\common\doprnt.c: 571:         --w;
  2526     0640  30FF               	movlw	255
  2527     0641  07B6               	addwf	dtoa@w,f
  2528     0642  1803               	skipnc
  2529     0643  0AB7               	incf	dtoa@w+1,f
  2530     0644  30FF               	movlw	255
  2531     0645  07B7               	addwf	dtoa@w+1,f
  2532     0646                     l1735:
  2533                           
  2534                           ;C:\Program Files\Microchip\xc8\v3.10\pic\sources\c99\common\doprnt.c: 572:         d = 
      +                          d / 10;
  2535     0646  300A               	movlw	10
  2536     0647  00F0               	movwf	___awdiv@divisor
  2537     0648  3000               	movlw	0
  2538     0649  00F1               	movwf	___awdiv@divisor+1
  2539     064A  0832               	movf	dtoa@d+1,w
  2540     064B  00F3               	movwf	___awdiv@dividend+1
  2541     064C  0831               	movf	dtoa@d,w
  2542     064D  00F2               	movwf	___awdiv@dividend
  2543     064E  120A  118A  23CE  120A  118A  	fcall	___awdiv
  2544     0653  0871               	movf	?___awdiv+1,w
  2545     0654  1283               	bcf	3,5	;RP0=0, select bank0
  2546     0655  1303               	bcf	3,6	;RP1=0, select bank0
  2547     0656  00B2               	movwf	dtoa@d+1
  2548     0657  0870               	movf	?___awdiv,w
  2549     0658  00B1               	movwf	dtoa@d
  2550     0659                     l1737:
  2551                           
  2552                           ;C:\Program Files\Microchip\xc8\v3.10\pic\sources\c99\common\doprnt.c: 554:     while (!
      +                          (i < 1) && (d != 0
  2553     0659  1283               	bcf	3,5	;RP0=0, select bank0
  2554     065A  083A               	movf	dtoa@i+1,w
  2555     065B  3A80               	xorlw	128
  2556     065C  00FF               	movwf	btemp1
  2557     065D  3080               	movlw	128
  2558     065E  027F               	subwf	btemp1,w
  2559     065F  1D03               	skipz
  2560     0660  2E63               	goto	u1205
  2561     0661  3001               	movlw	1
  2562     0662  0239               	subwf	dtoa@i,w
  2563     0663                     u1205:
  2564     0663  1C03               	skipc
  2565     0664  2E66               	goto	u1201
  2566     0665  2E67               	goto	u1200
  2567     0666                     u1201:
  2568     0666  2E87               	goto	l1747
  2569     0667                     u1200:
  2570     0667                     l1739:
  2571     0667  1283               	bcf	3,5	;RP0=0, select bank0
  2572     0668  1303               	bcf	3,6	;RP1=0, select bank0
  2573     0669  0831               	movf	dtoa@d,w
  2574     066A  0432               	iorwf	dtoa@d+1,w
  2575     066B  1D03               	btfss	3,2
  2576     066C  2E6E               	goto	u1211
  2577     066D  2E6F               	goto	u1210
  2578     066E                     u1211:
  2579     066E  2E1A               	goto	l1727
  2580     066F                     u1210:
  2581     066F                     l1741:
  2582     066F  0835               	movf	dtoa@p,w
  2583     0670  1D03               	btfss	3,2
  2584     0671  2E73               	goto	u1221
  2585     0672  2E74               	goto	u1220
  2586     0673                     u1221:
  2587     0673  2E1A               	goto	l1727
  2588     0674                     u1220:
  2589     0674                     l1743:
  2590     0674  0837               	movf	dtoa@w+1,w
  2591     0675  3A80               	xorlw	128
  2592     0676  00FF               	movwf	btemp1
  2593     0677  3080               	movlw	128
  2594     0678  027F               	subwf	btemp1,w
  2595     0679  1D03               	skipz
  2596     067A  2E7D               	goto	u1235
  2597     067B  3001               	movlw	1
  2598     067C  0236               	subwf	dtoa@w,w
  2599     067D                     u1235:
  2600     067D  1C03               	skipc
  2601     067E  2E80               	goto	u1231
  2602     067F  2E81               	goto	u1230
  2603     0680                     u1231:
  2604     0680  2E87               	goto	l1747
  2605     0681                     u1230:
  2606     0681                     l1745:
  2607     0681  1283               	bcf	3,5	;RP0=0, select bank0
  2608     0682  1303               	bcf	3,6	;RP1=0, select bank0
  2609     0683  18EE               	btfsc	_flags,1
  2610     0684  2E86               	goto	u1241
  2611     0685  2E87               	goto	u1240
  2612     0686                     u1241:
  2613     0686  2E1A               	goto	l1727
  2614     0687                     u1240:
  2615     0687                     l1747:
  2616                           
  2617                           ;C:\Program Files\Microchip\xc8\v3.10\pic\sources\c99\common\doprnt.c: 576:     if (s !=
      +                           0) {
  2618     0687  1283               	bcf	3,5	;RP0=0, select bank0
  2619     0688  1303               	bcf	3,6	;RP1=0, select bank0
  2620     0689  0838               	movf	dtoa@s,w
  2621     068A  1903               	btfsc	3,2
  2622     068B  2E8D               	goto	u1251
  2623     068C  2E8E               	goto	u1250
  2624     068D                     u1251:
  2625     068D  2E9A               	goto	l1753
  2626     068E                     u1250:
  2627     068E                     l1749:
  2628                           
  2629                           ;C:\Program Files\Microchip\xc8\v3.10\pic\sources\c99\common\doprnt.c: 577:         --i;
  2630     068E  30FF               	movlw	255
  2631     068F  07B9               	addwf	dtoa@i,f
  2632     0690  1803               	skipnc
  2633     0691  0ABA               	incf	dtoa@i+1,f
  2634     0692  30FF               	movlw	255
  2635     0693  07BA               	addwf	dtoa@i+1,f
  2636     0694                     l1751:
  2637                           
  2638                           ;C:\Program Files\Microchip\xc8\v3.10\pic\sources\c99\common\doprnt.c: 578:         dbuf
      +                          [i] = s;
  2639     0694  0839               	movf	dtoa@i,w
  2640     0695  3ECA               	addlw	(low (_dbuf| 0))& (0+255)
  2641     0696  0084               	movwf	4
  2642     0697  0838               	movf	dtoa@s,w
  2643     0698  1383               	bcf	3,7	;select IRP bank1
  2644     0699  0080               	movwf	0
  2645     069A                     l1753:
  2646                           
  2647                           ;C:\Program Files\Microchip\xc8\v3.10\pic\sources\c99\common\doprnt.c: 582:     return (
      +                          void) pad(fp, &dbuf[i], w);
  2648     069A  082F               	movf	dtoa@fp,w
  2649     069B  00A8               	movwf	pad@fp
  2650     069C  0830               	movf	dtoa@fp+1,w
  2651     069D  00A9               	movwf	pad@fp+1
  2652     069E  0839               	movf	dtoa@i,w
  2653     069F  3ECA               	addlw	(low (_dbuf| 0))& (0+255)
  2654     06A0  00AA               	movwf	pad@buf
  2655     06A1  0837               	movf	dtoa@w+1,w
  2656     06A2  00AC               	movwf	pad@p+1
  2657     06A3  0836               	movf	dtoa@w,w
  2658     06A4  00AB               	movwf	pad@p
  2659     06A5  120A  118A  2270  120A  118A  	fcall	_pad
  2660     06AA                     l834:
  2661     06AA  0008               	return
  2662     06AB                     __end_of_dtoa:
  2663                           
  2664                           	psect	text7
  2665     0270                     __ptext7:	
  2666 ;; *************** function _pad *****************
  2667 ;; Defined at:
  2668 ;;		line 193 in file "C:\Program Files\Microchip\xc8\v3.10\pic\sources\c99\common\doprnt.c"
  2669 ;; Parameters:    Size  Location     Type
  2670 ;;  fp              2    8[BANK0 ] PTR struct _IO_FILE
  2671 ;;		 -> sprintf@f(11), 
  2672 ;;  buf             1   10[BANK0 ] PTR unsigned char 
  2673 ;;		 -> dbuf(32), 
  2674 ;;  p               2   11[BANK0 ] int 
  2675 ;; Auto vars:     Size  Location     Type
  2676 ;;  i               2   13[BANK0 ] int 
  2677 ;; Return value:  Size  Location     Type
  2678 ;;                  1    wreg      void 
  2679 ;; Registers used:
  2680 ;;		wreg, fsr0l, fsr0h, status,2, status,0, pclath, cstack
  2681 ;; Tracked objects:
  2682 ;;		On entry : 0/0
  2683 ;;		On exit  : 0/0
  2684 ;;		Unchanged: 0/0
  2685 ;; Data sizes:     COMMON   BANK0   BANK1   BANK3   BANK2
  2686 ;;      Params:         0       5       0       0       0
  2687 ;;      Locals:         0       2       0       0       0
  2688 ;;      Temps:          1       0       0       0       0
  2689 ;;      Totals:         1       7       0       0       0
  2690 ;;Total ram usage:        8 bytes
  2691 ;; Hardware stack levels used: 1
  2692 ;; Hardware stack levels required when called: 2
  2693 ;; This function calls:
  2694 ;;		_fputc
  2695 ;;		_fputs
  2696 ;; This function is called by:
  2697 ;;		_dtoa
  2698 ;; This function uses a non-reentrant model
  2699 ;;
  2700                           
  2701     0270                     _pad:	
  2702                           ;psect for function _pad
  2703                           
  2704     0270                     l1687:	
  2705                           ;incstack = 0
  2706                           ; Regs used in _pad: [wreg-fsr0h+status,2+status,0+pclath+cstack]
  2707                           
  2708                           
  2709                           ;C:\Program Files\Microchip\xc8\v3.10\pic\sources\c99\common\doprnt.c: 193: static void 
      +                          pad(FILE *fp, char *buf, int p);C:\Program Files\Microchip\xc8\v3.10\pic\sources\c99\com
      +                          mon\doprnt.c: 194: {;C:\Program Files\Microchip\xc8\v3.10\pic\sources\c99\common\doprnt.
      +                          c: 195:     int i;;C:\Program Files\Microchip\xc8\v3.10\pic\sources\c99\common\doprnt.c:
      +                           199:     if (flags & (1 << 0)) {
  2710     0270  1283               	bcf	3,5	;RP0=0, select bank0
  2711     0271  1303               	bcf	3,6	;RP1=0, select bank0
  2712     0272  1C6E               	btfss	_flags,0
  2713     0273  2A75               	goto	u1111
  2714     0274  2A76               	goto	u1110
  2715     0275                     u1111:
  2716     0275  2A81               	goto	l1691
  2717     0276                     u1110:
  2718     0276                     l1689:
  2719                           
  2720                           ;C:\Program Files\Microchip\xc8\v3.10\pic\sources\c99\common\doprnt.c: 200:         fput
      +                          s((const char *)buf, fp);
  2721     0276  082A               	movf	pad@buf,w
  2722     0277  00A0               	movwf	fputs@s
  2723     0278  0828               	movf	pad@fp,w
  2724     0279  00A1               	movwf	fputs@fp
  2725     027A  0829               	movf	pad@fp+1,w
  2726     027B  00A2               	movwf	fputs@fp+1
  2727     027C  120A  118A  208E  120A  118A  	fcall	_fputs
  2728     0281                     l1691:
  2729                           
  2730                           ;C:\Program Files\Microchip\xc8\v3.10\pic\sources\c99\common\doprnt.c: 205:  if (p < 0) 
      +                          {
  2731     0281  1283               	bcf	3,5	;RP0=0, select bank0
  2732     0282  1303               	bcf	3,6	;RP1=0, select bank0
  2733     0283  1FAC               	btfss	pad@p+1,7
  2734     0284  2A86               	goto	u1121
  2735     0285  2A87               	goto	u1120
  2736     0286                     u1121:
  2737     0286  2A89               	goto	l813
  2738     0287                     u1120:
  2739     0287                     l1693:
  2740                           
  2741                           ;C:\Program Files\Microchip\xc8\v3.10\pic\sources\c99\common\doprnt.c: 206:   p = 0;
  2742     0287  01AB               	clrf	pad@p
  2743     0288  01AC               	clrf	pad@p+1
  2744     0289                     l813:	
  2745                           ;C:\Program Files\Microchip\xc8\v3.10\pic\sources\c99\common\doprnt.c: 207:  }
  2746                           
  2747                           
  2748                           ;C:\Program Files\Microchip\xc8\v3.10\pic\sources\c99\common\doprnt.c: 208:     i = 0;
  2749     0289  01AD               	clrf	pad@i
  2750     028A  01AE               	clrf	pad@i+1
  2751                           
  2752                           ;C:\Program Files\Microchip\xc8\v3.10\pic\sources\c99\common\doprnt.c: 209:     while (i
      +                           < p) {
  2753     028B  2AA3               	goto	l1699
  2754     028C                     l1695:
  2755                           
  2756                           ;C:\Program Files\Microchip\xc8\v3.10\pic\sources\c99\common\doprnt.c: 210:         fput
      +                          c(' ', fp);
  2757     028C  3020               	movlw	32
  2758     028D  00F0               	movwf	fputc@c
  2759     028E  3000               	movlw	0
  2760     028F  00F1               	movwf	fputc@c+1
  2761     0290  1283               	bcf	3,5	;RP0=0, select bank0
  2762     0291  1303               	bcf	3,6	;RP1=0, select bank0
  2763     0292  0828               	movf	pad@fp,w
  2764     0293  00F2               	movwf	fputc@fp
  2765     0294  0829               	movf	pad@fp+1,w
  2766     0295  00F3               	movwf	fputc@fp+1
  2767     0296  120A  118A  2498  120A  118A  	fcall	_fputc
  2768     029B                     l1697:
  2769                           
  2770                           ;C:\Program Files\Microchip\xc8\v3.10\pic\sources\c99\common\doprnt.c: 211:         ++i;
  2771     029B  3001               	movlw	1
  2772     029C  1283               	bcf	3,5	;RP0=0, select bank0
  2773     029D  1303               	bcf	3,6	;RP1=0, select bank0
  2774     029E  07AD               	addwf	pad@i,f
  2775     029F  1803               	skipnc
  2776     02A0  0AAE               	incf	pad@i+1,f
  2777     02A1  3000               	movlw	0
  2778     02A2  07AE               	addwf	pad@i+1,f
  2779     02A3                     l1699:
  2780                           
  2781                           ;C:\Program Files\Microchip\xc8\v3.10\pic\sources\c99\common\doprnt.c: 209:     while (i
      +                           < p) {
  2782     02A3  082E               	movf	pad@i+1,w
  2783     02A4  3A80               	xorlw	128
  2784     02A5  00FD               	movwf	??_pad
  2785     02A6  082C               	movf	pad@p+1,w
  2786     02A7  3A80               	xorlw	128
  2787     02A8  027D               	subwf	??_pad,w
  2788     02A9  1D03               	skipz
  2789     02AA  2AAD               	goto	u1135
  2790     02AB  082B               	movf	pad@p,w
  2791     02AC  022D               	subwf	pad@i,w
  2792     02AD                     u1135:
  2793     02AD  1C03               	skipc
  2794     02AE  2AB0               	goto	u1131
  2795     02AF  2AB1               	goto	u1130
  2796     02B0                     u1131:
  2797     02B0  2A8C               	goto	l1695
  2798     02B1                     u1130:
  2799     02B1                     l816:
  2800                           
  2801                           ;C:\Program Files\Microchip\xc8\v3.10\pic\sources\c99\common\doprnt.c: 216:     if (!(fl
      +                          ags & (1 << 0))) {
  2802     02B1  1283               	bcf	3,5	;RP0=0, select bank0
  2803     02B2  1303               	bcf	3,6	;RP1=0, select bank0
  2804     02B3  186E               	btfsc	_flags,0
  2805     02B4  2AB6               	goto	u1141
  2806     02B5  2AB7               	goto	u1140
  2807     02B6                     u1141:
  2808     02B6  2AC2               	goto	l818
  2809     02B7                     u1140:
  2810     02B7                     l1701:
  2811                           
  2812                           ;C:\Program Files\Microchip\xc8\v3.10\pic\sources\c99\common\doprnt.c: 218:         fput
      +                          s((const char *)buf, fp);
  2813     02B7  082A               	movf	pad@buf,w
  2814     02B8  00A0               	movwf	fputs@s
  2815     02B9  0828               	movf	pad@fp,w
  2816     02BA  00A1               	movwf	fputs@fp
  2817     02BB  0829               	movf	pad@fp+1,w
  2818     02BC  00A2               	movwf	fputs@fp+1
  2819     02BD  120A  118A  208E  120A  118A  	fcall	_fputs
  2820     02C2                     l818:
  2821     02C2  0008               	return
  2822     02C3                     __end_of_pad:
  2823                           
  2824                           	psect	text8
  2825     008E                     __ptext8:	
  2826 ;; *************** function _fputs *****************
  2827 ;; Defined at:
  2828 ;;		line 8 in file "C:\Program Files\Microchip\xc8\v3.10\pic\sources\c99\common\nf_fputs.c"
  2829 ;; Parameters:    Size  Location     Type
  2830 ;;  s               1    0[BANK0 ] PTR const unsigned char 
  2831 ;;		 -> dbuf(32), 
  2832 ;;  fp              2    1[BANK0 ] PTR struct _IO_FILE
  2833 ;;		 -> sprintf@f(11), 
  2834 ;; Auto vars:     Size  Location     Type
  2835 ;;  i               2    6[BANK0 ] int 
  2836 ;;  c               1    5[BANK0 ] unsigned char 
  2837 ;; Return value:  Size  Location     Type
  2838 ;;                  2    0[BANK0 ] int 
  2839 ;; Registers used:
  2840 ;;		wreg, fsr0l, fsr0h, status,2, status,0, pclath, cstack
  2841 ;; Tracked objects:
  2842 ;;		On entry : 0/0
  2843 ;;		On exit  : 0/0
  2844 ;;		Unchanged: 0/0
  2845 ;; Data sizes:     COMMON   BANK0   BANK1   BANK3   BANK2
  2846 ;;      Params:         0       3       0       0       0
  2847 ;;      Locals:         0       3       0       0       0
  2848 ;;      Temps:          0       2       0       0       0
  2849 ;;      Totals:         0       8       0       0       0
  2850 ;;Total ram usage:        8 bytes
  2851 ;; Hardware stack levels used: 1
  2852 ;; Hardware stack levels required when called: 1
  2853 ;; This function calls:
  2854 ;;		_fputc
  2855 ;; This function is called by:
  2856 ;;		_pad
  2857 ;; This function uses a non-reentrant model
  2858 ;;
  2859                           
  2860     008E                     _fputs:	
  2861                           ;psect for function _fputs
  2862                           
  2863     008E                     l1583:	
  2864                           ;incstack = 0
  2865                           ; Regs used in _fputs: [wreg-fsr0h+status,2+status,0+pclath+cstack]
  2866                           
  2867     008E  1283               	bcf	3,5	;RP0=0, select bank0
  2868     008F  1303               	bcf	3,6	;RP1=0, select bank0
  2869     0090  01A6               	clrf	fputs@i
  2870     0091  01A7               	clrf	fputs@i+1
  2871     0092  28AB               	goto	l1589
  2872     0093                     l1585:
  2873     0093  0825               	movf	fputs@c,w
  2874     0094  00A3               	movwf	??_fputs
  2875     0095  01A4               	clrf	??_fputs+1
  2876     0096  0823               	movf	??_fputs,w
  2877     0097  00F0               	movwf	fputc@c
  2878     0098  0824               	movf	??_fputs+1,w
  2879     0099  00F1               	movwf	fputc@c+1
  2880     009A  0821               	movf	fputs@fp,w
  2881     009B  00F2               	movwf	fputc@fp
  2882     009C  0822               	movf	fputs@fp+1,w
  2883     009D  00F3               	movwf	fputc@fp+1
  2884     009E  120A  118A  2498  120A  118A  	fcall	_fputc
  2885     00A3                     l1587:
  2886     00A3  3001               	movlw	1
  2887     00A4  1283               	bcf	3,5	;RP0=0, select bank0
  2888     00A5  1303               	bcf	3,6	;RP1=0, select bank0
  2889     00A6  07A6               	addwf	fputs@i,f
  2890     00A7  1803               	skipnc
  2891     00A8  0AA7               	incf	fputs@i+1,f
  2892     00A9  3000               	movlw	0
  2893     00AA  07A7               	addwf	fputs@i+1,f
  2894     00AB                     l1589:
  2895     00AB  0826               	movf	fputs@i,w
  2896     00AC  0720               	addwf	fputs@s,w
  2897     00AD  00A3               	movwf	??_fputs
  2898     00AE  0823               	movf	??_fputs,w
  2899     00AF  0084               	movwf	4
  2900     00B0  1383               	bcf	3,7	;select IRP bank0
  2901     00B1  0800               	movf	0,w
  2902     00B2  00A5               	movwf	fputs@c
  2903     00B3  0825               	movf	fputs@c,w
  2904     00B4  1D03               	btfss	3,2
  2905     00B5  28B7               	goto	u871
  2906     00B6  28B8               	goto	u870
  2907     00B7                     u871:
  2908     00B7  2893               	goto	l1585
  2909     00B8                     u870:
  2910     00B8                     l890:
  2911     00B8  0008               	return
  2912     00B9                     __end_of_fputs:
  2913                           
  2914                           	psect	text9
  2915     0498                     __ptext9:	
  2916 ;; *************** function _fputc *****************
  2917 ;; Defined at:
  2918 ;;		line 8 in file "C:\Program Files\Microchip\xc8\v3.10\pic\sources\c99\common\nf_fputc.c"
  2919 ;; Parameters:    Size  Location     Type
  2920 ;;  c               2    0[COMMON] int 
  2921 ;;  fp              2    2[COMMON] PTR struct _IO_FILE
  2922 ;;		 -> sprintf@f(11), 
  2923 ;; Auto vars:     Size  Location     Type
  2924 ;;		None
  2925 ;; Return value:  Size  Location     Type
  2926 ;;                  2    0[COMMON] int 
  2927 ;; Registers used:
  2928 ;;		wreg, fsr0l, fsr0h, status,2, status,0, pclath, cstack
  2929 ;; Tracked objects:
  2930 ;;		On entry : 0/0
  2931 ;;		On exit  : 0/0
  2932 ;;		Unchanged: 0/0
  2933 ;; Data sizes:     COMMON   BANK0   BANK1   BANK3   BANK2
  2934 ;;      Params:         4       0       0       0       0
  2935 ;;      Locals:         0       0       0       0       0
  2936 ;;      Temps:          9       0       0       0       0
  2937 ;;      Totals:        13       0       0       0       0
  2938 ;;Total ram usage:       13 bytes
  2939 ;; Hardware stack levels used: 1
  2940 ;; This function calls:
  2941 ;;		_putch
  2942 ;; This function is called by:
  2943 ;;		_pad
  2944 ;;		_vfpfcnvrt
  2945 ;;		_fputs
  2946 ;; This function uses a non-reentrant model
  2947 ;;
  2948                           
  2949     0498                     _fputc:	
  2950                           ;psect for function _fputc
  2951                           
  2952     0498                     l1569:	
  2953                           ;incstack = 0
  2954                           ; Regs used in _fputc: [wreg-fsr0h+status,2+status,0+pclath+cstack]
  2955                           
  2956     0498  0872               	movf	fputc@fp,w
  2957     0499  0473               	iorwf	fputc@fp+1,w
  2958     049A  1903               	btfsc	3,2
  2959     049B  2C9D               	goto	u821
  2960     049C  2C9E               	goto	u820
  2961     049D                     u821:
  2962     049D  2CA4               	goto	l1573
  2963     049E                     u820:
  2964     049E                     l1571:
  2965     049E  0872               	movf	fputc@fp,w
  2966     049F  0473               	iorwf	fputc@fp+1,w
  2967     04A0  1D03               	btfss	3,2
  2968     04A1  2CA3               	goto	u831
  2969     04A2  2CA4               	goto	u830
  2970     04A3                     u831:
  2971     04A3  2CAB               	goto	l1575
  2972     04A4                     u830:
  2973     04A4                     l1573:
  2974     04A4  0870               	movf	fputc@c,w
  2975     04A5  120A  118A  2052  120A  118A  	fcall	_putch
  2976     04AA  2D31               	goto	l882
  2977     04AB                     l1575:
  2978     04AB  0872               	movf	fputc@fp,w
  2979     04AC  3E09               	addlw	9
  2980     04AD  00F4               	movwf	??_fputc
  2981     04AE  0873               	movf	fputc@fp+1,w
  2982     04AF  1803               	skipnc
  2983     04B0  3E01               	addlw	1
  2984     04B1  3E00               	addlw	0
  2985     04B2  00F5               	movwf	??_fputc+1
  2986     04B3  0874               	movf	??_fputc,w
  2987     04B4  0084               	movwf	4
  2988     04B5  1783               	bsf	3,7
  2989     04B6  1C75               	btfss	??_fputc+1,0
  2990     04B7  1383               	bcf	3,7
  2991     04B8  0800               	movf	0,w
  2992     04B9  00F6               	movwf	??_fputc+2
  2993     04BA  0A84               	incf	4,f
  2994     04BB  0800               	movf	0,w
  2995     04BC  00F7               	movwf	??_fputc+3
  2996     04BD  0876               	movf	??_fputc+2,w
  2997     04BE  0477               	iorwf	??_fputc+3,w
  2998     04BF  1903               	btfsc	3,2
  2999     04C0  2CC2               	goto	u841
  3000     04C1  2CC3               	goto	u840
  3001     04C2                     u841:
  3002     04C2  2CF5               	goto	l1579
  3003     04C3                     u840:
  3004     04C3                     l1577:
  3005     04C3  0872               	movf	fputc@fp,w
  3006     04C4  3E09               	addlw	9
  3007     04C5  00F4               	movwf	??_fputc
  3008     04C6  0873               	movf	fputc@fp+1,w
  3009     04C7  1803               	skipnc
  3010     04C8  3E01               	addlw	1
  3011     04C9  3E00               	addlw	0
  3012     04CA  00F5               	movwf	??_fputc+1
  3013     04CB  0874               	movf	??_fputc,w
  3014     04CC  0084               	movwf	4
  3015     04CD  1783               	bsf	3,7
  3016     04CE  1C75               	btfss	??_fputc+1,0
  3017     04CF  1383               	bcf	3,7
  3018     04D0  0800               	movf	0,w
  3019     04D1  00F6               	movwf	??_fputc+2
  3020     04D2  0A84               	incf	4,f
  3021     04D3  0800               	movf	0,w
  3022     04D4  00F7               	movwf	??_fputc+3
  3023     04D5  0872               	movf	fputc@fp,w
  3024     04D6  3E02               	addlw	2
  3025     04D7  00F8               	movwf	??_fputc+4
  3026     04D8  0873               	movf	fputc@fp+1,w
  3027     04D9  1803               	skipnc
  3028     04DA  3E01               	addlw	1
  3029     04DB  3E00               	addlw	0
  3030     04DC  00F9               	movwf	??_fputc+5
  3031     04DD  0878               	movf	??_fputc+4,w
  3032     04DE  0084               	movwf	4
  3033     04DF  1783               	bsf	3,7
  3034     04E0  1C79               	btfss	??_fputc+5,0
  3035     04E1  1383               	bcf	3,7
  3036     04E2  0800               	movf	0,w
  3037     04E3  00FA               	movwf	??_fputc+6
  3038     04E4  0A84               	incf	4,f
  3039     04E5  0800               	movf	0,w
  3040     04E6  00FB               	movwf	??_fputc+7
  3041     04E7  087B               	movf	??_fputc+7,w
  3042     04E8  3A80               	xorlw	128
  3043     04E9  00FC               	movwf	??_fputc+8
  3044     04EA  0877               	movf	??_fputc+3,w
  3045     04EB  3A80               	xorlw	128
  3046     04EC  027C               	subwf	??_fputc+8,w
  3047     04ED  1D03               	skipz
  3048     04EE  2CF1               	goto	u855
  3049     04EF  0876               	movf	??_fputc+2,w
  3050     04F0  027A               	subwf	??_fputc+6,w
  3051     04F1                     u855:
  3052     04F1  1803               	skipnc
  3053     04F2  2CF4               	goto	u851
  3054     04F3  2CF5               	goto	u850
  3055     04F4                     u851:
  3056     04F4  2D31               	goto	l882
  3057     04F5                     u850:
  3058     04F5                     l1579:
  3059     04F5  0872               	movf	fputc@fp,w
  3060     04F6  0084               	movwf	4
  3061     04F7  1783               	bsf	3,7
  3062     04F8  1C73               	btfss	fputc@fp+1,0
  3063     04F9  1383               	bcf	3,7
  3064     04FA  0800               	movf	0,w
  3065     04FB  00F4               	movwf	??_fputc
  3066     04FC  0A84               	incf	4,f
  3067     04FD  0800               	movf	0,w
  3068     04FE  00F5               	movwf	??_fputc+1
  3069     04FF  0872               	movf	fputc@fp,w
  3070     0500  3E02               	addlw	2
  3071     0501  00F6               	movwf	??_fputc+2
  3072     0502  0873               	movf	fputc@fp+1,w
  3073     0503  1803               	skipnc
  3074     0504  3E01               	addlw	1
  3075     0505  3E00               	addlw	0
  3076     0506  00F7               	movwf	??_fputc+3
  3077     0507  0876               	movf	??_fputc+2,w
  3078     0508  0084               	movwf	4
  3079     0509  1783               	bsf	3,7
  3080     050A  1C77               	btfss	??_fputc+3,0
  3081     050B  1383               	bcf	3,7
  3082     050C  0800               	movf	0,w
  3083     050D  0774               	addwf	??_fputc,w
  3084     050E  00F9               	movwf	??_fputc+5
  3085     050F  0875               	movf	??_fputc+1,w
  3086     0510  00F8               	movwf	??_fputc+4
  3087     0511  1803               	skipnc
  3088     0512  0AF8               	incf	??_fputc+4,f
  3089     0513  1F80               	btfss	0,7
  3090     0514  2D16               	goto	u860
  3091     0515  03F8               	decf	??_fputc+4,f
  3092     0516                     u860:
  3093     0516  0878               	movf	??_fputc+4,w
  3094     0517  00FA               	movwf	??_fputc+6
  3095     0518  0879               	movf	??_fputc+5,w
  3096     0519  0084               	movwf	4
  3097     051A  1783               	bsf	3,7
  3098     051B  1C7A               	btfss	??_fputc+6,0
  3099     051C  1383               	bcf	3,7
  3100     051D  0870               	movf	fputc@c,w
  3101     051E  0080               	movwf	0
  3102     051F  0872               	movf	fputc@fp,w
  3103     0520  3E02               	addlw	2
  3104     0521  00F4               	movwf	??_fputc
  3105     0522  0873               	movf	fputc@fp+1,w
  3106     0523  1803               	skipnc
  3107     0524  3E01               	addlw	1
  3108     0525  3E00               	addlw	0
  3109     0526  00F5               	movwf	??_fputc+1
  3110     0527  0874               	movf	??_fputc,w
  3111     0528  0084               	movwf	4
  3112     0529  1783               	bsf	3,7
  3113     052A  1C75               	btfss	??_fputc+1,0
  3114     052B  1383               	bcf	3,7
  3115     052C  3001               	movlw	1
  3116     052D  0780               	addwf	0,f
  3117     052E  0A84               	incf	4,f
  3118     052F  1803               	skipnc
  3119     0530  0A80               	incf	0,f
  3120     0531                     l882:
  3121     0531  0008               	return
  3122     0532                     __end_of_fputc:
  3123                           
  3124                           	psect	text10
  3125     0052                     __ptext10:	
  3126 ;; *************** function _putch *****************
  3127 ;; Defined at:
  3128 ;;		line 7 in file "C:\Program Files\Microchip\xc8\v3.10\pic\sources\c99\common\putch.c"
  3129 ;; Parameters:    Size  Location     Type
  3130 ;;  c               1    wreg     unsigned char 
  3131 ;; Auto vars:     Size  Location     Type
  3132 ;;  c               1    0[COMMON] unsigned char 
  3133 ;; Return value:  Size  Location     Type
  3134 ;;                  1    wreg      void 
  3135 ;; Registers used:
  3136 ;;		wreg
  3137 ;; Tracked objects:
  3138 ;;		On entry : 0/0
  3139 ;;		On exit  : 0/0
  3140 ;;		Unchanged: 0/0
  3141 ;; Data sizes:     COMMON   BANK0   BANK1   BANK3   BANK2
  3142 ;;      Params:         0       0       0       0       0
  3143 ;;      Locals:         0       0       0       0       0
  3144 ;;      Temps:          0       0       0       0       0
  3145 ;;      Totals:         0       0       0       0       0
  3146 ;;Total ram usage:        0 bytes
  3147 ;; Hardware stack levels used: 1
  3148 ;; This function calls:
  3149 ;;		Nothing
  3150 ;; This function is called by:
  3151 ;;		_fputc
  3152 ;; This function uses a non-reentrant model
  3153 ;;
  3154                           
  3155     0052                     _putch:	
  3156                           ;psect for function _putch
  3157                           
  3158     0052                     l893:	
  3159                           ;incstack = 0
  3160                           ; Regs used in _putch: [wreg]
  3161                           
  3162     0052  0008               	return
  3163     0053                     __end_of_putch:
  3164                           
  3165                           	psect	text11
  3166     0F22                     __ptext11:	
  3167 ;; *************** function _abs *****************
  3168 ;; Defined at:
  3169 ;;		line 1 in file "C:\Program Files\Microchip\xc8\v3.10\pic\sources\c99\common\abs.c"
  3170 ;; Parameters:    Size  Location     Type
  3171 ;;  a               2    6[COMMON] int 
  3172 ;; Auto vars:     Size  Location     Type
  3173 ;;		None
  3174 ;; Return value:  Size  Location     Type
  3175 ;;                  2    6[COMMON] int 
  3176 ;; Registers used:
  3177 ;;		wreg, status,2, status,0
  3178 ;; Tracked objects:
  3179 ;;		On entry : 0/0
  3180 ;;		On exit  : 0/0
  3181 ;;		Unchanged: 0/0
  3182 ;; Data sizes:     COMMON   BANK0   BANK1   BANK3   BANK2
  3183 ;;      Params:         2       0       0       0       0
  3184 ;;      Locals:         0       0       0       0       0
  3185 ;;      Temps:          2       0       0       0       0
  3186 ;;      Totals:         4       0       0       0       0
  3187 ;;Total ram usage:        4 bytes
  3188 ;; Hardware stack levels used: 1
  3189 ;; This function calls:
  3190 ;;		Nothing
  3191 ;; This function is called by:
  3192 ;;		_dtoa
  3193 ;; This function uses a non-reentrant model
  3194 ;;
  3195                           
  3196     0F22                     _abs:	
  3197                           ;psect for function _abs
  3198                           
  3199     0F22                     l1703:	
  3200                           ;incstack = 0
  3201                           ; Regs used in _abs: [wreg+status,2+status,0]
  3202                           
  3203     0F22  1BF7               	btfsc	abs@a+1,7
  3204     0F23  2F25               	goto	u1151
  3205     0F24  2F26               	goto	u1150
  3206     0F25                     u1151:
  3207     0F25  2F27               	goto	l1707
  3208     0F26                     u1150:
  3209     0F26                     l1705:
  3210     0F26  2F32               	goto	l870
  3211     0F27                     l1707:
  3212     0F27  0976               	comf	abs@a,w
  3213     0F28  00F8               	movwf	??_abs
  3214     0F29  0977               	comf	abs@a+1,w
  3215     0F2A  00F9               	movwf	??_abs+1
  3216     0F2B  0AF8               	incf	??_abs,f
  3217     0F2C  1903               	skipnz
  3218     0F2D  0AF9               	incf	??_abs+1,f
  3219     0F2E  0878               	movf	??_abs,w
  3220     0F2F  00F6               	movwf	?_abs
  3221     0F30  0879               	movf	??_abs+1,w
  3222     0F31  00F7               	movwf	?_abs+1
  3223     0F32                     l870:
  3224     0F32  0008               	return
  3225     0F33                     __end_of_abs:
  3226                           
  3227                           	psect	text12
  3228     0066                     __ptext12:	
  3229 ;; *************** function _Lcd_Write_String *****************
  3230 ;; Defined at:
  3231 ;;		line 81 in file "lcd_i2c.c"
  3232 ;; Parameters:    Size  Location     Type
  3233 ;;  str             2    4[BANK0 ] PTR const unsigned char 
  3234 ;;		 -> main@linea2(17), main@linea1(17), STR_1(17), 
  3235 ;; Auto vars:     Size  Location     Type
  3236 ;;		None
  3237 ;; Return value:  Size  Location     Type
  3238 ;;                  1    wreg      void 
  3239 ;; Registers used:
  3240 ;;		wreg, fsr0l, fsr0h, status,2, status,0, pclath, btemp1, cstack
  3241 ;; Tracked objects:
  3242 ;;		On entry : 0/0
  3243 ;;		On exit  : 0/0
  3244 ;;		Unchanged: 0/0
  3245 ;; Data sizes:     COMMON   BANK0   BANK1   BANK3   BANK2
  3246 ;;      Params:         0       2       0       0       0
  3247 ;;      Locals:         0       0       0       0       0
  3248 ;;      Temps:          0       0       0       0       0
  3249 ;;      Totals:         0       2       0       0       0
  3250 ;;Total ram usage:        2 bytes
  3251 ;; Hardware stack levels used: 1
  3252 ;; Hardware stack levels required when called: 2
  3253 ;; This function calls:
  3254 ;;		_Lcd_Write_Char
  3255 ;; This function is called by:
  3256 ;;		_main
  3257 ;; This function uses a non-reentrant model
  3258 ;;
  3259                           
  3260     0066                     _Lcd_Write_String:	
  3261                           ;psect for function _Lcd_Write_String
  3262                           
  3263     0066                     l1975:	
  3264                           ;incstack = 0
  3265                           ; Regs used in _Lcd_Write_String: [wreg-fsr0h+status,2+status,0+pclath+btemp1+cstack]
  3266                           
  3267                           
  3268                           ;lcd_i2c.c: 81: void Lcd_Write_String(const char *str);lcd_i2c.c: 82: {;lcd_i2c.c: 83:  
      +                             while(*str != '\0')
  3269     0066  287D               	goto	l1981
  3270     0067                     l1977:
  3271                           
  3272                           ;lcd_i2c.c: 84:     {;lcd_i2c.c: 85:         Lcd_Write_Char(*str++);
  3273     0067  0825               	movf	Lcd_Write_String@str+1,w
  3274     0068  00FF               	movwf	btemp1
  3275     0069  0824               	movf	Lcd_Write_String@str,w
  3276     006A  0084               	movwf	4
  3277     006B  120A  118A  2003  120A  118A  	fcall	stringtab
  3278     0070  120A  118A  2227  120A  118A  	fcall	_Lcd_Write_Char
  3279     0075                     l1979:
  3280     0075  3001               	movlw	1
  3281     0076  1283               	bcf	3,5	;RP0=0, select bank0
  3282     0077  1303               	bcf	3,6	;RP1=0, select bank0
  3283     0078  07A4               	addwf	Lcd_Write_String@str,f
  3284     0079  1803               	skipnc
  3285     007A  0AA5               	incf	Lcd_Write_String@str+1,f
  3286     007B  3000               	movlw	0
  3287     007C  07A5               	addwf	Lcd_Write_String@str+1,f
  3288     007D                     l1981:
  3289                           
  3290                           ;lcd_i2c.c: 83:     while(*str != '\0')
  3291     007D  1283               	bcf	3,5	;RP0=0, select bank0
  3292     007E  1303               	bcf	3,6	;RP1=0, select bank0
  3293     007F  0825               	movf	Lcd_Write_String@str+1,w
  3294     0080  00FF               	movwf	btemp1
  3295     0081  0824               	movf	Lcd_Write_String@str,w
  3296     0082  0084               	movwf	4
  3297     0083  120A  118A  2003  120A  118A  	fcall	stringtab
  3298     0088  3A00               	xorlw	0
  3299     0089  1D03               	skipz
  3300     008A  288C               	goto	u1491
  3301     008B  288D               	goto	u1490
  3302     008C                     u1491:
  3303     008C  2867               	goto	l1977
  3304     008D                     u1490:
  3305     008D                     l135:
  3306     008D  0008               	return
  3307     008E                     __end_of_Lcd_Write_String:
  3308                           
  3309                           	psect	text13
  3310     0227                     __ptext13:	
  3311 ;; *************** function _Lcd_Write_Char *****************
  3312 ;; Defined at:
  3313 ;;		line 41 in file "lcd_i2c.c"
  3314 ;; Parameters:    Size  Location     Type
  3315 ;;  c               1    wreg     unsigned char 
  3316 ;; Auto vars:     Size  Location     Type
  3317 ;;  c               1    1[BANK0 ] unsigned char 
  3318 ;;  data_l          1    3[BANK0 ] unsigned char 
  3319 ;;  data_u          1    2[BANK0 ] unsigned char 
  3320 ;; Return value:  Size  Location     Type
  3321 ;;                  1    wreg      void 
  3322 ;; Registers used:
  3323 ;;		wreg, status,2, status,0, pclath, cstack
  3324 ;; Tracked objects:
  3325 ;;		On entry : 0/0
  3326 ;;		On exit  : 0/0
  3327 ;;		Unchanged: 0/0
  3328 ;; Data sizes:     COMMON   BANK0   BANK1   BANK3   BANK2
  3329 ;;      Params:         0       0       0       0       0
  3330 ;;      Locals:         0       3       0       0       0
  3331 ;;      Temps:          0       1       0       0       0
  3332 ;;      Totals:         0       4       0       0       0
  3333 ;;Total ram usage:        4 bytes
  3334 ;; Hardware stack levels used: 1
  3335 ;; Hardware stack levels required when called: 1
  3336 ;; This function calls:
  3337 ;;		_I2C_Start
  3338 ;;		_I2C_Stop
  3339 ;;		_I2C_Write
  3340 ;; This function is called by:
  3341 ;;		_Lcd_Write_String
  3342 ;;		_Lcd_CGRAM_WriteChar
  3343 ;;		_Lcd_CGRAM_CreateChar
  3344 ;; This function uses a non-reentrant model
  3345 ;;
  3346                           
  3347     0227                     _Lcd_Write_Char:	
  3348                           ;psect for function _Lcd_Write_Char
  3349                           
  3350                           
  3351                           ;incstack = 0
  3352                           ; Regs used in _Lcd_Write_Char: [wreg+status,2+status,0+pclath+cstack]
  3353                           ;Lcd_Write_Char@c stored from wreg
  3354     0227  1283               	bcf	3,5	;RP0=0, select bank0
  3355     0228  1303               	bcf	3,6	;RP1=0, select bank0
  3356     0229  00A1               	movwf	Lcd_Write_Char@c
  3357     022A                     l1879:
  3358                           
  3359                           ;lcd_i2c.c: 41: void Lcd_Write_Char(char c);lcd_i2c.c: 42: {;lcd_i2c.c: 43:     char dat
      +                          a_u, data_l;;lcd_i2c.c: 44:     data_u = (c & 0xF0);
  3360     022A  0821               	movf	Lcd_Write_Char@c,w
  3361     022B  00A2               	movwf	Lcd_Write_Char@data_u
  3362     022C                     l1881:
  3363     022C  30F0               	movlw	240
  3364     022D  05A2               	andwf	Lcd_Write_Char@data_u,f
  3365     022E                     l1883:
  3366                           
  3367                           ;lcd_i2c.c: 45:     data_l = ((c<<4) & 0xF0);
  3368     022E  0821               	movf	Lcd_Write_Char@c,w
  3369     022F  00A0               	movwf	??_Lcd_Write_Char
  3370     0230  3003               	movlw	3
  3371     0231                     u1435:
  3372     0231  1003               	clrc
  3373     0232  0DA0               	rlf	??_Lcd_Write_Char,f
  3374     0233  3EFF               	addlw	-1
  3375     0234  1D03               	skipz
  3376     0235  2A31               	goto	u1435
  3377     0236  1003               	clrc
  3378     0237  0D20               	rlf	??_Lcd_Write_Char,w
  3379     0238  00A3               	movwf	Lcd_Write_Char@data_l
  3380     0239                     l1885:
  3381     0239  30F0               	movlw	240
  3382     023A  05A3               	andwf	Lcd_Write_Char@data_l,f
  3383     023B                     l1887:
  3384                           
  3385                           ;lcd_i2c.c: 47:     I2C_Start();
  3386     023B  120A  158A  26CE  120A  118A  	fcall	_I2C_Start
  3387     0240                     l1889:
  3388                           
  3389                           ;lcd_i2c.c: 48:     I2C_Write(0x4E);
  3390     0240  304E               	movlw	78
  3391     0241  120A  158A  2703  120A  118A  	fcall	_I2C_Write
  3392     0246                     l1891:
  3393                           
  3394                           ;lcd_i2c.c: 49:     I2C_Write(data_u|0x0D);
  3395     0246  1283               	bcf	3,5	;RP0=0, select bank0
  3396     0247  1303               	bcf	3,6	;RP1=0, select bank0
  3397     0248  0822               	movf	Lcd_Write_Char@data_u,w
  3398     0249  380D               	iorlw	13
  3399     024A  120A  158A  2703  120A  118A  	fcall	_I2C_Write
  3400     024F                     l1893:
  3401                           
  3402                           ;lcd_i2c.c: 50:     I2C_Write(data_u|0x09);
  3403     024F  1283               	bcf	3,5	;RP0=0, select bank0
  3404     0250  1303               	bcf	3,6	;RP1=0, select bank0
  3405     0251  0822               	movf	Lcd_Write_Char@data_u,w
  3406     0252  3809               	iorlw	9
  3407     0253  120A  158A  2703  120A  118A  	fcall	_I2C_Write
  3408     0258                     l1895:
  3409                           
  3410                           ;lcd_i2c.c: 51:     I2C_Write(data_l|0x0D);
  3411     0258  1283               	bcf	3,5	;RP0=0, select bank0
  3412     0259  1303               	bcf	3,6	;RP1=0, select bank0
  3413     025A  0823               	movf	Lcd_Write_Char@data_l,w
  3414     025B  380D               	iorlw	13
  3415     025C  120A  158A  2703  120A  118A  	fcall	_I2C_Write
  3416     0261                     l1897:
  3417                           
  3418                           ;lcd_i2c.c: 52:     I2C_Write(data_l|0x09);
  3419     0261  1283               	bcf	3,5	;RP0=0, select bank0
  3420     0262  1303               	bcf	3,6	;RP1=0, select bank0
  3421     0263  0823               	movf	Lcd_Write_Char@data_l,w
  3422     0264  3809               	iorlw	9
  3423     0265  120A  158A  2703  120A  118A  	fcall	_I2C_Write
  3424     026A                     l1899:
  3425                           
  3426                           ;lcd_i2c.c: 53:     I2C_Stop();
  3427     026A  120A  158A  26D8  120A  118A  	fcall	_I2C_Stop
  3428     026F                     l119:
  3429     026F  0008               	return
  3430     0270                     __end_of_Lcd_Write_Char:
  3431                           
  3432                           	psect	text14
  3433     0FD8                     __ptext14:	
  3434 ;; *************** function _Lcd_Set_Cursor *****************
  3435 ;; Defined at:
  3436 ;;		line 56 in file "lcd_i2c.c"
  3437 ;; Parameters:    Size  Location     Type
  3438 ;;  col             1    wreg     unsigned char 
  3439 ;;  row             1    4[BANK0 ] unsigned char 
  3440 ;; Auto vars:     Size  Location     Type
  3441 ;;  col             1    5[BANK0 ] unsigned char 
  3442 ;;  address         1    6[BANK0 ] unsigned char 
  3443 ;; Return value:  Size  Location     Type
  3444 ;;                  1    wreg      void 
  3445 ;; Registers used:
  3446 ;;		wreg, fsr0l, fsr0h, status,2, status,0, pclath, cstack
  3447 ;; Tracked objects:
  3448 ;;		On entry : 0/0
  3449 ;;		On exit  : 0/0
  3450 ;;		Unchanged: 0/0
  3451 ;; Data sizes:     COMMON   BANK0   BANK1   BANK3   BANK2
  3452 ;;      Params:         0       1       0       0       0
  3453 ;;      Locals:         0       2       0       0       0
  3454 ;;      Temps:          0       0       0       0       0
  3455 ;;      Totals:         0       3       0       0       0
  3456 ;;Total ram usage:        3 bytes
  3457 ;; Hardware stack levels used: 1
  3458 ;; Hardware stack levels required when called: 1
  3459 ;; This function calls:
  3460 ;;		_Lcd_Cmd
  3461 ;; This function is called by:
  3462 ;;		_main
  3463 ;; This function uses a non-reentrant model
  3464 ;;
  3465                           
  3466     0FD8                     _Lcd_Set_Cursor:	
  3467                           ;psect for function _Lcd_Set_Cursor
  3468                           
  3469                           
  3470                           ;incstack = 0
  3471                           ; Regs used in _Lcd_Set_Cursor: [wreg-fsr0h+status,2+status,0+pclath+cstack]
  3472                           ;Lcd_Set_Cursor@col stored from wreg
  3473     0FD8  1283               	bcf	3,5	;RP0=0, select bank0
  3474     0FD9  1303               	bcf	3,6	;RP1=0, select bank0
  3475     0FDA  00A5               	movwf	Lcd_Set_Cursor@col
  3476     0FDB                     l1961:
  3477                           
  3478                           ;lcd_i2c.c: 56: void Lcd_Set_Cursor(char col, char row);lcd_i2c.c: 57: {;lcd_i2c.c: 58: 
      +                              unsigned char address;;lcd_i2c.c: 59:     switch(row)
  3479     0FDB  2FE7               	goto	l1969
  3480     0FDC                     l1963:
  3481                           
  3482                           ;lcd_i2c.c: 62:             address = 0x00;
  3483     0FDC  01A6               	clrf	Lcd_Set_Cursor@address
  3484                           
  3485                           ;lcd_i2c.c: 63:             break;
  3486     0FDD  2FF5               	goto	l1971
  3487     0FDE                     l125:	
  3488                           ;lcd_i2c.c: 64:         case 2:
  3489                           
  3490                           
  3491                           ;lcd_i2c.c: 65:             address = 0x40;
  3492     0FDE  3040               	movlw	64
  3493     0FDF  00A6               	movwf	Lcd_Set_Cursor@address
  3494                           
  3495                           ;lcd_i2c.c: 66:             break;
  3496     0FE0  2FF5               	goto	l1971
  3497     0FE1                     l126:	
  3498                           ;lcd_i2c.c: 67:         case 3:
  3499                           
  3500                           
  3501                           ;lcd_i2c.c: 68:             address = 0x14;
  3502     0FE1  3014               	movlw	20
  3503     0FE2  00A6               	movwf	Lcd_Set_Cursor@address
  3504                           
  3505                           ;lcd_i2c.c: 69:             break;
  3506     0FE3  2FF5               	goto	l1971
  3507     0FE4                     l127:	
  3508                           ;lcd_i2c.c: 70:         case 4:
  3509                           
  3510                           
  3511                           ;lcd_i2c.c: 71:             address = 0x54;
  3512     0FE4  3054               	movlw	84
  3513     0FE5  00A6               	movwf	Lcd_Set_Cursor@address
  3514                           
  3515                           ;lcd_i2c.c: 72:             break;
  3516     0FE6  2FF5               	goto	l1971
  3517     0FE7                     l1969:
  3518     0FE7  0824               	movf	Lcd_Set_Cursor@row,w
  3519                           
  3520                           ; Switch size 1, requested type "simple"
  3521                           ; Number of cases is 4, Range of values is 1 to 4
  3522                           ; switch strategies available:
  3523                           ; Name         Instructions Cycles
  3524                           ; simple_byte           13     7 (average)
  3525                           ; direct_byte           23    11 (fixed)
  3526                           ; jumptable            263     9 (fixed)
  3527                           ;	Chosen strategy is simple_byte
  3528     0FE8  3A01               	xorlw	1	; case 1
  3529     0FE9  1903               	skipnz
  3530     0FEA  2FDC               	goto	l1963
  3531     0FEB  3A03               	xorlw	3	; case 2
  3532     0FEC  1903               	skipnz
  3533     0FED  2FDE               	goto	l125
  3534     0FEE  3A01               	xorlw	1	; case 3
  3535     0FEF  1903               	skipnz
  3536     0FF0  2FE1               	goto	l126
  3537     0FF1  3A07               	xorlw	7	; case 4
  3538     0FF2  1903               	skipnz
  3539     0FF3  2FE4               	goto	l127
  3540     0FF4  2FDC               	goto	l1963
  3541     0FF5                     l1971:
  3542                           
  3543                           ;lcd_i2c.c: 77:     address += col - 1;
  3544     0FF5  0825               	movf	Lcd_Set_Cursor@col,w
  3545     0FF6  3EFF               	addlw	255
  3546     0FF7  07A6               	addwf	Lcd_Set_Cursor@address,f
  3547     0FF8                     l1973:
  3548                           
  3549                           ;lcd_i2c.c: 78:     Lcd_Cmd(0x80 | address);
  3550     0FF8  0826               	movf	Lcd_Set_Cursor@address,w
  3551     0FF9  3880               	iorlw	128
  3552     0FFA  120A  118A  21DE  120A  158A  	fcall	_Lcd_Cmd
  3553     0FFF                     l129:
  3554     0FFF  0008               	return
  3555     1000                     __end_of_Lcd_Set_Cursor:
  3556                           
  3557                           	psect	text15
  3558     0123                     __ptext15:	
  3559 ;; *************** function _Lcd_Init *****************
  3560 ;; Defined at:
  3561 ;;		line 13 in file "lcd_i2c.c"
  3562 ;; Parameters:    Size  Location     Type
  3563 ;;		None
  3564 ;; Auto vars:     Size  Location     Type
  3565 ;;		None
  3566 ;; Return value:  Size  Location     Type
  3567 ;;                  1    wreg      void 
  3568 ;; Registers used:
  3569 ;;		wreg, status,2, status,0, pclath, cstack
  3570 ;; Tracked objects:
  3571 ;;		On entry : 0/0
  3572 ;;		On exit  : 0/0
  3573 ;;		Unchanged: 0/0
  3574 ;; Data sizes:     COMMON   BANK0   BANK1   BANK3   BANK2
  3575 ;;      Params:         0       0       0       0       0
  3576 ;;      Locals:         0       0       0       0       0
  3577 ;;      Temps:          0       2       0       0       0
  3578 ;;      Totals:         0       2       0       0       0
  3579 ;;Total ram usage:        2 bytes
  3580 ;; Hardware stack levels used: 1
  3581 ;; Hardware stack levels required when called: 1
  3582 ;; This function calls:
  3583 ;;		_Lcd_Cmd
  3584 ;; This function is called by:
  3585 ;;		_main
  3586 ;; This function uses a non-reentrant model
  3587 ;;
  3588                           
  3589     0123                     _Lcd_Init:	
  3590                           ;psect for function _Lcd_Init
  3591                           
  3592     0123                     l1943:	
  3593                           ;incstack = 0
  3594                           ; Regs used in _Lcd_Init: [wreg+status,2+status,0+pclath+cstack]
  3595                           
  3596                           
  3597                           ;lcd_i2c.c: 15:     _delay((unsigned long)((20)*(20000000/4000.0)));
  3598     0123  3082               	movlw	130
  3599     0124  1283               	bcf	3,5	;RP0=0, select bank0
  3600     0125  1303               	bcf	3,6	;RP1=0, select bank0
  3601     0126  00A5               	movwf	??_Lcd_Init+1
  3602     0127  30DD               	movlw	221
  3603     0128  00A4               	movwf	??_Lcd_Init
  3604     0129                     u2587:
  3605     0129  0BA4               	decfsz	??_Lcd_Init,f
  3606     012A  2929               	goto	u2587
  3607     012B  0BA5               	decfsz	??_Lcd_Init+1,f
  3608     012C  2929               	goto	u2587
  3609     012D                     l1945:
  3610                           
  3611                           ;lcd_i2c.c: 16:     Lcd_Cmd(0x33);
  3612     012D  3033               	movlw	51
  3613     012E  120A  118A  21DE  120A  118A  	fcall	_Lcd_Cmd
  3614     0133                     l1947:
  3615                           
  3616                           ;lcd_i2c.c: 17:     Lcd_Cmd(0x32);
  3617     0133  3032               	movlw	50
  3618     0134  120A  118A  21DE  120A  118A  	fcall	_Lcd_Cmd
  3619     0139                     l1949:
  3620                           
  3621                           ;lcd_i2c.c: 18:     Lcd_Cmd(0x28);
  3622     0139  3028               	movlw	40
  3623     013A  120A  118A  21DE  120A  118A  	fcall	_Lcd_Cmd
  3624     013F                     l1951:
  3625                           
  3626                           ;lcd_i2c.c: 19:     Lcd_Cmd(0x0C);
  3627     013F  300C               	movlw	12
  3628     0140  120A  118A  21DE  120A  118A  	fcall	_Lcd_Cmd
  3629     0145                     l1953:
  3630                           
  3631                           ;lcd_i2c.c: 20:     Lcd_Cmd(0x06);
  3632     0145  3006               	movlw	6
  3633     0146  120A  118A  21DE  120A  118A  	fcall	_Lcd_Cmd
  3634     014B                     l1955:
  3635                           
  3636                           ;lcd_i2c.c: 21:     Lcd_Cmd(0x01);
  3637     014B  3001               	movlw	1
  3638     014C  120A  118A  21DE  120A  118A  	fcall	_Lcd_Cmd
  3639                           
  3640                           ;lcd_i2c.c: 22:     _delay((unsigned long)((3)*(20000000/4000.0)));
  3641     0151  3014               	movlw	20
  3642     0152  1283               	bcf	3,5	;RP0=0, select bank0
  3643     0153  1303               	bcf	3,6	;RP1=0, select bank0
  3644     0154  00A5               	movwf	??_Lcd_Init+1
  3645     0155  3079               	movlw	121
  3646     0156  00A4               	movwf	??_Lcd_Init
  3647     0157                     u2597:
  3648     0157  0BA4               	decfsz	??_Lcd_Init,f
  3649     0158  2957               	goto	u2597
  3650     0159  0BA5               	decfsz	??_Lcd_Init+1,f
  3651     015A  2957               	goto	u2597
  3652     015B                     l113:
  3653     015B  0008               	return
  3654     015C                     __end_of_Lcd_Init:
  3655                           
  3656                           	psect	text16
  3657     0F11                     __ptext16:	
  3658 ;; *************** function _Lcd_Clear *****************
  3659 ;; Defined at:
  3660 ;;		line 89 in file "lcd_i2c.c"
  3661 ;; Parameters:    Size  Location     Type
  3662 ;;		None
  3663 ;; Auto vars:     Size  Location     Type
  3664 ;;		None
  3665 ;; Return value:  Size  Location     Type
  3666 ;;                  1    wreg      void 
  3667 ;; Registers used:
  3668 ;;		wreg, status,2, status,0, pclath, cstack
  3669 ;; Tracked objects:
  3670 ;;		On entry : 0/0
  3671 ;;		On exit  : 0/0
  3672 ;;		Unchanged: 0/0
  3673 ;; Data sizes:     COMMON   BANK0   BANK1   BANK3   BANK2
  3674 ;;      Params:         0       0       0       0       0
  3675 ;;      Locals:         0       0       0       0       0
  3676 ;;      Temps:          0       2       0       0       0
  3677 ;;      Totals:         0       2       0       0       0
  3678 ;;Total ram usage:        2 bytes
  3679 ;; Hardware stack levels used: 1
  3680 ;; Hardware stack levels required when called: 2
  3681 ;; This function calls:
  3682 ;;		_Lcd_Cmd
  3683 ;; This function is called by:
  3684 ;;		_main
  3685 ;; This function uses a non-reentrant model
  3686 ;;
  3687                           
  3688     0F11                     _Lcd_Clear:	
  3689                           ;psect for function _Lcd_Clear
  3690                           
  3691     0F11                     l1957:	
  3692                           ;incstack = 0
  3693                           ; Regs used in _Lcd_Clear: [wreg+status,2+status,0+pclath+cstack]
  3694                           
  3695                           
  3696                           ;lcd_i2c.c: 91:     Lcd_Cmd(0x01);
  3697     0F11  3001               	movlw	1
  3698     0F12  120A  118A  21DE  120A  158A  	fcall	_Lcd_Cmd
  3699     0F17                     l1959:
  3700                           
  3701                           ;lcd_i2c.c: 92:     _delay((unsigned long)((2)*(20000000/4000.0)));
  3702     0F17  300D               	movlw	13
  3703     0F18  1283               	bcf	3,5	;RP0=0, select bank0
  3704     0F19  1303               	bcf	3,6	;RP1=0, select bank0
  3705     0F1A  00A5               	movwf	??_Lcd_Clear+1
  3706     0F1B  30FB               	movlw	251
  3707     0F1C  00A4               	movwf	??_Lcd_Clear
  3708     0F1D                     u2607:
  3709     0F1D  0BA4               	decfsz	??_Lcd_Clear,f
  3710     0F1E  2F1D               	goto	u2607
  3711     0F1F  0BA5               	decfsz	??_Lcd_Clear+1,f
  3712     0F20  2F1D               	goto	u2607
  3713     0F21                     l138:
  3714     0F21  0008               	return
  3715     0F22                     __end_of_Lcd_Clear:
  3716                           
  3717                           	psect	text17
  3718     01DE                     __ptext17:	
  3719 ;; *************** function _Lcd_Cmd *****************
  3720 ;; Defined at:
  3721 ;;		line 25 in file "lcd_i2c.c"
  3722 ;; Parameters:    Size  Location     Type
  3723 ;;  cmd             1    wreg     unsigned char 
  3724 ;; Auto vars:     Size  Location     Type
  3725 ;;  cmd             1    1[BANK0 ] unsigned char 
  3726 ;;  data_l          1    3[BANK0 ] unsigned char 
  3727 ;;  data_u          1    2[BANK0 ] unsigned char 
  3728 ;; Return value:  Size  Location     Type
  3729 ;;                  1    wreg      void 
  3730 ;; Registers used:
  3731 ;;		wreg, status,2, status,0, pclath, cstack
  3732 ;; Tracked objects:
  3733 ;;		On entry : 0/0
  3734 ;;		On exit  : 0/0
  3735 ;;		Unchanged: 0/0
  3736 ;; Data sizes:     COMMON   BANK0   BANK1   BANK3   BANK2
  3737 ;;      Params:         0       0       0       0       0
  3738 ;;      Locals:         0       3       0       0       0
  3739 ;;      Temps:          0       1       0       0       0
  3740 ;;      Totals:         0       4       0       0       0
  3741 ;;Total ram usage:        4 bytes
  3742 ;; Hardware stack levels used: 1
  3743 ;; This function calls:
  3744 ;;		_I2C_Start
  3745 ;;		_I2C_Stop
  3746 ;;		_I2C_Write
  3747 ;; This function is called by:
  3748 ;;		_Lcd_Init
  3749 ;;		_Lcd_Set_Cursor
  3750 ;;		_Lcd_Clear
  3751 ;;		_Lcd_Shift_Right
  3752 ;;		_Lcd_Shift_Left
  3753 ;;		_Lcd_Blink
  3754 ;;		_Lcd_NoBlink
  3755 ;;		_Lcd_CGRAM_CreateChar
  3756 ;; This function uses a non-reentrant model
  3757 ;;
  3758                           
  3759     01DE                     _Lcd_Cmd:	
  3760                           ;psect for function _Lcd_Cmd
  3761                           
  3762                           
  3763                           ;incstack = 0
  3764                           ; Regs used in _Lcd_Cmd: [wreg+status,2+status,0+pclath+cstack]
  3765                           ;Lcd_Cmd@cmd stored from wreg
  3766     01DE  1283               	bcf	3,5	;RP0=0, select bank0
  3767     01DF  1303               	bcf	3,6	;RP1=0, select bank0
  3768     01E0  00A1               	movwf	Lcd_Cmd@cmd
  3769     01E1                     l1857:
  3770                           
  3771                           ;lcd_i2c.c: 25: void Lcd_Cmd(unsigned char cmd);lcd_i2c.c: 26: {;lcd_i2c.c: 27:     char
      +                           data_u, data_l;;lcd_i2c.c: 28:     data_u = (cmd & 0xF0);
  3772     01E1  0821               	movf	Lcd_Cmd@cmd,w
  3773     01E2  00A2               	movwf	Lcd_Cmd@data_u
  3774     01E3                     l1859:
  3775     01E3  30F0               	movlw	240
  3776     01E4  05A2               	andwf	Lcd_Cmd@data_u,f
  3777     01E5                     l1861:
  3778                           
  3779                           ;lcd_i2c.c: 29:     data_l = ((cmd<<4) & 0xF0);
  3780     01E5  0821               	movf	Lcd_Cmd@cmd,w
  3781     01E6  00A0               	movwf	??_Lcd_Cmd
  3782     01E7  3003               	movlw	3
  3783     01E8                     u1425:
  3784     01E8  1003               	clrc
  3785     01E9  0DA0               	rlf	??_Lcd_Cmd,f
  3786     01EA  3EFF               	addlw	-1
  3787     01EB  1D03               	skipz
  3788     01EC  29E8               	goto	u1425
  3789     01ED  1003               	clrc
  3790     01EE  0D20               	rlf	??_Lcd_Cmd,w
  3791     01EF  00A3               	movwf	Lcd_Cmd@data_l
  3792     01F0                     l1863:
  3793     01F0  30F0               	movlw	240
  3794     01F1  05A3               	andwf	Lcd_Cmd@data_l,f
  3795     01F2                     l1865:
  3796                           
  3797                           ;lcd_i2c.c: 32:     I2C_Start();
  3798     01F2  120A  158A  26CE  120A  118A  	fcall	_I2C_Start
  3799     01F7                     l1867:
  3800                           
  3801                           ;lcd_i2c.c: 33:     I2C_Write(0x4E);
  3802     01F7  304E               	movlw	78
  3803     01F8  120A  158A  2703  120A  118A  	fcall	_I2C_Write
  3804     01FD                     l1869:
  3805                           
  3806                           ;lcd_i2c.c: 34:     I2C_Write(data_u|0x0C);
  3807     01FD  1283               	bcf	3,5	;RP0=0, select bank0
  3808     01FE  1303               	bcf	3,6	;RP1=0, select bank0
  3809     01FF  0822               	movf	Lcd_Cmd@data_u,w
  3810     0200  380C               	iorlw	12
  3811     0201  120A  158A  2703  120A  118A  	fcall	_I2C_Write
  3812     0206                     l1871:
  3813                           
  3814                           ;lcd_i2c.c: 35:     I2C_Write(data_u|0x08);
  3815     0206  1283               	bcf	3,5	;RP0=0, select bank0
  3816     0207  1303               	bcf	3,6	;RP1=0, select bank0
  3817     0208  0822               	movf	Lcd_Cmd@data_u,w
  3818     0209  3808               	iorlw	8
  3819     020A  120A  158A  2703  120A  118A  	fcall	_I2C_Write
  3820     020F                     l1873:
  3821                           
  3822                           ;lcd_i2c.c: 36:     I2C_Write(data_l|0x0C);
  3823     020F  1283               	bcf	3,5	;RP0=0, select bank0
  3824     0210  1303               	bcf	3,6	;RP1=0, select bank0
  3825     0211  0823               	movf	Lcd_Cmd@data_l,w
  3826     0212  380C               	iorlw	12
  3827     0213  120A  158A  2703  120A  118A  	fcall	_I2C_Write
  3828     0218                     l1875:
  3829                           
  3830                           ;lcd_i2c.c: 37:     I2C_Write(data_l|0x08);
  3831     0218  1283               	bcf	3,5	;RP0=0, select bank0
  3832     0219  1303               	bcf	3,6	;RP1=0, select bank0
  3833     021A  0823               	movf	Lcd_Cmd@data_l,w
  3834     021B  3808               	iorlw	8
  3835     021C  120A  158A  2703  120A  118A  	fcall	_I2C_Write
  3836     0221                     l1877:
  3837                           
  3838                           ;lcd_i2c.c: 38:     I2C_Stop();
  3839     0221  120A  158A  26D8  120A  118A  	fcall	_I2C_Stop
  3840     0226                     l116:
  3841     0226  0008               	return
  3842     0227                     __end_of_Lcd_Cmd:
  3843                           
  3844                           	psect	text18
  3845     0F4E                     __ptext18:	
  3846 ;; *************** function _I2C_Init_Master *****************
  3847 ;; Defined at:
  3848 ;;		line 10 in file "i2c.c"
  3849 ;; Parameters:    Size  Location     Type
  3850 ;;  sp_i2c          1    wreg     unsigned char 
  3851 ;; Auto vars:     Size  Location     Type
  3852 ;;  sp_i2c          1    0[COMMON] unsigned char 
  3853 ;; Return value:  Size  Location     Type
  3854 ;;                  1    wreg      void 
  3855 ;; Registers used:
  3856 ;;		wreg, status,2, status,0
  3857 ;; Tracked objects:
  3858 ;;		On entry : 0/0
  3859 ;;		On exit  : 0/0
  3860 ;;		Unchanged: 0/0
  3861 ;; Data sizes:     COMMON   BANK0   BANK1   BANK3   BANK2
  3862 ;;      Params:         0       0       0       0       0
  3863 ;;      Locals:         1       0       0       0       0
  3864 ;;      Temps:          0       0       0       0       0
  3865 ;;      Totals:         1       0       0       0       0
  3866 ;;Total ram usage:        1 bytes
  3867 ;; Hardware stack levels used: 1
  3868 ;; This function calls:
  3869 ;;		Nothing
  3870 ;; This function is called by:
  3871 ;;		_main
  3872 ;; This function uses a non-reentrant model
  3873 ;;
  3874                           
  3875     0F4E                     _I2C_Init_Master:	
  3876                           ;psect for function _I2C_Init_Master
  3877                           
  3878                           
  3879                           ;incstack = 0
  3880                           ; Regs used in _I2C_Init_Master: [wreg+status,2+status,0]
  3881                           ;I2C_Init_Master@sp_i2c stored from wreg
  3882     0F4E  00F0               	movwf	I2C_Init_Master@sp_i2c
  3883     0F4F                     l1927:
  3884                           
  3885                           ;i2c.c: 10: void I2C_Init_Master(unsigned char sp_i2c);i2c.c: 11: {;i2c.c: 12:     TRISC
      +                          bits.TRISC3 = 1;
  3886     0F4F  1683               	bsf	3,5	;RP0=1, select bank1
  3887     0F50  1303               	bcf	3,6	;RP1=0, select bank1
  3888     0F51  1587               	bsf	7,3	;volatile
  3889                           
  3890                           ;i2c.c: 13:     TRISCbits.TRISC4 = 1;
  3891     0F52  1607               	bsf	7,4	;volatile
  3892     0F53                     l1929:
  3893                           
  3894                           ;i2c.c: 15:     SSPSTAT = sp_i2c;
  3895     0F53  0870               	movf	I2C_Init_Master@sp_i2c,w
  3896     0F54  0094               	movwf	20	;volatile
  3897     0F55                     l1931:
  3898                           
  3899                           ;i2c.c: 16:     SSPCON = 0x28;
  3900     0F55  3028               	movlw	40
  3901     0F56  1283               	bcf	3,5	;RP0=0, select bank0
  3902     0F57  1303               	bcf	3,6	;RP1=0, select bank0
  3903     0F58  0094               	movwf	20	;volatile
  3904     0F59                     l1933:
  3905                           
  3906                           ;i2c.c: 17:     SSPCON2 = 0x00;
  3907     0F59  1683               	bsf	3,5	;RP0=1, select bank1
  3908     0F5A  1303               	bcf	3,6	;RP1=0, select bank1
  3909     0F5B  0191               	clrf	17	;volatile
  3910     0F5C                     l1935:
  3911                           
  3912                           ;i2c.c: 19:     if(sp_i2c == 0x80){
  3913     0F5C  3080               	movlw	128
  3914     0F5D  0670               	xorwf	I2C_Init_Master@sp_i2c,w
  3915     0F5E  1D03               	btfss	3,2
  3916     0F5F  2F61               	goto	u1471
  3917     0F60  2F62               	goto	u1470
  3918     0F61                     u1471:
  3919     0F61  2F65               	goto	l1939
  3920     0F62                     u1470:
  3921     0F62                     l1937:
  3922                           
  3923                           ;i2c.c: 20:         SSPADD = 49;
  3924     0F62  3031               	movlw	49
  3925     0F63  0093               	movwf	19	;volatile
  3926                           
  3927                           ;i2c.c: 21:     }
  3928     0F64  2F6C               	goto	l58
  3929     0F65                     l1939:
  3930     0F65  0870               	movf	I2C_Init_Master@sp_i2c,w
  3931     0F66  1D03               	btfss	3,2
  3932     0F67  2F69               	goto	u1481
  3933     0F68  2F6A               	goto	u1480
  3934     0F69                     u1481:
  3935     0F69  2F6C               	goto	l58
  3936     0F6A                     u1480:
  3937     0F6A                     l1941:
  3938                           
  3939                           ;i2c.c: 23:         SSPADD = 12;
  3940     0F6A  300C               	movlw	12
  3941     0F6B  0093               	movwf	19	;volatile
  3942     0F6C                     l58:
  3943     0F6C  0008               	return
  3944     0F6D                     __end_of_I2C_Init_Master:
  3945                           
  3946                           	psect	text19
  3947     019D                     __ptext19:	
  3948 ;; *************** function _DS1307_SetTime *****************
  3949 ;; Defined at:
  3950 ;;		line 100 in file "ds1307.c"
  3951 ;; Parameters:    Size  Location     Type
  3952 ;;  hour            1    wreg     unsigned char 
  3953 ;;  min             1    0[BANK0 ] unsigned char 
  3954 ;;  sec             1    1[BANK0 ] unsigned char 
  3955 ;; Auto vars:     Size  Location     Type
  3956 ;;  hour            1    2[BANK0 ] unsigned char 
  3957 ;; Return value:  Size  Location     Type
  3958 ;;                  1    wreg      void 
  3959 ;; Registers used:
  3960 ;;		wreg, status,2, status,0, pclath, cstack
  3961 ;; Tracked objects:
  3962 ;;		On entry : 0/0
  3963 ;;		On exit  : 0/0
  3964 ;;		Unchanged: 0/0
  3965 ;; Data sizes:     COMMON   BANK0   BANK1   BANK3   BANK2
  3966 ;;      Params:         0       2       0       0       0
  3967 ;;      Locals:         0       1       0       0       0
  3968 ;;      Temps:          0       0       0       0       0
  3969 ;;      Totals:         0       3       0       0       0
  3970 ;;Total ram usage:        3 bytes
  3971 ;; Hardware stack levels used: 1
  3972 ;; Hardware stack levels required when called: 1
  3973 ;; This function calls:
  3974 ;;		_Dec_To_BCD
  3975 ;;		_I2C_Start
  3976 ;;		_I2C_Stop
  3977 ;;		_I2C_Write
  3978 ;; This function is called by:
  3979 ;;		_main
  3980 ;; This function uses a non-reentrant model
  3981 ;;
  3982                           
  3983     019D                     _DS1307_SetTime:	
  3984                           ;psect for function _DS1307_SetTime
  3985                           
  3986                           
  3987                           ;incstack = 0
  3988                           ; Regs used in _DS1307_SetTime: [wreg+status,2+status,0+pclath+cstack]
  3989                           ;DS1307_SetTime@hour stored from wreg
  3990     019D  1283               	bcf	3,5	;RP0=0, select bank0
  3991     019E  1303               	bcf	3,6	;RP1=0, select bank0
  3992     019F  00A2               	movwf	DS1307_SetTime@hour
  3993     01A0                     l2001:
  3994                           
  3995                           ;ds1307.c: 101:     I2C_Start();
  3996     01A0  120A  158A  26CE  120A  118A  	fcall	_I2C_Start
  3997     01A5                     l2003:
  3998                           
  3999                           ;ds1307.c: 102:     I2C_Write((0xD0));
  4000     01A5  30D0               	movlw	208
  4001     01A6  120A  158A  2703  120A  118A  	fcall	_I2C_Write
  4002     01AB                     l2005:
  4003                           
  4004                           ;ds1307.c: 103:     I2C_Write((0x00));
  4005     01AB  3000               	movlw	0
  4006     01AC  120A  158A  2703  120A  118A  	fcall	_I2C_Write
  4007     01B1                     l2007:
  4008                           
  4009                           ;ds1307.c: 105:     I2C_Write(Dec_To_BCD(sec));
  4010     01B1  1283               	bcf	3,5	;RP0=0, select bank0
  4011     01B2  1303               	bcf	3,6	;RP1=0, select bank0
  4012     01B3  0821               	movf	DS1307_SetTime@sec,w
  4013     01B4  120A  118A  20B9  120A  118A  	fcall	_Dec_To_BCD
  4014     01B9  120A  158A  2703  120A  118A  	fcall	_I2C_Write
  4015     01BE                     l2009:
  4016                           
  4017                           ;ds1307.c: 106:     I2C_Write(Dec_To_BCD(min));
  4018     01BE  1283               	bcf	3,5	;RP0=0, select bank0
  4019     01BF  1303               	bcf	3,6	;RP1=0, select bank0
  4020     01C0  0820               	movf	DS1307_SetTime@min,w
  4021     01C1  120A  118A  20B9  120A  118A  	fcall	_Dec_To_BCD
  4022     01C6  120A  158A  2703  120A  118A  	fcall	_I2C_Write
  4023     01CB                     l2011:
  4024                           
  4025                           ;ds1307.c: 107:     I2C_Write(Dec_To_BCD(hour));
  4026     01CB  1283               	bcf	3,5	;RP0=0, select bank0
  4027     01CC  1303               	bcf	3,6	;RP1=0, select bank0
  4028     01CD  0822               	movf	DS1307_SetTime@hour,w
  4029     01CE  120A  118A  20B9  120A  118A  	fcall	_Dec_To_BCD
  4030     01D3  120A  158A  2703  120A  118A  	fcall	_I2C_Write
  4031     01D8                     l2013:
  4032                           
  4033                           ;ds1307.c: 109:     I2C_Stop();
  4034     01D8  120A  158A  26D8  120A  118A  	fcall	_I2C_Stop
  4035     01DD                     l238:
  4036     01DD  0008               	return
  4037     01DE                     __end_of_DS1307_SetTime:
  4038                           
  4039                           	psect	text20
  4040     015C                     __ptext20:	
  4041 ;; *************** function _DS1307_SetDate *****************
  4042 ;; Defined at:
  4043 ;;		line 85 in file "ds1307.c"
  4044 ;; Parameters:    Size  Location     Type
  4045 ;;  day             1    wreg     unsigned char 
  4046 ;;  month           1    0[BANK0 ] unsigned char 
  4047 ;;  year            1    1[BANK0 ] unsigned char 
  4048 ;; Auto vars:     Size  Location     Type
  4049 ;;  day             1    2[BANK0 ] unsigned char 
  4050 ;; Return value:  Size  Location     Type
  4051 ;;                  1    wreg      void 
  4052 ;; Registers used:
  4053 ;;		wreg, status,2, status,0, pclath, cstack
  4054 ;; Tracked objects:
  4055 ;;		On entry : 0/0
  4056 ;;		On exit  : 0/0
  4057 ;;		Unchanged: 0/0
  4058 ;; Data sizes:     COMMON   BANK0   BANK1   BANK3   BANK2
  4059 ;;      Params:         0       2       0       0       0
  4060 ;;      Locals:         0       1       0       0       0
  4061 ;;      Temps:          0       0       0       0       0
  4062 ;;      Totals:         0       3       0       0       0
  4063 ;;Total ram usage:        3 bytes
  4064 ;; Hardware stack levels used: 1
  4065 ;; Hardware stack levels required when called: 2
  4066 ;; This function calls:
  4067 ;;		_Dec_To_BCD
  4068 ;;		_I2C_Start
  4069 ;;		_I2C_Stop
  4070 ;;		_I2C_Write
  4071 ;; This function is called by:
  4072 ;;		_main
  4073 ;; This function uses a non-reentrant model
  4074 ;;
  4075                           
  4076     015C                     _DS1307_SetDate:	
  4077                           ;psect for function _DS1307_SetDate
  4078                           
  4079                           
  4080                           ;incstack = 0
  4081                           ; Regs used in _DS1307_SetDate: [wreg+status,2+status,0+pclath+cstack]
  4082                           ;DS1307_SetDate@day stored from wreg
  4083     015C  1283               	bcf	3,5	;RP0=0, select bank0
  4084     015D  1303               	bcf	3,6	;RP1=0, select bank0
  4085     015E  00A2               	movwf	DS1307_SetDate@day
  4086     015F                     l2015:
  4087                           
  4088                           ;ds1307.c: 86:     I2C_Start();
  4089     015F  120A  158A  26CE  120A  118A  	fcall	_I2C_Start
  4090     0164                     l2017:
  4091                           
  4092                           ;ds1307.c: 87:     I2C_Write((0xD0));
  4093     0164  30D0               	movlw	208
  4094     0165  120A  158A  2703  120A  118A  	fcall	_I2C_Write
  4095     016A                     l2019:
  4096                           
  4097                           ;ds1307.c: 88:     I2C_Write((0x04));
  4098     016A  3004               	movlw	4
  4099     016B  120A  158A  2703  120A  118A  	fcall	_I2C_Write
  4100     0170                     l2021:
  4101                           
  4102                           ;ds1307.c: 90:     I2C_Write(Dec_To_BCD(day));
  4103     0170  1283               	bcf	3,5	;RP0=0, select bank0
  4104     0171  1303               	bcf	3,6	;RP1=0, select bank0
  4105     0172  0822               	movf	DS1307_SetDate@day,w
  4106     0173  120A  118A  20B9  120A  118A  	fcall	_Dec_To_BCD
  4107     0178  120A  158A  2703  120A  118A  	fcall	_I2C_Write
  4108     017D                     l2023:
  4109                           
  4110                           ;ds1307.c: 91:     I2C_Write(Dec_To_BCD(month));
  4111     017D  1283               	bcf	3,5	;RP0=0, select bank0
  4112     017E  1303               	bcf	3,6	;RP1=0, select bank0
  4113     017F  0820               	movf	DS1307_SetDate@month,w
  4114     0180  120A  118A  20B9  120A  118A  	fcall	_Dec_To_BCD
  4115     0185  120A  158A  2703  120A  118A  	fcall	_I2C_Write
  4116     018A                     l2025:
  4117                           
  4118                           ;ds1307.c: 92:     I2C_Write(Dec_To_BCD(year));
  4119     018A  1283               	bcf	3,5	;RP0=0, select bank0
  4120     018B  1303               	bcf	3,6	;RP1=0, select bank0
  4121     018C  0821               	movf	DS1307_SetDate@year,w
  4122     018D  120A  118A  20B9  120A  118A  	fcall	_Dec_To_BCD
  4123     0192  120A  158A  2703  120A  118A  	fcall	_I2C_Write
  4124     0197                     l2027:
  4125                           
  4126                           ;ds1307.c: 94:     I2C_Stop();
  4127     0197  120A  158A  26D8  120A  118A  	fcall	_I2C_Stop
  4128     019C                     l235:
  4129     019C  0008               	return
  4130     019D                     __end_of_DS1307_SetDate:
  4131                           
  4132                           	psect	text21
  4133     00B9                     __ptext21:	
  4134 ;; *************** function _Dec_To_BCD *****************
  4135 ;; Defined at:
  4136 ;;		line 54 in file "ds1307.c"
  4137 ;; Parameters:    Size  Location     Type
  4138 ;;  dec_byte        1    wreg     unsigned char 
  4139 ;; Auto vars:     Size  Location     Type
  4140 ;;  dec_byte        1   12[COMMON] unsigned char 
  4141 ;;  unidades        1   11[COMMON] unsigned char 
  4142 ;;  decenas         1   10[COMMON] unsigned char 
  4143 ;; Return value:  Size  Location     Type
  4144 ;;                  1    wreg      unsigned char 
  4145 ;; Registers used:
  4146 ;;		wreg, status,2, status,0, pclath, cstack
  4147 ;; Tracked objects:
  4148 ;;		On entry : 0/0
  4149 ;;		On exit  : 0/0
  4150 ;;		Unchanged: 0/0
  4151 ;; Data sizes:     COMMON   BANK0   BANK1   BANK3   BANK2
  4152 ;;      Params:         0       0       0       0       0
  4153 ;;      Locals:         3       0       0       0       0
  4154 ;;      Temps:          2       0       0       0       0
  4155 ;;      Totals:         5       0       0       0       0
  4156 ;;Total ram usage:        5 bytes
  4157 ;; Hardware stack levels used: 1
  4158 ;; This function calls:
  4159 ;;		___awdiv
  4160 ;;		___awmod
  4161 ;; This function is called by:
  4162 ;;		_DS1307_SetDate
  4163 ;;		_DS1307_SetTime
  4164 ;; This function uses a non-reentrant model
  4165 ;;
  4166                           
  4167     00B9                     _Dec_To_BCD:	
  4168                           ;psect for function _Dec_To_BCD
  4169                           
  4170                           
  4171                           ;incstack = 0
  4172                           ; Regs used in _Dec_To_BCD: [wreg+status,2+status,0+pclath+cstack]
  4173                           ;Dec_To_BCD@dec_byte stored from wreg
  4174     00B9  00FC               	movwf	Dec_To_BCD@dec_byte
  4175     00BA                     l1911:
  4176                           
  4177                           ;ds1307.c: 55:     uint8_t decenas = dec_byte / 10;
  4178     00BA  300A               	movlw	10
  4179     00BB  00F0               	movwf	___awdiv@divisor
  4180     00BC  3000               	movlw	0
  4181     00BD  00F1               	movwf	___awdiv@divisor+1
  4182     00BE  087C               	movf	Dec_To_BCD@dec_byte,w
  4183     00BF  00F8               	movwf	??_Dec_To_BCD
  4184     00C0  01F9               	clrf	??_Dec_To_BCD+1
  4185     00C1  0878               	movf	??_Dec_To_BCD,w
  4186     00C2  00F2               	movwf	___awdiv@dividend
  4187     00C3  0879               	movf	??_Dec_To_BCD+1,w
  4188     00C4  00F3               	movwf	___awdiv@dividend+1
  4189     00C5  120A  118A  23CE  120A  118A  	fcall	___awdiv
  4190     00CA  0870               	movf	?___awdiv,w
  4191     00CB  00FA               	movwf	Dec_To_BCD@decenas
  4192                           
  4193                           ;ds1307.c: 56:     uint8_t unidades = dec_byte % 10;
  4194     00CC  300A               	movlw	10
  4195     00CD  00F0               	movwf	___awmod@divisor
  4196     00CE  3000               	movlw	0
  4197     00CF  00F1               	movwf	___awmod@divisor+1
  4198     00D0  087C               	movf	Dec_To_BCD@dec_byte,w
  4199     00D1  00F8               	movwf	??_Dec_To_BCD
  4200     00D2  01F9               	clrf	??_Dec_To_BCD+1
  4201     00D3  0878               	movf	??_Dec_To_BCD,w
  4202     00D4  00F2               	movwf	___awmod@dividend
  4203     00D5  0879               	movf	??_Dec_To_BCD+1,w
  4204     00D6  00F3               	movwf	___awmod@dividend+1
  4205     00D7  120A  118A  2316  120A  118A  	fcall	___awmod
  4206     00DC  0870               	movf	?___awmod,w
  4207     00DD  00FB               	movwf	Dec_To_BCD@unidades
  4208     00DE                     l1913:
  4209                           
  4210                           ;ds1307.c: 57:     return (decenas << 4) | unidades;
  4211     00DE  087A               	movf	Dec_To_BCD@decenas,w
  4212     00DF  00F8               	movwf	??_Dec_To_BCD
  4213     00E0  3003               	movlw	3
  4214     00E1                     u1455:
  4215     00E1  1003               	clrc
  4216     00E2  0DF8               	rlf	??_Dec_To_BCD,f
  4217     00E3  3EFF               	addlw	-1
  4218     00E4  1D03               	skipz
  4219     00E5  28E1               	goto	u1455
  4220     00E6  1003               	clrc
  4221     00E7  0D78               	rlf	??_Dec_To_BCD,w
  4222     00E8  047B               	iorwf	Dec_To_BCD@unidades,w
  4223     00E9                     l229:
  4224     00E9  0008               	return
  4225     00EA                     __end_of_Dec_To_BCD:
  4226                           
  4227                           	psect	text22
  4228     0316                     __ptext22:	
  4229 ;; *************** function ___awmod *****************
  4230 ;; Defined at:
  4231 ;;		line 5 in file "C:\Program Files\Microchip\xc8\v3.10\pic\sources\c99\common\awmod.c"
  4232 ;; Parameters:    Size  Location     Type
  4233 ;;  divisor         2    0[COMMON] int 
  4234 ;;  dividend        2    2[COMMON] int 
  4235 ;; Auto vars:     Size  Location     Type
  4236 ;;  sign            1    5[COMMON] unsigned char 
  4237 ;;  counter         1    4[COMMON] unsigned char 
  4238 ;; Return value:  Size  Location     Type
  4239 ;;                  2    0[COMMON] int 
  4240 ;; Registers used:
  4241 ;;		wreg, status,2, status,0
  4242 ;; Tracked objects:
  4243 ;;		On entry : 0/0
  4244 ;;		On exit  : 0/0
  4245 ;;		Unchanged: 0/0
  4246 ;; Data sizes:     COMMON   BANK0   BANK1   BANK3   BANK2
  4247 ;;      Params:         4       0       0       0       0
  4248 ;;      Locals:         2       0       0       0       0
  4249 ;;      Temps:          0       0       0       0       0
  4250 ;;      Totals:         6       0       0       0       0
  4251 ;;Total ram usage:        6 bytes
  4252 ;; Hardware stack levels used: 1
  4253 ;; This function calls:
  4254 ;;		Nothing
  4255 ;; This function is called by:
  4256 ;;		_Dec_To_BCD
  4257 ;;		_dtoa
  4258 ;; This function uses a non-reentrant model
  4259 ;;
  4260                           
  4261     0316                     ___awmod:	
  4262                           ;psect for function ___awmod
  4263                           
  4264     0316                     l1649:	
  4265                           ;incstack = 0
  4266                           ; Regs used in ___awmod: [wreg+status,2+status,0]
  4267                           
  4268     0316  01F5               	clrf	___awmod@sign
  4269     0317                     l1651:
  4270     0317  1FF3               	btfss	___awmod@dividend+1,7
  4271     0318  2B1A               	goto	u1021
  4272     0319  2B1B               	goto	u1020
  4273     031A                     u1021:
  4274     031A  2B22               	goto	l1657
  4275     031B                     u1020:
  4276     031B                     l1653:
  4277     031B  09F2               	comf	___awmod@dividend,f
  4278     031C  09F3               	comf	___awmod@dividend+1,f
  4279     031D  0AF2               	incf	___awmod@dividend,f
  4280     031E  1903               	skipnz
  4281     031F  0AF3               	incf	___awmod@dividend+1,f
  4282     0320                     l1655:
  4283     0320  3001               	movlw	1
  4284     0321  00F5               	movwf	___awmod@sign
  4285     0322                     l1657:
  4286     0322  1FF1               	btfss	___awmod@divisor+1,7
  4287     0323  2B25               	goto	u1031
  4288     0324  2B26               	goto	u1030
  4289     0325                     u1031:
  4290     0325  2B2B               	goto	l1661
  4291     0326                     u1030:
  4292     0326                     l1659:
  4293     0326  09F0               	comf	___awmod@divisor,f
  4294     0327  09F1               	comf	___awmod@divisor+1,f
  4295     0328  0AF0               	incf	___awmod@divisor,f
  4296     0329  1903               	skipnz
  4297     032A  0AF1               	incf	___awmod@divisor+1,f
  4298     032B                     l1661:
  4299     032B  0870               	movf	___awmod@divisor,w
  4300     032C  0471               	iorwf	___awmod@divisor+1,w
  4301     032D  1903               	btfsc	3,2
  4302     032E  2B30               	goto	u1041
  4303     032F  2B31               	goto	u1040
  4304     0330                     u1041:
  4305     0330  2B5E               	goto	l1679
  4306     0331                     u1040:
  4307     0331                     l1663:
  4308     0331  3001               	movlw	1
  4309     0332  00F4               	movwf	___awmod@counter
  4310     0333  2B3D               	goto	l1669
  4311     0334                     l1665:
  4312     0334  3001               	movlw	1
  4313     0335                     u1055:
  4314     0335  1003               	clrc
  4315     0336  0DF0               	rlf	___awmod@divisor,f
  4316     0337  0DF1               	rlf	___awmod@divisor+1,f
  4317     0338  3EFF               	addlw	-1
  4318     0339  1D03               	skipz
  4319     033A  2B35               	goto	u1055
  4320     033B                     l1667:
  4321     033B  3001               	movlw	1
  4322     033C  07F4               	addwf	___awmod@counter,f
  4323     033D                     l1669:
  4324     033D  1FF1               	btfss	___awmod@divisor+1,7
  4325     033E  2B40               	goto	u1061
  4326     033F  2B41               	goto	u1060
  4327     0340                     u1061:
  4328     0340  2B34               	goto	l1665
  4329     0341                     u1060:
  4330     0341                     l1671:
  4331     0341  0871               	movf	___awmod@divisor+1,w
  4332     0342  0273               	subwf	___awmod@dividend+1,w
  4333     0343  1D03               	skipz
  4334     0344  2B47               	goto	u1075
  4335     0345  0870               	movf	___awmod@divisor,w
  4336     0346  0272               	subwf	___awmod@dividend,w
  4337     0347                     u1075:
  4338     0347  1C03               	skipc
  4339     0348  2B4A               	goto	u1071
  4340     0349  2B4B               	goto	u1070
  4341     034A                     u1071:
  4342     034A  2B51               	goto	l1675
  4343     034B                     u1070:
  4344     034B                     l1673:
  4345     034B  0870               	movf	___awmod@divisor,w
  4346     034C  02F2               	subwf	___awmod@dividend,f
  4347     034D  0871               	movf	___awmod@divisor+1,w
  4348     034E  1C03               	skipc
  4349     034F  03F3               	decf	___awmod@dividend+1,f
  4350     0350  02F3               	subwf	___awmod@dividend+1,f
  4351     0351                     l1675:
  4352     0351  3001               	movlw	1
  4353     0352                     u1085:
  4354     0352  1003               	clrc
  4355     0353  0CF1               	rrf	___awmod@divisor+1,f
  4356     0354  0CF0               	rrf	___awmod@divisor,f
  4357     0355  3EFF               	addlw	-1
  4358     0356  1D03               	skipz
  4359     0357  2B52               	goto	u1085
  4360     0358                     l1677:
  4361     0358  3001               	movlw	1
  4362     0359  02F4               	subwf	___awmod@counter,f
  4363     035A  1D03               	btfss	3,2
  4364     035B  2B5D               	goto	u1091
  4365     035C  2B5E               	goto	u1090
  4366     035D                     u1091:
  4367     035D  2B41               	goto	l1671
  4368     035E                     u1090:
  4369     035E                     l1679:
  4370     035E  0875               	movf	___awmod@sign,w
  4371     035F  1903               	btfsc	3,2
  4372     0360  2B62               	goto	u1101
  4373     0361  2B63               	goto	u1100
  4374     0362                     u1101:
  4375     0362  2B68               	goto	l1683
  4376     0363                     u1100:
  4377     0363                     l1681:
  4378     0363  09F2               	comf	___awmod@dividend,f
  4379     0364  09F3               	comf	___awmod@dividend+1,f
  4380     0365  0AF2               	incf	___awmod@dividend,f
  4381     0366  1903               	skipnz
  4382     0367  0AF3               	incf	___awmod@dividend+1,f
  4383     0368                     l1683:
  4384     0368  0873               	movf	___awmod@dividend+1,w
  4385     0369  00F1               	movwf	?___awmod+1
  4386     036A  0872               	movf	___awmod@dividend,w
  4387     036B  00F0               	movwf	?___awmod
  4388     036C                     l496:
  4389     036C  0008               	return
  4390     036D                     __end_of___awmod:
  4391                           
  4392                           	psect	text23
  4393     03CE                     __ptext23:	
  4394 ;; *************** function ___awdiv *****************
  4395 ;; Defined at:
  4396 ;;		line 5 in file "C:\Program Files\Microchip\xc8\v3.10\pic\sources\c99\common\awdiv.c"
  4397 ;; Parameters:    Size  Location     Type
  4398 ;;  divisor         2    0[COMMON] int 
  4399 ;;  dividend        2    2[COMMON] int 
  4400 ;; Auto vars:     Size  Location     Type
  4401 ;;  quotient        2    6[COMMON] int 
  4402 ;;  sign            1    5[COMMON] unsigned char 
  4403 ;;  counter         1    4[COMMON] unsigned char 
  4404 ;; Return value:  Size  Location     Type
  4405 ;;                  2    0[COMMON] int 
  4406 ;; Registers used:
  4407 ;;		wreg, status,2, status,0
  4408 ;; Tracked objects:
  4409 ;;		On entry : 0/0
  4410 ;;		On exit  : 0/0
  4411 ;;		Unchanged: 0/0
  4412 ;; Data sizes:     COMMON   BANK0   BANK1   BANK3   BANK2
  4413 ;;      Params:         4       0       0       0       0
  4414 ;;      Locals:         4       0       0       0       0
  4415 ;;      Temps:          0       0       0       0       0
  4416 ;;      Totals:         8       0       0       0       0
  4417 ;;Total ram usage:        8 bytes
  4418 ;; Hardware stack levels used: 1
  4419 ;; This function calls:
  4420 ;;		Nothing
  4421 ;; This function is called by:
  4422 ;;		_Dec_To_BCD
  4423 ;;		_dtoa
  4424 ;; This function uses a non-reentrant model
  4425 ;;
  4426                           
  4427     03CE                     ___awdiv:	
  4428                           ;psect for function ___awdiv
  4429                           
  4430     03CE                     l1605:	
  4431                           ;incstack = 0
  4432                           ; Regs used in ___awdiv: [wreg+status,2+status,0]
  4433                           
  4434     03CE  01F5               	clrf	___awdiv@sign
  4435     03CF                     l1607:
  4436     03CF  1FF1               	btfss	___awdiv@divisor+1,7
  4437     03D0  2BD2               	goto	u921
  4438     03D1  2BD3               	goto	u920
  4439     03D2                     u921:
  4440     03D2  2BDA               	goto	l1613
  4441     03D3                     u920:
  4442     03D3                     l1609:
  4443     03D3  09F0               	comf	___awdiv@divisor,f
  4444     03D4  09F1               	comf	___awdiv@divisor+1,f
  4445     03D5  0AF0               	incf	___awdiv@divisor,f
  4446     03D6  1903               	skipnz
  4447     03D7  0AF1               	incf	___awdiv@divisor+1,f
  4448     03D8                     l1611:
  4449     03D8  3001               	movlw	1
  4450     03D9  00F5               	movwf	___awdiv@sign
  4451     03DA                     l1613:
  4452     03DA  1FF3               	btfss	___awdiv@dividend+1,7
  4453     03DB  2BDD               	goto	u931
  4454     03DC  2BDE               	goto	u930
  4455     03DD                     u931:
  4456     03DD  2BE5               	goto	l1619
  4457     03DE                     u930:
  4458     03DE                     l1615:
  4459     03DE  09F2               	comf	___awdiv@dividend,f
  4460     03DF  09F3               	comf	___awdiv@dividend+1,f
  4461     03E0  0AF2               	incf	___awdiv@dividend,f
  4462     03E1  1903               	skipnz
  4463     03E2  0AF3               	incf	___awdiv@dividend+1,f
  4464     03E3                     l1617:
  4465     03E3  3001               	movlw	1
  4466     03E4  06F5               	xorwf	___awdiv@sign,f
  4467     03E5                     l1619:
  4468     03E5  01F6               	clrf	___awdiv@quotient
  4469     03E6  01F7               	clrf	___awdiv@quotient+1
  4470     03E7                     l1621:
  4471     03E7  0870               	movf	___awdiv@divisor,w
  4472     03E8  0471               	iorwf	___awdiv@divisor+1,w
  4473     03E9  1903               	btfsc	3,2
  4474     03EA  2BEC               	goto	u941
  4475     03EB  2BED               	goto	u940
  4476     03EC                     u941:
  4477     03EC  2C22               	goto	l1641
  4478     03ED                     u940:
  4479     03ED                     l1623:
  4480     03ED  3001               	movlw	1
  4481     03EE  00F4               	movwf	___awdiv@counter
  4482     03EF  2BF9               	goto	l1629
  4483     03F0                     l1625:
  4484     03F0  3001               	movlw	1
  4485     03F1                     u955:
  4486     03F1  1003               	clrc
  4487     03F2  0DF0               	rlf	___awdiv@divisor,f
  4488     03F3  0DF1               	rlf	___awdiv@divisor+1,f
  4489     03F4  3EFF               	addlw	-1
  4490     03F5  1D03               	skipz
  4491     03F6  2BF1               	goto	u955
  4492     03F7                     l1627:
  4493     03F7  3001               	movlw	1
  4494     03F8  07F4               	addwf	___awdiv@counter,f
  4495     03F9                     l1629:
  4496     03F9  1FF1               	btfss	___awdiv@divisor+1,7
  4497     03FA  2BFC               	goto	u961
  4498     03FB  2BFD               	goto	u960
  4499     03FC                     u961:
  4500     03FC  2BF0               	goto	l1625
  4501     03FD                     u960:
  4502     03FD                     l1631:
  4503     03FD  3001               	movlw	1
  4504     03FE                     u975:
  4505     03FE  1003               	clrc
  4506     03FF  0DF6               	rlf	___awdiv@quotient,f
  4507     0400  0DF7               	rlf	___awdiv@quotient+1,f
  4508     0401  3EFF               	addlw	-1
  4509     0402  1D03               	skipz
  4510     0403  2BFE               	goto	u975
  4511     0404  0871               	movf	___awdiv@divisor+1,w
  4512     0405  0273               	subwf	___awdiv@dividend+1,w
  4513     0406  1D03               	skipz
  4514     0407  2C0A               	goto	u985
  4515     0408  0870               	movf	___awdiv@divisor,w
  4516     0409  0272               	subwf	___awdiv@dividend,w
  4517     040A                     u985:
  4518     040A  1C03               	skipc
  4519     040B  2C0D               	goto	u981
  4520     040C  2C0E               	goto	u980
  4521     040D                     u981:
  4522     040D  2C15               	goto	l1637
  4523     040E                     u980:
  4524     040E                     l1633:
  4525     040E  0870               	movf	___awdiv@divisor,w
  4526     040F  02F2               	subwf	___awdiv@dividend,f
  4527     0410  0871               	movf	___awdiv@divisor+1,w
  4528     0411  1C03               	skipc
  4529     0412  03F3               	decf	___awdiv@dividend+1,f
  4530     0413  02F3               	subwf	___awdiv@dividend+1,f
  4531     0414                     l1635:
  4532     0414  1476               	bsf	___awdiv@quotient,0
  4533     0415                     l1637:
  4534     0415  3001               	movlw	1
  4535     0416                     u995:
  4536     0416  1003               	clrc
  4537     0417  0CF1               	rrf	___awdiv@divisor+1,f
  4538     0418  0CF0               	rrf	___awdiv@divisor,f
  4539     0419  3EFF               	addlw	-1
  4540     041A  1D03               	skipz
  4541     041B  2C16               	goto	u995
  4542     041C                     l1639:
  4543     041C  3001               	movlw	1
  4544     041D  02F4               	subwf	___awdiv@counter,f
  4545     041E  1D03               	btfss	3,2
  4546     041F  2C21               	goto	u1001
  4547     0420  2C22               	goto	u1000
  4548     0421                     u1001:
  4549     0421  2BFD               	goto	l1631
  4550     0422                     u1000:
  4551     0422                     l1641:
  4552     0422  0875               	movf	___awdiv@sign,w
  4553     0423  1903               	btfsc	3,2
  4554     0424  2C26               	goto	u1011
  4555     0425  2C27               	goto	u1010
  4556     0426                     u1011:
  4557     0426  2C2C               	goto	l1645
  4558     0427                     u1010:
  4559     0427                     l1643:
  4560     0427  09F6               	comf	___awdiv@quotient,f
  4561     0428  09F7               	comf	___awdiv@quotient+1,f
  4562     0429  0AF6               	incf	___awdiv@quotient,f
  4563     042A  1903               	skipnz
  4564     042B  0AF7               	incf	___awdiv@quotient+1,f
  4565     042C                     l1645:
  4566     042C  0877               	movf	___awdiv@quotient+1,w
  4567     042D  00F1               	movwf	?___awdiv+1
  4568     042E  0876               	movf	___awdiv@quotient,w
  4569     042F  00F0               	movwf	?___awdiv
  4570     0430                     l483:
  4571     0430  0008               	return
  4572     0431                     __end_of___awdiv:
  4573                           
  4574                           	psect	text24
  4575     00EA                     __ptext24:	
  4576 ;; *************** function _DS1307_Init *****************
  4577 ;; Defined at:
  4578 ;;		line 66 in file "ds1307.c"
  4579 ;; Parameters:    Size  Location     Type
  4580 ;;		None
  4581 ;; Auto vars:     Size  Location     Type
  4582 ;;		None
  4583 ;; Return value:  Size  Location     Type
  4584 ;;                  1    wreg      void 
  4585 ;; Registers used:
  4586 ;;		wreg, status,2, status,0, pclath, cstack
  4587 ;; Tracked objects:
  4588 ;;		On entry : 0/0
  4589 ;;		On exit  : 0/0
  4590 ;;		Unchanged: 0/0
  4591 ;; Data sizes:     COMMON   BANK0   BANK1   BANK3   BANK2
  4592 ;;      Params:         0       0       0       0       0
  4593 ;;      Locals:         0       0       0       0       0
  4594 ;;      Temps:          0       0       0       0       0
  4595 ;;      Totals:         0       0       0       0       0
  4596 ;;Total ram usage:        0 bytes
  4597 ;; Hardware stack levels used: 1
  4598 ;; Hardware stack levels required when called: 1
  4599 ;; This function calls:
  4600 ;;		_I2C_Start
  4601 ;;		_I2C_Stop
  4602 ;;		_I2C_Write
  4603 ;; This function is called by:
  4604 ;;		_main
  4605 ;; This function uses a non-reentrant model
  4606 ;;
  4607                           
  4608     00EA                     _DS1307_Init:	
  4609                           ;psect for function _DS1307_Init
  4610                           
  4611     00EA                     l1983:	
  4612                           ;incstack = 0
  4613                           ; Regs used in _DS1307_Init: [wreg+status,2+status,0+pclath+cstack]
  4614                           
  4615                           
  4616                           ;ds1307.c: 68:     I2C_Start();
  4617     00EA  120A  158A  26CE  120A  118A  	fcall	_I2C_Start
  4618     00EF                     l1985:
  4619                           
  4620                           ;ds1307.c: 69:     I2C_Write((0xD0));
  4621     00EF  30D0               	movlw	208
  4622     00F0  120A  158A  2703  120A  118A  	fcall	_I2C_Write
  4623     00F5                     l1987:
  4624                           
  4625                           ;ds1307.c: 70:     I2C_Write((0x07));
  4626     00F5  3007               	movlw	7
  4627     00F6  120A  158A  2703  120A  118A  	fcall	_I2C_Write
  4628     00FB                     l1989:
  4629                           
  4630                           ;ds1307.c: 71:     I2C_Write((0x00) | (0x00));
  4631     00FB  3000               	movlw	0
  4632     00FC  120A  158A  2703  120A  118A  	fcall	_I2C_Write
  4633     0101                     l1991:
  4634                           
  4635                           ;ds1307.c: 72:     I2C_Stop();
  4636     0101  120A  158A  26D8  120A  118A  	fcall	_I2C_Stop
  4637     0106                     l1993:
  4638                           
  4639                           ;ds1307.c: 75:     I2C_Start();
  4640     0106  120A  158A  26CE  120A  118A  	fcall	_I2C_Start
  4641     010B                     l1995:
  4642                           
  4643                           ;ds1307.c: 76:     I2C_Write((0xD0));
  4644     010B  30D0               	movlw	208
  4645     010C  120A  158A  2703  120A  118A  	fcall	_I2C_Write
  4646     0111                     l1997:
  4647                           
  4648                           ;ds1307.c: 77:     I2C_Write((0x00));
  4649     0111  3000               	movlw	0
  4650     0112  120A  158A  2703  120A  118A  	fcall	_I2C_Write
  4651     0117                     l1999:
  4652                           
  4653                           ;ds1307.c: 78:     I2C_Write(0x00);
  4654     0117  3000               	movlw	0
  4655     0118  120A  158A  2703  120A  118A  	fcall	_I2C_Write
  4656                           
  4657                           ;ds1307.c: 79:     I2C_Stop();
  4658     011D  120A  158A  26D8  120A  118A  	fcall	_I2C_Stop
  4659     0122                     l232:
  4660     0122  0008               	return
  4661     0123                     __end_of_DS1307_Init:
  4662                           
  4663                           	psect	text25
  4664     0431                     __ptext25:	
  4665 ;; *************** function _DS1307_GetTime *****************
  4666 ;; Defined at:
  4667 ;;		line 140 in file "ds1307.c"
  4668 ;; Parameters:    Size  Location     Type
  4669 ;;  hour            1    0[BANK0 ] PTR unsigned char 
  4670 ;;		 -> main@hora(1), 
  4671 ;;  min             1    1[BANK0 ] PTR unsigned char 
  4672 ;;		 -> main@min(1), 
  4673 ;;  sec             1    2[BANK0 ] PTR unsigned char 
  4674 ;;		 -> main@seg(1), 
  4675 ;; Auto vars:     Size  Location     Type
  4676 ;;  temp            1    3[BANK0 ] unsigned char 
  4677 ;; Return value:  Size  Location     Type
  4678 ;;                  1    wreg      void 
  4679 ;; Registers used:
  4680 ;;		wreg, fsr0l, fsr0h, status,2, status,0, pclath, cstack
  4681 ;; Tracked objects:
  4682 ;;		On entry : 0/0
  4683 ;;		On exit  : 0/0
  4684 ;;		Unchanged: 0/0
  4685 ;; Data sizes:     COMMON   BANK0   BANK1   BANK3   BANK2
  4686 ;;      Params:         0       3       0       0       0
  4687 ;;      Locals:         0       1       0       0       0
  4688 ;;      Temps:          0       0       0       0       0
  4689 ;;      Totals:         0       4       0       0       0
  4690 ;;Total ram usage:        4 bytes
  4691 ;; Hardware stack levels used: 1
  4692 ;; Hardware stack levels required when called: 1
  4693 ;; This function calls:
  4694 ;;		_BCD_To_Dec
  4695 ;;		_I2C_Ack
  4696 ;;		_I2C_Nack
  4697 ;;		_I2C_Read
  4698 ;;		_I2C_Restart
  4699 ;;		_I2C_Start
  4700 ;;		_I2C_Stop
  4701 ;;		_I2C_Write
  4702 ;; This function is called by:
  4703 ;;		_main
  4704 ;; This function uses a non-reentrant model
  4705 ;;
  4706                           
  4707     0431                     _DS1307_GetTime:	
  4708                           ;psect for function _DS1307_GetTime
  4709                           
  4710     0431                     l2029:	
  4711                           ;incstack = 0
  4712                           ; Regs used in _DS1307_GetTime: [wreg-fsr0h+status,2+status,0+pclath+cstack]
  4713                           
  4714                           
  4715                           ;ds1307.c: 141:     uint8_t temp;;ds1307.c: 144:     I2C_Start();
  4716     0431  120A  158A  26CE  120A  118A  	fcall	_I2C_Start
  4717     0436                     l2031:
  4718                           
  4719                           ;ds1307.c: 145:     I2C_Write((0xD0));
  4720     0436  30D0               	movlw	208
  4721     0437  120A  158A  2703  120A  118A  	fcall	_I2C_Write
  4722     043C                     l2033:
  4723                           
  4724                           ;ds1307.c: 146:     I2C_Write((0x00));
  4725     043C  3000               	movlw	0
  4726     043D  120A  158A  2703  120A  118A  	fcall	_I2C_Write
  4727                           
  4728                           ;ds1307.c: 149:     I2C_Restart();
  4729     0442  120A  158A  26C4  120A  118A  	fcall	_I2C_Restart
  4730     0447                     l2035:
  4731                           
  4732                           ;ds1307.c: 150:     I2C_Write((0xD1));
  4733     0447  30D1               	movlw	209
  4734     0448  120A  158A  2703  120A  118A  	fcall	_I2C_Write
  4735     044D                     l2037:
  4736                           
  4737                           ;ds1307.c: 152:     temp = I2C_Read();
  4738     044D  120A  158A  26F8  120A  118A  	fcall	_I2C_Read
  4739     0452  1283               	bcf	3,5	;RP0=0, select bank0
  4740     0453  1303               	bcf	3,6	;RP1=0, select bank0
  4741     0454  00A3               	movwf	DS1307_GetTime@temp
  4742     0455                     l2039:
  4743                           
  4744                           ;ds1307.c: 153:     *sec = BCD_To_Dec(temp & 0x7F);
  4745     0455  0822               	movf	DS1307_GetTime@sec,w
  4746     0456  0084               	movwf	4
  4747     0457  0823               	movf	DS1307_GetTime@temp,w
  4748     0458  397F               	andlw	127
  4749     0459  120A  158A  2733  120A  118A  	fcall	_BCD_To_Dec
  4750     045E  1383               	bcf	3,7	;select IRP bank0
  4751     045F  0080               	movwf	0
  4752     0460                     l2041:
  4753                           
  4754                           ;ds1307.c: 154:     I2C_Ack();
  4755     0460  120A  158A  26E2  120A  118A  	fcall	_I2C_Ack
  4756     0465                     l2043:
  4757                           
  4758                           ;ds1307.c: 156:     *min = BCD_To_Dec(I2C_Read());
  4759     0465  1283               	bcf	3,5	;RP0=0, select bank0
  4760     0466  1303               	bcf	3,6	;RP1=0, select bank0
  4761     0467  0821               	movf	DS1307_GetTime@min,w
  4762     0468  0084               	movwf	4
  4763     0469  120A  158A  26F8  120A  118A  	fcall	_I2C_Read
  4764     046E  120A  158A  2733  120A  118A  	fcall	_BCD_To_Dec
  4765     0473  1383               	bcf	3,7	;select IRP bank0
  4766     0474  0080               	movwf	0
  4767     0475                     l2045:
  4768                           
  4769                           ;ds1307.c: 157:     I2C_Ack();
  4770     0475  120A  158A  26E2  120A  118A  	fcall	_I2C_Ack
  4771     047A                     l2047:
  4772                           
  4773                           ;ds1307.c: 159:     temp = I2C_Read();
  4774     047A  120A  158A  26F8  120A  118A  	fcall	_I2C_Read
  4775     047F  1283               	bcf	3,5	;RP0=0, select bank0
  4776     0480  1303               	bcf	3,6	;RP1=0, select bank0
  4777     0481  00A3               	movwf	DS1307_GetTime@temp
  4778     0482                     l2049:
  4779                           
  4780                           ;ds1307.c: 160:     *hour = BCD_To_Dec(temp & 0x3F);
  4781     0482  0820               	movf	DS1307_GetTime@hour,w
  4782     0483  0084               	movwf	4
  4783     0484  0823               	movf	DS1307_GetTime@temp,w
  4784     0485  393F               	andlw	63
  4785     0486  120A  158A  2733  120A  118A  	fcall	_BCD_To_Dec
  4786     048B  1383               	bcf	3,7	;select IRP bank0
  4787     048C  0080               	movwf	0
  4788     048D                     l2051:
  4789                           
  4790                           ;ds1307.c: 161:     I2C_Nack();
  4791     048D  120A  158A  26ED  120A  118A  	fcall	_I2C_Nack
  4792     0492                     l2053:
  4793                           
  4794                           ;ds1307.c: 163:     I2C_Stop();
  4795     0492  120A  158A  26D8  120A  118A  	fcall	_I2C_Stop
  4796     0497                     l244:
  4797     0497  0008               	return
  4798     0498                     __end_of_DS1307_GetTime:
  4799                           
  4800                           	psect	text26
  4801     036D                     __ptext26:	
  4802 ;; *************** function _DS1307_GetDate *****************
  4803 ;; Defined at:
  4804 ;;		line 115 in file "ds1307.c"
  4805 ;; Parameters:    Size  Location     Type
  4806 ;;  day             1    0[BANK0 ] PTR unsigned char 
  4807 ;;		 -> main@dia(1), 
  4808 ;;  month           1    1[BANK0 ] PTR unsigned char 
  4809 ;;		 -> main@mes(1), 
  4810 ;;  year            1    2[BANK0 ] PTR unsigned char 
  4811 ;;		 -> main@ano(1), 
  4812 ;; Auto vars:     Size  Location     Type
  4813 ;;		None
  4814 ;; Return value:  Size  Location     Type
  4815 ;;                  1    wreg      void 
  4816 ;; Registers used:
  4817 ;;		wreg, fsr0l, fsr0h, status,2, status,0, pclath, cstack
  4818 ;; Tracked objects:
  4819 ;;		On entry : 0/0
  4820 ;;		On exit  : 0/0
  4821 ;;		Unchanged: 0/0
  4822 ;; Data sizes:     COMMON   BANK0   BANK1   BANK3   BANK2
  4823 ;;      Params:         0       3       0       0       0
  4824 ;;      Locals:         0       0       0       0       0
  4825 ;;      Temps:          0       0       0       0       0
  4826 ;;      Totals:         0       3       0       0       0
  4827 ;;Total ram usage:        3 bytes
  4828 ;; Hardware stack levels used: 1
  4829 ;; Hardware stack levels required when called: 2
  4830 ;; This function calls:
  4831 ;;		_BCD_To_Dec
  4832 ;;		_I2C_Ack
  4833 ;;		_I2C_Nack
  4834 ;;		_I2C_Read
  4835 ;;		_I2C_Restart
  4836 ;;		_I2C_Start
  4837 ;;		_I2C_Stop
  4838 ;;		_I2C_Write
  4839 ;; This function is called by:
  4840 ;;		_main
  4841 ;; This function uses a non-reentrant model
  4842 ;;
  4843                           
  4844     036D                     _DS1307_GetDate:	
  4845                           ;psect for function _DS1307_GetDate
  4846                           
  4847     036D                     l2055:	
  4848                           ;incstack = 0
  4849                           ; Regs used in _DS1307_GetDate: [wreg-fsr0h+status,2+status,0+pclath+cstack]
  4850                           
  4851                           
  4852                           ;ds1307.c: 117:     I2C_Start();
  4853     036D  120A  158A  26CE  120A  118A  	fcall	_I2C_Start
  4854     0372                     l2057:
  4855                           
  4856                           ;ds1307.c: 118:     I2C_Write((0xD0));
  4857     0372  30D0               	movlw	208
  4858     0373  120A  158A  2703  120A  118A  	fcall	_I2C_Write
  4859     0378                     l2059:
  4860                           
  4861                           ;ds1307.c: 119:     I2C_Write((0x04));
  4862     0378  3004               	movlw	4
  4863     0379  120A  158A  2703  120A  118A  	fcall	_I2C_Write
  4864                           
  4865                           ;ds1307.c: 122:     I2C_Restart();
  4866     037E  120A  158A  26C4  120A  118A  	fcall	_I2C_Restart
  4867     0383                     l2061:
  4868                           
  4869                           ;ds1307.c: 123:     I2C_Write((0xD1));
  4870     0383  30D1               	movlw	209
  4871     0384  120A  158A  2703  120A  118A  	fcall	_I2C_Write
  4872     0389                     l2063:
  4873                           
  4874                           ;ds1307.c: 125:     *day = BCD_To_Dec(I2C_Read());
  4875     0389  1283               	bcf	3,5	;RP0=0, select bank0
  4876     038A  1303               	bcf	3,6	;RP1=0, select bank0
  4877     038B  0820               	movf	DS1307_GetDate@day,w
  4878     038C  0084               	movwf	4
  4879     038D  120A  158A  26F8  120A  118A  	fcall	_I2C_Read
  4880     0392  120A  158A  2733  120A  118A  	fcall	_BCD_To_Dec
  4881     0397  1383               	bcf	3,7	;select IRP bank0
  4882     0398  0080               	movwf	0
  4883     0399                     l2065:
  4884                           
  4885                           ;ds1307.c: 126:     I2C_Ack();
  4886     0399  120A  158A  26E2  120A  118A  	fcall	_I2C_Ack
  4887     039E                     l2067:
  4888                           
  4889                           ;ds1307.c: 128:     *month = BCD_To_Dec(I2C_Read());
  4890     039E  1283               	bcf	3,5	;RP0=0, select bank0
  4891     039F  1303               	bcf	3,6	;RP1=0, select bank0
  4892     03A0  0821               	movf	DS1307_GetDate@month,w
  4893     03A1  0084               	movwf	4
  4894     03A2  120A  158A  26F8  120A  118A  	fcall	_I2C_Read
  4895     03A7  120A  158A  2733  120A  118A  	fcall	_BCD_To_Dec
  4896     03AC  1383               	bcf	3,7	;select IRP bank0
  4897     03AD  0080               	movwf	0
  4898     03AE                     l2069:
  4899                           
  4900                           ;ds1307.c: 129:     I2C_Ack();
  4901     03AE  120A  158A  26E2  120A  118A  	fcall	_I2C_Ack
  4902     03B3                     l2071:
  4903                           
  4904                           ;ds1307.c: 131:     *year = BCD_To_Dec(I2C_Read());
  4905     03B3  1283               	bcf	3,5	;RP0=0, select bank0
  4906     03B4  1303               	bcf	3,6	;RP1=0, select bank0
  4907     03B5  0822               	movf	DS1307_GetDate@year,w
  4908     03B6  0084               	movwf	4
  4909     03B7  120A  158A  26F8  120A  118A  	fcall	_I2C_Read
  4910     03BC  120A  158A  2733  120A  118A  	fcall	_BCD_To_Dec
  4911     03C1  1383               	bcf	3,7	;select IRP bank0
  4912     03C2  0080               	movwf	0
  4913     03C3                     l2073:
  4914                           
  4915                           ;ds1307.c: 132:     I2C_Nack();
  4916     03C3  120A  158A  26ED  120A  118A  	fcall	_I2C_Nack
  4917     03C8                     l2075:
  4918                           
  4919                           ;ds1307.c: 134:     I2C_Stop();
  4920     03C8  120A  158A  26D8  120A  118A  	fcall	_I2C_Stop
  4921     03CD                     l241:
  4922     03CD  0008               	return
  4923     03CE                     __end_of_DS1307_GetDate:
  4924                           
  4925                           	psect	text27
  4926     0F03                     __ptext27:	
  4927 ;; *************** function _I2C_Write *****************
  4928 ;; Defined at:
  4929 ;;		line 64 in file "i2c.c"
  4930 ;; Parameters:    Size  Location     Type
  4931 ;;  data            1    wreg     unsigned char 
  4932 ;; Auto vars:     Size  Location     Type
  4933 ;;  data            1   13[COMMON] unsigned char 
  4934 ;; Return value:  Size  Location     Type
  4935 ;;                  1    wreg      unsigned char 
  4936 ;; Registers used:
  4937 ;;		wreg
  4938 ;; Tracked objects:
  4939 ;;		On entry : 0/0
  4940 ;;		On exit  : 0/0
  4941 ;;		Unchanged: 0/0
  4942 ;; Data sizes:     COMMON   BANK0   BANK1   BANK3   BANK2
  4943 ;;      Params:         0       0       0       0       0
  4944 ;;      Locals:         1       0       0       0       0
  4945 ;;      Temps:          0       0       0       0       0
  4946 ;;      Totals:         1       0       0       0       0
  4947 ;;Total ram usage:        1 bytes
  4948 ;; Hardware stack levels used: 1
  4949 ;; This function calls:
  4950 ;;		Nothing
  4951 ;; This function is called by:
  4952 ;;		_Lcd_Cmd
  4953 ;;		_Lcd_Write_Char
  4954 ;;		_DS1307_Init
  4955 ;;		_DS1307_SetDate
  4956 ;;		_DS1307_SetTime
  4957 ;;		_DS1307_GetDate
  4958 ;;		_DS1307_GetTime
  4959 ;; This function uses a non-reentrant model
  4960 ;;
  4961                           
  4962     0F03                     _I2C_Write:	
  4963                           ;psect for function _I2C_Write
  4964                           
  4965                           
  4966                           ;incstack = 0
  4967                           ; Regs used in _I2C_Write: [wreg]
  4968                           ;I2C_Write@data stored from wreg
  4969     0F03  00FD               	movwf	I2C_Write@data
  4970     0F04                     l1779:
  4971                           
  4972                           ;i2c.c: 64: uint8_t I2C_Write(char data);i2c.c: 65: {;i2c.c: 66:     SSPBUF = data;
  4973     0F04  087D               	movf	I2C_Write@data,w
  4974     0F05  1283               	bcf	3,5	;RP0=0, select bank0
  4975     0F06  1303               	bcf	3,6	;RP1=0, select bank0
  4976     0F07  0093               	movwf	19	;volatile
  4977     0F08                     l91:	
  4978                           ;i2c.c: 67:     while(!PIR1bits.SSPIF);
  4979                           
  4980     0F08  1D8C               	btfss	12,3	;volatile
  4981     0F09  2F0B               	goto	u1301
  4982     0F0A  2F0C               	goto	u1300
  4983     0F0B                     u1301:
  4984     0F0B  2F08               	goto	l91
  4985     0F0C                     u1300:
  4986     0F0C                     l93:
  4987                           
  4988                           ;i2c.c: 68:     PIR1bits.SSPIF = 0;
  4989     0F0C  118C               	bcf	12,3	;volatile
  4990                           
  4991                           ;i2c.c: 70:     return (uint8_t)SSPCON2bits.ACKSTAT;;	Return value of _I2C_Write is neve
      +                          r used
  4992     0F0D  1683               	bsf	3,5	;RP0=1, select bank1
  4993     0F0E  1303               	bcf	3,6	;RP1=0, select bank1
  4994     0F0F  0811               	movf	17,w	;volatile
  4995     0F10                     l94:
  4996     0F10  0008               	return
  4997     0F11                     __end_of_I2C_Write:
  4998                           
  4999                           	psect	text28
  5000     0ED8                     __ptext28:	
  5001 ;; *************** function _I2C_Stop *****************
  5002 ;; Defined at:
  5003 ;;		line 34 in file "i2c.c"
  5004 ;; Parameters:    Size  Location     Type
  5005 ;;		None
  5006 ;; Auto vars:     Size  Location     Type
  5007 ;;		None
  5008 ;; Return value:  Size  Location     Type
  5009 ;;                  1    wreg      void 
  5010 ;; Registers used:
  5011 ;;		None
  5012 ;; Tracked objects:
  5013 ;;		On entry : 0/0
  5014 ;;		On exit  : 0/0
  5015 ;;		Unchanged: 0/0
  5016 ;; Data sizes:     COMMON   BANK0   BANK1   BANK3   BANK2
  5017 ;;      Params:         0       0       0       0       0
  5018 ;;      Locals:         0       0       0       0       0
  5019 ;;      Temps:          0       0       0       0       0
  5020 ;;      Totals:         0       0       0       0       0
  5021 ;;Total ram usage:        0 bytes
  5022 ;; Hardware stack levels used: 1
  5023 ;; This function calls:
  5024 ;;		Nothing
  5025 ;; This function is called by:
  5026 ;;		_Lcd_Cmd
  5027 ;;		_Lcd_Write_Char
  5028 ;;		_DS1307_Init
  5029 ;;		_DS1307_SetDate
  5030 ;;		_DS1307_SetTime
  5031 ;;		_DS1307_GetDate
  5032 ;;		_DS1307_GetTime
  5033 ;; This function uses a non-reentrant model
  5034 ;;
  5035                           
  5036     0ED8                     _I2C_Stop:	
  5037                           ;psect for function _I2C_Stop
  5038                           
  5039     0ED8                     l1777:	
  5040                           ;incstack = 0
  5041                           ; Regs used in _I2C_Stop: []
  5042                           
  5043                           
  5044                           ;i2c.c: 36:     SSPCON2bits.PEN = 1;
  5045     0ED8  1683               	bsf	3,5	;RP0=1, select bank1
  5046     0ED9  1303               	bcf	3,6	;RP1=0, select bank1
  5047     0EDA  1511               	bsf	17,2	;volatile
  5048     0EDB                     l67:	
  5049                           ;i2c.c: 37:     while(PIR1bits.SSPIF == 0);
  5050                           
  5051     0EDB  1283               	bcf	3,5	;RP0=0, select bank0
  5052     0EDC  1D8C               	btfss	12,3	;volatile
  5053     0EDD  2EDF               	goto	u1291
  5054     0EDE  2EE0               	goto	u1290
  5055     0EDF                     u1291:
  5056     0EDF  2EDB               	goto	l67
  5057     0EE0                     u1290:
  5058     0EE0                     l69:
  5059                           
  5060                           ;i2c.c: 38:     PIR1bits.SSPIF = 0;
  5061     0EE0  118C               	bcf	12,3	;volatile
  5062     0EE1                     l70:
  5063     0EE1  0008               	return
  5064     0EE2                     __end_of_I2C_Stop:
  5065                           
  5066                           	psect	text29
  5067     0ECE                     __ptext29:	
  5068 ;; *************** function _I2C_Start *****************
  5069 ;; Defined at:
  5070 ;;		line 27 in file "i2c.c"
  5071 ;; Parameters:    Size  Location     Type
  5072 ;;		None
  5073 ;; Auto vars:     Size  Location     Type
  5074 ;;		None
  5075 ;; Return value:  Size  Location     Type
  5076 ;;                  1    wreg      void 
  5077 ;; Registers used:
  5078 ;;		None
  5079 ;; Tracked objects:
  5080 ;;		On entry : 0/0
  5081 ;;		On exit  : 0/0
  5082 ;;		Unchanged: 0/0
  5083 ;; Data sizes:     COMMON   BANK0   BANK1   BANK3   BANK2
  5084 ;;      Params:         0       0       0       0       0
  5085 ;;      Locals:         0       0       0       0       0
  5086 ;;      Temps:          0       0       0       0       0
  5087 ;;      Totals:         0       0       0       0       0
  5088 ;;Total ram usage:        0 bytes
  5089 ;; Hardware stack levels used: 1
  5090 ;; This function calls:
  5091 ;;		Nothing
  5092 ;; This function is called by:
  5093 ;;		_Lcd_Cmd
  5094 ;;		_Lcd_Write_Char
  5095 ;;		_DS1307_Init
  5096 ;;		_DS1307_SetDate
  5097 ;;		_DS1307_SetTime
  5098 ;;		_DS1307_GetDate
  5099 ;;		_DS1307_GetTime
  5100 ;; This function uses a non-reentrant model
  5101 ;;
  5102                           
  5103     0ECE                     _I2C_Start:	
  5104                           ;psect for function _I2C_Start
  5105                           
  5106     0ECE                     l1775:	
  5107                           ;incstack = 0
  5108                           ; Regs used in _I2C_Start: []
  5109                           
  5110                           
  5111                           ;i2c.c: 29:     SSPCON2bits.SEN = 1;
  5112     0ECE  1683               	bsf	3,5	;RP0=1, select bank1
  5113     0ECF  1303               	bcf	3,6	;RP1=0, select bank1
  5114     0ED0  1411               	bsf	17,0	;volatile
  5115     0ED1                     l61:	
  5116                           ;i2c.c: 30:     while(PIR1bits.SSPIF == 0);
  5117                           
  5118     0ED1  1283               	bcf	3,5	;RP0=0, select bank0
  5119     0ED2  1D8C               	btfss	12,3	;volatile
  5120     0ED3  2ED5               	goto	u1281
  5121     0ED4  2ED6               	goto	u1280
  5122     0ED5                     u1281:
  5123     0ED5  2ED1               	goto	l61
  5124     0ED6                     u1280:
  5125     0ED6                     l63:
  5126                           
  5127                           ;i2c.c: 31:     PIR1bits.SSPIF = 0;
  5128     0ED6  118C               	bcf	12,3	;volatile
  5129     0ED7                     l64:
  5130     0ED7  0008               	return
  5131     0ED8                     __end_of_I2C_Start:
  5132                           
  5133                           	psect	text30
  5134     0EC4                     __ptext30:	
  5135 ;; *************** function _I2C_Restart *****************
  5136 ;; Defined at:
  5137 ;;		line 41 in file "i2c.c"
  5138 ;; Parameters:    Size  Location     Type
  5139 ;;		None
  5140 ;; Auto vars:     Size  Location     Type
  5141 ;;		None
  5142 ;; Return value:  Size  Location     Type
  5143 ;;                  1    wreg      void 
  5144 ;; Registers used:
  5145 ;;		None
  5146 ;; Tracked objects:
  5147 ;;		On entry : 0/0
  5148 ;;		On exit  : 0/0
  5149 ;;		Unchanged: 0/0
  5150 ;; Data sizes:     COMMON   BANK0   BANK1   BANK3   BANK2
  5151 ;;      Params:         0       0       0       0       0
  5152 ;;      Locals:         0       0       0       0       0
  5153 ;;      Temps:          0       0       0       0       0
  5154 ;;      Totals:         0       0       0       0       0
  5155 ;;Total ram usage:        0 bytes
  5156 ;; Hardware stack levels used: 1
  5157 ;; This function calls:
  5158 ;;		Nothing
  5159 ;; This function is called by:
  5160 ;;		_DS1307_GetDate
  5161 ;;		_DS1307_GetTime
  5162 ;; This function uses a non-reentrant model
  5163 ;;
  5164                           
  5165     0EC4                     _I2C_Restart:	
  5166                           ;psect for function _I2C_Restart
  5167                           
  5168     0EC4                     l1845:	
  5169                           ;incstack = 0
  5170                           ; Regs used in _I2C_Restart: []
  5171                           
  5172                           
  5173                           ;i2c.c: 43:     SSPCON2bits.RSEN = 1;
  5174     0EC4  1683               	bsf	3,5	;RP0=1, select bank1
  5175     0EC5  1303               	bcf	3,6	;RP1=0, select bank1
  5176     0EC6  1491               	bsf	17,1	;volatile
  5177     0EC7                     l73:	
  5178                           ;i2c.c: 44:     while(PIR1bits.SSPIF == 0);
  5179                           
  5180     0EC7  1283               	bcf	3,5	;RP0=0, select bank0
  5181     0EC8  1D8C               	btfss	12,3	;volatile
  5182     0EC9  2ECB               	goto	u1381
  5183     0ECA  2ECC               	goto	u1380
  5184     0ECB                     u1381:
  5185     0ECB  2EC7               	goto	l73
  5186     0ECC                     u1380:
  5187     0ECC                     l75:
  5188                           
  5189                           ;i2c.c: 45:     PIR1bits.SSPIF = 0;
  5190     0ECC  118C               	bcf	12,3	;volatile
  5191     0ECD                     l76:
  5192     0ECD  0008               	return
  5193     0ECE                     __end_of_I2C_Restart:
  5194                           
  5195                           	psect	text31
  5196     0EF8                     __ptext31:	
  5197 ;; *************** function _I2C_Read *****************
  5198 ;; Defined at:
  5199 ;;		line 73 in file "i2c.c"
  5200 ;; Parameters:    Size  Location     Type
  5201 ;;		None
  5202 ;; Auto vars:     Size  Location     Type
  5203 ;;		None
  5204 ;; Return value:  Size  Location     Type
  5205 ;;                  1    wreg      unsigned char 
  5206 ;; Registers used:
  5207 ;;		wreg
  5208 ;; Tracked objects:
  5209 ;;		On entry : 0/0
  5210 ;;		On exit  : 0/0
  5211 ;;		Unchanged: 0/0
  5212 ;; Data sizes:     COMMON   BANK0   BANK1   BANK3   BANK2
  5213 ;;      Params:         0       0       0       0       0
  5214 ;;      Locals:         0       0       0       0       0
  5215 ;;      Temps:          0       0       0       0       0
  5216 ;;      Totals:         0       0       0       0       0
  5217 ;;Total ram usage:        0 bytes
  5218 ;; Hardware stack levels used: 1
  5219 ;; This function calls:
  5220 ;;		Nothing
  5221 ;; This function is called by:
  5222 ;;		_DS1307_GetDate
  5223 ;;		_DS1307_GetTime
  5224 ;; This function uses a non-reentrant model
  5225 ;;
  5226                           
  5227     0EF8                     _I2C_Read:	
  5228                           ;psect for function _I2C_Read
  5229                           
  5230     0EF8                     l1851:	
  5231                           ;incstack = 0
  5232                           ; Regs used in _I2C_Read: [wreg]
  5233                           
  5234                           
  5235                           ;i2c.c: 75:     SSPCON2bits.RCEN = 1;
  5236     0EF8  1683               	bsf	3,5	;RP0=1, select bank1
  5237     0EF9  1303               	bcf	3,6	;RP1=0, select bank1
  5238     0EFA  1591               	bsf	17,3	;volatile
  5239     0EFB                     l97:	
  5240                           ;i2c.c: 76:     while(PIR1bits.SSPIF == 0);
  5241                           
  5242     0EFB  1283               	bcf	3,5	;RP0=0, select bank0
  5243     0EFC  1D8C               	btfss	12,3	;volatile
  5244     0EFD  2EFF               	goto	u1411
  5245     0EFE  2F00               	goto	u1410
  5246     0EFF                     u1411:
  5247     0EFF  2EFB               	goto	l97
  5248     0F00                     u1410:
  5249     0F00                     l99:
  5250                           
  5251                           ;i2c.c: 77:     PIR1bits.SSPIF = 0;
  5252     0F00  118C               	bcf	12,3	;volatile
  5253     0F01                     l1853:
  5254                           
  5255                           ;i2c.c: 78:     return SSPBUF;
  5256     0F01  0813               	movf	19,w	;volatile
  5257     0F02                     l100:
  5258     0F02  0008               	return
  5259     0F03                     __end_of_I2C_Read:
  5260                           
  5261                           	psect	text32
  5262     0EED                     __ptext32:	
  5263 ;; *************** function _I2C_Nack *****************
  5264 ;; Defined at:
  5265 ;;		line 56 in file "i2c.c"
  5266 ;; Parameters:    Size  Location     Type
  5267 ;;		None
  5268 ;; Auto vars:     Size  Location     Type
  5269 ;;		None
  5270 ;; Return value:  Size  Location     Type
  5271 ;;                  1    wreg      void 
  5272 ;; Registers used:
  5273 ;;		None
  5274 ;; Tracked objects:
  5275 ;;		On entry : 0/0
  5276 ;;		On exit  : 0/0
  5277 ;;		Unchanged: 0/0
  5278 ;; Data sizes:     COMMON   BANK0   BANK1   BANK3   BANK2
  5279 ;;      Params:         0       0       0       0       0
  5280 ;;      Locals:         0       0       0       0       0
  5281 ;;      Temps:          0       0       0       0       0
  5282 ;;      Totals:         0       0       0       0       0
  5283 ;;Total ram usage:        0 bytes
  5284 ;; Hardware stack levels used: 1
  5285 ;; This function calls:
  5286 ;;		Nothing
  5287 ;; This function is called by:
  5288 ;;		_DS1307_GetDate
  5289 ;;		_DS1307_GetTime
  5290 ;; This function uses a non-reentrant model
  5291 ;;
  5292                           
  5293     0EED                     _I2C_Nack:	
  5294                           ;psect for function _I2C_Nack
  5295                           
  5296     0EED                     l1849:	
  5297                           ;incstack = 0
  5298                           ; Regs used in _I2C_Nack: []
  5299                           
  5300                           
  5301                           ;i2c.c: 58:     SSPCON2bits.ACKDT = 1;
  5302     0EED  1683               	bsf	3,5	;RP0=1, select bank1
  5303     0EEE  1303               	bcf	3,6	;RP1=0, select bank1
  5304     0EEF  1691               	bsf	17,5	;volatile
  5305                           
  5306                           ;i2c.c: 59:     SSPCON2bits.ACKEN = 1;
  5307     0EF0  1611               	bsf	17,4	;volatile
  5308     0EF1                     l85:	
  5309                           ;i2c.c: 60:     while(PIR1bits.SSPIF == 0);
  5310                           
  5311     0EF1  1283               	bcf	3,5	;RP0=0, select bank0
  5312     0EF2  1D8C               	btfss	12,3	;volatile
  5313     0EF3  2EF5               	goto	u1401
  5314     0EF4  2EF6               	goto	u1400
  5315     0EF5                     u1401:
  5316     0EF5  2EF1               	goto	l85
  5317     0EF6                     u1400:
  5318     0EF6                     l87:
  5319                           
  5320                           ;i2c.c: 61:     PIR1bits.SSPIF = 0;
  5321     0EF6  118C               	bcf	12,3	;volatile
  5322     0EF7                     l88:
  5323     0EF7  0008               	return
  5324     0EF8                     __end_of_I2C_Nack:
  5325                           
  5326                           	psect	text33
  5327     0EE2                     __ptext33:	
  5328 ;; *************** function _I2C_Ack *****************
  5329 ;; Defined at:
  5330 ;;		line 48 in file "i2c.c"
  5331 ;; Parameters:    Size  Location     Type
  5332 ;;		None
  5333 ;; Auto vars:     Size  Location     Type
  5334 ;;		None
  5335 ;; Return value:  Size  Location     Type
  5336 ;;                  1    wreg      void 
  5337 ;; Registers used:
  5338 ;;		None
  5339 ;; Tracked objects:
  5340 ;;		On entry : 0/0
  5341 ;;		On exit  : 0/0
  5342 ;;		Unchanged: 0/0
  5343 ;; Data sizes:     COMMON   BANK0   BANK1   BANK3   BANK2
  5344 ;;      Params:         0       0       0       0       0
  5345 ;;      Locals:         0       0       0       0       0
  5346 ;;      Temps:          0       0       0       0       0
  5347 ;;      Totals:         0       0       0       0       0
  5348 ;;Total ram usage:        0 bytes
  5349 ;; Hardware stack levels used: 1
  5350 ;; This function calls:
  5351 ;;		Nothing
  5352 ;; This function is called by:
  5353 ;;		_DS1307_GetDate
  5354 ;;		_DS1307_GetTime
  5355 ;; This function uses a non-reentrant model
  5356 ;;
  5357                           
  5358     0EE2                     _I2C_Ack:	
  5359                           ;psect for function _I2C_Ack
  5360                           
  5361     0EE2                     l1847:	
  5362                           ;incstack = 0
  5363                           ; Regs used in _I2C_Ack: []
  5364                           
  5365                           
  5366                           ;i2c.c: 50:     SSPCON2bits.ACKDT = 0;
  5367     0EE2  1683               	bsf	3,5	;RP0=1, select bank1
  5368     0EE3  1303               	bcf	3,6	;RP1=0, select bank1
  5369     0EE4  1291               	bcf	17,5	;volatile
  5370                           
  5371                           ;i2c.c: 51:     SSPCON2bits.ACKEN = 1;
  5372     0EE5  1611               	bsf	17,4	;volatile
  5373     0EE6                     l79:	
  5374                           ;i2c.c: 52:     while(PIR1bits.SSPIF == 0);
  5375                           
  5376     0EE6  1283               	bcf	3,5	;RP0=0, select bank0
  5377     0EE7  1D8C               	btfss	12,3	;volatile
  5378     0EE8  2EEA               	goto	u1391
  5379     0EE9  2EEB               	goto	u1390
  5380     0EEA                     u1391:
  5381     0EEA  2EE6               	goto	l79
  5382     0EEB                     u1390:
  5383     0EEB                     l81:
  5384                           
  5385                           ;i2c.c: 53:     PIR1bits.SSPIF = 0;
  5386     0EEB  118C               	bcf	12,3	;volatile
  5387     0EEC                     l82:
  5388     0EEC  0008               	return
  5389     0EED                     __end_of_I2C_Ack:
  5390                           
  5391                           	psect	text34
  5392     0F33                     __ptext34:	
  5393 ;; *************** function _BCD_To_Dec *****************
  5394 ;; Defined at:
  5395 ;;		line 43 in file "ds1307.c"
  5396 ;; Parameters:    Size  Location     Type
  5397 ;;  bcd_byte        1    wreg     unsigned char 
  5398 ;; Auto vars:     Size  Location     Type
  5399 ;;  bcd_byte        1    6[COMMON] unsigned char 
  5400 ;;  unidades        1    5[COMMON] unsigned char 
  5401 ;;  decenas         1    4[COMMON] unsigned char 
  5402 ;; Return value:  Size  Location     Type
  5403 ;;                  1    wreg      unsigned char 
  5404 ;; Registers used:
  5405 ;;		wreg, status,2, status,0, pclath, cstack
  5406 ;; Tracked objects:
  5407 ;;		On entry : 0/0
  5408 ;;		On exit  : 0/0
  5409 ;;		Unchanged: 0/0
  5410 ;; Data sizes:     COMMON   BANK0   BANK1   BANK3   BANK2
  5411 ;;      Params:         0       0       0       0       0
  5412 ;;      Locals:         3       0       0       0       0
  5413 ;;      Temps:          1       0       0       0       0
  5414 ;;      Totals:         4       0       0       0       0
  5415 ;;Total ram usage:        4 bytes
  5416 ;; Hardware stack levels used: 1
  5417 ;; This function calls:
  5418 ;;		___bmul
  5419 ;; This function is called by:
  5420 ;;		_DS1307_GetDate
  5421 ;;		_DS1307_GetTime
  5422 ;; This function uses a non-reentrant model
  5423 ;;
  5424                           
  5425     0F33                     _BCD_To_Dec:	
  5426                           ;psect for function _BCD_To_Dec
  5427                           
  5428                           
  5429                           ;incstack = 0
  5430                           ; Regs used in _BCD_To_Dec: [wreg+status,2+status,0+pclath+cstack]
  5431                           ;BCD_To_Dec@bcd_byte stored from wreg
  5432     0F33  00F6               	movwf	BCD_To_Dec@bcd_byte
  5433     0F34                     l1901:
  5434                           
  5435                           ;ds1307.c: 44:     uint8_t decenas = (bcd_byte & 0xF0) >> 4;
  5436     0F34  0876               	movf	BCD_To_Dec@bcd_byte,w
  5437     0F35  00F3               	movwf	??_BCD_To_Dec
  5438     0F36  3004               	movlw	4
  5439     0F37                     u1445:
  5440     0F37  1003               	clrc
  5441     0F38  0CF3               	rrf	??_BCD_To_Dec,f
  5442     0F39  3EFF               	addlw	-1
  5443     0F3A  1D03               	skipz
  5444     0F3B  2F37               	goto	u1445
  5445     0F3C  0873               	movf	??_BCD_To_Dec,w
  5446     0F3D  00F4               	movwf	BCD_To_Dec@decenas
  5447     0F3E  300F               	movlw	15
  5448     0F3F  05F4               	andwf	BCD_To_Dec@decenas,f
  5449     0F40                     l1903:
  5450                           
  5451                           ;ds1307.c: 45:     uint8_t unidades = (bcd_byte & 0x0F);
  5452     0F40  0876               	movf	BCD_To_Dec@bcd_byte,w
  5453     0F41  00F5               	movwf	BCD_To_Dec@unidades
  5454     0F42                     l1905:
  5455     0F42  300F               	movlw	15
  5456     0F43  05F5               	andwf	BCD_To_Dec@unidades,f
  5457     0F44                     l1907:
  5458                           
  5459                           ;ds1307.c: 46:     return (decenas * 10) + unidades;
  5460     0F44  300A               	movlw	10
  5461     0F45  00F0               	movwf	___bmul@multiplicand
  5462     0F46  0874               	movf	BCD_To_Dec@decenas,w
  5463     0F47  120A  118A  2053  120A  158A  	fcall	___bmul
  5464     0F4C  0775               	addwf	BCD_To_Dec@unidades,w
  5465     0F4D                     l226:
  5466     0F4D  0008               	return
  5467     0F4E                     __end_of_BCD_To_Dec:
  5468                           
  5469                           	psect	text35
  5470     0053                     __ptext35:	
  5471 ;; *************** function ___bmul *****************
  5472 ;; Defined at:
  5473 ;;		line 4 in file "C:\Program Files\Microchip\xc8\v3.10\pic\sources\c99\common\Umul8.c"
  5474 ;; Parameters:    Size  Location     Type
  5475 ;;  multiplier      1    wreg     unsigned char 
  5476 ;;  multiplicand    1    0[COMMON] unsigned char 
  5477 ;; Auto vars:     Size  Location     Type
  5478 ;;  multiplier      1    2[COMMON] unsigned char 
  5479 ;;  product         1    1[COMMON] unsigned char 
  5480 ;; Return value:  Size  Location     Type
  5481 ;;                  1    wreg      unsigned char 
  5482 ;; Registers used:
  5483 ;;		wreg, status,2, status,0
  5484 ;; Tracked objects:
  5485 ;;		On entry : 0/0
  5486 ;;		On exit  : 0/0
  5487 ;;		Unchanged: 0/0
  5488 ;; Data sizes:     COMMON   BANK0   BANK1   BANK3   BANK2
  5489 ;;      Params:         1       0       0       0       0
  5490 ;;      Locals:         2       0       0       0       0
  5491 ;;      Temps:          0       0       0       0       0
  5492 ;;      Totals:         3       0       0       0       0
  5493 ;;Total ram usage:        3 bytes
  5494 ;; Hardware stack levels used: 1
  5495 ;; This function calls:
  5496 ;;		Nothing
  5497 ;; This function is called by:
  5498 ;;		_BCD_To_Dec
  5499 ;; This function uses a non-reentrant model
  5500 ;;
  5501                           
  5502     0053                     ___bmul:	
  5503                           ;psect for function ___bmul
  5504                           
  5505                           
  5506                           ;incstack = 0
  5507                           ; Regs used in ___bmul: [wreg+status,2+status,0]
  5508                           ;___bmul@multiplier stored from wreg
  5509     0053  00F2               	movwf	___bmul@multiplier
  5510     0054                     l1781:
  5511     0054  01F1               	clrf	___bmul@product
  5512     0055                     l1783:
  5513     0055  1C72               	btfss	___bmul@multiplier,0
  5514     0056  2858               	goto	u1311
  5515     0057  2859               	goto	u1310
  5516     0058                     u1311:
  5517     0058  285B               	goto	l1787
  5518     0059                     u1310:
  5519     0059                     l1785:
  5520     0059  0870               	movf	___bmul@multiplicand,w
  5521     005A  07F1               	addwf	___bmul@product,f
  5522     005B                     l1787:
  5523     005B  1003               	clrc
  5524     005C  0DF0               	rlf	___bmul@multiplicand,f
  5525     005D                     l1789:
  5526     005D  1003               	clrc
  5527     005E  0CF2               	rrf	___bmul@multiplier,f
  5528     005F  0872               	movf	___bmul@multiplier,w
  5529     0060  1D03               	btfss	3,2
  5530     0061  2863               	goto	u1321
  5531     0062  2864               	goto	u1320
  5532     0063                     u1321:
  5533     0063  2855               	goto	l1783
  5534     0064                     u1320:
  5535     0064                     l1791:
  5536     0064  0871               	movf	___bmul@product,w
  5537     0065                     l356:
  5538     0065  0008               	return
  5539     0066                     __end_of___bmul:
  5540     0002                     ___latbits      equ	2
  5541     007E                     btemp           set	126	;btemp
  5542     007E                     btemp0          set	126
  5543     007F                     btemp1          set	127
  5544     007E                     wtemp0          set	126
  5545     007F                     wtemp0a         set	127
  5546     007F                     ttemp0a         set	127
  5547     0080                     ltemp0a         set	128
  5548                           
  5549                           	psect	config
  5550                           
  5551                           ;Config register CONFIG1 @ 0x2007
  5552                           ;	Oscillator Selection bits
  5553                           ;	FOSC = HS, HS oscillator: High-speed crystal/resonator on RA6/OSC2/CLKOUT and RA7/OSC1
      +                          /CLKIN
  5554                           ;	Watchdog Timer Enable bit
  5555                           ;	WDTE = OFF, WDT disabled and can be enabled by SWDTEN bit of the WDTCON register
  5556                           ;	Power-up Timer Enable bit
  5557                           ;	PWRTE = ON, PWRT enabled
  5558                           ;	RE3/MCLR pin function select bit
  5559                           ;	MCLRE = ON, RE3/MCLR pin function is MCLR
  5560                           ;	Code Protection bit
  5561                           ;	CP = OFF, Program memory code protection is disabled
  5562                           ;	Data Code Protection bit
  5563                           ;	CPD = OFF, Data memory code protection is disabled
  5564                           ;	Brown Out Reset Selection bits
  5565                           ;	BOREN = ON, BOR enabled
  5566                           ;	Internal External Switchover bit
  5567                           ;	IESO = OFF, Internal/External Switchover mode is disabled
  5568                           ;	Fail-Safe Clock Monitor Enabled bit
  5569                           ;	FCMEN = OFF, Fail-Safe Clock Monitor is disabled
  5570                           ;	Low Voltage Programming Enable bit
  5571                           ;	LVP = OFF, RB3 pin has digital I/O, HV on MCLR must be used for programming
  5572                           ;	In-Circuit Debugger Mode bit
  5573                           ;	DEBUG = 0x1, unprogrammed default
  5574     2007                     	org	8199
  5575     2007  23E2               	dw	9186
  5576                           
  5577                           ;Config register CONFIG2 @ 0x2008
  5578                           ;	Brown-out Reset Selection bit
  5579                           ;	BOR4V = BOR40V, Brown-out Reset set to 4.0V
  5580                           ;	Flash Program Memory Self Write Enable bits
  5581                           ;	WRT = OFF, Write protection off
  5582     2008                     	org	8200
  5583     2008  3FFF               	dw	16383

Data Sizes:
    Strings     59
    Constant    0
    Data        0
    BSS         43
    Persistent  0
    Stack       0

Auto Spaces:
    Space          Size  Autos    Used
    COMMON           14     14      14
    BANK0            80     71      80
    BANK1            80     40      74
    BANK3            96      0       0
    BANK2            96      0       0

Pointer List with Targets:

    DS1307_GetDate@day	PTR unsigned char  size(1) Largest target is 1
		 -> main@dia(BANK1[1]), 

    DS1307_GetDate@month	PTR unsigned char  size(1) Largest target is 1
		 -> main@mes(BANK1[1]), 

    DS1307_GetDate@year	PTR unsigned char  size(1) Largest target is 1
		 -> main@ano(BANK1[1]), 

    DS1307_GetTime@hour	PTR unsigned char  size(1) Largest target is 1
		 -> main@hora(BANK1[1]), 

    DS1307_GetTime@min	PTR unsigned char  size(1) Largest target is 1
		 -> main@min(BANK1[1]), 

    DS1307_GetTime@sec	PTR unsigned char  size(1) Largest target is 1
		 -> main@seg(BANK1[1]), 

    dtoa@fp	PTR struct _IO_FILE size(2) Largest target is 11
		 -> sprintf@f(BANK0[11]), 

    f$.$buffer	PTR unsigned char  size(2) Largest target is 17
		 -> main@linea1(BANK1[17]), main@linea2(BANK1[17]), 

    f$.$source	PTR const unsigned char  size(1) Largest target is 0

    fputc@fp	PTR struct _IO_FILE size(2) Largest target is 11
		 -> sprintf@f(BANK0[11]), 

    fputc@fp$.$buffer	PTR unsigned char  size(2) Largest target is 17
		 -> main@linea1(BANK1[17]), main@linea2(BANK1[17]), 

    fputc@fp$.$source	PTR const unsigned char  size(1) Largest target is 0

    fputs@fp	PTR struct _IO_FILE size(2) Largest target is 11
		 -> sprintf@f(BANK0[11]), 

    fputs@s	PTR const unsigned char  size(1) Largest target is 32
		 -> dbuf(BANK1[32]), 

    Lcd_Write_String@str	PTR const unsigned char  size(2) Largest target is 17
		 -> main@linea1(BANK1[17]), main@linea2(BANK1[17]), STR_1(CODE[17]), 

    pad@buf	PTR unsigned char  size(1) Largest target is 32
		 -> dbuf(BANK1[32]), 

    pad@fp	PTR struct _IO_FILE size(2) Largest target is 11
		 -> sprintf@f(BANK0[11]), 

    read_prec_or_width@ap	PTR PTR void [1] size(1) Largest target is 1
		 -> sprintf@ap(BANK0[1]), 

    read_prec_or_width@fmt	PTR PTR const unsigned char  size(1) Largest target is 1
		 -> vfprintf@cfmt(BANK0[1]), 

    S832$buffer	PTR unsigned char  size(2) Largest target is 17
		 -> main@linea1(BANK1[17]), main@linea2(BANK1[17]), 

    S832$source	PTR const unsigned char  size(1) Largest target is 0

    sprintf@ap	PTR void [1] size(1) Largest target is 2
		 -> ?_sprintf(BANK0[2]), 

    sprintf@fmt	PTR const unsigned char  size(1) Largest target is 21
		 -> STR_2(CODE[21]), STR_3(CODE[21]), 

    sprintf@s	PTR unsigned char  size(1) Largest target is 17
		 -> main@linea1(BANK1[17]), main@linea2(BANK1[17]), 

    vfpfcnvrt@ap	PTR PTR void  size(1) Largest target is 1
		 -> sprintf@ap(BANK0[1]), 

    vfpfcnvrt@cp	PTR unsigned char  size(1) Largest target is 21
		 -> STR_2(CODE[21]), STR_3(CODE[21]), 

    vfpfcnvrt@fmt	PTR PTR unsigned char  size(1) Largest target is 1
		 -> vfprintf@cfmt(BANK0[1]), 

    vfpfcnvrt@fp	PTR struct _IO_FILE size(2) Largest target is 11
		 -> sprintf@f(BANK0[11]), 

    vfprintf@ap	PTR PTR void  size(1) Largest target is 1
		 -> sprintf@ap(BANK0[1]), 

    vfprintf@cfmt	PTR unsigned char  size(1) Largest target is 21
		 -> STR_2(CODE[21]), STR_3(CODE[21]), 

    vfprintf@fmt	PTR const unsigned char  size(1) Largest target is 21
		 -> STR_2(CODE[21]), STR_3(CODE[21]), 

    vfprintf@fp	PTR struct _IO_FILE size(2) Largest target is 11
		 -> sprintf@f(BANK0[11]), 


Critical Paths under _main in COMMON

    _read_prec_or_width->___wmul
    _dtoa->_pad
    _pad->_fputc
    _fputs->_fputc
    _abs->___awmod
    _Lcd_Write_Char->_I2C_Write
    _Lcd_Cmd->_I2C_Write
    _DS1307_SetTime->_I2C_Write
    _DS1307_SetDate->_I2C_Write
    _Dec_To_BCD->___awdiv
    _DS1307_Init->_I2C_Write
    _DS1307_GetTime->_I2C_Write
    _DS1307_GetDate->_I2C_Write
    _I2C_Write->_Dec_To_BCD
    _BCD_To_Dec->___bmul

Critical Paths under _main in BANK0

    _main->_sprintf
    _sprintf->_vfprintf
    _vfprintf->_vfpfcnvrt
    _vfpfcnvrt->_dtoa
    _dtoa->_pad
    _pad->_fputs
    _Lcd_Write_String->_Lcd_Write_Char
    _Lcd_Set_Cursor->_Lcd_Cmd
    _Lcd_Init->_Lcd_Cmd
    _Lcd_Clear->_Lcd_Cmd

Critical Paths under _main in BANK1

    None.

Critical Paths under _main in BANK3

    None.

Critical Paths under _main in BANK2

    None.

Call Graph Tables:

 ---------------------------------------------------------------------------------
 (Depth) Function   	        Calls       Base Space   Used Autos Params    Refs
 ---------------------------------------------------------------------------------
 (0) _main                                                46    46      0    6733
                                             65 BANK0      6     6      0
                                              0 BANK1     40    40      0
                     _DS1307_GetDate
                     _DS1307_GetTime
                        _DS1307_Init
                     _DS1307_SetDate
                     _DS1307_SetTime
                    _I2C_Init_Master
                          _Lcd_Clear
                           _Lcd_Init
                     _Lcd_Set_Cursor
                   _Lcd_Write_String
                            _sprintf
 ---------------------------------------------------------------------------------
 (1) _sprintf                                             23    15      8    3101
                                             44 BANK0     21    13      8
                           _vfprintf
 ---------------------------------------------------------------------------------
 (2) _vfprintf                                             5     1      4    2896
                                             39 BANK0      5     1      4
                          _vfpfcnvrt
 ---------------------------------------------------------------------------------
 (3) _vfpfcnvrt                                           13     9      4    2762
                                             27 BANK0     12     8      4
                               _dtoa
                              _fputc
                 _read_prec_or_width
 ---------------------------------------------------------------------------------
 (4) _read_prec_or_width                                   5     3      2     276
                                              6 COMMON     5     3      2
                             ___wmul
 ---------------------------------------------------------------------------------
 (5) ___wmul                                               6     2      4      94
                                              0 COMMON     6     2      4
 ---------------------------------------------------------------------------------
 (4) _dtoa                                                12     8      4    1829
                                             15 BANK0     12     8      4
                            ___awdiv
                            ___awmod
                                _abs
                                _pad
 ---------------------------------------------------------------------------------
 (5) _pad                                                  8     3      5     747
                                             13 COMMON     1     1      0
                                              8 BANK0      7     2      5
                              _fputc
                              _fputs
 ---------------------------------------------------------------------------------
 (6) _fputs                                                8     5      3     333
                                              0 BANK0      8     5      3
                              _fputc
 ---------------------------------------------------------------------------------
 (7) _fputc                                               13     9      4     232
                                              0 COMMON    13     9      4
                              _putch
 ---------------------------------------------------------------------------------
 (8) _putch                                                1     1      0       0
 ---------------------------------------------------------------------------------
 (5) _abs                                                  4     2      2      67
                                              6 COMMON     4     2      2
                            ___awmod (ARG)
 ---------------------------------------------------------------------------------
 (1) _Lcd_Write_String                                     2     0      2     227
                                              4 BANK0      2     0      2
                     _Lcd_Write_Char
 ---------------------------------------------------------------------------------
 (2) _Lcd_Write_Char                                       4     4      0     179
                                              0 BANK0      4     4      0
                          _I2C_Start
                           _I2C_Stop
                          _I2C_Write
 ---------------------------------------------------------------------------------
 (1) _Lcd_Set_Cursor                                       3     2      1     261
                                              4 BANK0      3     2      1
                            _Lcd_Cmd
 ---------------------------------------------------------------------------------
 (1) _Lcd_Init                                             2     2      0     179
                                              4 BANK0      2     2      0
                            _Lcd_Cmd
 ---------------------------------------------------------------------------------
 (1) _Lcd_Clear                                            2     2      0     179
                                              4 BANK0      2     2      0
                            _Lcd_Cmd
 ---------------------------------------------------------------------------------
 (2) _Lcd_Cmd                                              4     4      0     179
                                              0 BANK0      4     4      0
                          _I2C_Start
                           _I2C_Stop
                          _I2C_Write
 ---------------------------------------------------------------------------------
 (1) _I2C_Init_Master                                      1     1      0      87
                                              0 COMMON     1     1      0
 ---------------------------------------------------------------------------------
 (1) _DS1307_SetTime                                       3     1      2     812
                                              0 BANK0      3     1      2
                         _Dec_To_BCD
                          _I2C_Start
                           _I2C_Stop
                          _I2C_Write
 ---------------------------------------------------------------------------------
 (1) _DS1307_SetDate                                       3     1      2     812
                                              0 BANK0      3     1      2
                         _Dec_To_BCD
                          _I2C_Start
                           _I2C_Stop
                          _I2C_Write
 ---------------------------------------------------------------------------------
 (2) _Dec_To_BCD                                           5     5      0     708
                                              8 COMMON     5     5      0
                            ___awdiv
                            ___awmod
 ---------------------------------------------------------------------------------
 (5) ___awmod                                              6     2      4     300
                                              0 COMMON     6     2      4
 ---------------------------------------------------------------------------------
 (5) ___awdiv                                              8     4      4     304
                                              0 COMMON     8     4      4
 ---------------------------------------------------------------------------------
 (1) _DS1307_Init                                          0     0      0      29
                          _I2C_Start
                           _I2C_Stop
                          _I2C_Write
 ---------------------------------------------------------------------------------
 (1) _DS1307_GetTime                                       4     1      3     358
                                              0 BANK0      4     1      3
                         _BCD_To_Dec
                            _I2C_Ack
                           _I2C_Nack
                           _I2C_Read
                        _I2C_Restart
                          _I2C_Start
                           _I2C_Stop
                          _I2C_Write
 ---------------------------------------------------------------------------------
 (1) _DS1307_GetDate                                       3     0      3     312
                                              0 BANK0      3     0      3
                         _BCD_To_Dec
                            _I2C_Ack
                           _I2C_Nack
                           _I2C_Read
                        _I2C_Restart
                          _I2C_Start
                           _I2C_Stop
                          _I2C_Write
 ---------------------------------------------------------------------------------
 (3) _I2C_Write                                            1     1      0      29
                                             13 COMMON     1     1      0
                         _Dec_To_BCD (ARG)
 ---------------------------------------------------------------------------------
 (3) _I2C_Stop                                             0     0      0       0
 ---------------------------------------------------------------------------------
 (3) _I2C_Start                                            0     0      0       0
 ---------------------------------------------------------------------------------
 (2) _I2C_Restart                                          0     0      0       0
 ---------------------------------------------------------------------------------
 (2) _I2C_Read                                             0     0      0       0
 ---------------------------------------------------------------------------------
 (2) _I2C_Nack                                             0     0      0       0
 ---------------------------------------------------------------------------------
 (2) _I2C_Ack                                              0     0      0       0
 ---------------------------------------------------------------------------------
 (2) _BCD_To_Dec                                           4     4      0     214
                                              3 COMMON     4     4      0
                           _I2C_Read (ARG)
                             ___bmul
 ---------------------------------------------------------------------------------
 (3) ___bmul                                               3     2      1     108
                                              0 COMMON     3     2      1
 ---------------------------------------------------------------------------------
 Estimated maximum stack depth 8
 ---------------------------------------------------------------------------------

 Call Graph Graphs:

 _main (ROOT)
   _DS1307_GetDate
     _BCD_To_Dec
       _I2C_Read (ARG)
       ___bmul (ARG)
     _I2C_Ack
     _I2C_Nack
     _I2C_Read
     _I2C_Restart
     _I2C_Start
     _I2C_Stop
     _I2C_Write
       _Dec_To_BCD (ARG)
         ___awdiv
         ___awmod
   _DS1307_GetTime
     _BCD_To_Dec
     _I2C_Ack
     _I2C_Nack
     _I2C_Read
     _I2C_Restart
     _I2C_Start
     _I2C_Stop
     _I2C_Write
   _DS1307_Init
     _I2C_Start
     _I2C_Stop
     _I2C_Write
   _DS1307_SetDate
     _Dec_To_BCD
     _I2C_Start
     _I2C_Stop
     _I2C_Write
   _DS1307_SetTime
     _Dec_To_BCD
     _I2C_Start
     _I2C_Stop
     _I2C_Write
   _I2C_Init_Master
   _Lcd_Clear
     _Lcd_Cmd
       _I2C_Start
       _I2C_Stop
       _I2C_Write
   _Lcd_Init
     _Lcd_Cmd
   _Lcd_Set_Cursor
     _Lcd_Cmd
   _Lcd_Write_String
     _Lcd_Write_Char
       _I2C_Start
       _I2C_Stop
       _I2C_Write
   _sprintf
     _vfprintf
       _vfpfcnvrt
         _dtoa
           ___awdiv
           ___awmod
           _abs
             ___awmod (ARG)
           _pad
             _fputc
               _putch
             _fputs
               _fputc
         _fputc
         _read_prec_or_width
           ___wmul

Address spaces:
Name               Size   Autos  Total    Usage
BITCOMMON           14      0       0      0.0%
BITBANK0            80      0       0      0.0%
BITBANK1            80      0       0      0.0%
BITBANK3            96      0       0      0.0%
BITBANK2            96      0       0      0.0%
COMMON              14     14      14    100.0%
BANK0               80     71      80    100.0%
BANK1               80     40      74     92.5%
BANK3               96      0       0      0.0%
BANK2               96      0       0      0.0%
STACK                0      0       0      0.0%
DATA                 0      0     168      0.0%


Microchip Technology PIC Macro Assembler V3.10 build 20250813170317 
Symbol Table                                                                                   Wed Oct 29 21:09:11 2025

                         pc 0002              ___bmul@product 0071                          l61 0ED1  
                        l70 0EE1                          l63 0ED6                          l64 0ED7  
                        l81 0EEB                          l73 0EC7                          l82 0EEC  
                        l58 0F6C                          l75 0ECC                          l67 0EDB  
                        l91 0F08                          l76 0ECD                          l85 0EF1  
                        l69 0EE0                          l93 0F0C                          l94 0F10  
                        l79 0EE6                          l87 0EF6                          l88 0EF7  
                        l97 0EFB                          l99 0F00                ___awdiv@sign 0075  
                        fsr 0004         ___wmul@multiplicand 0072                  _Dec_To_BCD 00B9  
                       l100 0F02                         l113 015B                         l116 0226  
                       l125 0FDE                         l126 0FE1                         l127 0FE4  
                       l119 026F                         l135 008D                         l232 0122  
                       l241 03CD                         l129 0FFF                         l226 0F4D  
                       l138 0F21                         l330 0FBF                         l235 019C  
                       l244 0497                         l332 0FD7                         l229 00E9  
                       l238 01DD                         l356 0065                         l483 0430  
                       l813 0289                         l821 0612                         l496 036C  
                       l816 02B1                         l825 0610                         l818 02C2  
                       l834 06AA                         l842 0315                         l851 055B  
                       l870 0F32                         l863 0F8F                         l857 05E7  
                       l849 0555                         l793 0FB2                         l882 0531  
                       l890 00B8                         l893 0052                         u820 049E  
                       u821 049D                         u830 04A4                         u910 0FD3  
                       u831 04A3                         u911 0FD2                         u920 03D3  
                       u840 04C3                         u921 03D2                         u841 04C2  
                       u905 0FC7                         u930 03DE                         u850 04F5  
                       u931 03DD                         u851 04F4                         u940 03ED  
                       u860 0516                         u941 03EC                         u870 00B8  
                       u855 04F1                         u871 00B7                         u960 03FD  
                       u880 0FB9                         u961 03FC                         u881 0FB8  
                       u955 03F1                         u980 040E                         u981 040D  
                       u975 03FE                         u895 0FC0                         u985 040A  
                       u995 0416                         _abs 0F22             __end_of_I2C_Ack 0EED  
                       _pad 0270                         fsr0 0004                         indf 0000  
              ___awmod@sign 0075           BCD_To_Dec@decenas 0074                        l2001 01A0  
                      l2011 01CB                        l2003 01A5                        ?_abs 0076  
                      l2021 0170                        l2013 01D8                        l2005 01AB  
                      l2101 06D7                        l2031 0436                        l2023 017D  
                      l2015 015F                        l2007 01B1                        l2111 070E  
                      l2103 06E5                        l2041 0460                        l2033 043C  
                      l2025 018A                        l2017 0164                        l2009 01BE  
                      l2121 073C                        l2113 0713                        l2105 06EA  
                      l2051 048D                        l2043 0465                        l2035 0447  
                      l2027 0197                        l2019 016A                        l2131 0797  
                      l2123 0749                        l2115 0721                        l2107 06F4  
                      l2061 0383                        l2053 0492                        l2045 0475  
                      l2037 044D                        l2029 0431                        l2133 07A1  
                      l2125 0756                        l2117 072B                        l2109 06FF  
                      l2071 03B3                        l2063 0389                        l2055 036D  
                      l2047 047A                        l2039 0455                        l2135 07CD  
                      l2127 0760                        l2119 0737                        l2073 03C3  
                      l2065 0399                        l2057 0372                        l2049 0482  
                      l1601 0FD3                        l2081 0F98                        l2137 07D8  
                      l2129 078C                        l2075 03C8                        l2067 039E  
                      l2059 0378                        l1611 03D8                        l2083 0F9A  
                      l2091 06AB                        l2069 03AE                        l1621 03E7  
                      l1613 03DA                        l1605 03CE                        l1701 02B7  
                      l2085 0F9C                        l2077 0F90                        l2093 06AF  
                      l1631 03FD                        l1623 03ED                        l1615 03DE  
                      l1607 03CF                        l1703 0F22                        l1711 05E8  
                      l2087 0FA9                        l2079 0F94                        l2095 06BE  
                      l1633 040E                        l1625 03F0                        l1641 0422  
                      l1617 03E3                        l1609 03D3                        l1705 0F26  
                      l1721 0607                        l1713 05EC                        l1801 054B  
                      l2097 06C4                        l1643 0427                        l1635 0414  
                      l1627 03F7                        l1619 03E5                        l1651 0317  
                      l1707 0F27                        l1571 049E                        l1731 063D  
                      l1723 060C                        l1715 05F7                        l1811 056B  
                      l1803 0551                        l2099 06D2                        l1901 0F34  
                      l1645 042C                        l1637 0415                        l1629 03F9  
                      l1661 032B                        l1653 031B                        l1573 04A4  
                      l1741 066F                        l1733 0640                        l1725 0616  
                      l1717 05FC                        l1821 0589                        l1813 0570  
                      l1805 0556                        l1903 0F40                        l1639 041C  
                      l1671 0341                        l1663 0331                        l1655 0320  
                      l1911 00BA                        l1575 04AB                        l1583 008E  
                      l1751 0694                        l1743 0674                        l1735 0646  
                      l1727 061A                        l1719 0602                        l1591 0FB3  
                      l1831 05B8                        l1823 058E                        l1815 057F  
                      l1905 0F42                        l1681 0363                        l1673 034B  
                      l1665 0334                        l1657 0322                        l1649 0316  
                      l1913 00DE                        l1577 04C3                        l1569 0498  
                      l1585 0093                        l1753 069A                        l1745 0681  
                      l1729 0620                        l1737 0659                        l1593 0FB5  
                      l1761 02D4                        l1825 059A                        l1817 0583  
                      l1809 055E                        l1921 0F7F                        l1907 0F44  
                      l1851 0EF8                        l1683 0368                        l1675 0351  
                      l1667 033B                        l1659 0326                        l1931 0F55  
                      l1579 04F5                        l1587 00A3                        l1691 0281  
                      l1739 0667                        l1747 0687                        l1595 0FB9  
                      l1771 0311                        l1763 02D8                        l1835 05C6  
                      l1827 05A6                        l1819 0584                        l1923 0F8D  
                      l1781 0054                        l1853 0F01                        l1845 0EC4  
                      l1677 0358                        l1669 033D                        l1941 0F6A  
                      l1933 0F59                        l1861 01E5                        l1589 00AB  
                      l1693 0287                        l1749 068E                        l1597 0FC6  
                      l1765 02E6                        l1757 02C3                        l1829 05B3  
                      l1917 0F6D                        l1791 0064                        l1783 0055  
                      l1847 0EE2                        l1775 0ECE                        l1679 035E  
                      l1935 0F5C                        l1927 0F4F                        l1871 0206  
                      l1863 01F0                        l1951 013F                        l1943 0123  
                      l1695 028C                        l1687 0270                        l1599 0FCD  
                      l1767 02FB                        l1759 02C5                        l1839 05CE  
                      l1919 0F72                        l1785 0059                        l1849 0EED  
                      l1777 0ED8                        l1937 0F62                        l1929 0F53  
                      l1873 020F                        l1865 01F2                        l1857 01E1  
                      l1953 0145                        l1945 012D                        l1961 0FDB  
                      l1881 022C                        l1697 029B                        l1689 0276  
                      l1769 0300                        l1787 005B                        l1779 0F04  
                      l1939 0F65                        l1875 0218                        l1867 01F7  
                      l1859 01E3                        l1955 014B                        l1947 0133  
                      l1971 0FF5                        l1963 0FDC                        l1891 0246  
                      l1883 022E                        l1699 02A3                        l1795 0532  
                      l1789 005D                        l1877 0221                        l1869 01FD  
                      l1957 0F11                        l1949 0139                        l1973 0FF8  
                      l1893 024F                        l1885 0239                        l1981 007D  
                      l1797 0543                        ?_pad 0028                        l1991 0101  
                      l1983 00EA                        l1959 0F17                        l1895 0258  
                      l1887 023B                        l1879 022A                        l1975 0066  
                      l1799 0547                        l1993 0106                        l1985 00EF  
                      l1969 0FE7                        l1897 0261                        l1889 0240  
                      l1977 0067                        l1995 010B                        l1987 00F5  
                      l1899 026A                        l1979 0075                        l1997 0111  
                      l1989 00FB                        l1999 0117                        STR_1 003D  
                      STR_2 0028                        STR_3 0013                        u1000 0422  
                      u1001 0421                        u1010 0427                        u1011 0426  
                      u1100 0363                        u1020 031B                        u1101 0362  
                      u1021 031A                        u1030 0326                        u1110 0276  
                      u1031 0325                        u1111 0275                        u1040 0331  
                      u1120 0287                        u1200 0667                        u1041 0330  
                      u1121 0286                        u1201 0666                        u1130 02B1  
                      u1210 066F                        u1131 02B0                        u1211 066E  
                      u1300 0F0C                        u1060 0341                        u1140 02B7  
                      u1220 0674                        u1301 0F0B                        u1061 0340  
                      u1141 02B6                        u1221 0673                        u1205 0663  
                      u1310 0059                        u1070 034B                        u1150 0F26  
                      u1230 0681                        u1311 0058                        u1071 034A  
                      u1055 0335                        u1151 0F25                        u1135 02AD  
                      u1231 0680                        u1320 0064                        u1400 0EF6  
                      u1240 0687                        u1160 05F1                        u1321 0063  
                      u1401 0EF5                        u1241 0686                        u1161 05EF  
                      u1410 0F00                        u1090 035E                        u1250 068E  
                      u1170 05F2                        u1330 0543                        u1411 0EFF  
                      u1091 035D                        u1075 0347                        u1251 068D  
                      u1235 067D                        u1331 0542                        u1180 05FC  
                      u1260 02D4                        u1340 0570                        u1085 0352  
                      u1181 05FB                        u1261 02D3                        u1341 056F  
                      u1190 0607                        u1270 0311                        u1350 0583  
                      u1191 0606                        u1271 0310                        u1351 0582  
                      u1280 0ED6                        u1360 059A                        u1281 0ED5  
                      u1425 01E8                        u1361 0599                        u1290 0EE0  
                      u1370 05A6                        u1291 0EDF                        u1435 0231  
                      u1371 05A5                        u1380 0ECC                        u1460 0F8D  
                      u1445 0F37                        u1381 0ECB                        u1461 0F8C  
                      u1390 0EEB                        u1470 0F62                        u1391 0EEA  
                      u1455 00E1                        u1471 0F61                        u1480 0F6A  
                      u1481 0F69                        u1490 008D                        u1491 008C  
                      u2607 0F1D                        u2527 06B7                        u2537 06CC  
                      u2547 06DF                        u2557 0707                        u2567 071B  
                      u2577 07E0                        u2587 0129                        u2597 0157  
                      _TMR0 0001         Lcd_Write_String@str 0024                        abs@a 0076  
         ?_Lcd_Write_String 0024                        _dbuf 00CA                        _main 06AB  
                      _dtoa 05E8            __end_of_I2C_Nack 0EF8                        _prec 00C8  
          __end_of_I2C_Read 0F03                        pad@i 002D                        pad@p 002B  
                      btemp 007E            __end_of_I2C_Stop 0EE2                        start 0000  
        ??_Lcd_Write_String 007E            ?_I2C_Init_Master 0070          BCD_To_Dec@bcd_byte 0076  
           __end_of_Lcd_Cmd 0227           ___bmul@multiplier 0072                       ??_abs 0078  
                     ??_pad 007D          Dec_To_BCD@dec_byte 007C                       ?_main 0070  
                     ?_dtoa 002F             __end_of___awdiv 0431             __end_of___awmod 036D  
                     _ANSEL 0188             ___awdiv@divisor 0070             ___awdiv@counter 0074  
              vfpfcnvrt@fmt 003D              _DS1307_GetDate 036D                       _flags 006E  
            _DS1307_GetTime 0431         read_prec_or_width@c 0078         read_prec_or_width@n 0079  
                     _fputc 0498                       _fputs 008E                       btemp0 007E  
                     pad@fp 0028                       btemp1 007F                       _width 006C  
                     _putch 0052                       dtoa@d 0031                       dtoa@i 0039  
                     dtoa@p 0035                       dtoa@s 0038                       dtoa@w 0036  
         __end_of_I2C_Start 0ED8           __end_of_I2C_Write 0F11                       pclath 000A  
            _DS1307_SetDate 015C          BCD_To_Dec@unidades 0075              _DS1307_SetTime 019D  
                     status 0003                       wtemp0 007E             __end_of_sprintf 0FB3  
          __end_of_Lcd_Init 015C          Dec_To_BCD@unidades 007B             __initialization 07EB  
              __end_of_main 07EB                __end_of_dtoa 06AB                   ??_I2C_Ack 0070  
               ?_Dec_To_BCD 0070                      ??_main 0061                      ??_dtoa 007E  
         DS1307_SetDate@day 0022      __end_of_DS1307_GetDate 03CE  __end_of_read_prec_or_width 0316  
    __end_of_DS1307_GetTime 0498                      ?_fputc 0070      __end_of_DS1307_SetDate 019D  
                    ?_fputs 0020            ___awdiv@dividend 0072      __end_of_DS1307_SetTime 01DE  
                    ?_putch 0070                      _ANSELH 0189                   ??_Lcd_Cmd 0020  
             vfpfcnvrt@done 0045                      _SSPADD 0093                      _SSPCON 0014  
                    _SSPBUF 0013                ??_BCD_To_Dec 0073           DS1307_SetTime@min 0020  
         DS1307_SetTime@sec 0021                vfprintf@cfmt 004B                      ___bmul 0053  
                    ___wmul 0FB3                   ??___awdiv 0074                   ??___awmod 0074  
      read_prec_or_width@ap 0077            ___awdiv@quotient 0076             ___awmod@divisor 0070  
           ___awmod@counter 0074                      pad@buf 002A                      dtoa@fp 002F  
                    fputc@c 0070                      fputs@c 0025                      fputs@i 0026  
                 ?_I2C_Nack 0070                      fputs@s 0020                   ?_I2C_Read 0070  
           ?_DS1307_GetDate 0020                      ltemp0a 0080                   ?_I2C_Stop 0070  
           ?_DS1307_GetTime 0020          __end_of_BCD_To_Dec 0F4E                      putch@c 0070  
                    ttemp0a 007F            __end_of_vfprintf 0F90                   ??_sprintf 0054  
                    wtemp0a 007F             ?_DS1307_SetDate 0020             ?_DS1307_SetTime 0020  
   __end_of__initialization 07FC           __end_of_Lcd_Clear 0F22         ___bmul@multiplicand 0070  
            __pcstackCOMMON 0070                  _dht11_byte 0067               __end_of_fputc 0532  
             __end_of_fputs 00B9               __end_of_putch 0053              _Lcd_Set_Cursor 0FD8  
                ??_I2C_Nack 0070              _OPTION_REGbits 0081                  ??_I2C_Read 0070  
                ??_I2C_Stop 0070                   ?_Lcd_Init 0070                     ??_fputc 0074  
                   ??_fputs 0023                     ??_putch 0070               ??_DS1307_Init 007E  
                __pbssBANK0 0067                  __pbssBANK1 00C8          DS1307_SetDate@year 0021  
                __pmaintext 06AB                     ?___bmul 0070                     ?___wmul 0070  
                   _I2C_Ack 0EE2      __end_of_Lcd_Set_Cursor 1000               ??_I2C_Restart 0070  
                ??_Lcd_Init 0024                     _SSPCON2 0091                     _SSPSTAT 0094  
                __stringtab 0003              _Lcd_Write_Char 0227                     _Lcd_Cmd 01DE  
                 _I2C_Start 0ECE                   _I2C_Write 0F03         __end_of_DS1307_Init 0123  
        DS1307_SetTime@hour 0022               Lcd_Cmd@data_l 0023               Lcd_Cmd@data_u 0022  
                   ___awdiv 03CE                     ___awmod 0316                   ?_vfprintf 0047  
              ??_Dec_To_BCD 0078             ?_Lcd_Set_Cursor 0024                     __ptext1 0F90  
                   __ptext2 0F6D                     __ptext3 0532                     __ptext4 02C3  
                   __ptext5 0FB3                     __ptext6 05E8                     __ptext7 0270  
                   __ptext8 008E                     __ptext9 0498       read_prec_or_width@fmt 0076  
          ___awmod@dividend 0072                     main@dia 00C5                     main@ano 00C7  
                   _sprintf 0F90                     main@mes 00C6                     main@min 00C3  
                   main@seg 00C4                     clrloop0 0EBD         __end_of_I2C_Restart 0ECE  
    __end_of_Lcd_Write_Char 0270        end_of_initialization 07FC                     fputc@fp 0072  
                   fputs@fp 0021          _read_prec_or_width 02C3                  ?_I2C_Start 0070  
        __end_of_Dec_To_BCD 00EA                  ?_I2C_Write 0070           __end_of_vfpfcnvrt 05E8  
       ?_read_prec_or_width 0076            vfpfcnvrt@convarg 0041                  ??_vfprintf 007E  
          ??_DS1307_GetDate 007E            ??_DS1307_GetTime 007E                   _PORTAbits 0005  
          ??_DS1307_SetDate 007E            ??_DS1307_SetTime 007E                   _TRISAbits 0085  
                 _TRISCbits 0087        ??_read_prec_or_width 0078             ?_Lcd_Write_Char 0070  
               _DS1307_Init 00EA                  main@linea1 00A0                  main@linea2 00B1  
                 _Lcd_Clear 0F11           Dec_To_BCD@decenas 007A              __end_of___bmul 0066  
               vfpfcnvrt@ap 003E                 vfpfcnvrt@cp 0046                 vfpfcnvrt@fp 003B  
            __end_of___wmul 0FD8            _Lcd_Write_String 0066       Lcd_Set_Cursor@address 0026  
               _I2C_Restart 0EC4         start_initialization 07EB           ??_I2C_Init_Master 0070  
               __end_of_abs 0F33                 __end_of_pad 02C3       I2C_Init_Master@sp_i2c 0070  
               ??_I2C_Start 0070                 ??_I2C_Write 007D                 vfprintf@fmt 0049  
                ?_Lcd_Clear 0070                    ??___bmul 0071                    ??___wmul 0074  
                  ?_I2C_Ack 0070             Lcd_Write_Char@c 0021        Lcd_Write_Char@data_l 0023  
      Lcd_Write_Char@data_u 0022                   ___latbits 0002               __pcstackBANK0 0020  
             __pcstackBANK1 00A0                   _dht11_aux 006F         DS1307_SetDate@month 0020  
                  ?_Lcd_Cmd 0070            ??_Lcd_Set_Cursor 007E                    ?___awdiv 0070  
                  ?___awmod 0070                   __pstrings 0003                    _I2C_Nack 0EED  
                  _I2C_Read 0EF8                    _I2C_Stop 0ED8                    ?_sprintf 004C  
            ___wmul@product 0074                   clear_ram0 0EBC                    _PIR1bits 000C  
               ??_Lcd_Clear 0024                   _vfpfcnvrt 0532                 __stringbase 0012  
         ___wmul@multiplier 0070            ??_Lcd_Write_Char 0020                    _Lcd_Init 0123  
              ?_DS1307_Init 0070    __end_of_Lcd_Write_String 008E                  _BCD_To_Dec 0F33  
                vfprintf@ap 004A                  vfprintf@fp 0047             _I2C_Init_Master 0F4E  
             I2C_Write@data 007D                  ?_vfpfcnvrt 003B          __end_of__stringtab 0013  
              ?_I2C_Restart 0070                  sprintf@fmt 004D         DS1307_GetDate@month 0021  
                  _dtoa$911 0033                    __ptext10 0052                    __ptext11 0F22  
                  __ptext20 015C                    __ptext12 0066                    __ptext21 00B9  
                  __ptext13 0227                    __ptext30 0EC4                    __ptext22 0316  
                  __ptext14 0FD8                    __ptext31 0EF8                    __ptext23 03CE  
                  __ptext15 0123                    __ptext32 0EED                    __ptext24 00EA  
                  __ptext16 0F11                    __ptext33 0EE2                    __ptext25 0431  
                  __ptext17 01DE                    __ptext34 0F33                    __ptext26 036D  
                  __ptext18 0F4E                    __ptext35 0053                    __ptext27 0F03  
                  __ptext19 019D                    __ptext28 0ED8                    __ptext29 0ECE  
                  _vfprintf 0F6D                    main@hora 00C2                   sprintf@ap 0055  
        DS1307_GetDate@year 0022                 ?_BCD_To_Dec 0070     __end_of_I2C_Init_Master 0F6D  
                Lcd_Cmd@cmd 0021                   stringcode 000D                 ??_vfpfcnvrt 003F  
                  sprintf@f 0056                    sprintf@s 004C           DS1307_GetDate@day 0020  
                  stringdir 000D                    stringtab 0003                 _SSPCON2bits 0091  
         Lcd_Set_Cursor@col 0025           Lcd_Set_Cursor@row 0024          DS1307_GetTime@hour 0020  
        DS1307_GetTime@temp 0023           DS1307_GetTime@min 0021           DS1307_GetTime@sec 0022  
