

Microchip MPLAB XC8 Assembler V3.10 build 20250813170317 
                                                                                               Wed Nov  5 07:32:32 2025

Microchip MPLAB XC8 C Compiler v3.10 (Free license) build 20250813170317 Og1 
     1                           	processor	16F887
     2                           	pagewidth 120
     3                           	opt	flic
     4                           	psect	strings,global,class=STRING,space=0,delta=2,noexec
     5                           	psect	cinit,global,class=CODE,space=0,merge=1,delta=2
     6                           	psect	bssBANK0,global,class=BANK0,space=1,delta=1,noexec
     7                           	psect	bssBANK1,global,class=BANK1,space=1,delta=1,noexec
     8                           	psect	bssBANK3,global,class=BANK3,space=1,delta=1,noexec
     9                           	psect	clrtext,global,class=CODE,space=0,delta=2
    10                           	psect	cstackBANK1,global,class=BANK1,space=1,delta=1,noexec
    11                           	psect	cstackCOMMON,global,class=COMMON,space=1,delta=1,noexec
    12                           	psect	cstackBANK0,global,class=BANK0,space=1,delta=1,noexec
    13                           	psect	maintext,global,class=CODE,space=0,split=1,delta=2
    14                           	psect	text1,local,class=CODE,space=0,merge=1,delta=2
    15                           	psect	text2,local,class=CODE,space=0,merge=1,delta=2,group=3
    16                           	psect	text3,local,class=CODE,space=0,merge=1,delta=2,group=1
    17                           	psect	text4,local,class=CODE,space=0,merge=1,delta=2,group=1
    18                           	psect	text5,local,class=CODE,space=0,merge=1,delta=2,group=3
    19                           	psect	text6,local,class=CODE,space=0,merge=1,delta=2,group=3
    20                           	psect	text7,local,class=CODE,space=0,merge=1,delta=2,group=3
    21                           	psect	text8,local,class=CODE,space=0,merge=1,delta=2,group=2
    22                           	psect	text9,local,class=CODE,space=0,merge=1,delta=2,group=2
    23                           	psect	text10,local,class=CODE,space=0,merge=1,delta=2,group=2
    24                           	psect	text11,local,class=CODE,space=0,merge=1,delta=2,group=2
    25                           	psect	text12,local,class=CODE,space=0,merge=1,delta=2,group=2
    26                           	psect	text13,local,class=CODE,space=0,merge=1,delta=2,group=2
    27                           	psect	text14,local,class=CODE,space=0,merge=1,delta=2,group=2
    28                           	psect	text15,local,class=CODE,space=0,merge=1,delta=2,group=2
    29                           	psect	text16,local,class=CODE,space=0,merge=1,delta=2,group=2
    30                           	psect	text17,local,class=CODE,space=0,merge=1,delta=2
    31                           	psect	text18,local,class=CODE,space=0,merge=1,delta=2
    32                           	psect	text19,local,class=CODE,space=0,merge=1,delta=2,group=2
    33                           	psect	text20,local,class=CODE,space=0,merge=1,delta=2,group=2
    34                           	psect	text21,local,class=CODE,space=0,merge=1,delta=2,group=2
    35                           	psect	text22,local,class=CODE,space=0,merge=1,delta=2
    36                           	psect	text23,local,class=CODE,space=0,merge=1,delta=2
    37                           	psect	text24,local,class=CODE,space=0,merge=1,delta=2
    38                           	psect	text25,local,class=CODE,space=0,merge=1,delta=2
    39                           	psect	text26,local,class=CODE,space=0,merge=1,delta=2
    40                           	psect	text27,local,class=CODE,space=0,merge=1,delta=2
    41                           	psect	text28,local,class=CODE,space=0,merge=1,delta=2
    42                           	psect	text29,local,class=CODE,space=0,merge=1,delta=2
    43                           	psect	text30,local,class=CODE,space=0,merge=1,delta=2
    44                           	psect	text31,local,class=CODE,space=0,merge=1,delta=2
    45                           	psect	text32,local,class=CODE,space=0,merge=1,delta=2
    46                           	psect	config,global,abs,ovrld,class=CONFIG,space=4,delta=2,noexec
    47                           	dabs	1,0x7E,2
    48     0000                     
    49                           ; Generated 12/10/2023 GMT
    50                           ; 
    51                           ; Copyright © 2023, Microchip Technology Inc. and its subsidiaries ("Microchip")
    52                           ; All rights reserved.
    53                           ; 
    54                           ; This software is developed by Microchip Technology Inc. and its subsidiaries ("Microch
      +                          ip").
    55                           ; 
    56                           ; Redistribution and use in source and binary forms, with or without modification, are
    57                           ; permitted provided that the following conditions are met:
    58                           ; 
    59                           ;     1. Redistributions of source code must retain the above copyright notice, this lis
      +                          t of
    60                           ;        conditions and the following disclaimer.
    61                           ; 
    62                           ;     2. Redistributions in binary form must reproduce the above copyright notice, this 
      +                          list
    63                           ;        of conditions and the following disclaimer in the documentation and/or other
    64                           ;        materials provided with the distribution. Publication is not required when
    65                           ;        this file is used in an embedded application.
    66                           ; 
    67                           ;     3. Microchip's name may not be used to endorse or promote products derived from th
      +                          is
    68                           ;        software without specific prior written permission.
    69                           ; 
    70                           ; THIS SOFTWARE IS PROVIDED BY MICROCHIP "AS IS" AND ANY EXPRESS OR IMPLIED WARRANTIES,
    71                           ; INCLUDING, BUT NOT LIMITED TO, THE IMPLIED WARRANTIES OF MERCHANTABILITY AND FITNESS F
      +                          OR
    72                           ; PURPOSE ARE DISCLAIMED.  IN NO EVENT SHALL MICROCHIP BE LIABLE FOR ANY DIRECT, INDIREC
      +                          T,
    73                           ; INCIDENTAL, SPECIAL, EXEMPLARY, OR CONSEQUENTIAL DAMAGES (INCLUDING BUT NOT LIMITED TO
    74                           ; PROCUREMENT OF SUBSTITUTE GOODS OR SERVICES; LOSS OF USE, DATA OR PROFITS; OR BUSINESS
    75                           ; INTERRUPTION) HOWSOEVER CAUSED AND ON ANY THEORY OF LIABILITY, WHETHER IN CONTRACT, ST
      +                          RICT
    76                           ; LIABILITY, OR TORT (INCLUDING NEGLIGENCE OR OTHERWISE) ARISING IN ANY WAY OUT OF THE U
      +                          SE OF
    77                           ; THIS SOFTWARE, EVEN IF ADVISED OF THE POSSIBILITY OF SUCH DAMAGE.
    78                           ; 
    79                           ; 
    80                           ; Code-generator required, PIC16F887 Definitions
    81                           ; 
    82                           ; SFR Addresses
    83     0004                     fsr             equ	4
    84     0004                     fsr0            equ	4
    85     0000                     indf            equ	0
    86     0000                     indf0           equ	0
    87     0002                     pc              equ	2
    88     0002                     pcl             equ	2
    89     000A                     pclath          equ	10
    90     0003                     status          equ	3
    91     0000                     INDF            equ	0	;# 
    92     0001                     TMR0            equ	1	;# 
    93     0002                     PCL             equ	2	;# 
    94     0003                     STATUS          equ	3	;# 
    95     0004                     FSR             equ	4	;# 
    96     0005                     PORTA           equ	5	;# 
    97     0006                     PORTB           equ	6	;# 
    98     0007                     PORTC           equ	7	;# 
    99     0008                     PORTD           equ	8	;# 
   100     0009                     PORTE           equ	9	;# 
   101     000A                     PCLATH          equ	10	;# 
   102     000B                     INTCON          equ	11	;# 
   103     000C                     PIR1            equ	12	;# 
   104     000D                     PIR2            equ	13	;# 
   105     000E                     TMR1            equ	14	;# 
   106     000E                     TMR1L           equ	14	;# 
   107     000F                     TMR1H           equ	15	;# 
   108     0010                     T1CON           equ	16	;# 
   109     0011                     TMR2            equ	17	;# 
   110     0012                     T2CON           equ	18	;# 
   111     0013                     SSPBUF          equ	19	;# 
   112     0014                     SSPCON          equ	20	;# 
   113     0015                     CCPR1           equ	21	;# 
   114     0015                     CCPR1L          equ	21	;# 
   115     0016                     CCPR1H          equ	22	;# 
   116     0017                     CCP1CON         equ	23	;# 
   117     0018                     RCSTA           equ	24	;# 
   118     0019                     TXREG           equ	25	;# 
   119     001A                     RCREG           equ	26	;# 
   120     001B                     CCPR2           equ	27	;# 
   121     001B                     CCPR2L          equ	27	;# 
   122     001C                     CCPR2H          equ	28	;# 
   123     001D                     CCP2CON         equ	29	;# 
   124     001E                     ADRESH          equ	30	;# 
   125     001F                     ADCON0          equ	31	;# 
   126     0081                     OPTION_REG      equ	129	;# 
   127     0085                     TRISA           equ	133	;# 
   128     0086                     TRISB           equ	134	;# 
   129     0087                     TRISC           equ	135	;# 
   130     0088                     TRISD           equ	136	;# 
   131     0089                     TRISE           equ	137	;# 
   132     008C                     PIE1            equ	140	;# 
   133     008D                     PIE2            equ	141	;# 
   134     008E                     PCON            equ	142	;# 
   135     008F                     OSCCON          equ	143	;# 
   136     0090                     OSCTUNE         equ	144	;# 
   137     0091                     SSPCON2         equ	145	;# 
   138     0092                     PR2             equ	146	;# 
   139     0093                     SSPADD          equ	147	;# 
   140     0093                     SSPMSK          equ	147	;# 
   141     0093                     MSK             equ	147	;# 
   142     0094                     SSPSTAT         equ	148	;# 
   143     0095                     WPUB            equ	149	;# 
   144     0096                     IOCB            equ	150	;# 
   145     0097                     VRCON           equ	151	;# 
   146     0098                     TXSTA           equ	152	;# 
   147     0099                     SPBRG           equ	153	;# 
   148     009A                     SPBRGH          equ	154	;# 
   149     009B                     PWM1CON         equ	155	;# 
   150     009C                     ECCPAS          equ	156	;# 
   151     009D                     PSTRCON         equ	157	;# 
   152     009E                     ADRESL          equ	158	;# 
   153     009F                     ADCON1          equ	159	;# 
   154     0105                     WDTCON          equ	261	;# 
   155     0107                     CM1CON0         equ	263	;# 
   156     0108                     CM2CON0         equ	264	;# 
   157     0109                     CM2CON1         equ	265	;# 
   158     010C                     EEDATA          equ	268	;# 
   159     010C                     EEDAT           equ	268	;# 
   160     010D                     EEADR           equ	269	;# 
   161     010E                     EEDATH          equ	270	;# 
   162     010F                     EEADRH          equ	271	;# 
   163     0185                     SRCON           equ	389	;# 
   164     0187                     BAUDCTL         equ	391	;# 
   165     0188                     ANSEL           equ	392	;# 
   166     0189                     ANSELH          equ	393	;# 
   167     018C                     EECON1          equ	396	;# 
   168     018D                     EECON2          equ	397	;# 
   169     0000                     INDF            equ	0	;# 
   170     0001                     TMR0            equ	1	;# 
   171     0002                     PCL             equ	2	;# 
   172     0003                     STATUS          equ	3	;# 
   173     0004                     FSR             equ	4	;# 
   174     0005                     PORTA           equ	5	;# 
   175     0006                     PORTB           equ	6	;# 
   176     0007                     PORTC           equ	7	;# 
   177     0008                     PORTD           equ	8	;# 
   178     0009                     PORTE           equ	9	;# 
   179     000A                     PCLATH          equ	10	;# 
   180     000B                     INTCON          equ	11	;# 
   181     000C                     PIR1            equ	12	;# 
   182     000D                     PIR2            equ	13	;# 
   183     000E                     TMR1            equ	14	;# 
   184     000E                     TMR1L           equ	14	;# 
   185     000F                     TMR1H           equ	15	;# 
   186     0010                     T1CON           equ	16	;# 
   187     0011                     TMR2            equ	17	;# 
   188     0012                     T2CON           equ	18	;# 
   189     0013                     SSPBUF          equ	19	;# 
   190     0014                     SSPCON          equ	20	;# 
   191     0015                     CCPR1           equ	21	;# 
   192     0015                     CCPR1L          equ	21	;# 
   193     0016                     CCPR1H          equ	22	;# 
   194     0017                     CCP1CON         equ	23	;# 
   195     0018                     RCSTA           equ	24	;# 
   196     0019                     TXREG           equ	25	;# 
   197     001A                     RCREG           equ	26	;# 
   198     001B                     CCPR2           equ	27	;# 
   199     001B                     CCPR2L          equ	27	;# 
   200     001C                     CCPR2H          equ	28	;# 
   201     001D                     CCP2CON         equ	29	;# 
   202     001E                     ADRESH          equ	30	;# 
   203     001F                     ADCON0          equ	31	;# 
   204     0081                     OPTION_REG      equ	129	;# 
   205     0085                     TRISA           equ	133	;# 
   206     0086                     TRISB           equ	134	;# 
   207     0087                     TRISC           equ	135	;# 
   208     0088                     TRISD           equ	136	;# 
   209     0089                     TRISE           equ	137	;# 
   210     008C                     PIE1            equ	140	;# 
   211     008D                     PIE2            equ	141	;# 
   212     008E                     PCON            equ	142	;# 
   213     008F                     OSCCON          equ	143	;# 
   214     0090                     OSCTUNE         equ	144	;# 
   215     0091                     SSPCON2         equ	145	;# 
   216     0092                     PR2             equ	146	;# 
   217     0093                     SSPADD          equ	147	;# 
   218     0093                     SSPMSK          equ	147	;# 
   219     0093                     MSK             equ	147	;# 
   220     0094                     SSPSTAT         equ	148	;# 
   221     0095                     WPUB            equ	149	;# 
   222     0096                     IOCB            equ	150	;# 
   223     0097                     VRCON           equ	151	;# 
   224     0098                     TXSTA           equ	152	;# 
   225     0099                     SPBRG           equ	153	;# 
   226     009A                     SPBRGH          equ	154	;# 
   227     009B                     PWM1CON         equ	155	;# 
   228     009C                     ECCPAS          equ	156	;# 
   229     009D                     PSTRCON         equ	157	;# 
   230     009E                     ADRESL          equ	158	;# 
   231     009F                     ADCON1          equ	159	;# 
   232     0105                     WDTCON          equ	261	;# 
   233     0107                     CM1CON0         equ	263	;# 
   234     0108                     CM2CON0         equ	264	;# 
   235     0109                     CM2CON1         equ	265	;# 
   236     010C                     EEDATA          equ	268	;# 
   237     010C                     EEDAT           equ	268	;# 
   238     010D                     EEADR           equ	269	;# 
   239     010E                     EEDATH          equ	270	;# 
   240     010F                     EEADRH          equ	271	;# 
   241     0185                     SRCON           equ	389	;# 
   242     0187                     BAUDCTL         equ	391	;# 
   243     0188                     ANSEL           equ	392	;# 
   244     0189                     ANSELH          equ	393	;# 
   245     018C                     EECON1          equ	396	;# 
   246     018D                     EECON2          equ	397	;# 
   247     0000                     INDF            equ	0	;# 
   248     0001                     TMR0            equ	1	;# 
   249     0002                     PCL             equ	2	;# 
   250     0003                     STATUS          equ	3	;# 
   251     0004                     FSR             equ	4	;# 
   252     0005                     PORTA           equ	5	;# 
   253     0006                     PORTB           equ	6	;# 
   254     0007                     PORTC           equ	7	;# 
   255     0008                     PORTD           equ	8	;# 
   256     0009                     PORTE           equ	9	;# 
   257     000A                     PCLATH          equ	10	;# 
   258     000B                     INTCON          equ	11	;# 
   259     000C                     PIR1            equ	12	;# 
   260     000D                     PIR2            equ	13	;# 
   261     000E                     TMR1            equ	14	;# 
   262     000E                     TMR1L           equ	14	;# 
   263     000F                     TMR1H           equ	15	;# 
   264     0010                     T1CON           equ	16	;# 
   265     0011                     TMR2            equ	17	;# 
   266     0012                     T2CON           equ	18	;# 
   267     0013                     SSPBUF          equ	19	;# 
   268     0014                     SSPCON          equ	20	;# 
   269     0015                     CCPR1           equ	21	;# 
   270     0015                     CCPR1L          equ	21	;# 
   271     0016                     CCPR1H          equ	22	;# 
   272     0017                     CCP1CON         equ	23	;# 
   273     0018                     RCSTA           equ	24	;# 
   274     0019                     TXREG           equ	25	;# 
   275     001A                     RCREG           equ	26	;# 
   276     001B                     CCPR2           equ	27	;# 
   277     001B                     CCPR2L          equ	27	;# 
   278     001C                     CCPR2H          equ	28	;# 
   279     001D                     CCP2CON         equ	29	;# 
   280     001E                     ADRESH          equ	30	;# 
   281     001F                     ADCON0          equ	31	;# 
   282     0081                     OPTION_REG      equ	129	;# 
   283     0085                     TRISA           equ	133	;# 
   284     0086                     TRISB           equ	134	;# 
   285     0087                     TRISC           equ	135	;# 
   286     0088                     TRISD           equ	136	;# 
   287     0089                     TRISE           equ	137	;# 
   288     008C                     PIE1            equ	140	;# 
   289     008D                     PIE2            equ	141	;# 
   290     008E                     PCON            equ	142	;# 
   291     008F                     OSCCON          equ	143	;# 
   292     0090                     OSCTUNE         equ	144	;# 
   293     0091                     SSPCON2         equ	145	;# 
   294     0092                     PR2             equ	146	;# 
   295     0093                     SSPADD          equ	147	;# 
   296     0093                     SSPMSK          equ	147	;# 
   297     0093                     MSK             equ	147	;# 
   298     0094                     SSPSTAT         equ	148	;# 
   299     0095                     WPUB            equ	149	;# 
   300     0096                     IOCB            equ	150	;# 
   301     0097                     VRCON           equ	151	;# 
   302     0098                     TXSTA           equ	152	;# 
   303     0099                     SPBRG           equ	153	;# 
   304     009A                     SPBRGH          equ	154	;# 
   305     009B                     PWM1CON         equ	155	;# 
   306     009C                     ECCPAS          equ	156	;# 
   307     009D                     PSTRCON         equ	157	;# 
   308     009E                     ADRESL          equ	158	;# 
   309     009F                     ADCON1          equ	159	;# 
   310     0105                     WDTCON          equ	261	;# 
   311     0107                     CM1CON0         equ	263	;# 
   312     0108                     CM2CON0         equ	264	;# 
   313     0109                     CM2CON1         equ	265	;# 
   314     010C                     EEDATA          equ	268	;# 
   315     010C                     EEDAT           equ	268	;# 
   316     010D                     EEADR           equ	269	;# 
   317     010E                     EEDATH          equ	270	;# 
   318     010F                     EEADRH          equ	271	;# 
   319     0185                     SRCON           equ	389	;# 
   320     0187                     BAUDCTL         equ	391	;# 
   321     0188                     ANSEL           equ	392	;# 
   322     0189                     ANSELH          equ	393	;# 
   323     018C                     EECON1          equ	396	;# 
   324     018D                     EECON2          equ	397	;# 
   325     0000                     INDF            equ	0	;# 
   326     0001                     TMR0            equ	1	;# 
   327     0002                     PCL             equ	2	;# 
   328     0003                     STATUS          equ	3	;# 
   329     0004                     FSR             equ	4	;# 
   330     0005                     PORTA           equ	5	;# 
   331     0006                     PORTB           equ	6	;# 
   332     0007                     PORTC           equ	7	;# 
   333     0008                     PORTD           equ	8	;# 
   334     0009                     PORTE           equ	9	;# 
   335     000A                     PCLATH          equ	10	;# 
   336     000B                     INTCON          equ	11	;# 
   337     000C                     PIR1            equ	12	;# 
   338     000D                     PIR2            equ	13	;# 
   339     000E                     TMR1            equ	14	;# 
   340     000E                     TMR1L           equ	14	;# 
   341     000F                     TMR1H           equ	15	;# 
   342     0010                     T1CON           equ	16	;# 
   343     0011                     TMR2            equ	17	;# 
   344     0012                     T2CON           equ	18	;# 
   345     0013                     SSPBUF          equ	19	;# 
   346     0014                     SSPCON          equ	20	;# 
   347     0015                     CCPR1           equ	21	;# 
   348     0015                     CCPR1L          equ	21	;# 
   349     0016                     CCPR1H          equ	22	;# 
   350     0017                     CCP1CON         equ	23	;# 
   351     0018                     RCSTA           equ	24	;# 
   352     0019                     TXREG           equ	25	;# 
   353     001A                     RCREG           equ	26	;# 
   354     001B                     CCPR2           equ	27	;# 
   355     001B                     CCPR2L          equ	27	;# 
   356     001C                     CCPR2H          equ	28	;# 
   357     001D                     CCP2CON         equ	29	;# 
   358     001E                     ADRESH          equ	30	;# 
   359     001F                     ADCON0          equ	31	;# 
   360     0081                     OPTION_REG      equ	129	;# 
   361     0085                     TRISA           equ	133	;# 
   362     0086                     TRISB           equ	134	;# 
   363     0087                     TRISC           equ	135	;# 
   364     0088                     TRISD           equ	136	;# 
   365     0089                     TRISE           equ	137	;# 
   366     008C                     PIE1            equ	140	;# 
   367     008D                     PIE2            equ	141	;# 
   368     008E                     PCON            equ	142	;# 
   369     008F                     OSCCON          equ	143	;# 
   370     0090                     OSCTUNE         equ	144	;# 
   371     0091                     SSPCON2         equ	145	;# 
   372     0092                     PR2             equ	146	;# 
   373     0093                     SSPADD          equ	147	;# 
   374     0093                     SSPMSK          equ	147	;# 
   375     0093                     MSK             equ	147	;# 
   376     0094                     SSPSTAT         equ	148	;# 
   377     0095                     WPUB            equ	149	;# 
   378     0096                     IOCB            equ	150	;# 
   379     0097                     VRCON           equ	151	;# 
   380     0098                     TXSTA           equ	152	;# 
   381     0099                     SPBRG           equ	153	;# 
   382     009A                     SPBRGH          equ	154	;# 
   383     009B                     PWM1CON         equ	155	;# 
   384     009C                     ECCPAS          equ	156	;# 
   385     009D                     PSTRCON         equ	157	;# 
   386     009E                     ADRESL          equ	158	;# 
   387     009F                     ADCON1          equ	159	;# 
   388     0105                     WDTCON          equ	261	;# 
   389     0107                     CM1CON0         equ	263	;# 
   390     0108                     CM2CON0         equ	264	;# 
   391     0109                     CM2CON1         equ	265	;# 
   392     010C                     EEDATA          equ	268	;# 
   393     010C                     EEDAT           equ	268	;# 
   394     010D                     EEADR           equ	269	;# 
   395     010E                     EEDATH          equ	270	;# 
   396     010F                     EEADRH          equ	271	;# 
   397     0185                     SRCON           equ	389	;# 
   398     0187                     BAUDCTL         equ	391	;# 
   399     0188                     ANSEL           equ	392	;# 
   400     0189                     ANSELH          equ	393	;# 
   401     018C                     EECON1          equ	396	;# 
   402     018D                     EECON2          equ	397	;# 
   403     0000                     INDF            equ	0	;# 
   404     0001                     TMR0            equ	1	;# 
   405     0002                     PCL             equ	2	;# 
   406     0003                     STATUS          equ	3	;# 
   407     0004                     FSR             equ	4	;# 
   408     0005                     PORTA           equ	5	;# 
   409     0006                     PORTB           equ	6	;# 
   410     0007                     PORTC           equ	7	;# 
   411     0008                     PORTD           equ	8	;# 
   412     0009                     PORTE           equ	9	;# 
   413     000A                     PCLATH          equ	10	;# 
   414     000B                     INTCON          equ	11	;# 
   415     000C                     PIR1            equ	12	;# 
   416     000D                     PIR2            equ	13	;# 
   417     000E                     TMR1            equ	14	;# 
   418     000E                     TMR1L           equ	14	;# 
   419     000F                     TMR1H           equ	15	;# 
   420     0010                     T1CON           equ	16	;# 
   421     0011                     TMR2            equ	17	;# 
   422     0012                     T2CON           equ	18	;# 
   423     0013                     SSPBUF          equ	19	;# 
   424     0014                     SSPCON          equ	20	;# 
   425     0015                     CCPR1           equ	21	;# 
   426     0015                     CCPR1L          equ	21	;# 
   427     0016                     CCPR1H          equ	22	;# 
   428     0017                     CCP1CON         equ	23	;# 
   429     0018                     RCSTA           equ	24	;# 
   430     0019                     TXREG           equ	25	;# 
   431     001A                     RCREG           equ	26	;# 
   432     001B                     CCPR2           equ	27	;# 
   433     001B                     CCPR2L          equ	27	;# 
   434     001C                     CCPR2H          equ	28	;# 
   435     001D                     CCP2CON         equ	29	;# 
   436     001E                     ADRESH          equ	30	;# 
   437     001F                     ADCON0          equ	31	;# 
   438     0081                     OPTION_REG      equ	129	;# 
   439     0085                     TRISA           equ	133	;# 
   440     0086                     TRISB           equ	134	;# 
   441     0087                     TRISC           equ	135	;# 
   442     0088                     TRISD           equ	136	;# 
   443     0089                     TRISE           equ	137	;# 
   444     008C                     PIE1            equ	140	;# 
   445     008D                     PIE2            equ	141	;# 
   446     008E                     PCON            equ	142	;# 
   447     008F                     OSCCON          equ	143	;# 
   448     0090                     OSCTUNE         equ	144	;# 
   449     0091                     SSPCON2         equ	145	;# 
   450     0092                     PR2             equ	146	;# 
   451     0093                     SSPADD          equ	147	;# 
   452     0093                     SSPMSK          equ	147	;# 
   453     0093                     MSK             equ	147	;# 
   454     0094                     SSPSTAT         equ	148	;# 
   455     0095                     WPUB            equ	149	;# 
   456     0096                     IOCB            equ	150	;# 
   457     0097                     VRCON           equ	151	;# 
   458     0098                     TXSTA           equ	152	;# 
   459     0099                     SPBRG           equ	153	;# 
   460     009A                     SPBRGH          equ	154	;# 
   461     009B                     PWM1CON         equ	155	;# 
   462     009C                     ECCPAS          equ	156	;# 
   463     009D                     PSTRCON         equ	157	;# 
   464     009E                     ADRESL          equ	158	;# 
   465     009F                     ADCON1          equ	159	;# 
   466     0105                     WDTCON          equ	261	;# 
   467     0107                     CM1CON0         equ	263	;# 
   468     0108                     CM2CON0         equ	264	;# 
   469     0109                     CM2CON1         equ	265	;# 
   470     010C                     EEDATA          equ	268	;# 
   471     010C                     EEDAT           equ	268	;# 
   472     010D                     EEADR           equ	269	;# 
   473     010E                     EEDATH          equ	270	;# 
   474     010F                     EEADRH          equ	271	;# 
   475     0185                     SRCON           equ	389	;# 
   476     0187                     BAUDCTL         equ	391	;# 
   477     0188                     ANSEL           equ	392	;# 
   478     0189                     ANSELH          equ	393	;# 
   479     018C                     EECON1          equ	396	;# 
   480     018D                     EECON2          equ	397	;# 
   481     0000                     INDF            equ	0	;# 
   482     0001                     TMR0            equ	1	;# 
   483     0002                     PCL             equ	2	;# 
   484     0003                     STATUS          equ	3	;# 
   485     0004                     FSR             equ	4	;# 
   486     0005                     PORTA           equ	5	;# 
   487     0006                     PORTB           equ	6	;# 
   488     0007                     PORTC           equ	7	;# 
   489     0008                     PORTD           equ	8	;# 
   490     0009                     PORTE           equ	9	;# 
   491     000A                     PCLATH          equ	10	;# 
   492     000B                     INTCON          equ	11	;# 
   493     000C                     PIR1            equ	12	;# 
   494     000D                     PIR2            equ	13	;# 
   495     000E                     TMR1            equ	14	;# 
   496     000E                     TMR1L           equ	14	;# 
   497     000F                     TMR1H           equ	15	;# 
   498     0010                     T1CON           equ	16	;# 
   499     0011                     TMR2            equ	17	;# 
   500     0012                     T2CON           equ	18	;# 
   501     0013                     SSPBUF          equ	19	;# 
   502     0014                     SSPCON          equ	20	;# 
   503     0015                     CCPR1           equ	21	;# 
   504     0015                     CCPR1L          equ	21	;# 
   505     0016                     CCPR1H          equ	22	;# 
   506     0017                     CCP1CON         equ	23	;# 
   507     0018                     RCSTA           equ	24	;# 
   508     0019                     TXREG           equ	25	;# 
   509     001A                     RCREG           equ	26	;# 
   510     001B                     CCPR2           equ	27	;# 
   511     001B                     CCPR2L          equ	27	;# 
   512     001C                     CCPR2H          equ	28	;# 
   513     001D                     CCP2CON         equ	29	;# 
   514     001E                     ADRESH          equ	30	;# 
   515     001F                     ADCON0          equ	31	;# 
   516     0081                     OPTION_REG      equ	129	;# 
   517     0085                     TRISA           equ	133	;# 
   518     0086                     TRISB           equ	134	;# 
   519     0087                     TRISC           equ	135	;# 
   520     0088                     TRISD           equ	136	;# 
   521     0089                     TRISE           equ	137	;# 
   522     008C                     PIE1            equ	140	;# 
   523     008D                     PIE2            equ	141	;# 
   524     008E                     PCON            equ	142	;# 
   525     008F                     OSCCON          equ	143	;# 
   526     0090                     OSCTUNE         equ	144	;# 
   527     0091                     SSPCON2         equ	145	;# 
   528     0092                     PR2             equ	146	;# 
   529     0093                     SSPADD          equ	147	;# 
   530     0093                     SSPMSK          equ	147	;# 
   531     0093                     MSK             equ	147	;# 
   532     0094                     SSPSTAT         equ	148	;# 
   533     0095                     WPUB            equ	149	;# 
   534     0096                     IOCB            equ	150	;# 
   535     0097                     VRCON           equ	151	;# 
   536     0098                     TXSTA           equ	152	;# 
   537     0099                     SPBRG           equ	153	;# 
   538     009A                     SPBRGH          equ	154	;# 
   539     009B                     PWM1CON         equ	155	;# 
   540     009C                     ECCPAS          equ	156	;# 
   541     009D                     PSTRCON         equ	157	;# 
   542     009E                     ADRESL          equ	158	;# 
   543     009F                     ADCON1          equ	159	;# 
   544     0105                     WDTCON          equ	261	;# 
   545     0107                     CM1CON0         equ	263	;# 
   546     0108                     CM2CON0         equ	264	;# 
   547     0109                     CM2CON1         equ	265	;# 
   548     010C                     EEDATA          equ	268	;# 
   549     010C                     EEDAT           equ	268	;# 
   550     010D                     EEADR           equ	269	;# 
   551     010E                     EEDATH          equ	270	;# 
   552     010F                     EEADRH          equ	271	;# 
   553     0185                     SRCON           equ	389	;# 
   554     0187                     BAUDCTL         equ	391	;# 
   555     0188                     ANSEL           equ	392	;# 
   556     0189                     ANSELH          equ	393	;# 
   557     018C                     EECON1          equ	396	;# 
   558     018D                     EECON2          equ	397	;# 
   559     0005                     _PORTAbits      set	5
   560     0001                     _TMR0           set	1
   561     0013                     _SSPBUF         set	19
   562     000C                     _PIR1bits       set	12
   563     0014                     _SSPCON         set	20
   564     0081                     _OPTION_REGbits set	129
   565     0085                     _TRISAbits      set	133
   566     0091                     _SSPCON2bits    set	145
   567     0093                     _SSPADD         set	147
   568     0091                     _SSPCON2        set	145
   569     0094                     _SSPSTAT        set	148
   570     0087                     _TRISCbits      set	135
   571     0189                     _ANSELH         set	393
   572     0188                     _ANSEL          set	392
   573                           
   574                           	psect	strings
   575     0800                     __pstrings:
   576     0800                     stringtab:
   577     0800                     __stringtab:
   578                           
   579                           ;	String table - string pointers are 1 byte each
   580     0800  1BFF               	btfsc	btemp+1,7
   581     0801  280A               	ljmp	stringcode
   582     0802  1383               	bcf	3,7
   583     0803  187F               	btfsc	btemp+1,0
   584     0804  1783               	bsf	3,7
   585     0805  0800               	movf	0,w
   586     0806  0A84               	incf	4,f
   587     0807  1903               	skipnz
   588     0808  0AFF               	incf	btemp+1,f
   589     0809  0008               	return
   590     080A                     stringcode:
   591     080A                     stringdir:
   592     080A  3008               	movlw	high stringdir
   593     080B  008A               	movwf	10
   594     080C  0804               	movf	4,w
   595     080D  0A84               	incf	4,f
   596     080E  0782               	addwf	2,f
   597     080F                     __stringbase:
   598     080F  3400               	retlw	0
   599     0810                     __end_of__stringtab:
   600     0810                     STR_6:
   601     0810  3420               	retlw	32	;' '
   602     0811  3452               	retlw	82	;'R'
   603     0812  3465               	retlw	101	;'e'
   604     0813  3469               	retlw	105	;'i'
   605     0814  346E               	retlw	110	;'n'
   606     0815  3474               	retlw	116	;'t'
   607     0816  3465               	retlw	101	;'e'
   608     0817  346E               	retlw	110	;'n'
   609     0818  3474               	retlw	116	;'t'
   610     0819  3461               	retlw	97	;'a'
   611     081A  346E               	retlw	110	;'n'
   612     081B  3464               	retlw	100	;'d'
   613     081C  346F               	retlw	111	;'o'
   614     081D  342E               	retlw	46	;'.'
   615     081E  342E               	retlw	46	;'.'
   616     081F  3400               	retlw	0
   617     0820                     STR_7:
   618     0820  3420               	retlw	32	;' '
   619     0821  3443               	retlw	67	;'C'
   620     0822  3468               	retlw	104	;'h'
   621     0823  3465               	retlw	101	;'e'
   622     0824  3463               	retlw	99	;'c'
   623     0825  346B               	retlw	107	;'k'
   624     0826  3420               	retlw	32	;' '
   625     0827  3463               	retlw	99	;'c'
   626     0828  346F               	retlw	111	;'o'
   627     0829  346E               	retlw	110	;'n'
   628     082A  3465               	retlw	101	;'e'
   629     082B  3478               	retlw	120	;'x'
   630     082C  3469               	retlw	105	;'i'
   631     082D  346F               	retlw	111	;'o'
   632     082E  346E               	retlw	110	;'n'
   633     082F  3400               	retlw	0
   634     0830                     STR_5:
   635     0830  3420               	retlw	32	;' '
   636     0831  3445               	retlw	69	;'E'
   637     0832  3472               	retlw	114	;'r'
   638     0833  3472               	retlw	114	;'r'
   639     0834  346F               	retlw	111	;'o'
   640     0835  3472               	retlw	114	;'r'
   641     0836  3420               	retlw	32	;' '
   642     0837  3444               	retlw	68	;'D'
   643     0838  3448               	retlw	72	;'H'
   644     0839  3454               	retlw	84	;'T'
   645     083A  3431               	retlw	49	;'1'
   646     083B  3431               	retlw	49	;'1'
   647     083C  3400               	retlw	0
   648     083D                     STR_2:
   649     083D  3420               	retlw	32	;' '
   650     083E  3448               	retlw	72	;'H'
   651     083F  346F               	retlw	111	;'o'
   652     0840  346C               	retlw	108	;'l'
   653     0841  3464               	retlw	100	;'d'
   654     0842  3420               	retlw	32	;' '
   655     0843  346F               	retlw	111	;'o'
   656     0844  346E               	retlw	110	;'n'
   657     0845  342E               	retlw	46	;'.'
   658     0846  342E               	retlw	46	;'.'
   659     0847  342E               	retlw	46	;'.'
   660     0848  3400               	retlw	0
   661     0849                     STR_4:
   662     0849  3448               	retlw	72	;'H'
   663     084A  3475               	retlw	117	;'u'
   664     084B  346D               	retlw	109	;'m'
   665     084C  3420               	retlw	32	;' '
   666     084D  343A               	retlw	58	;':'
   667     084E  3420               	retlw	32	;' '
   668     084F  3400               	retlw	0
   669     0850                     STR_3:
   670     0850  3454               	retlw	84	;'T'
   671     0851  3465               	retlw	101	;'e'
   672     0852  346D               	retlw	109	;'m'
   673     0853  3470               	retlw	112	;'p'
   674     0854  343A               	retlw	58	;':'
   675     0855  3420               	retlw	32	;' '
   676     0856  3400               	retlw	0
   677     0857                     STR_1:
   678     0857  3425               	retlw	37	;'%'
   679     0858  3464               	retlw	100	;'d'
   680     0859  342E               	retlw	46	;'.'
   681     085A  3425               	retlw	37	;'%'
   682     085B  3464               	retlw	100	;'d'
   683     085C  3400               	retlw	0
   684                           
   685                           	psect	cinit
   686     07E7                     start_initialization:	
   687                           ; #config settings
   688                           
   689     07E7                     __initialization:
   690                           
   691                           ; Clear objects allocated to BANK0
   692     07E7  1283               	bcf	3,5	;RP0=0, select bank0
   693     07E8  1303               	bcf	3,6	;RP1=0, select bank0
   694     07E9  01EF               	clrf	__pbssBANK0& (0+127)
   695                           
   696                           ; Clear objects allocated to BANK1
   697     07EA  1383               	bcf	3,7	;select IRP bank0
   698     07EB  30A0               	movlw	low __pbssBANK1
   699     07EC  0084               	movwf	4
   700     07ED  30CA               	movlw	low (__pbssBANK1+42)
   701     07EE  160A  118A  2663  120A  118A  	fcall	clear_ram0
   702                           
   703                           ; Clear objects allocated to BANK3
   704     07F3  1783               	bsf	3,7	;select IRP bank2
   705     07F4  3090               	movlw	low __pbssBANK3
   706     07F5  0084               	movwf	4
   707     07F6  30B0               	movlw	low (__pbssBANK3+32)
   708     07F7  160A  118A  2663  120A  118A  	fcall	clear_ram0
   709     07FC                     end_of_initialization:	
   710                           ;End of C runtime variable initialization code
   711                           
   712     07FC                     __end_of__initialization:
   713     07FC  0183               	clrf	3
   714     07FD  120A  158A  2EA6   	ljmp	_main	;jump to C main() function
   715                           
   716                           	psect	bssBANK0
   717     006F                     __pbssBANK0:
   718     006F                     _dht11_aux:
   719     006F                     	ds	1
   720                           
   721                           	psect	bssBANK1
   722     00A0                     __pbssBANK1:
   723     00A0                     _dht11_byte:
   724     00A0                     	ds	5
   725     00A5                     _width:
   726     00A5                     	ds	2
   727     00A7                     _prec:
   728     00A7                     	ds	2
   729     00A9                     _flags:
   730     00A9                     	ds	1
   731     00AA                     _buffer_hum:
   732     00AA                     	ds	16
   733     00BA                     _buffer_tem:
   734     00BA                     	ds	16
   735                           
   736                           	psect	bssBANK3
   737     0190                     __pbssBANK3:
   738     0190                     _dbuf:
   739     0190                     	ds	32
   740                           
   741                           	psect	clrtext
   742     1663                     clear_ram0:	
   743                           ;	Called with FSR containing the base address, and
   744                           ;	W with the last address+1
   745                           
   746     1663  0064               	clrwdt	;clear the watchdog before getting into this loop
   747     1664                     clrloop0:
   748     1664  0180               	clrf	0	;clear RAM location pointed to by FSR
   749     1665  0A84               	incf	4,f	;increment pointer
   750     1666  0604               	xorwf	4,w	;XOR with final address
   751     1667  1903               	btfsc	3,2	;have we reached the end yet?
   752     1668  3400               	retlw	0	;all done for this memory range, return
   753     1669  0604               	xorwf	4,w	;XOR again to restore value
   754     166A  2E64               	goto	clrloop0	;do the next byte
   755                           
   756                           	psect	cstackBANK1
   757     00CA                     __pcstackBANK1:
   758     00CA                     ??_main:
   759                           
   760                           ; 1 bytes @ 0x0
   761     00CA                     	ds	3
   762     00CD                     main@intentos:
   763                           
   764                           ; 1 bytes @ 0x3
   765     00CD                     	ds	1
   766     00CE                     main@tem:
   767                           
   768                           ; 4 bytes @ 0x4
   769     00CE                     	ds	4
   770     00D2                     main@hum:
   771                           
   772                           ; 4 bytes @ 0x8
   773     00D2                     	ds	4
   774                           
   775                           	psect	cstackCOMMON
   776     0070                     __pcstackCOMMON:
   777     0070                     ?_I2C_Init_Master:
   778     0070                     ?_Lcd_Init:	
   779                           ; 1 bytes @ 0x0
   780                           
   781     0070                     ?_dht11_config:	
   782                           ; 1 bytes @ 0x0
   783                           
   784     0070                     ?_Lcd_Clear:	
   785                           ; 1 bytes @ 0x0
   786                           
   787     0070                     ?_Lcd_Write_Char:	
   788                           ; 1 bytes @ 0x0
   789                           
   790     0070                     ?_Lcd_Cmd:	
   791                           ; 1 bytes @ 0x0
   792                           
   793     0070                     ?_putch:	
   794                           ; 1 bytes @ 0x0
   795                           
   796     0070                     ?_I2C_Start:	
   797                           ; 1 bytes @ 0x0
   798                           
   799     0070                     ?_I2C_Stop:	
   800                           ; 1 bytes @ 0x0
   801                           
   802     0070                     ?_I2C_Write:	
   803                           ; 1 bytes @ 0x0
   804                           
   805     0070                     ?_dht11_read_byte:	
   806                           ; 1 bytes @ 0x0
   807                           
   808     0070                     ?___flge:	
   809                           ; 1 bytes @ 0x0
   810                           
   811     0070                     ?__Umul8_16:	
   812                           ; 1 bit 
   813                           
   814     0070                     ?_fputc:	
   815                           ; 2 bytes @ 0x0
   816                           
   817     0070                     ?_main:	
   818                           ; 2 bytes @ 0x0
   819                           
   820     0070                     ?___wmul:	
   821                           ; 2 bytes @ 0x0
   822                           
   823     0070                     ?___awdiv:	
   824                           ; 2 bytes @ 0x0
   825                           
   826     0070                     ?___awmod:	
   827                           ; 2 bytes @ 0x0
   828                           
   829     0070                     ?___flneg:	
   830                           ; 2 bytes @ 0x0
   831                           
   832     0070                     I2C_Init_Master@sp_i2c:	
   833                           ; 4 bytes @ 0x0
   834                           
   835     0070                     dht11_read_byte@timer_val:	
   836                           ; 1 bytes @ 0x0
   837                           
   838     0070                     __Umul8_16@multiplicand:	
   839                           ; 1 bytes @ 0x0
   840                           
   841     0070                     putch@c:	
   842                           ; 1 bytes @ 0x0
   843                           
   844     0070                     ___wmul@multiplier:	
   845                           ; 1 bytes @ 0x0
   846                           
   847     0070                     ___awdiv@divisor:	
   848                           ; 2 bytes @ 0x0
   849                           
   850     0070                     ___awmod@divisor:	
   851                           ; 2 bytes @ 0x0
   852                           
   853     0070                     fputc@c:	
   854                           ; 2 bytes @ 0x0
   855                           
   856     0070                     ___flge@ff1:	
   857                           ; 2 bytes @ 0x0
   858                           
   859     0070                     ___flneg@f1:	
   860                           ; 4 bytes @ 0x0
   861                           
   862     0070                     ??_I2C_Init_Master:	
   863                           ; 4 bytes @ 0x0
   864                           
   865     0070                     ??_dht11_config:	
   866                           ; 1 bytes @ 0x0
   867                           
   868     0070                     ??_putch:	
   869                           ; 1 bytes @ 0x0
   870                           
   871     0070                     ??_I2C_Start:	
   872                           ; 1 bytes @ 0x0
   873                           
   874     0070                     ??_I2C_Stop:	
   875                           ; 1 bytes @ 0x0
   876                           
   877     0070                     ??_I2C_Write:	
   878                           ; 1 bytes @ 0x0
   879                           
   880     0070                     ??_dht11_read_byte:	
   881                           ; 1 bytes @ 0x0
   882                           
   883                           
   884                           ; 1 bytes @ 0x0
   885     0070                     	ds	1
   886     0071                     I2C_Write@data:
   887     0071                     dht11_read_byte@i:	
   888                           ; 1 bytes @ 0x1
   889                           
   890                           
   891                           ; 1 bytes @ 0x1
   892     0071                     	ds	1
   893     0072                     ___wmul@multiplicand:
   894     0072                     ___awdiv@dividend:	
   895                           ; 2 bytes @ 0x2
   896                           
   897     0072                     ___awmod@dividend:	
   898                           ; 2 bytes @ 0x2
   899                           
   900     0072                     fputc@fp:	
   901                           ; 2 bytes @ 0x2
   902                           
   903     0072                     ??_Lcd_Write_Char:	
   904                           ; 2 bytes @ 0x2
   905                           
   906     0072                     ??_Lcd_Cmd:	
   907                           ; 1 bytes @ 0x2
   908                           
   909     0072                     ??__Umul8_16:	
   910                           ; 1 bytes @ 0x2
   911                           
   912                           
   913                           ; 1 bytes @ 0x2
   914     0072                     	ds	1
   915     0073                     Lcd_Cmd@cmd:
   916     0073                     Lcd_Write_Char@c:	
   917                           ; 1 bytes @ 0x3
   918                           
   919                           
   920                           ; 1 bytes @ 0x3
   921     0073                     	ds	1
   922     0074                     Lcd_Cmd@data_u:
   923     0074                     Lcd_Write_Char@data_u:	
   924                           ; 1 bytes @ 0x4
   925                           
   926     0074                     ___awdiv@counter:	
   927                           ; 1 bytes @ 0x4
   928                           
   929     0074                     ___awmod@counter:	
   930                           ; 1 bytes @ 0x4
   931                           
   932     0074                     ___wmul@product:	
   933                           ; 1 bytes @ 0x4
   934                           
   935     0074                     __Umul8_16@product:	
   936                           ; 2 bytes @ 0x4
   937                           
   938     0074                     ___flge@ff2:	
   939                           ; 2 bytes @ 0x4
   940                           
   941     0074                     ??_fputc:	
   942                           ; 4 bytes @ 0x4
   943                           
   944     0074                     ??___wmul:	
   945                           ; 1 bytes @ 0x4
   946                           
   947     0074                     ??___awdiv:	
   948                           ; 1 bytes @ 0x4
   949                           
   950     0074                     ??___awmod:	
   951                           ; 1 bytes @ 0x4
   952                           
   953     0074                     ??___flneg:	
   954                           ; 1 bytes @ 0x4
   955                           
   956                           
   957                           ; 1 bytes @ 0x4
   958     0074                     	ds	1
   959     0075                     Lcd_Cmd@data_l:
   960     0075                     Lcd_Write_Char@data_l:	
   961                           ; 1 bytes @ 0x5
   962                           
   963     0075                     ___awdiv@sign:	
   964                           ; 1 bytes @ 0x5
   965                           
   966     0075                     ___awmod@sign:	
   967                           ; 1 bytes @ 0x5
   968                           
   969                           
   970                           ; 1 bytes @ 0x5
   971     0075                     	ds	1
   972     0076                     ?_Lcd_Set_Cursor:
   973     0076                     ?_Lcd_Write_String:	
   974                           ; 1 bytes @ 0x6
   975                           
   976     0076                     ?_abs:	
   977                           ; 1 bytes @ 0x6
   978                           
   979     0076                     ?___xxtofl:	
   980                           ; 2 bytes @ 0x6
   981                           
   982     0076                     Lcd_Set_Cursor@row:	
   983                           ; 4 bytes @ 0x6
   984                           
   985     0076                     Lcd_Write_String@str:	
   986                           ; 1 bytes @ 0x6
   987                           
   988     0076                     ___awdiv@quotient:	
   989                           ; 2 bytes @ 0x6
   990                           
   991     0076                     __Umul8_16@word_mpld:	
   992                           ; 2 bytes @ 0x6
   993                           
   994     0076                     abs@a:	
   995                           ; 2 bytes @ 0x6
   996                           
   997     0076                     ___xxtofl@val:	
   998                           ; 2 bytes @ 0x6
   999                           
  1000     0076                     ??_Lcd_Init:	
  1001                           ; 4 bytes @ 0x6
  1002                           
  1003     0076                     ??_Lcd_Clear:	
  1004                           ; 1 bytes @ 0x6
  1005                           
  1006                           
  1007                           ; 1 bytes @ 0x6
  1008     0076                     	ds	1
  1009     0077                     Lcd_Set_Cursor@col:
  1010     0077                     ??_Lcd_Set_Cursor:	
  1011                           ; 1 bytes @ 0x7
  1012                           
  1013                           
  1014                           ; 1 bytes @ 0x7
  1015     0077                     	ds	1
  1016     0078                     Lcd_Set_Cursor@address:
  1017     0078                     __Umul8_16@multiplier:	
  1018                           ; 1 bytes @ 0x8
  1019                           
  1020     0078                     ??_Lcd_Write_String:	
  1021                           ; 1 bytes @ 0x8
  1022                           
  1023     0078                     ??_abs:	
  1024                           ; 1 bytes @ 0x8
  1025                           
  1026     0078                     ??___flge:	
  1027                           ; 1 bytes @ 0x8
  1028                           
  1029                           
  1030                           ; 1 bytes @ 0x8
  1031     0078                     	ds	1
  1032     0079                     ??___flmul:
  1033                           
  1034                           ; 1 bytes @ 0x9
  1035     0079                     	ds	1
  1036     007A                     ??___xxtofl:
  1037                           
  1038                           ; 1 bytes @ 0xA
  1039     007A                     	ds	3
  1040     007D                     vfprintf@cfmt:
  1041     007D                     ??_vfprintf:	
  1042                           ; 1 bytes @ 0xD
  1043                           
  1044                           
  1045                           ; 1 bytes @ 0xD
  1046     007D                     	ds	1
  1047     007E                     ??_float_to_string_opt:
  1048     007E                     ??___flsub:	
  1049                           ; 1 bytes @ 0xE
  1050                           
  1051                           
  1052                           	psect	cstackBANK0
  1053     0020                     __pcstackBANK0:	
  1054                           ; 1 bytes @ 0xE
  1055                           
  1056     0020                     ?_vfpfcnvrt:
  1057     0020                     ?___flmul:	
  1058                           ; 1 bytes @ 0x0
  1059                           
  1060     0020                     ___xxtofl@sign:	
  1061                           ; 4 bytes @ 0x0
  1062                           
  1063     0020                     vfpfcnvrt@fp:	
  1064                           ; 1 bytes @ 0x0
  1065                           
  1066     0020                     ___flmul@b:	
  1067                           ; 2 bytes @ 0x0
  1068                           
  1069                           
  1070                           ; 4 bytes @ 0x0
  1071     0020                     	ds	1
  1072     0021                     ___xxtofl@exp:
  1073                           
  1074                           ; 1 bytes @ 0x1
  1075     0021                     	ds	1
  1076     0022                     vfpfcnvrt@fmt:
  1077     0022                     ___xxtofl@arg:	
  1078                           ; 1 bytes @ 0x2
  1079                           
  1080                           
  1081                           ; 4 bytes @ 0x2
  1082     0022                     	ds	1
  1083     0023                     vfpfcnvrt@ap:
  1084                           
  1085                           ; 1 bytes @ 0x3
  1086     0023                     	ds	1
  1087     0024                     ___flmul@a:
  1088     0024                     ??_vfpfcnvrt:	
  1089                           ; 4 bytes @ 0x4
  1090                           
  1091                           
  1092                           ; 1 bytes @ 0x4
  1093     0024                     	ds	2
  1094     0026                     ?___fldiv:
  1095     0026                     vfpfcnvrt@done:	
  1096                           ; 4 bytes @ 0x6
  1097                           
  1098     0026                     ___fldiv@a:	
  1099                           ; 1 bytes @ 0x6
  1100                           
  1101                           
  1102                           ; 4 bytes @ 0x6
  1103     0026                     	ds	1
  1104     0027                     vfpfcnvrt@cp:
  1105                           
  1106                           ; 1 bytes @ 0x7
  1107     0027                     	ds	1
  1108     0028                     ___flmul@sign:
  1109     0028                     vfpfcnvrt@convarg:	
  1110                           ; 1 bytes @ 0x8
  1111                           
  1112                           
  1113                           ; 4 bytes @ 0x8
  1114     0028                     	ds	1
  1115     0029                     ___flmul@grs:
  1116                           
  1117                           ; 4 bytes @ 0x9
  1118     0029                     	ds	1
  1119     002A                     ___fldiv@b:
  1120                           
  1121                           ; 4 bytes @ 0xA
  1122     002A                     	ds	2
  1123     002C                     vfpfcnvrt@c:
  1124                           
  1125                           ; 1 bytes @ 0xC
  1126     002C                     	ds	1
  1127     002D                     ?_vfprintf:
  1128     002D                     ___flmul@aexp:	
  1129                           ; 2 bytes @ 0xD
  1130                           
  1131     002D                     vfprintf@fp:	
  1132                           ; 1 bytes @ 0xD
  1133                           
  1134                           
  1135                           ; 2 bytes @ 0xD
  1136     002D                     	ds	1
  1137     002E                     ___flmul@bexp:
  1138     002E                     ??___fldiv:	
  1139                           ; 1 bytes @ 0xE
  1140                           
  1141                           
  1142                           ; 1 bytes @ 0xE
  1143     002E                     	ds	1
  1144     002F                     vfprintf@fmt:
  1145     002F                     ___flmul@prod:	
  1146                           ; 1 bytes @ 0xF
  1147                           
  1148                           
  1149                           ; 4 bytes @ 0xF
  1150     002F                     	ds	1
  1151     0030                     vfprintf@ap:
  1152                           
  1153                           ; 1 bytes @ 0x10
  1154     0030                     	ds	1
  1155     0031                     ?_sprintf:
  1156     0031                     sprintf@s:	
  1157                           ; 2 bytes @ 0x11
  1158                           
  1159                           
  1160                           ; 1 bytes @ 0x11
  1161     0031                     	ds	1
  1162     0032                     sprintf@fmt:
  1163                           
  1164                           ; 1 bytes @ 0x12
  1165     0032                     	ds	1
  1166     0033                     ___flmul@temp:
  1167     0033                     ___fldiv@rem:	
  1168                           ; 2 bytes @ 0x13
  1169                           
  1170                           
  1171                           ; 4 bytes @ 0x13
  1172     0033                     	ds	4
  1173     0037                     ___fldiv@sign:
  1174     0037                     ??_sprintf:	
  1175                           ; 1 bytes @ 0x17
  1176                           
  1177                           
  1178                           ; 1 bytes @ 0x17
  1179     0037                     	ds	1
  1180     0038                     sprintf@ap:
  1181     0038                     ___fldiv@new_exp:	
  1182                           ; 1 bytes @ 0x18
  1183                           
  1184                           
  1185                           ; 2 bytes @ 0x18
  1186     0038                     	ds	1
  1187     0039                     sprintf@f:
  1188                           
  1189                           ; 11 bytes @ 0x19
  1190     0039                     	ds	1
  1191     003A                     ___fldiv@grs:
  1192                           
  1193                           ; 4 bytes @ 0x1A
  1194     003A                     	ds	4
  1195     003E                     ___fldiv@bexp:
  1196                           
  1197                           ; 1 bytes @ 0x1E
  1198     003E                     	ds	1
  1199     003F                     ___fldiv@aexp:
  1200                           
  1201                           ; 1 bytes @ 0x1F
  1202     003F                     	ds	1
  1203     0040                     ?___fladd:
  1204     0040                     ___fladd@b:	
  1205                           ; 4 bytes @ 0x20
  1206                           
  1207                           
  1208                           ; 4 bytes @ 0x20
  1209     0040                     	ds	4
  1210     0044                     ___fladd@a:
  1211                           
  1212                           ; 4 bytes @ 0x24
  1213     0044                     	ds	4
  1214     0048                     ??___fladd:
  1215                           
  1216                           ; 1 bytes @ 0x28
  1217     0048                     	ds	8
  1218     0050                     ___fladd@signs:
  1219                           
  1220                           ; 1 bytes @ 0x30
  1221     0050                     	ds	1
  1222     0051                     ___fladd@aexp:
  1223                           
  1224                           ; 1 bytes @ 0x31
  1225     0051                     	ds	1
  1226     0052                     ___fladd@bexp:
  1227                           
  1228                           ; 1 bytes @ 0x32
  1229     0052                     	ds	1
  1230     0053                     ___fladd@grs:
  1231                           
  1232                           ; 1 bytes @ 0x33
  1233     0053                     	ds	1
  1234     0054                     ?_dht11_read:
  1235     0054                     ?___flsub:	
  1236                           ; 1 bytes @ 0x34
  1237                           
  1238     0054                     dht11_read@phum:	
  1239                           ; 4 bytes @ 0x34
  1240                           
  1241     0054                     ___flsub@a:	
  1242                           ; 1 bytes @ 0x34
  1243                           
  1244                           
  1245                           ; 4 bytes @ 0x34
  1246     0054                     	ds	1
  1247     0055                     dht11_read@ptemp:
  1248                           
  1249                           ; 1 bytes @ 0x35
  1250     0055                     	ds	1
  1251     0056                     ??_dht11_read:
  1252                           
  1253                           ; 1 bytes @ 0x36
  1254     0056                     	ds	2
  1255     0058                     ___flsub@b:
  1256                           
  1257                           ; 4 bytes @ 0x38
  1258     0058                     	ds	4
  1259     005C                     ?___fltol:
  1260     005C                     ___fltol@f1:	
  1261                           ; 4 bytes @ 0x3C
  1262                           
  1263                           
  1264                           ; 4 bytes @ 0x3C
  1265     005C                     	ds	2
  1266     005E                     dht11_read@checksum:
  1267                           
  1268                           ; 1 bytes @ 0x3E
  1269     005E                     	ds	1
  1270     005F                     dht11_read@i:
  1271                           
  1272                           ; 1 bytes @ 0x3F
  1273     005F                     	ds	1
  1274     0060                     ??___fltol:
  1275                           
  1276                           ; 1 bytes @ 0x40
  1277     0060                     	ds	4
  1278     0064                     ___fltol@sign1:
  1279                           
  1280                           ; 1 bytes @ 0x44
  1281     0064                     	ds	1
  1282     0065                     ___fltol@exp1:
  1283                           
  1284                           ; 1 bytes @ 0x45
  1285     0065                     	ds	1
  1286     0066                     ?_float_to_string_opt:
  1287     0066                     float_to_string_opt@value:	
  1288                           ; 1 bytes @ 0x46
  1289                           
  1290                           
  1291                           ; 4 bytes @ 0x46
  1292     0066                     	ds	4
  1293     006A                     float_to_string_opt@buffer:
  1294                           
  1295                           ; 1 bytes @ 0x4A
  1296     006A                     	ds	1
  1297     006B                     float_to_string_opt@parte_decimal:
  1298                           
  1299                           ; 2 bytes @ 0x4B
  1300     006B                     	ds	2
  1301     006D                     float_to_string_opt@parte_entera:
  1302                           
  1303                           ; 2 bytes @ 0x4D
  1304     006D                     	ds	2
  1305                           
  1306                           	psect	maintext
  1307     0EA6                     __pmaintext:	
  1308 ;;
  1309 ;;Main: autosize = 0, tempsize = 3, incstack = 0, save=0
  1310 ;;
  1311 ;; *************** function _main *****************
  1312 ;; Defined at:
  1313 ;;		line 47 in file "lcd.c"
  1314 ;; Parameters:    Size  Location     Type
  1315 ;;		None
  1316 ;; Auto vars:     Size  Location     Type
  1317 ;;  hum             4    8[BANK1 ] float 
  1318 ;;  tem             4    4[BANK1 ] float 
  1319 ;;  intentos        1    3[BANK1 ] unsigned char 
  1320 ;; Return value:  Size  Location     Type
  1321 ;;                  2   36[None  ] int 
  1322 ;; Registers used:
  1323 ;;		wreg, fsr0l, fsr0h, status,2, status,0, pclath, btemp1, cstack
  1324 ;; Tracked objects:
  1325 ;;		On entry : B00/0
  1326 ;;		On exit  : 0/0
  1327 ;;		Unchanged: 0/0
  1328 ;; Data sizes:     COMMON   BANK0   BANK1   BANK3   BANK2
  1329 ;;      Params:         0       0       0       0       0
  1330 ;;      Locals:         0       0       9       0       0
  1331 ;;      Temps:          0       0       3       0       0
  1332 ;;      Totals:         0       0      12       0       0
  1333 ;;Total ram usage:       12 bytes
  1334 ;; Hardware stack levels required when called: 6
  1335 ;; This function calls:
  1336 ;;		_I2C_Init_Master
  1337 ;;		_Lcd_Clear
  1338 ;;		_Lcd_Init
  1339 ;;		_Lcd_Set_Cursor
  1340 ;;		_Lcd_Write_Char
  1341 ;;		_Lcd_Write_String
  1342 ;;		_dht11_config
  1343 ;;		_dht11_read
  1344 ;;		_float_to_string_opt
  1345 ;; This function is called by:
  1346 ;;		Startup code after reset
  1347 ;; This function uses a non-reentrant model
  1348 ;;
  1349                           
  1350     0EA6                     _main:	
  1351                           ;psect for function _main
  1352                           
  1353     0EA6                     l3125:	
  1354                           ;incstack = 0
  1355                           ; Regs used in _main: [wreg-fsr0h+status,2+status,0+pclath+btemp1+cstack]
  1356                           
  1357                           
  1358                           ;lcd.c: 49: ;lcd.c: 50:             float_to_string_opt(tem, buffer_tem);
  1359     0EA6  1683               	bsf	3,5	;RP0=1, select bank1
  1360     0EA7  1303               	bcf	3,6	;RP1=0, select bank1
  1361     0EA8  01CD               	clrf	main@intentos^(0+128)
  1362                           
  1363                           ;lcd.c: 53:             Lcd_Clear();
  1364     0EA9  1683               	bsf	3,5	;RP0=1, select bank3
  1365     0EAA  1703               	bsf	3,6	;RP1=1, select bank3
  1366     0EAB  0188               	clrf	8	;volatile
  1367                           
  1368                           ;lcd.c: 54:             _delay((unsigned long)((2)*(20000000/4000.0)));
  1369     0EAC  0189               	clrf	9	;volatile
  1370     0EAD                     l3127:
  1371                           
  1372                           ;lcd.c: 57:             Lcd_Set_Cursor(1, 1);
  1373     0EAD  3080               	movlw	128
  1374     0EAE  160A  118A  26AA  120A  158A  	fcall	_I2C_Init_Master
  1375     0EB3                     l3129:
  1376                           
  1377                           ;lcd.c: 58:             _delay((unsigned long)((50)*(20000000/4000000.0)));
  1378     0EB3  3003               	movlw	3
  1379     0EB4  1683               	bsf	3,5	;RP0=1, select bank1
  1380     0EB5  1303               	bcf	3,6	;RP1=0, select bank1
  1381     0EB6  00CC               	movwf	(??_main^(0+128)+2)
  1382     0EB7  308A               	movlw	138
  1383     0EB8  00CB               	movwf	(??_main^(0+128)+1)
  1384     0EB9  3055               	movlw	85
  1385     0EBA  00CA               	movwf	??_main^(0+128)
  1386     0EBB                     u4427:
  1387     0EBB  0BCA               	decfsz	??_main^(0+128),f
  1388     0EBC  2EBB               	goto	u4427
  1389     0EBD  0BCB               	decfsz	(??_main^(0+128)+1),f
  1390     0EBE  2EBB               	goto	u4427
  1391     0EBF  0BCC               	decfsz	(??_main^(0+128)+2),f
  1392     0EC0  2EBB               	goto	u4427
  1393     0EC1                     l3131:
  1394                           
  1395                           ;lcd.c: 60:             Lcd_Write_String(buffer_tem);
  1396     0EC1  160A  118A  27C9  120A  158A  	fcall	_Lcd_Init
  1397     0EC6                     l3133:
  1398                           
  1399                           ;lcd.c: 61:             Lcd_Write_Char(' ');
  1400     0EC6  3002               	movlw	2
  1401     0EC7  1683               	bsf	3,5	;RP0=1, select bank1
  1402     0EC8  1303               	bcf	3,6	;RP1=0, select bank1
  1403     0EC9  00CC               	movwf	(??_main^(0+128)+2)
  1404     0ECA  3045               	movlw	69
  1405     0ECB  00CB               	movwf	(??_main^(0+128)+1)
  1406     0ECC  30A9               	movlw	169
  1407     0ECD  00CA               	movwf	??_main^(0+128)
  1408     0ECE                     u4437:
  1409     0ECE  0BCA               	decfsz	??_main^(0+128),f
  1410     0ECF  2ECE               	goto	u4437
  1411     0ED0  0BCB               	decfsz	(??_main^(0+128)+1),f
  1412     0ED1  2ECE               	goto	u4437
  1413     0ED2  0BCC               	decfsz	(??_main^(0+128)+2),f
  1414     0ED3  2ECE               	goto	u4437
  1415     0ED4                     l3135:
  1416                           
  1417                           ;lcd.c: 64: 
  1418     0ED4  160A  118A  267F  120A  158A  	fcall	_dht11_config
  1419     0ED9                     l3137:
  1420                           
  1421                           ;lcd.c: 67:             Lcd_Write_String("Hum : ");
  1422     0ED9  01F6               	clrf	Lcd_Set_Cursor@row
  1423     0EDA  0AF6               	incf	Lcd_Set_Cursor@row,f
  1424     0EDB  3002               	movlw	2
  1425     0EDC  160A  118A  277D  120A  158A  	fcall	_Lcd_Set_Cursor
  1426     0EE1                     l3139:
  1427                           
  1428                           ;lcd.c: 68:             Lcd_Write_String(buffer_hum);
  1429     0EE1  302E               	movlw	(low ((STR_2-__stringbase)| (0+32768)))& (0+255)
  1430     0EE2  00F6               	movwf	Lcd_Write_String@str
  1431     0EE3  3080               	movlw	128
  1432     0EE4  00F7               	movwf	Lcd_Write_String@str+1
  1433     0EE5  160A  118A  27A3  120A  158A  	fcall	_Lcd_Write_String
  1434     0EEA                     l3141:
  1435                           
  1436                           ;lcd.c: 69:             Lcd_Write_Char(' ');
  1437     0EEA  3033               	movlw	51
  1438     0EEB  1683               	bsf	3,5	;RP0=1, select bank1
  1439     0EEC  1303               	bcf	3,6	;RP1=0, select bank1
  1440     0EED  00CC               	movwf	(??_main^(0+128)+2)
  1441     0EEE  30BB               	movlw	187
  1442     0EEF  00CB               	movwf	(??_main^(0+128)+1)
  1443     0EF0  30DF               	movlw	223
  1444     0EF1  00CA               	movwf	??_main^(0+128)
  1445     0EF2                     u4447:
  1446     0EF2  0BCA               	decfsz	??_main^(0+128),f
  1447     0EF3  2EF2               	goto	u4447
  1448     0EF4  0BCB               	decfsz	(??_main^(0+128)+1),f
  1449     0EF5  2EF2               	goto	u4447
  1450     0EF6  0BCC               	decfsz	(??_main^(0+128)+2),f
  1451     0EF7  2EF2               	goto	u4447
  1452     0EF8                     l3143:
  1453                           
  1454                           ;lcd.c: 72:         } else {
  1455     0EF8  30D2               	movlw	(low (main@hum| 0))& (0+255)
  1456     0EF9  1283               	bcf	3,5	;RP0=0, select bank0
  1457     0EFA  1303               	bcf	3,6	;RP1=0, select bank0
  1458     0EFB  00D4               	movwf	dht11_read@phum
  1459     0EFC  30CE               	movlw	(low (main@tem| 0))& (0+255)
  1460     0EFD  00D5               	movwf	dht11_read@ptemp
  1461     0EFE  120A  158A  2561  120A  158A  	fcall	_dht11_read
  1462     0F03  3A00               	xorlw	0
  1463     0F04  1903               	skipnz
  1464     0F05  2F07               	goto	u4301
  1465     0F06  2F08               	goto	u4300
  1466     0F07                     u4301:
  1467     0F07  2FB1               	goto	l3179
  1468     0F08                     u4300:
  1469     0F08                     l3145:
  1470                           
  1471                           ;lcd.c: 74:             intentos++;
  1472     0F08  1683               	bsf	3,5	;RP0=1, select bank1
  1473     0F09  1303               	bcf	3,6	;RP1=0, select bank1
  1474     0F0A  01CD               	clrf	main@intentos^(0+128)
  1475     0F0B                     l3147:
  1476                           
  1477                           ;lcd.c: 76:             Lcd_Clear();
  1478     0F0B  0851               	movf	(main@tem+3)^(0+128),w
  1479     0F0C  1283               	bcf	3,5	;RP0=0, select bank0
  1480     0F0D  1303               	bcf	3,6	;RP1=0, select bank0
  1481     0F0E  00E9               	movwf	float_to_string_opt@value+3
  1482     0F0F  1683               	bsf	3,5	;RP0=1, select bank1
  1483     0F10  1303               	bcf	3,6	;RP1=0, select bank1
  1484     0F11  0850               	movf	(main@tem+2)^(0+128),w
  1485     0F12  1283               	bcf	3,5	;RP0=0, select bank0
  1486     0F13  1303               	bcf	3,6	;RP1=0, select bank0
  1487     0F14  00E8               	movwf	float_to_string_opt@value+2
  1488     0F15  1683               	bsf	3,5	;RP0=1, select bank1
  1489     0F16  1303               	bcf	3,6	;RP1=0, select bank1
  1490     0F17  084F               	movf	(main@tem+1)^(0+128),w
  1491     0F18  1283               	bcf	3,5	;RP0=0, select bank0
  1492     0F19  1303               	bcf	3,6	;RP1=0, select bank0
  1493     0F1A  00E7               	movwf	float_to_string_opt@value+1
  1494     0F1B  1683               	bsf	3,5	;RP0=1, select bank1
  1495     0F1C  1303               	bcf	3,6	;RP1=0, select bank1
  1496     0F1D  084E               	movf	main@tem^(0+128),w
  1497     0F1E  1283               	bcf	3,5	;RP0=0, select bank0
  1498     0F1F  1303               	bcf	3,6	;RP1=0, select bank0
  1499     0F20  00E6               	movwf	float_to_string_opt@value
  1500     0F21  30BA               	movlw	(low (_buffer_tem| 0))& (0+255)
  1501     0F22  00EA               	movwf	float_to_string_opt@buffer
  1502     0F23  120A  158A  23BD  120A  158A  	fcall	_float_to_string_opt
  1503     0F28                     l3149:
  1504                           
  1505                           ;lcd.c: 77:             Lcd_Set_Cursor(1,1);
  1506     0F28  1683               	bsf	3,5	;RP0=1, select bank1
  1507     0F29  1303               	bcf	3,6	;RP1=0, select bank1
  1508     0F2A  0855               	movf	(main@hum+3)^(0+128),w
  1509     0F2B  1283               	bcf	3,5	;RP0=0, select bank0
  1510     0F2C  1303               	bcf	3,6	;RP1=0, select bank0
  1511     0F2D  00E9               	movwf	float_to_string_opt@value+3
  1512     0F2E  1683               	bsf	3,5	;RP0=1, select bank1
  1513     0F2F  1303               	bcf	3,6	;RP1=0, select bank1
  1514     0F30  0854               	movf	(main@hum+2)^(0+128),w
  1515     0F31  1283               	bcf	3,5	;RP0=0, select bank0
  1516     0F32  1303               	bcf	3,6	;RP1=0, select bank0
  1517     0F33  00E8               	movwf	float_to_string_opt@value+2
  1518     0F34  1683               	bsf	3,5	;RP0=1, select bank1
  1519     0F35  1303               	bcf	3,6	;RP1=0, select bank1
  1520     0F36  0853               	movf	(main@hum+1)^(0+128),w
  1521     0F37  1283               	bcf	3,5	;RP0=0, select bank0
  1522     0F38  1303               	bcf	3,6	;RP1=0, select bank0
  1523     0F39  00E7               	movwf	float_to_string_opt@value+1
  1524     0F3A  1683               	bsf	3,5	;RP0=1, select bank1
  1525     0F3B  1303               	bcf	3,6	;RP1=0, select bank1
  1526     0F3C  0852               	movf	main@hum^(0+128),w
  1527     0F3D  1283               	bcf	3,5	;RP0=0, select bank0
  1528     0F3E  1303               	bcf	3,6	;RP1=0, select bank0
  1529     0F3F  00E6               	movwf	float_to_string_opt@value
  1530     0F40  30AA               	movlw	(low (_buffer_hum| 0))& (0+255)
  1531     0F41  00EA               	movwf	float_to_string_opt@buffer
  1532     0F42  120A  158A  23BD  120A  158A  	fcall	_float_to_string_opt
  1533     0F47                     l3151:
  1534                           
  1535                           ;lcd.c: 79:             Lcd_Set_Cursor(2,1);
  1536     0F47  160A  118A  2689  120A  158A  	fcall	_Lcd_Clear
  1537     0F4C                     l3153:
  1538                           
  1539                           ;lcd.c: 80: 
  1540     0F4C  300D               	movlw	13
  1541     0F4D  1683               	bsf	3,5	;RP0=1, select bank1
  1542     0F4E  1303               	bcf	3,6	;RP1=0, select bank1
  1543     0F4F  00CB               	movwf	(??_main^(0+128)+1)
  1544     0F50  30FB               	movlw	251
  1545     0F51  00CA               	movwf	??_main^(0+128)
  1546     0F52                     u4457:
  1547     0F52  0BCA               	decfsz	??_main^(0+128),f
  1548     0F53  2F52               	goto	u4457
  1549     0F54  0BCB               	decfsz	(??_main^(0+128)+1),f
  1550     0F55  2F52               	goto	u4457
  1551     0F56                     l3155:
  1552                           
  1553                           ;lcd.c: 83:             } else {
  1554     0F56  01F6               	clrf	Lcd_Set_Cursor@row
  1555     0F57  0AF6               	incf	Lcd_Set_Cursor@row,f
  1556     0F58  3001               	movlw	1
  1557     0F59  160A  118A  277D  120A  158A  	fcall	_Lcd_Set_Cursor
  1558     0F5E                     l3157:
  1559                           
  1560                           ;lcd.c: 84:                 Lcd_Write_String(" Check conexion");
  1561     0F5E  3052               	movlw	82
  1562     0F5F  1683               	bsf	3,5	;RP0=1, select bank1
  1563     0F60  1303               	bcf	3,6	;RP1=0, select bank1
  1564     0F61  00CA               	movwf	??_main^(0+128)
  1565     0F62                     u4467:
  1566     0F62  0BCA               	decfsz	??_main^(0+128),f
  1567     0F63  2F62               	goto	u4467
  1568     0F64  0000               	nop
  1569     0F65                     l3159:
  1570                           
  1571                           ;lcd.c: 85:             }
  1572     0F65  3041               	movlw	(low ((STR_3-__stringbase)| (0+32768)))& (0+255)
  1573     0F66  00F6               	movwf	Lcd_Write_String@str
  1574     0F67  3080               	movlw	128
  1575     0F68  00F7               	movwf	Lcd_Write_String@str+1
  1576     0F69  160A  118A  27A3  120A  158A  	fcall	_Lcd_Write_String
  1577     0F6E                     l3161:
  1578                           
  1579                           ;lcd.c: 86:         }
  1580     0F6E  30BA               	movlw	(low (_buffer_tem| 0))& (0+255)
  1581     0F6F  00F6               	movwf	Lcd_Write_String@str
  1582     0F70  3000               	movlw	0
  1583     0F71  00F7               	movwf	Lcd_Write_String@str+1
  1584     0F72  160A  118A  27A3  120A  158A  	fcall	_Lcd_Write_String
  1585     0F77                     l3163:
  1586                           
  1587                           ;lcd.c: 87: 
  1588     0F77  3020               	movlw	32
  1589     0F78  120A  158A  20D2  120A  158A  	fcall	_Lcd_Write_Char
  1590     0F7D                     l3165:
  1591                           
  1592                           ;lcd.c: 88: 
  1593     0F7D  3043               	movlw	67
  1594     0F7E  120A  158A  20D2  120A  158A  	fcall	_Lcd_Write_Char
  1595     0F83                     l3167:
  1596                           
  1597                           ;lcd.c: 91: 
  1598     0F83  3002               	movlw	2
  1599     0F84  00F6               	movwf	Lcd_Set_Cursor@row
  1600     0F85  3001               	movlw	1
  1601     0F86  160A  118A  277D  120A  158A  	fcall	_Lcd_Set_Cursor
  1602     0F8B                     l3169:
  1603                           
  1604                           ;lcd.c: 92:     return 0;
  1605     0F8B  3052               	movlw	82
  1606     0F8C  1683               	bsf	3,5	;RP0=1, select bank1
  1607     0F8D  1303               	bcf	3,6	;RP1=0, select bank1
  1608     0F8E  00CA               	movwf	??_main^(0+128)
  1609     0F8F                     u4477:
  1610     0F8F  0BCA               	decfsz	??_main^(0+128),f
  1611     0F90  2F8F               	goto	u4477
  1612     0F91  0000               	nop
  1613     0F92                     l3171:
  1614                           
  1615                           ;lcd.c: 93: }
  1616     0F92  303A               	movlw	(low ((STR_4-__stringbase)| (0+32768)))& (0+255)
  1617     0F93  00F6               	movwf	Lcd_Write_String@str
  1618     0F94  3080               	movlw	128
  1619     0F95  00F7               	movwf	Lcd_Write_String@str+1
  1620     0F96  160A  118A  27A3  120A  158A  	fcall	_Lcd_Write_String
  1621     0F9B                     l3173:
  1622     0F9B  30AA               	movlw	(low (_buffer_hum| 0))& (0+255)
  1623     0F9C  00F6               	movwf	Lcd_Write_String@str
  1624     0F9D  3000               	movlw	0
  1625     0F9E  00F7               	movwf	Lcd_Write_String@str+1
  1626     0F9F  160A  118A  27A3  120A  158A  	fcall	_Lcd_Write_String
  1627     0FA4                     l3175:
  1628     0FA4  3020               	movlw	32
  1629     0FA5  120A  158A  20D2  120A  158A  	fcall	_Lcd_Write_Char
  1630     0FAA                     l3177:
  1631     0FAA  3025               	movlw	37
  1632     0FAB  120A  158A  20D2  120A  158A  	fcall	_Lcd_Write_Char
  1633     0FB0  2FEE               	goto	l3195
  1634     0FB1                     l3179:
  1635     0FB1  3001               	movlw	1
  1636     0FB2  1683               	bsf	3,5	;RP0=1, select bank1
  1637     0FB3  1303               	bcf	3,6	;RP1=0, select bank1
  1638     0FB4  07CD               	addwf	main@intentos^(0+128),f
  1639     0FB5                     l3181:
  1640     0FB5  160A  118A  2689  120A  158A  	fcall	_Lcd_Clear
  1641     0FBA                     l3183:
  1642     0FBA  01F6               	clrf	Lcd_Set_Cursor@row
  1643     0FBB  0AF6               	incf	Lcd_Set_Cursor@row,f
  1644     0FBC  3001               	movlw	1
  1645     0FBD  160A  118A  277D  120A  158A  	fcall	_Lcd_Set_Cursor
  1646     0FC2                     l3185:
  1647     0FC2  3021               	movlw	(low ((STR_5-__stringbase)| (0+32768)))& (0+255)
  1648     0FC3  00F6               	movwf	Lcd_Write_String@str
  1649     0FC4  3080               	movlw	128
  1650     0FC5  00F7               	movwf	Lcd_Write_String@str+1
  1651     0FC6  160A  118A  27A3  120A  158A  	fcall	_Lcd_Write_String
  1652     0FCB                     l3187:
  1653     0FCB  01F6               	clrf	Lcd_Set_Cursor@row
  1654     0FCC  0AF6               	incf	Lcd_Set_Cursor@row,f
  1655     0FCD  3002               	movlw	2
  1656     0FCE  160A  118A  277D  120A  158A  	fcall	_Lcd_Set_Cursor
  1657     0FD3                     l3189:
  1658     0FD3  3003               	movlw	3
  1659     0FD4  1683               	bsf	3,5	;RP0=1, select bank1
  1660     0FD5  1303               	bcf	3,6	;RP1=0, select bank1
  1661     0FD6  024D               	subwf	main@intentos^(0+128),w
  1662     0FD7  1803               	skipnc
  1663     0FD8  2FDA               	goto	u4311
  1664     0FD9  2FDB               	goto	u4310
  1665     0FDA                     u4311:
  1666     0FDA  2FE5               	goto	l3193
  1667     0FDB                     u4310:
  1668     0FDB                     l3191:
  1669     0FDB  3001               	movlw	(low ((STR_6-__stringbase)| (0+32768)))& (0+255)
  1670     0FDC  00F6               	movwf	Lcd_Write_String@str
  1671     0FDD  3080               	movlw	128
  1672     0FDE  00F7               	movwf	Lcd_Write_String@str+1
  1673     0FDF  160A  118A  27A3  120A  158A  	fcall	_Lcd_Write_String
  1674     0FE4  2FEE               	goto	l3195
  1675     0FE5                     l3193:
  1676     0FE5  3011               	movlw	(low ((STR_7-__stringbase)| (0+32768)))& (0+255)
  1677     0FE6  00F6               	movwf	Lcd_Write_String@str
  1678     0FE7  3080               	movlw	128
  1679     0FE8  00F7               	movwf	Lcd_Write_String@str+1
  1680     0FE9  160A  118A  27A3  120A  158A  	fcall	_Lcd_Write_String
  1681     0FEE                     l3195:
  1682     0FEE  3040               	movlw	64
  1683     0FEF  1683               	bsf	3,5	;RP0=1, select bank1
  1684     0FF0  1303               	bcf	3,6	;RP1=0, select bank1
  1685     0FF1  00CC               	movwf	(??_main^(0+128)+2)
  1686     0FF2  306A               	movlw	106
  1687     0FF3  00CB               	movwf	(??_main^(0+128)+1)
  1688     0FF4  3097               	movlw	151
  1689     0FF5  00CA               	movwf	??_main^(0+128)
  1690     0FF6                     u4487:
  1691     0FF6  0BCA               	decfsz	??_main^(0+128),f
  1692     0FF7  2FF6               	goto	u4487
  1693     0FF8  0BCB               	decfsz	(??_main^(0+128)+1),f
  1694     0FF9  2FF6               	goto	u4487
  1695     0FFA  0BCC               	decfsz	(??_main^(0+128)+2),f
  1696     0FFB  2FF6               	goto	u4487
  1697     0FFC  2EF8               	goto	l3143
  1698     0FFD  120A  118A  2800   	ljmp	start
  1699     1000                     __end_of_main:
  1700                           
  1701                           	psect	text1
  1702     0BBD                     __ptext1:	
  1703 ;; *************** function _float_to_string_opt *****************
  1704 ;; Defined at:
  1705 ;;		line 32 in file "lcd.c"
  1706 ;; Parameters:    Size  Location     Type
  1707 ;;  value           4   70[BANK0 ] float 
  1708 ;;  buffer          1   74[BANK0 ] PTR unsigned char 
  1709 ;;		 -> buffer_hum(16), buffer_tem(16), 
  1710 ;; Auto vars:     Size  Location     Type
  1711 ;;  parte_entera    2   77[BANK0 ] int 
  1712 ;;  parte_decima    2   75[BANK0 ] int 
  1713 ;; Return value:  Size  Location     Type
  1714 ;;                  1    wreg      void 
  1715 ;; Registers used:
  1716 ;;		wreg, fsr0l, fsr0h, status,2, status,0, pclath, btemp1, cstack
  1717 ;; Tracked objects:
  1718 ;;		On entry : 0/0
  1719 ;;		On exit  : 0/0
  1720 ;;		Unchanged: 0/0
  1721 ;; Data sizes:     COMMON   BANK0   BANK1   BANK3   BANK2
  1722 ;;      Params:         0       5       0       0       0
  1723 ;;      Locals:         0       4       0       0       0
  1724 ;;      Temps:          0       0       0       0       0
  1725 ;;      Totals:         0       9       0       0       0
  1726 ;;Total ram usage:        9 bytes
  1727 ;; Hardware stack levels used: 1
  1728 ;; Hardware stack levels required when called: 5
  1729 ;; This function calls:
  1730 ;;		___flge
  1731 ;;		___flmul
  1732 ;;		___flneg
  1733 ;;		___flsub
  1734 ;;		___fltol
  1735 ;;		___wmul
  1736 ;;		___xxtofl
  1737 ;;		_sprintf
  1738 ;; This function is called by:
  1739 ;;		_main
  1740 ;; This function uses a non-reentrant model
  1741 ;;
  1742                           
  1743     0BBD                     _float_to_string_opt:	
  1744                           ;psect for function _float_to_string_opt
  1745                           
  1746     0BBD                     l2999:	
  1747                           ;incstack = 0
  1748                           ; Regs used in _float_to_string_opt: [wreg-fsr0h+status,2+status,0+pclath+btemp1+cstack]
  1749                           
  1750                           
  1751                           ;lcd.c: 33: ;lcd.c: 34:     Lcd_Init();;lcd.c: 37: 
  1752     0BBD  1283               	bcf	3,5	;RP0=0, select bank0
  1753     0BBE  1303               	bcf	3,6	;RP1=0, select bank0
  1754     0BBF  0869               	movf	float_to_string_opt@value+3,w
  1755     0BC0  00F3               	movwf	___flge@ff1+3
  1756     0BC1  0868               	movf	float_to_string_opt@value+2,w
  1757     0BC2  00F2               	movwf	___flge@ff1+2
  1758     0BC3  0867               	movf	float_to_string_opt@value+1,w
  1759     0BC4  00F1               	movwf	___flge@ff1+1
  1760     0BC5  0866               	movf	float_to_string_opt@value,w
  1761     0BC6  00F0               	movwf	___flge@ff1
  1762     0BC7  3000               	movlw	0
  1763     0BC8  00F7               	movwf	___flge@ff2+3
  1764     0BC9  3000               	movlw	0
  1765     0BCA  00F6               	movwf	___flge@ff2+2
  1766     0BCB  3000               	movlw	0
  1767     0BCC  00F5               	movwf	___flge@ff2+1
  1768     0BCD  3000               	movlw	0
  1769     0BCE  00F4               	movwf	___flge@ff2
  1770     0BCF  120A  158A  2265  120A  158A  	fcall	___flge
  1771     0BD4  1803               	btfsc	3,0
  1772     0BD5  2BD7               	goto	u4201
  1773     0BD6  2BD8               	goto	u4200
  1774     0BD7                     u4201:
  1775     0BD7  2BF1               	goto	l3003
  1776     0BD8                     u4200:
  1777     0BD8                     l3001:
  1778     0BD8  1283               	bcf	3,5	;RP0=0, select bank0
  1779     0BD9  1303               	bcf	3,6	;RP1=0, select bank0
  1780     0BDA  0869               	movf	float_to_string_opt@value+3,w
  1781     0BDB  00F3               	movwf	___flneg@f1+3
  1782     0BDC  0868               	movf	float_to_string_opt@value+2,w
  1783     0BDD  00F2               	movwf	___flneg@f1+2
  1784     0BDE  0867               	movf	float_to_string_opt@value+1,w
  1785     0BDF  00F1               	movwf	___flneg@f1+1
  1786     0BE0  0866               	movf	float_to_string_opt@value,w
  1787     0BE1  00F0               	movwf	___flneg@f1
  1788     0BE2  120A  158A  2061  120A  158A  	fcall	___flneg
  1789     0BE7  0873               	movf	?___flneg+3,w
  1790     0BE8  1283               	bcf	3,5	;RP0=0, select bank0
  1791     0BE9  1303               	bcf	3,6	;RP1=0, select bank0
  1792     0BEA  00E9               	movwf	float_to_string_opt@value+3
  1793     0BEB  0872               	movf	?___flneg+2,w
  1794     0BEC  00E8               	movwf	float_to_string_opt@value+2
  1795     0BED  0871               	movf	?___flneg+1,w
  1796     0BEE  00E7               	movwf	float_to_string_opt@value+1
  1797     0BEF  0870               	movf	?___flneg,w
  1798     0BF0  00E6               	movwf	float_to_string_opt@value
  1799     0BF1                     l3003:
  1800                           
  1801                           ;lcd.c: 39: 
  1802     0BF1  1283               	bcf	3,5	;RP0=0, select bank0
  1803     0BF2  1303               	bcf	3,6	;RP1=0, select bank0
  1804     0BF3  0869               	movf	float_to_string_opt@value+3,w
  1805     0BF4  00DF               	movwf	___fltol@f1+3
  1806     0BF5  0868               	movf	float_to_string_opt@value+2,w
  1807     0BF6  00DE               	movwf	___fltol@f1+2
  1808     0BF7  0867               	movf	float_to_string_opt@value+1,w
  1809     0BF8  00DD               	movwf	___fltol@f1+1
  1810     0BF9  0866               	movf	float_to_string_opt@value,w
  1811     0BFA  00DC               	movwf	___fltol@f1
  1812     0BFB  120A  118A  2015  120A  158A  	fcall	___fltol
  1813     0C00  1283               	bcf	3,5	;RP0=0, select bank0
  1814     0C01  1303               	bcf	3,6	;RP1=0, select bank0
  1815     0C02  085D               	movf	?___fltol+1,w
  1816     0C03  00EE               	movwf	float_to_string_opt@parte_entera+1
  1817     0C04  085C               	movf	?___fltol,w
  1818     0C05  00ED               	movwf	float_to_string_opt@parte_entera
  1819     0C06                     l3005:
  1820                           
  1821                           ;lcd.c: 42:     Lcd_Write_String(" Hold on...");
  1822     0C06  0869               	movf	float_to_string_opt@value+3,w
  1823     0C07  00A7               	movwf	___flmul@a+3
  1824     0C08  0868               	movf	float_to_string_opt@value+2,w
  1825     0C09  00A6               	movwf	___flmul@a+2
  1826     0C0A  0867               	movf	float_to_string_opt@value+1,w
  1827     0C0B  00A5               	movwf	___flmul@a+1
  1828     0C0C  0866               	movf	float_to_string_opt@value,w
  1829     0C0D  00A4               	movwf	___flmul@a
  1830     0C0E  3041               	movlw	65
  1831     0C0F  00A3               	movwf	___flmul@b+3
  1832     0C10  3020               	movlw	32
  1833     0C11  00A2               	movwf	___flmul@b+2
  1834     0C12  3000               	movlw	0
  1835     0C13  00A1               	movwf	___flmul@b+1
  1836     0C14  3000               	movlw	0
  1837     0C15  00A0               	movwf	___flmul@b
  1838     0C16  120A  118A  24A5  120A  158A  	fcall	___flmul
  1839     0C1B  1283               	bcf	3,5	;RP0=0, select bank0
  1840     0C1C  1303               	bcf	3,6	;RP1=0, select bank0
  1841     0C1D  0823               	movf	?___flmul+3,w
  1842     0C1E  00DB               	movwf	___flsub@b+3
  1843     0C1F  0822               	movf	?___flmul+2,w
  1844     0C20  00DA               	movwf	___flsub@b+2
  1845     0C21  0821               	movf	?___flmul+1,w
  1846     0C22  00D9               	movwf	___flsub@b+1
  1847     0C23  0820               	movf	?___flmul,w
  1848     0C24  00D8               	movwf	___flsub@b
  1849     0C25  300A               	movlw	10
  1850     0C26  00F2               	movwf	___wmul@multiplicand
  1851     0C27  3000               	movlw	0
  1852     0C28  00F3               	movwf	___wmul@multiplicand+1
  1853     0C29  086E               	movf	float_to_string_opt@parte_entera+1,w
  1854     0C2A  00F1               	movwf	___wmul@multiplier+1
  1855     0C2B  086D               	movf	float_to_string_opt@parte_entera,w
  1856     0C2C  00F0               	movwf	___wmul@multiplier
  1857     0C2D  160A  118A  2733  120A  158A  	fcall	___wmul
  1858     0C32  0870               	movf	?___wmul,w
  1859     0C33  00F6               	movwf	___xxtofl@val
  1860     0C34  0871               	movf	?___wmul+1,w
  1861     0C35  00F7               	movwf	___xxtofl@val+1
  1862     0C36  3000               	movlw	0
  1863     0C37  1BF7               	btfsc	___xxtofl@val+1,7
  1864     0C38  30FF               	movlw	255
  1865     0C39  00F8               	movwf	___xxtofl@val+2
  1866     0C3A  00F9               	movwf	___xxtofl@val+3
  1867     0C3B  3001               	movlw	1
  1868     0C3C  120A  158A  2307  120A  158A  	fcall	___xxtofl
  1869     0C41  0879               	movf	?___xxtofl+3,w
  1870     0C42  1283               	bcf	3,5	;RP0=0, select bank0
  1871     0C43  1303               	bcf	3,6	;RP1=0, select bank0
  1872     0C44  00D7               	movwf	___flsub@a+3
  1873     0C45  0878               	movf	?___xxtofl+2,w
  1874     0C46  00D6               	movwf	___flsub@a+2
  1875     0C47  0877               	movf	?___xxtofl+1,w
  1876     0C48  00D5               	movwf	___flsub@a+1
  1877     0C49  0876               	movf	?___xxtofl,w
  1878     0C4A  00D4               	movwf	___flsub@a
  1879     0C4B  160A  118A  270F  120A  158A  	fcall	___flsub
  1880     0C50  1283               	bcf	3,5	;RP0=0, select bank0
  1881     0C51  1303               	bcf	3,6	;RP1=0, select bank0
  1882     0C52  0857               	movf	?___flsub+3,w
  1883     0C53  00DF               	movwf	___fltol@f1+3
  1884     0C54  0856               	movf	?___flsub+2,w
  1885     0C55  00DE               	movwf	___fltol@f1+2
  1886     0C56  0855               	movf	?___flsub+1,w
  1887     0C57  00DD               	movwf	___fltol@f1+1
  1888     0C58  0854               	movf	?___flsub,w
  1889     0C59  00DC               	movwf	___fltol@f1
  1890     0C5A  120A  118A  2015  120A  158A  	fcall	___fltol
  1891     0C5F  1283               	bcf	3,5	;RP0=0, select bank0
  1892     0C60  1303               	bcf	3,6	;RP1=0, select bank0
  1893     0C61  085D               	movf	?___fltol+1,w
  1894     0C62  00EC               	movwf	float_to_string_opt@parte_decimal+1
  1895     0C63  085C               	movf	?___fltol,w
  1896     0C64  00EB               	movwf	float_to_string_opt@parte_decimal
  1897     0C65                     l3007:
  1898                           
  1899                           ;lcd.c: 44: 
  1900     0C65  086A               	movf	float_to_string_opt@buffer,w
  1901     0C66  00B1               	movwf	sprintf@s
  1902     0C67  3048               	movlw	(low ((STR_1-__stringbase)| (0+32768)))& (0+255)
  1903     0C68  00B2               	movwf	sprintf@fmt
  1904     0C69  086E               	movf	float_to_string_opt@parte_entera+1,w
  1905     0C6A  00B4               	movwf	?_sprintf+3
  1906     0C6B  086D               	movf	float_to_string_opt@parte_entera,w
  1907     0C6C  00B3               	movwf	?_sprintf+2
  1908     0C6D  086C               	movf	float_to_string_opt@parte_decimal+1,w
  1909     0C6E  00B6               	movwf	?_sprintf+5
  1910     0C6F  086B               	movf	float_to_string_opt@parte_decimal,w
  1911     0C70  00B5               	movwf	?_sprintf+4
  1912     0C71  160A  118A  26EC  120A  158A  	fcall	_sprintf
  1913     0C76                     l32:
  1914     0C76  0008               	return
  1915     0C77                     __end_of_float_to_string_opt:
  1916                           
  1917                           	psect	text2
  1918     16EC                     __ptext2:	
  1919 ;; *************** function _sprintf *****************
  1920 ;; Defined at:
  1921 ;;		line 9 in file "C:\Program Files\Microchip\xc8\v3.10\pic\sources\c99\common\nf_sprintf.c"
  1922 ;; Parameters:    Size  Location     Type
  1923 ;;  s               1   17[BANK0 ] PTR unsigned char 
  1924 ;;		 -> buffer_hum(16), buffer_tem(16), 
  1925 ;;  fmt             1   18[BANK0 ] PTR const unsigned char 
  1926 ;;		 -> STR_1(6), 
  1927 ;; Auto vars:     Size  Location     Type
  1928 ;;  f              11   25[BANK0 ] struct _IO_FILE
  1929 ;;  ret             2    0        int 
  1930 ;;  ap              1   24[BANK0 ] PTR void [1]
  1931 ;;		 -> ?_sprintf(2), 
  1932 ;; Return value:  Size  Location     Type
  1933 ;;                  2   17[BANK0 ] int 
  1934 ;; Registers used:
  1935 ;;		wreg, fsr0l, fsr0h, status,2, status,0, pclath, cstack
  1936 ;; Tracked objects:
  1937 ;;		On entry : 0/0
  1938 ;;		On exit  : 0/0
  1939 ;;		Unchanged: 0/0
  1940 ;; Data sizes:     COMMON   BANK0   BANK1   BANK3   BANK2
  1941 ;;      Params:         0       6       0       0       0
  1942 ;;      Locals:         0      12       0       0       0
  1943 ;;      Temps:          0       1       0       0       0
  1944 ;;      Totals:         0      19       0       0       0
  1945 ;;Total ram usage:       19 bytes
  1946 ;; Hardware stack levels used: 1
  1947 ;; Hardware stack levels required when called: 4
  1948 ;; This function calls:
  1949 ;;		_vfprintf
  1950 ;; This function is called by:
  1951 ;;		_float_to_string_opt
  1952 ;; This function uses a non-reentrant model
  1953 ;;
  1954                           
  1955     16EC                     _sprintf:	
  1956                           ;psect for function _sprintf
  1957                           
  1958     16EC                     l2499:	
  1959                           ;incstack = 0
  1960                           ; Regs used in _sprintf: [wreg-fsr0h+status,2+status,0+pclath+cstack]
  1961                           
  1962     16EC  3033               	movlw	(low ((?_sprintf| 0+2)))& (0+255)
  1963     16ED  1283               	bcf	3,5	;RP0=0, select bank0
  1964     16EE  1303               	bcf	3,6	;RP1=0, select bank0
  1965     16EF  00B8               	movwf	sprintf@ap
  1966     16F0                     l2501:
  1967     16F0  0831               	movf	sprintf@s,w
  1968     16F1  00B9               	movwf	sprintf@f
  1969     16F2  3000               	movlw	0
  1970     16F3  00BA               	movwf	sprintf@f+1
  1971     16F4                     l2503:
  1972     16F4  01BB               	clrf	sprintf@f+2
  1973     16F5  01BC               	clrf	sprintf@f+3
  1974     16F6                     l2505:
  1975     16F6  01C2               	clrf	sprintf@f+9
  1976     16F7  01C3               	clrf	sprintf@f+10
  1977     16F8                     l2507:
  1978     16F8  3039               	movlw	low sprintf@f
  1979     16F9  00AD               	movwf	vfprintf@fp
  1980     16FA  3000               	movlw	high sprintf@f
  1981     16FB  00AE               	movwf	vfprintf@fp+1
  1982     16FC  0832               	movf	sprintf@fmt,w
  1983     16FD  00AF               	movwf	vfprintf@fmt
  1984     16FE  3038               	movlw	(low (sprintf@ap| 0))& (0+255)
  1985     16FF  00B0               	movwf	vfprintf@ap
  1986     1700  160A  118A  2758  160A  118A  	fcall	_vfprintf
  1987     1705                     l2509:
  1988     1705  1283               	bcf	3,5	;RP0=0, select bank0
  1989     1706  1303               	bcf	3,6	;RP1=0, select bank0
  1990     1707  083B               	movf	sprintf@f+2,w
  1991     1708  0731               	addwf	sprintf@s,w
  1992     1709  00B7               	movwf	??_sprintf
  1993     170A  0837               	movf	??_sprintf,w
  1994     170B  0084               	movwf	4
  1995     170C  1383               	bcf	3,7	;select IRP bank0
  1996     170D  0180               	clrf	0
  1997     170E                     l811:
  1998     170E  0008               	return
  1999     170F                     __end_of_sprintf:
  2000                           
  2001                           	psect	text3
  2002     1758                     __ptext3:	
  2003 ;; *************** function _vfprintf *****************
  2004 ;; Defined at:
  2005 ;;		line 1817 in file "C:\Program Files\Microchip\xc8\v3.10\pic\sources\c99\common\doprnt.c"
  2006 ;; Parameters:    Size  Location     Type
  2007 ;;  fp              2   13[BANK0 ] PTR struct _IO_FILE
  2008 ;;		 -> sprintf@f(11), 
  2009 ;;  fmt             1   15[BANK0 ] PTR const unsigned char 
  2010 ;;		 -> STR_1(6), 
  2011 ;;  ap              1   16[BANK0 ] PTR PTR void 
  2012 ;;		 -> sprintf@ap(1), 
  2013 ;; Auto vars:     Size  Location     Type
  2014 ;;  cfmt            1   13[COMMON] PTR unsigned char 
  2015 ;;		 -> STR_1(6), 
  2016 ;; Return value:  Size  Location     Type
  2017 ;;                  2   13[BANK0 ] int 
  2018 ;; Registers used:
  2019 ;;		wreg, fsr0l, fsr0h, status,2, status,0, pclath, cstack
  2020 ;; Tracked objects:
  2021 ;;		On entry : 0/0
  2022 ;;		On exit  : 0/0
  2023 ;;		Unchanged: 0/0
  2024 ;; Data sizes:     COMMON   BANK0   BANK1   BANK3   BANK2
  2025 ;;      Params:         0       4       0       0       0
  2026 ;;      Locals:         1       0       0       0       0
  2027 ;;      Temps:          0       0       0       0       0
  2028 ;;      Totals:         1       4       0       0       0
  2029 ;;Total ram usage:        5 bytes
  2030 ;; Hardware stack levels used: 1
  2031 ;; Hardware stack levels required when called: 3
  2032 ;; This function calls:
  2033 ;;		_vfpfcnvrt
  2034 ;; This function is called by:
  2035 ;;		_sprintf
  2036 ;; This function uses a non-reentrant model
  2037 ;;
  2038                           
  2039     1758                     _vfprintf:	
  2040                           ;psect for function _vfprintf
  2041                           
  2042     1758                     l2489:	
  2043                           ;incstack = 0
  2044                           ; Regs used in _vfprintf: [wreg-fsr0h+status,2+status,0+pclath+cstack]
  2045                           
  2046                           
  2047                           ;C:\Program Files\Microchip\xc8\v3.10\pic\sources\c99\common\doprnt.c: 1817: int vfprint
      +                          f(FILE *fp, const char *fmt, va_list ap);C:\Program Files\Microchip\xc8\v3.10\pic\source
      +                          s\c99\common\doprnt.c: 1818: {;C:\Program Files\Microchip\xc8\v3.10\pic\sources\c99\comm
      +                          on\doprnt.c: 1820:     char *cfmt;;C:\Program Files\Microchip\xc8\v3.10\pic\sources\c99\
      +                          common\doprnt.c: 1822:     cfmt = (char *)fmt;
  2048     1758  1283               	bcf	3,5	;RP0=0, select bank0
  2049     1759  1303               	bcf	3,6	;RP1=0, select bank0
  2050     175A  082F               	movf	vfprintf@fmt,w
  2051     175B  00FD               	movwf	vfprintf@cfmt
  2052                           
  2053                           ;C:\Program Files\Microchip\xc8\v3.10\pic\sources\c99\common\doprnt.c: 1826:     while (
      +                          *cfmt) {
  2054     175C  2F6C               	goto	l2493
  2055     175D                     l2491:
  2056                           
  2057                           ;C:\Program Files\Microchip\xc8\v3.10\pic\sources\c99\common\doprnt.c: 1830:    vfpfcnvr
      +                          t(fp, &cfmt, ap);
  2058     175D  1283               	bcf	3,5	;RP0=0, select bank0
  2059     175E  1303               	bcf	3,6	;RP1=0, select bank0
  2060     175F  082D               	movf	vfprintf@fp,w
  2061     1760  00A0               	movwf	vfpfcnvrt@fp
  2062     1761  082E               	movf	vfprintf@fp+1,w
  2063     1762  00A1               	movwf	vfpfcnvrt@fp+1
  2064     1763  307D               	movlw	(low (vfprintf@cfmt| 0))& (0+255)
  2065     1764  00A2               	movwf	vfpfcnvrt@fmt
  2066     1765  0830               	movf	vfprintf@ap,w
  2067     1766  00A3               	movwf	vfpfcnvrt@ap
  2068     1767  120A  158A  2477  160A  118A  	fcall	_vfpfcnvrt
  2069     176C                     l2493:
  2070                           
  2071                           ;C:\Program Files\Microchip\xc8\v3.10\pic\sources\c99\common\doprnt.c: 1826:     while (
      +                          *cfmt) {
  2072     176C  087D               	movf	vfprintf@cfmt,w
  2073     176D  0084               	movwf	4
  2074     176E  120A  158A  200A  160A  118A  	fcall	stringdir
  2075     1773  3A00               	xorlw	0
  2076     1774  1D03               	skipz
  2077     1775  2F77               	goto	u3111
  2078     1776  2F78               	goto	u3110
  2079     1777                     u3111:
  2080     1777  2F5D               	goto	l2491
  2081     1778                     u3110:
  2082     1778                     l2495:
  2083                           
  2084                           ;C:\Program Files\Microchip\xc8\v3.10\pic\sources\c99\common\doprnt.c: 1835:  return 0;
  2085     1778  1283               	bcf	3,5	;RP0=0, select bank0
  2086     1779  1303               	bcf	3,6	;RP1=0, select bank0
  2087     177A  01AD               	clrf	?_vfprintf
  2088     177B  01AE               	clrf	?_vfprintf+1
  2089     177C                     l855:
  2090     177C  0008               	return
  2091     177D                     __end_of_vfprintf:
  2092                           
  2093                           	psect	text4
  2094     0C77                     __ptext4:	
  2095 ;; *************** function _vfpfcnvrt *****************
  2096 ;; Defined at:
  2097 ;;		line 1177 in file "C:\Program Files\Microchip\xc8\v3.10\pic\sources\c99\common\doprnt.c"
  2098 ;; Parameters:    Size  Location     Type
  2099 ;;  fp              2    0[BANK0 ] PTR struct _IO_FILE
  2100 ;;		 -> sprintf@f(11), 
  2101 ;;  fmt             1    2[BANK0 ] PTR PTR unsigned char 
  2102 ;;		 -> vfprintf@cfmt(1), 
  2103 ;;  ap              1    3[BANK0 ] PTR PTR void 
  2104 ;;		 -> sprintf@ap(1), 
  2105 ;; Auto vars:     Size  Location     Type
  2106 ;;  convarg         4    8[BANK0 ] struct .
  2107 ;;  c               1   12[BANK0 ] unsigned char 
  2108 ;;  cp              1    7[BANK0 ] PTR unsigned char 
  2109 ;;		 -> STR_1(6), 
  2110 ;;  done            1    6[BANK0 ] _Bool 
  2111 ;; Return value:  Size  Location     Type
  2112 ;;                  1    wreg      void 
  2113 ;; Registers used:
  2114 ;;		wreg, fsr0l, fsr0h, status,2, status,0, pclath, cstack
  2115 ;; Tracked objects:
  2116 ;;		On entry : 0/0
  2117 ;;		On exit  : 0/0
  2118 ;;		Unchanged: 0/0
  2119 ;; Data sizes:     COMMON   BANK0   BANK1   BANK3   BANK2
  2120 ;;      Params:         0       4       0       0       0
  2121 ;;      Locals:         0       7       0       0       0
  2122 ;;      Temps:          0       2       0       0       0
  2123 ;;      Totals:         0      13       0       0       0
  2124 ;;Total ram usage:       13 bytes
  2125 ;; Hardware stack levels used: 1
  2126 ;; Hardware stack levels required when called: 2
  2127 ;; This function calls:
  2128 ;;		___awdiv
  2129 ;;		___awmod
  2130 ;;		_abs
  2131 ;;		_fputc
  2132 ;; This function is called by:
  2133 ;;		_vfprintf
  2134 ;; This function uses a non-reentrant model
  2135 ;;
  2136                           
  2137     0C77                     _vfpfcnvrt:	
  2138                           ;psect for function _vfpfcnvrt
  2139                           
  2140     0C77                     l2217:	
  2141                           ;incstack = 0
  2142                           ; Regs used in _vfpfcnvrt: [wreg-fsr0h+status,2+status,0+pclath+cstack]
  2143                           
  2144                           
  2145                           ;C:\Program Files\Microchip\xc8\v3.10\pic\sources\c99\common\doprnt.c: 1177: vfpfcnvrt(F
      +                          ILE *fp, char *fmt[], va_list ap);C:\Program Files\Microchip\xc8\v3.10\pic\sources\c99\c
      +                          ommon\doprnt.c: 1178: {;C:\Program Files\Microchip\xc8\v3.10\pic\sources\c99\common\dopr
      +                          nt.c: 1179:     char c, *cp;;C:\Program Files\Microchip\xc8\v3.10\pic\sources\c99\common
      +                          \doprnt.c: 1180:     _Bool done;;C:\Program Files\Microchip\xc8\v3.10\pic\sources\c99\co
      +                          mmon\doprnt.c: 1188:  } convarg;;C:\Program Files\Microchip\xc8\v3.10\pic\sources\c99\co
      +                          mmon\doprnt.c: 1201:     if ((*fmt)[0] == '%') {
  2146     0C77  1283               	bcf	3,5	;RP0=0, select bank0
  2147     0C78  1303               	bcf	3,6	;RP1=0, select bank0
  2148     0C79  0822               	movf	vfpfcnvrt@fmt,w
  2149     0C7A  0084               	movwf	4
  2150     0C7B  0800               	movf	0,w
  2151     0C7C  0084               	movwf	4
  2152     0C7D  120A  158A  200A  120A  158A  	fcall	stringdir
  2153     0C82  3A25               	xorlw	37
  2154     0C83  1D03               	skipz
  2155     0C84  2C86               	goto	u2491
  2156     0C85  2C87               	goto	u2490
  2157     0C86                     u2491:
  2158     0C86  2D47               	goto	l2261
  2159     0C87                     u2490:
  2160     0C87                     l2219:
  2161                           
  2162                           ;C:\Program Files\Microchip\xc8\v3.10\pic\sources\c99\common\doprnt.c: 1202:         ++*
      +                          fmt;
  2163     0C87  0822               	movf	vfpfcnvrt@fmt,w
  2164     0C88  0084               	movwf	4
  2165     0C89  3001               	movlw	1
  2166     0C8A  0780               	addwf	0,f
  2167     0C8B                     l2221:
  2168                           
  2169                           ;C:\Program Files\Microchip\xc8\v3.10\pic\sources\c99\common\doprnt.c: 1204:         fla
      +                          gs = width = 0;
  2170     0C8B  1683               	bsf	3,5	;RP0=1, select bank1
  2171     0C8C  1303               	bcf	3,6	;RP1=0, select bank1
  2172     0C8D  01A5               	clrf	_width^(0+128)
  2173     0C8E  01A6               	clrf	(_width+1)^(0+128)
  2174     0C8F  3000               	movlw	0
  2175     0C90  00A9               	movwf	_flags^(0+128)
  2176     0C91                     l2223:
  2177                           
  2178                           ;C:\Program Files\Microchip\xc8\v3.10\pic\sources\c99\common\doprnt.c: 1205:         pre
      +                          c = -1;
  2179     0C91  30FF               	movlw	255
  2180     0C92  00A7               	movwf	_prec^(0+128)
  2181     0C93  30FF               	movlw	255
  2182     0C94  00A8               	movwf	(_prec^(0+128)+1)
  2183     0C95                     l2225:
  2184                           
  2185                           ;C:\Program Files\Microchip\xc8\v3.10\pic\sources\c99\common\doprnt.c: 1291:   cp = *fmt
      +                          ;
  2186     0C95  1283               	bcf	3,5	;RP0=0, select bank0
  2187     0C96  1303               	bcf	3,6	;RP1=0, select bank0
  2188     0C97  0822               	movf	vfpfcnvrt@fmt,w
  2189     0C98  0084               	movwf	4
  2190     0C99  0800               	movf	0,w
  2191     0C9A  00A7               	movwf	vfpfcnvrt@cp
  2192     0C9B                     l2227:
  2193                           
  2194                           ;C:\Program Files\Microchip\xc8\v3.10\pic\sources\c99\common\doprnt.c: 1361:   if (*cp =
      +                          = 'd' || *cp == 'i') {
  2195     0C9B  0827               	movf	vfpfcnvrt@cp,w
  2196     0C9C  0084               	movwf	4
  2197     0C9D  120A  158A  200A  120A  158A  	fcall	stringdir
  2198     0CA2  3A64               	xorlw	100
  2199     0CA3  1903               	skipnz
  2200     0CA4  2CA6               	goto	u2501
  2201     0CA5  2CA7               	goto	u2500
  2202     0CA6                     u2501:
  2203     0CA6  2CB3               	goto	l2231
  2204     0CA7                     u2500:
  2205     0CA7                     l2229:
  2206     0CA7  0827               	movf	vfpfcnvrt@cp,w
  2207     0CA8  0084               	movwf	4
  2208     0CA9  120A  158A  200A  120A  158A  	fcall	stringdir
  2209     0CAE  3A69               	xorlw	105
  2210     0CAF  1D03               	skipz
  2211     0CB0  2CB2               	goto	u2511
  2212     0CB1  2CB3               	goto	u2510
  2213     0CB2                     u2511:
  2214     0CB2  2D40               	goto	l2257
  2215     0CB3                     u2510:
  2216     0CB3                     l2231:
  2217                           
  2218                           ;C:\Program Files\Microchip\xc8\v3.10\pic\sources\c99\common\doprnt.c: 1404:    convarg.
      +                          sint = (vfpf_sint_t)(int)(*(int *)__va_arg(*(int **)ap, (int)0));
  2219     0CB3  0823               	movf	vfpfcnvrt@ap,w
  2220     0CB4  0084               	movwf	4
  2221     0CB5  1383               	bcf	3,7	;select IRP bank0
  2222     0CB6  0800               	movf	0,w
  2223     0CB7  00A4               	movwf	??_vfpfcnvrt
  2224     0CB8  3002               	movlw	2
  2225     0CB9  0780               	addwf	0,f
  2226     0CBA  0824               	movf	??_vfpfcnvrt,w
  2227     0CBB  0084               	movwf	4
  2228     0CBC  0800               	movf	0,w
  2229     0CBD  00A8               	movwf	vfpfcnvrt@convarg
  2230     0CBE  0A84               	incf	4,f
  2231     0CBF  0800               	movf	0,w
  2232     0CC0  00A9               	movwf	vfpfcnvrt@convarg+1
  2233                           
  2234                           ;C:\Program Files\Microchip\xc8\v3.10\pic\sources\c99\common\doprnt.c: 1406:    *fmt = c
      +                          p+1;
  2235     0CC1  0822               	movf	vfpfcnvrt@fmt,w
  2236     0CC2  0084               	movwf	4
  2237     0CC3  0827               	movf	vfpfcnvrt@cp,w
  2238     0CC4  3E01               	addlw	1
  2239     0CC5  0080               	movwf	0
  2240     0CC6                     l2233:
  2241                           
  2242                           ;C:\Program Files\Microchip\xc8\v3.10\pic\sources\c99\common\doprnt.c: 1408:    c = size
      +                          of(dbuf);
  2243     0CC6  3020               	movlw	32
  2244     0CC7  00AC               	movwf	vfpfcnvrt@c
  2245     0CC8                     l2235:
  2246                           
  2247                           ;C:\Program Files\Microchip\xc8\v3.10\pic\sources\c99\common\doprnt.c: 1409:    done = c
      +                          onvarg.sint < 0;
  2248     0CC8  1BA9               	btfsc	vfpfcnvrt@convarg+1,7
  2249     0CC9  2CCB               	goto	u2521
  2250     0CCA  2CCD               	goto	u2520
  2251     0CCB                     u2521:
  2252     0CCB  3001               	movlw	1
  2253     0CCC  2CCE               	goto	u2530
  2254     0CCD                     u2520:
  2255     0CCD  3000               	movlw	0
  2256     0CCE                     u2530:
  2257     0CCE  00A6               	movwf	vfpfcnvrt@done
  2258     0CCF                     l2237:
  2259                           
  2260                           ;C:\Program Files\Microchip\xc8\v3.10\pic\sources\c99\common\doprnt.c: 1411:     dbuf[--
      +                          c] = abs(convarg.sint % 10) + '0';
  2261     0CCF  3001               	movlw	1
  2262     0CD0  02AC               	subwf	vfpfcnvrt@c,f
  2263     0CD1  082C               	movf	vfpfcnvrt@c,w
  2264     0CD2  3E90               	addlw	(low (_dbuf| (0+256)))& (0+255)
  2265     0CD3  0084               	movwf	4
  2266     0CD4  300A               	movlw	10
  2267     0CD5  00F0               	movwf	___awmod@divisor
  2268     0CD6  3000               	movlw	0
  2269     0CD7  00F1               	movwf	___awmod@divisor+1
  2270     0CD8  0829               	movf	vfpfcnvrt@convarg+1,w
  2271     0CD9  00F3               	movwf	___awmod@dividend+1
  2272     0CDA  0828               	movf	vfpfcnvrt@convarg,w
  2273     0CDB  00F2               	movwf	___awmod@dividend
  2274     0CDC  120A  158A  2111  120A  158A  	fcall	___awmod
  2275     0CE1  0871               	movf	?___awmod+1,w
  2276     0CE2  00F7               	movwf	abs@a+1
  2277     0CE3  0870               	movf	?___awmod,w
  2278     0CE4  00F6               	movwf	abs@a
  2279     0CE5  160A  118A  2699  120A  158A  	fcall	_abs
  2280     0CEA  0876               	movf	?_abs,w
  2281     0CEB  3E30               	addlw	48
  2282     0CEC  1783               	bsf	3,7	;select IRP bank3
  2283     0CED  0080               	movwf	0
  2284     0CEE                     l2239:
  2285                           
  2286                           ;C:\Program Files\Microchip\xc8\v3.10\pic\sources\c99\common\doprnt.c: 1412:     convarg
      +                          .sint /= 10;
  2287     0CEE  300A               	movlw	10
  2288     0CEF  00F0               	movwf	___awdiv@divisor
  2289     0CF0  3000               	movlw	0
  2290     0CF1  00F1               	movwf	___awdiv@divisor+1
  2291     0CF2  1283               	bcf	3,5	;RP0=0, select bank0
  2292     0CF3  1303               	bcf	3,6	;RP1=0, select bank0
  2293     0CF4  0829               	movf	vfpfcnvrt@convarg+1,w
  2294     0CF5  00F3               	movwf	___awdiv@dividend+1
  2295     0CF6  0828               	movf	vfpfcnvrt@convarg,w
  2296     0CF7  00F2               	movwf	___awdiv@dividend
  2297     0CF8  120A  158A  2168  120A  158A  	fcall	___awdiv
  2298     0CFD  0871               	movf	?___awdiv+1,w
  2299     0CFE  1283               	bcf	3,5	;RP0=0, select bank0
  2300     0CFF  1303               	bcf	3,6	;RP1=0, select bank0
  2301     0D00  00A9               	movwf	vfpfcnvrt@convarg+1
  2302     0D01  0870               	movf	?___awdiv,w
  2303     0D02  00A8               	movwf	vfpfcnvrt@convarg
  2304     0D03                     l2241:
  2305                           
  2306                           ;C:\Program Files\Microchip\xc8\v3.10\pic\sources\c99\common\doprnt.c: 1416:    } while 
      +                          (convarg.sint != 0 && c != 0);
  2307     0D03  0828               	movf	vfpfcnvrt@convarg,w
  2308     0D04  0429               	iorwf	vfpfcnvrt@convarg+1,w
  2309     0D05  1903               	btfsc	3,2
  2310     0D06  2D08               	goto	u2541
  2311     0D07  2D09               	goto	u2540
  2312     0D08                     u2541:
  2313     0D08  2D0E               	goto	l2245
  2314     0D09                     u2540:
  2315     0D09                     l2243:
  2316     0D09  082C               	movf	vfpfcnvrt@c,w
  2317     0D0A  1D03               	btfss	3,2
  2318     0D0B  2D0D               	goto	u2551
  2319     0D0C  2D0E               	goto	u2550
  2320     0D0D                     u2551:
  2321     0D0D  2CCF               	goto	l2237
  2322     0D0E                     u2550:
  2323     0D0E                     l2245:
  2324                           
  2325                           ;C:\Program Files\Microchip\xc8\v3.10\pic\sources\c99\common\doprnt.c: 1417:    if (c !=
      +                           0 && done) {
  2326     0D0E  082C               	movf	vfpfcnvrt@c,w
  2327     0D0F  1903               	btfsc	3,2
  2328     0D10  2D12               	goto	u2561
  2329     0D11  2D13               	goto	u2560
  2330     0D12                     u2561:
  2331     0D12  2D39               	goto	l2255
  2332     0D13                     u2560:
  2333     0D13                     l2247:
  2334     0D13  0826               	movf	vfpfcnvrt@done,w
  2335     0D14  1903               	btfsc	3,2
  2336     0D15  2D17               	goto	u2571
  2337     0D16  2D18               	goto	u2570
  2338     0D17                     u2571:
  2339     0D17  2D39               	goto	l2255
  2340     0D18                     u2570:
  2341     0D18                     l2249:
  2342                           
  2343                           ;C:\Program Files\Microchip\xc8\v3.10\pic\sources\c99\common\doprnt.c: 1418:     dbuf[--
      +                          c] = '-';
  2344     0D18  3001               	movlw	1
  2345     0D19  02AC               	subwf	vfpfcnvrt@c,f
  2346     0D1A  082C               	movf	vfpfcnvrt@c,w
  2347     0D1B  3E90               	addlw	(low (_dbuf| (0+256)))& (0+255)
  2348     0D1C  0084               	movwf	4
  2349     0D1D  302D               	movlw	45
  2350     0D1E  1783               	bsf	3,7	;select IRP bank3
  2351     0D1F  0080               	movwf	0
  2352     0D20  2D39               	goto	l2255
  2353     0D21                     l2251:
  2354                           
  2355                           ;C:\Program Files\Microchip\xc8\v3.10\pic\sources\c99\common\doprnt.c: 1424:     fputc(d
      +                          buf[c++], fp);
  2356     0D21  082C               	movf	vfpfcnvrt@c,w
  2357     0D22  3E90               	addlw	(low (_dbuf| (0+256)))& (0+255)
  2358     0D23  0084               	movwf	4
  2359     0D24  1783               	bsf	3,7	;select IRP bank3
  2360     0D25  0800               	movf	0,w
  2361     0D26  00A4               	movwf	??_vfpfcnvrt
  2362     0D27  01A5               	clrf	??_vfpfcnvrt+1
  2363     0D28  0824               	movf	??_vfpfcnvrt,w
  2364     0D29  00F0               	movwf	fputc@c
  2365     0D2A  0825               	movf	??_vfpfcnvrt+1,w
  2366     0D2B  00F1               	movwf	fputc@c+1
  2367     0D2C  0820               	movf	vfpfcnvrt@fp,w
  2368     0D2D  00F2               	movwf	fputc@fp
  2369     0D2E  0821               	movf	vfpfcnvrt@fp+1,w
  2370     0D2F  00F3               	movwf	fputc@fp+1
  2371     0D30  120A  158A  21CB  120A  158A  	fcall	_fputc
  2372     0D35                     l2253:
  2373     0D35  3001               	movlw	1
  2374     0D36  1283               	bcf	3,5	;RP0=0, select bank0
  2375     0D37  1303               	bcf	3,6	;RP1=0, select bank0
  2376     0D38  07AC               	addwf	vfpfcnvrt@c,f
  2377     0D39                     l2255:
  2378                           
  2379                           ;C:\Program Files\Microchip\xc8\v3.10\pic\sources\c99\common\doprnt.c: 1423:    while (c
      +                           != sizeof(dbuf)) {
  2380     0D39  3020               	movlw	32
  2381     0D3A  062C               	xorwf	vfpfcnvrt@c,w
  2382     0D3B  1D03               	btfss	3,2
  2383     0D3C  2D3E               	goto	u2581
  2384     0D3D  2D3F               	goto	u2580
  2385     0D3E                     u2581:
  2386     0D3E  2D21               	goto	l2251
  2387     0D3F                     u2580:
  2388     0D3F  2D60               	goto	l849
  2389     0D40                     l2257:
  2390                           
  2391                           ;C:\Program Files\Microchip\xc8\v3.10\pic\sources\c99\common\doprnt.c: 1806:         ++*
      +                          fmt;
  2392     0D40  1283               	bcf	3,5	;RP0=0, select bank0
  2393     0D41  1303               	bcf	3,6	;RP1=0, select bank0
  2394     0D42  0822               	movf	vfpfcnvrt@fmt,w
  2395     0D43  0084               	movwf	4
  2396     0D44  3001               	movlw	1
  2397     0D45  0780               	addwf	0,f
  2398     0D46  2D60               	goto	l849
  2399     0D47                     l2261:
  2400                           
  2401                           ;C:\Program Files\Microchip\xc8\v3.10\pic\sources\c99\common\doprnt.c: 1811:     fputc((
      +                          int)(*fmt)[0], fp);
  2402     0D47  0822               	movf	vfpfcnvrt@fmt,w
  2403     0D48  0084               	movwf	4
  2404     0D49  0800               	movf	0,w
  2405     0D4A  0084               	movwf	4
  2406     0D4B  120A  158A  200A  120A  158A  	fcall	stringdir
  2407     0D50  00A4               	movwf	??_vfpfcnvrt
  2408     0D51  01A5               	clrf	??_vfpfcnvrt+1
  2409     0D52  0824               	movf	??_vfpfcnvrt,w
  2410     0D53  00F0               	movwf	fputc@c
  2411     0D54  0825               	movf	??_vfpfcnvrt+1,w
  2412     0D55  00F1               	movwf	fputc@c+1
  2413     0D56  0820               	movf	vfpfcnvrt@fp,w
  2414     0D57  00F2               	movwf	fputc@fp
  2415     0D58  0821               	movf	vfpfcnvrt@fp+1,w
  2416     0D59  00F3               	movwf	fputc@fp+1
  2417     0D5A  120A  158A  21CB  120A  158A  	fcall	_fputc
  2418     0D5F  2D40               	goto	l2257
  2419     0D60                     l849:
  2420     0D60  0008               	return
  2421     0D61                     __end_of_vfpfcnvrt:
  2422                           
  2423                           	psect	text5
  2424     09CB                     __ptext5:	
  2425 ;; *************** function _fputc *****************
  2426 ;; Defined at:
  2427 ;;		line 8 in file "C:\Program Files\Microchip\xc8\v3.10\pic\sources\c99\common\nf_fputc.c"
  2428 ;; Parameters:    Size  Location     Type
  2429 ;;  c               2    0[COMMON] int 
  2430 ;;  fp              2    2[COMMON] PTR struct _IO_FILE
  2431 ;;		 -> sprintf@f(11), 
  2432 ;; Auto vars:     Size  Location     Type
  2433 ;;		None
  2434 ;; Return value:  Size  Location     Type
  2435 ;;                  2    0[COMMON] int 
  2436 ;; Registers used:
  2437 ;;		wreg, fsr0l, fsr0h, status,2, status,0, pclath, cstack
  2438 ;; Tracked objects:
  2439 ;;		On entry : 0/0
  2440 ;;		On exit  : 0/0
  2441 ;;		Unchanged: 0/0
  2442 ;; Data sizes:     COMMON   BANK0   BANK1   BANK3   BANK2
  2443 ;;      Params:         4       0       0       0       0
  2444 ;;      Locals:         0       0       0       0       0
  2445 ;;      Temps:          9       0       0       0       0
  2446 ;;      Totals:        13       0       0       0       0
  2447 ;;Total ram usage:       13 bytes
  2448 ;; Hardware stack levels used: 1
  2449 ;; Hardware stack levels required when called: 1
  2450 ;; This function calls:
  2451 ;;		_putch
  2452 ;; This function is called by:
  2453 ;;		_vfpfcnvrt
  2454 ;; This function uses a non-reentrant model
  2455 ;;
  2456                           
  2457     09CB                     _fputc:	
  2458                           ;psect for function _fputc
  2459                           
  2460     09CB                     l2195:	
  2461                           ;incstack = 0
  2462                           ; Regs used in _fputc: [wreg-fsr0h+status,2+status,0+pclath+cstack]
  2463                           
  2464     09CB  0872               	movf	fputc@fp,w
  2465     09CC  0473               	iorwf	fputc@fp+1,w
  2466     09CD  1903               	btfsc	3,2
  2467     09CE  29D0               	goto	u2431
  2468     09CF  29D1               	goto	u2430
  2469     09D0                     u2431:
  2470     09D0  29D7               	goto	l2199
  2471     09D1                     u2430:
  2472     09D1                     l2197:
  2473     09D1  0872               	movf	fputc@fp,w
  2474     09D2  0473               	iorwf	fputc@fp+1,w
  2475     09D3  1D03               	btfss	3,2
  2476     09D4  29D6               	goto	u2441
  2477     09D5  29D7               	goto	u2440
  2478     09D6                     u2441:
  2479     09D6  29DE               	goto	l2201
  2480     09D7                     u2440:
  2481     09D7                     l2199:
  2482     09D7  0870               	movf	fputc@c,w
  2483     09D8  120A  158A  2060  120A  158A  	fcall	_putch
  2484     09DD  2A64               	goto	l874
  2485     09DE                     l2201:
  2486     09DE  0872               	movf	fputc@fp,w
  2487     09DF  3E09               	addlw	9
  2488     09E0  00F4               	movwf	??_fputc
  2489     09E1  0873               	movf	fputc@fp+1,w
  2490     09E2  1803               	skipnc
  2491     09E3  3E01               	addlw	1
  2492     09E4  3E00               	addlw	0
  2493     09E5  00F5               	movwf	??_fputc+1
  2494     09E6  0874               	movf	??_fputc,w
  2495     09E7  0084               	movwf	4
  2496     09E8  1783               	bsf	3,7
  2497     09E9  1C75               	btfss	??_fputc+1,0
  2498     09EA  1383               	bcf	3,7
  2499     09EB  0800               	movf	0,w
  2500     09EC  00F6               	movwf	??_fputc+2
  2501     09ED  0A84               	incf	4,f
  2502     09EE  0800               	movf	0,w
  2503     09EF  00F7               	movwf	??_fputc+3
  2504     09F0  0876               	movf	??_fputc+2,w
  2505     09F1  0477               	iorwf	??_fputc+3,w
  2506     09F2  1903               	btfsc	3,2
  2507     09F3  29F5               	goto	u2451
  2508     09F4  29F6               	goto	u2450
  2509     09F5                     u2451:
  2510     09F5  2A28               	goto	l2205
  2511     09F6                     u2450:
  2512     09F6                     l2203:
  2513     09F6  0872               	movf	fputc@fp,w
  2514     09F7  3E09               	addlw	9
  2515     09F8  00F4               	movwf	??_fputc
  2516     09F9  0873               	movf	fputc@fp+1,w
  2517     09FA  1803               	skipnc
  2518     09FB  3E01               	addlw	1
  2519     09FC  3E00               	addlw	0
  2520     09FD  00F5               	movwf	??_fputc+1
  2521     09FE  0874               	movf	??_fputc,w
  2522     09FF  0084               	movwf	4
  2523     0A00  1783               	bsf	3,7
  2524     0A01  1C75               	btfss	??_fputc+1,0
  2525     0A02  1383               	bcf	3,7
  2526     0A03  0800               	movf	0,w
  2527     0A04  00F6               	movwf	??_fputc+2
  2528     0A05  0A84               	incf	4,f
  2529     0A06  0800               	movf	0,w
  2530     0A07  00F7               	movwf	??_fputc+3
  2531     0A08  0872               	movf	fputc@fp,w
  2532     0A09  3E02               	addlw	2
  2533     0A0A  00F8               	movwf	??_fputc+4
  2534     0A0B  0873               	movf	fputc@fp+1,w
  2535     0A0C  1803               	skipnc
  2536     0A0D  3E01               	addlw	1
  2537     0A0E  3E00               	addlw	0
  2538     0A0F  00F9               	movwf	??_fputc+5
  2539     0A10  0878               	movf	??_fputc+4,w
  2540     0A11  0084               	movwf	4
  2541     0A12  1783               	bsf	3,7
  2542     0A13  1C79               	btfss	??_fputc+5,0
  2543     0A14  1383               	bcf	3,7
  2544     0A15  0800               	movf	0,w
  2545     0A16  00FA               	movwf	??_fputc+6
  2546     0A17  0A84               	incf	4,f
  2547     0A18  0800               	movf	0,w
  2548     0A19  00FB               	movwf	??_fputc+7
  2549     0A1A  087B               	movf	??_fputc+7,w
  2550     0A1B  3A80               	xorlw	128
  2551     0A1C  00FC               	movwf	??_fputc+8
  2552     0A1D  0877               	movf	??_fputc+3,w
  2553     0A1E  3A80               	xorlw	128
  2554     0A1F  027C               	subwf	??_fputc+8,w
  2555     0A20  1D03               	skipz
  2556     0A21  2A24               	goto	u2465
  2557     0A22  0876               	movf	??_fputc+2,w
  2558     0A23  027A               	subwf	??_fputc+6,w
  2559     0A24                     u2465:
  2560     0A24  1803               	skipnc
  2561     0A25  2A27               	goto	u2461
  2562     0A26  2A28               	goto	u2460
  2563     0A27                     u2461:
  2564     0A27  2A64               	goto	l874
  2565     0A28                     u2460:
  2566     0A28                     l2205:
  2567     0A28  0872               	movf	fputc@fp,w
  2568     0A29  0084               	movwf	4
  2569     0A2A  1783               	bsf	3,7
  2570     0A2B  1C73               	btfss	fputc@fp+1,0
  2571     0A2C  1383               	bcf	3,7
  2572     0A2D  0800               	movf	0,w
  2573     0A2E  00F4               	movwf	??_fputc
  2574     0A2F  0A84               	incf	4,f
  2575     0A30  0800               	movf	0,w
  2576     0A31  00F5               	movwf	??_fputc+1
  2577     0A32  0872               	movf	fputc@fp,w
  2578     0A33  3E02               	addlw	2
  2579     0A34  00F6               	movwf	??_fputc+2
  2580     0A35  0873               	movf	fputc@fp+1,w
  2581     0A36  1803               	skipnc
  2582     0A37  3E01               	addlw	1
  2583     0A38  3E00               	addlw	0
  2584     0A39  00F7               	movwf	??_fputc+3
  2585     0A3A  0876               	movf	??_fputc+2,w
  2586     0A3B  0084               	movwf	4
  2587     0A3C  1783               	bsf	3,7
  2588     0A3D  1C77               	btfss	??_fputc+3,0
  2589     0A3E  1383               	bcf	3,7
  2590     0A3F  0800               	movf	0,w
  2591     0A40  0774               	addwf	??_fputc,w
  2592     0A41  00F9               	movwf	??_fputc+5
  2593     0A42  0875               	movf	??_fputc+1,w
  2594     0A43  00F8               	movwf	??_fputc+4
  2595     0A44  1803               	skipnc
  2596     0A45  0AF8               	incf	??_fputc+4,f
  2597     0A46  1F80               	btfss	0,7
  2598     0A47  2A49               	goto	u2470
  2599     0A48  03F8               	decf	??_fputc+4,f
  2600     0A49                     u2470:
  2601     0A49  0878               	movf	??_fputc+4,w
  2602     0A4A  00FA               	movwf	??_fputc+6
  2603     0A4B  0879               	movf	??_fputc+5,w
  2604     0A4C  0084               	movwf	4
  2605     0A4D  1783               	bsf	3,7
  2606     0A4E  1C7A               	btfss	??_fputc+6,0
  2607     0A4F  1383               	bcf	3,7
  2608     0A50  0870               	movf	fputc@c,w
  2609     0A51  0080               	movwf	0
  2610     0A52  0872               	movf	fputc@fp,w
  2611     0A53  3E02               	addlw	2
  2612     0A54  00F4               	movwf	??_fputc
  2613     0A55  0873               	movf	fputc@fp+1,w
  2614     0A56  1803               	skipnc
  2615     0A57  3E01               	addlw	1
  2616     0A58  3E00               	addlw	0
  2617     0A59  00F5               	movwf	??_fputc+1
  2618     0A5A  0874               	movf	??_fputc,w
  2619     0A5B  0084               	movwf	4
  2620     0A5C  1783               	bsf	3,7
  2621     0A5D  1C75               	btfss	??_fputc+1,0
  2622     0A5E  1383               	bcf	3,7
  2623     0A5F  3001               	movlw	1
  2624     0A60  0780               	addwf	0,f
  2625     0A61  0A84               	incf	4,f
  2626     0A62  1803               	skipnc
  2627     0A63  0A80               	incf	0,f
  2628     0A64                     l874:
  2629     0A64  0008               	return
  2630     0A65                     __end_of_fputc:
  2631                           
  2632                           	psect	text6
  2633     0860                     __ptext6:	
  2634 ;; *************** function _putch *****************
  2635 ;; Defined at:
  2636 ;;		line 7 in file "C:\Program Files\Microchip\xc8\v3.10\pic\sources\c99\common\putch.c"
  2637 ;; Parameters:    Size  Location     Type
  2638 ;;  c               1    wreg     unsigned char 
  2639 ;; Auto vars:     Size  Location     Type
  2640 ;;  c               1    0[COMMON] unsigned char 
  2641 ;; Return value:  Size  Location     Type
  2642 ;;                  1    wreg      void 
  2643 ;; Registers used:
  2644 ;;		wreg
  2645 ;; Tracked objects:
  2646 ;;		On entry : 0/0
  2647 ;;		On exit  : 0/0
  2648 ;;		Unchanged: 0/0
  2649 ;; Data sizes:     COMMON   BANK0   BANK1   BANK3   BANK2
  2650 ;;      Params:         0       0       0       0       0
  2651 ;;      Locals:         0       0       0       0       0
  2652 ;;      Temps:          0       0       0       0       0
  2653 ;;      Totals:         0       0       0       0       0
  2654 ;;Total ram usage:        0 bytes
  2655 ;; Hardware stack levels used: 1
  2656 ;; This function calls:
  2657 ;;		Nothing
  2658 ;; This function is called by:
  2659 ;;		_fputc
  2660 ;; This function uses a non-reentrant model
  2661 ;;
  2662                           
  2663     0860                     _putch:	
  2664                           ;psect for function _putch
  2665                           
  2666     0860                     l885:	
  2667                           ;incstack = 0
  2668                           ; Regs used in _putch: [wreg]
  2669                           
  2670     0860  0008               	return
  2671     0861                     __end_of_putch:
  2672                           
  2673                           	psect	text7
  2674     1699                     __ptext7:	
  2675 ;; *************** function _abs *****************
  2676 ;; Defined at:
  2677 ;;		line 1 in file "C:\Program Files\Microchip\xc8\v3.10\pic\sources\c99\common\abs.c"
  2678 ;; Parameters:    Size  Location     Type
  2679 ;;  a               2    6[COMMON] int 
  2680 ;; Auto vars:     Size  Location     Type
  2681 ;;		None
  2682 ;; Return value:  Size  Location     Type
  2683 ;;                  2    6[COMMON] int 
  2684 ;; Registers used:
  2685 ;;		wreg, status,2, status,0
  2686 ;; Tracked objects:
  2687 ;;		On entry : 0/0
  2688 ;;		On exit  : 0/0
  2689 ;;		Unchanged: 0/0
  2690 ;; Data sizes:     COMMON   BANK0   BANK1   BANK3   BANK2
  2691 ;;      Params:         2       0       0       0       0
  2692 ;;      Locals:         0       0       0       0       0
  2693 ;;      Temps:          2       0       0       0       0
  2694 ;;      Totals:         4       0       0       0       0
  2695 ;;Total ram usage:        4 bytes
  2696 ;; Hardware stack levels used: 1
  2697 ;; This function calls:
  2698 ;;		Nothing
  2699 ;; This function is called by:
  2700 ;;		_vfpfcnvrt
  2701 ;; This function uses a non-reentrant model
  2702 ;;
  2703                           
  2704     1699                     _abs:	
  2705                           ;psect for function _abs
  2706                           
  2707     1699                     l2209:	
  2708                           ;incstack = 0
  2709                           ; Regs used in _abs: [wreg+status,2+status,0]
  2710                           
  2711     1699  1BF7               	btfsc	abs@a+1,7
  2712     169A  2E9C               	goto	u2481
  2713     169B  2E9D               	goto	u2480
  2714     169C                     u2481:
  2715     169C  2E9E               	goto	l2213
  2716     169D                     u2480:
  2717     169D                     l2211:
  2718     169D  2EA9               	goto	l862
  2719     169E                     l2213:
  2720     169E  0976               	comf	abs@a,w
  2721     169F  00F8               	movwf	??_abs
  2722     16A0  0977               	comf	abs@a+1,w
  2723     16A1  00F9               	movwf	??_abs+1
  2724     16A2  0AF8               	incf	??_abs,f
  2725     16A3  1903               	skipnz
  2726     16A4  0AF9               	incf	??_abs+1,f
  2727     16A5  0878               	movf	??_abs,w
  2728     16A6  00F6               	movwf	?_abs
  2729     16A7  0879               	movf	??_abs+1,w
  2730     16A8  00F7               	movwf	?_abs+1
  2731     16A9                     l862:
  2732     16A9  0008               	return
  2733     16AA                     __end_of_abs:
  2734                           
  2735                           	psect	text8
  2736     0911                     __ptext8:	
  2737 ;; *************** function ___awmod *****************
  2738 ;; Defined at:
  2739 ;;		line 5 in file "C:\Program Files\Microchip\xc8\v3.10\pic\sources\c99\common\awmod.c"
  2740 ;; Parameters:    Size  Location     Type
  2741 ;;  divisor         2    0[COMMON] int 
  2742 ;;  dividend        2    2[COMMON] int 
  2743 ;; Auto vars:     Size  Location     Type
  2744 ;;  sign            1    5[COMMON] unsigned char 
  2745 ;;  counter         1    4[COMMON] unsigned char 
  2746 ;; Return value:  Size  Location     Type
  2747 ;;                  2    0[COMMON] int 
  2748 ;; Registers used:
  2749 ;;		wreg, status,2, status,0
  2750 ;; Tracked objects:
  2751 ;;		On entry : 0/0
  2752 ;;		On exit  : 0/0
  2753 ;;		Unchanged: 0/0
  2754 ;; Data sizes:     COMMON   BANK0   BANK1   BANK3   BANK2
  2755 ;;      Params:         4       0       0       0       0
  2756 ;;      Locals:         2       0       0       0       0
  2757 ;;      Temps:          0       0       0       0       0
  2758 ;;      Totals:         6       0       0       0       0
  2759 ;;Total ram usage:        6 bytes
  2760 ;; Hardware stack levels used: 1
  2761 ;; This function calls:
  2762 ;;		Nothing
  2763 ;; This function is called by:
  2764 ;;		_vfpfcnvrt
  2765 ;;		_dec_to_bcd
  2766 ;; This function uses a non-reentrant model
  2767 ;;
  2768                           
  2769     0911                     ___awmod:	
  2770                           ;psect for function ___awmod
  2771                           
  2772     0911                     l2157:	
  2773                           ;incstack = 0
  2774                           ; Regs used in ___awmod: [wreg+status,2+status,0]
  2775                           
  2776     0911  01F5               	clrf	___awmod@sign
  2777     0912                     l2159:
  2778     0912  1FF3               	btfss	___awmod@dividend+1,7
  2779     0913  2915               	goto	u2341
  2780     0914  2916               	goto	u2340
  2781     0915                     u2341:
  2782     0915  291D               	goto	l2165
  2783     0916                     u2340:
  2784     0916                     l2161:
  2785     0916  09F2               	comf	___awmod@dividend,f
  2786     0917  09F3               	comf	___awmod@dividend+1,f
  2787     0918  0AF2               	incf	___awmod@dividend,f
  2788     0919  1903               	skipnz
  2789     091A  0AF3               	incf	___awmod@dividend+1,f
  2790     091B                     l2163:
  2791     091B  3001               	movlw	1
  2792     091C  00F5               	movwf	___awmod@sign
  2793     091D                     l2165:
  2794     091D  1FF1               	btfss	___awmod@divisor+1,7
  2795     091E  2920               	goto	u2351
  2796     091F  2921               	goto	u2350
  2797     0920                     u2351:
  2798     0920  2926               	goto	l2169
  2799     0921                     u2350:
  2800     0921                     l2167:
  2801     0921  09F0               	comf	___awmod@divisor,f
  2802     0922  09F1               	comf	___awmod@divisor+1,f
  2803     0923  0AF0               	incf	___awmod@divisor,f
  2804     0924  1903               	skipnz
  2805     0925  0AF1               	incf	___awmod@divisor+1,f
  2806     0926                     l2169:
  2807     0926  0870               	movf	___awmod@divisor,w
  2808     0927  0471               	iorwf	___awmod@divisor+1,w
  2809     0928  1903               	btfsc	3,2
  2810     0929  292B               	goto	u2361
  2811     092A  292C               	goto	u2360
  2812     092B                     u2361:
  2813     092B  2959               	goto	l2187
  2814     092C                     u2360:
  2815     092C                     l2171:
  2816     092C  3001               	movlw	1
  2817     092D  00F4               	movwf	___awmod@counter
  2818     092E  2938               	goto	l2177
  2819     092F                     l2173:
  2820     092F  3001               	movlw	1
  2821     0930                     u2375:
  2822     0930  1003               	clrc
  2823     0931  0DF0               	rlf	___awmod@divisor,f
  2824     0932  0DF1               	rlf	___awmod@divisor+1,f
  2825     0933  3EFF               	addlw	-1
  2826     0934  1D03               	skipz
  2827     0935  2930               	goto	u2375
  2828     0936                     l2175:
  2829     0936  3001               	movlw	1
  2830     0937  07F4               	addwf	___awmod@counter,f
  2831     0938                     l2177:
  2832     0938  1FF1               	btfss	___awmod@divisor+1,7
  2833     0939  293B               	goto	u2381
  2834     093A  293C               	goto	u2380
  2835     093B                     u2381:
  2836     093B  292F               	goto	l2173
  2837     093C                     u2380:
  2838     093C                     l2179:
  2839     093C  0871               	movf	___awmod@divisor+1,w
  2840     093D  0273               	subwf	___awmod@dividend+1,w
  2841     093E  1D03               	skipz
  2842     093F  2942               	goto	u2395
  2843     0940  0870               	movf	___awmod@divisor,w
  2844     0941  0272               	subwf	___awmod@dividend,w
  2845     0942                     u2395:
  2846     0942  1C03               	skipc
  2847     0943  2945               	goto	u2391
  2848     0944  2946               	goto	u2390
  2849     0945                     u2391:
  2850     0945  294C               	goto	l2183
  2851     0946                     u2390:
  2852     0946                     l2181:
  2853     0946  0870               	movf	___awmod@divisor,w
  2854     0947  02F2               	subwf	___awmod@dividend,f
  2855     0948  0871               	movf	___awmod@divisor+1,w
  2856     0949  1C03               	skipc
  2857     094A  03F3               	decf	___awmod@dividend+1,f
  2858     094B  02F3               	subwf	___awmod@dividend+1,f
  2859     094C                     l2183:
  2860     094C  3001               	movlw	1
  2861     094D                     u2405:
  2862     094D  1003               	clrc
  2863     094E  0CF1               	rrf	___awmod@divisor+1,f
  2864     094F  0CF0               	rrf	___awmod@divisor,f
  2865     0950  3EFF               	addlw	-1
  2866     0951  1D03               	skipz
  2867     0952  294D               	goto	u2405
  2868     0953                     l2185:
  2869     0953  3001               	movlw	1
  2870     0954  02F4               	subwf	___awmod@counter,f
  2871     0955  1D03               	btfss	3,2
  2872     0956  2958               	goto	u2411
  2873     0957  2959               	goto	u2410
  2874     0958                     u2411:
  2875     0958  293C               	goto	l2179
  2876     0959                     u2410:
  2877     0959                     l2187:
  2878     0959  0875               	movf	___awmod@sign,w
  2879     095A  1903               	btfsc	3,2
  2880     095B  295D               	goto	u2421
  2881     095C  295E               	goto	u2420
  2882     095D                     u2421:
  2883     095D  2963               	goto	l2191
  2884     095E                     u2420:
  2885     095E                     l2189:
  2886     095E  09F2               	comf	___awmod@dividend,f
  2887     095F  09F3               	comf	___awmod@dividend+1,f
  2888     0960  0AF2               	incf	___awmod@dividend,f
  2889     0961  1903               	skipnz
  2890     0962  0AF3               	incf	___awmod@dividend+1,f
  2891     0963                     l2191:
  2892     0963  0873               	movf	___awmod@dividend+1,w
  2893     0964  00F1               	movwf	?___awmod+1
  2894     0965  0872               	movf	___awmod@dividend,w
  2895     0966  00F0               	movwf	?___awmod
  2896     0967                     l514:
  2897     0967  0008               	return
  2898     0968                     __end_of___awmod:
  2899                           
  2900                           	psect	text9
  2901     0968                     __ptext9:	
  2902 ;; *************** function ___awdiv *****************
  2903 ;; Defined at:
  2904 ;;		line 5 in file "C:\Program Files\Microchip\xc8\v3.10\pic\sources\c99\common\awdiv.c"
  2905 ;; Parameters:    Size  Location     Type
  2906 ;;  divisor         2    0[COMMON] int 
  2907 ;;  dividend        2    2[COMMON] int 
  2908 ;; Auto vars:     Size  Location     Type
  2909 ;;  quotient        2    6[COMMON] int 
  2910 ;;  sign            1    5[COMMON] unsigned char 
  2911 ;;  counter         1    4[COMMON] unsigned char 
  2912 ;; Return value:  Size  Location     Type
  2913 ;;                  2    0[COMMON] int 
  2914 ;; Registers used:
  2915 ;;		wreg, status,2, status,0
  2916 ;; Tracked objects:
  2917 ;;		On entry : 0/0
  2918 ;;		On exit  : 0/0
  2919 ;;		Unchanged: 0/0
  2920 ;; Data sizes:     COMMON   BANK0   BANK1   BANK3   BANK2
  2921 ;;      Params:         4       0       0       0       0
  2922 ;;      Locals:         4       0       0       0       0
  2923 ;;      Temps:          0       0       0       0       0
  2924 ;;      Totals:         8       0       0       0       0
  2925 ;;Total ram usage:        8 bytes
  2926 ;; Hardware stack levels used: 1
  2927 ;; This function calls:
  2928 ;;		Nothing
  2929 ;; This function is called by:
  2930 ;;		_vfpfcnvrt
  2931 ;;		_dec_to_bcd
  2932 ;; This function uses a non-reentrant model
  2933 ;;
  2934                           
  2935     0968                     ___awdiv:	
  2936                           ;psect for function ___awdiv
  2937                           
  2938     0968                     l2113:	
  2939                           ;incstack = 0
  2940                           ; Regs used in ___awdiv: [wreg+status,2+status,0]
  2941                           
  2942     0968  01F5               	clrf	___awdiv@sign
  2943     0969                     l2115:
  2944     0969  1FF1               	btfss	___awdiv@divisor+1,7
  2945     096A  296C               	goto	u2241
  2946     096B  296D               	goto	u2240
  2947     096C                     u2241:
  2948     096C  2974               	goto	l2121
  2949     096D                     u2240:
  2950     096D                     l2117:
  2951     096D  09F0               	comf	___awdiv@divisor,f
  2952     096E  09F1               	comf	___awdiv@divisor+1,f
  2953     096F  0AF0               	incf	___awdiv@divisor,f
  2954     0970  1903               	skipnz
  2955     0971  0AF1               	incf	___awdiv@divisor+1,f
  2956     0972                     l2119:
  2957     0972  3001               	movlw	1
  2958     0973  00F5               	movwf	___awdiv@sign
  2959     0974                     l2121:
  2960     0974  1FF3               	btfss	___awdiv@dividend+1,7
  2961     0975  2977               	goto	u2251
  2962     0976  2978               	goto	u2250
  2963     0977                     u2251:
  2964     0977  297F               	goto	l2127
  2965     0978                     u2250:
  2966     0978                     l2123:
  2967     0978  09F2               	comf	___awdiv@dividend,f
  2968     0979  09F3               	comf	___awdiv@dividend+1,f
  2969     097A  0AF2               	incf	___awdiv@dividend,f
  2970     097B  1903               	skipnz
  2971     097C  0AF3               	incf	___awdiv@dividend+1,f
  2972     097D                     l2125:
  2973     097D  3001               	movlw	1
  2974     097E  06F5               	xorwf	___awdiv@sign,f
  2975     097F                     l2127:
  2976     097F  01F6               	clrf	___awdiv@quotient
  2977     0980  01F7               	clrf	___awdiv@quotient+1
  2978     0981                     l2129:
  2979     0981  0870               	movf	___awdiv@divisor,w
  2980     0982  0471               	iorwf	___awdiv@divisor+1,w
  2981     0983  1903               	btfsc	3,2
  2982     0984  2986               	goto	u2261
  2983     0985  2987               	goto	u2260
  2984     0986                     u2261:
  2985     0986  29BC               	goto	l2149
  2986     0987                     u2260:
  2987     0987                     l2131:
  2988     0987  3001               	movlw	1
  2989     0988  00F4               	movwf	___awdiv@counter
  2990     0989  2993               	goto	l2137
  2991     098A                     l2133:
  2992     098A  3001               	movlw	1
  2993     098B                     u2275:
  2994     098B  1003               	clrc
  2995     098C  0DF0               	rlf	___awdiv@divisor,f
  2996     098D  0DF1               	rlf	___awdiv@divisor+1,f
  2997     098E  3EFF               	addlw	-1
  2998     098F  1D03               	skipz
  2999     0990  298B               	goto	u2275
  3000     0991                     l2135:
  3001     0991  3001               	movlw	1
  3002     0992  07F4               	addwf	___awdiv@counter,f
  3003     0993                     l2137:
  3004     0993  1FF1               	btfss	___awdiv@divisor+1,7
  3005     0994  2996               	goto	u2281
  3006     0995  2997               	goto	u2280
  3007     0996                     u2281:
  3008     0996  298A               	goto	l2133
  3009     0997                     u2280:
  3010     0997                     l2139:
  3011     0997  3001               	movlw	1
  3012     0998                     u2295:
  3013     0998  1003               	clrc
  3014     0999  0DF6               	rlf	___awdiv@quotient,f
  3015     099A  0DF7               	rlf	___awdiv@quotient+1,f
  3016     099B  3EFF               	addlw	-1
  3017     099C  1D03               	skipz
  3018     099D  2998               	goto	u2295
  3019     099E  0871               	movf	___awdiv@divisor+1,w
  3020     099F  0273               	subwf	___awdiv@dividend+1,w
  3021     09A0  1D03               	skipz
  3022     09A1  29A4               	goto	u2305
  3023     09A2  0870               	movf	___awdiv@divisor,w
  3024     09A3  0272               	subwf	___awdiv@dividend,w
  3025     09A4                     u2305:
  3026     09A4  1C03               	skipc
  3027     09A5  29A7               	goto	u2301
  3028     09A6  29A8               	goto	u2300
  3029     09A7                     u2301:
  3030     09A7  29AF               	goto	l2145
  3031     09A8                     u2300:
  3032     09A8                     l2141:
  3033     09A8  0870               	movf	___awdiv@divisor,w
  3034     09A9  02F2               	subwf	___awdiv@dividend,f
  3035     09AA  0871               	movf	___awdiv@divisor+1,w
  3036     09AB  1C03               	skipc
  3037     09AC  03F3               	decf	___awdiv@dividend+1,f
  3038     09AD  02F3               	subwf	___awdiv@dividend+1,f
  3039     09AE                     l2143:
  3040     09AE  1476               	bsf	___awdiv@quotient,0
  3041     09AF                     l2145:
  3042     09AF  3001               	movlw	1
  3043     09B0                     u2315:
  3044     09B0  1003               	clrc
  3045     09B1  0CF1               	rrf	___awdiv@divisor+1,f
  3046     09B2  0CF0               	rrf	___awdiv@divisor,f
  3047     09B3  3EFF               	addlw	-1
  3048     09B4  1D03               	skipz
  3049     09B5  29B0               	goto	u2315
  3050     09B6                     l2147:
  3051     09B6  3001               	movlw	1
  3052     09B7  02F4               	subwf	___awdiv@counter,f
  3053     09B8  1D03               	btfss	3,2
  3054     09B9  29BB               	goto	u2321
  3055     09BA  29BC               	goto	u2320
  3056     09BB                     u2321:
  3057     09BB  2997               	goto	l2139
  3058     09BC                     u2320:
  3059     09BC                     l2149:
  3060     09BC  0875               	movf	___awdiv@sign,w
  3061     09BD  1903               	btfsc	3,2
  3062     09BE  29C0               	goto	u2331
  3063     09BF  29C1               	goto	u2330
  3064     09C0                     u2331:
  3065     09C0  29C6               	goto	l2153
  3066     09C1                     u2330:
  3067     09C1                     l2151:
  3068     09C1  09F6               	comf	___awdiv@quotient,f
  3069     09C2  09F7               	comf	___awdiv@quotient+1,f
  3070     09C3  0AF6               	incf	___awdiv@quotient,f
  3071     09C4  1903               	skipnz
  3072     09C5  0AF7               	incf	___awdiv@quotient+1,f
  3073     09C6                     l2153:
  3074     09C6  0877               	movf	___awdiv@quotient+1,w
  3075     09C7  00F1               	movwf	?___awdiv+1
  3076     09C8  0876               	movf	___awdiv@quotient,w
  3077     09C9  00F0               	movwf	?___awdiv
  3078     09CA                     l501:
  3079     09CA  0008               	return
  3080     09CB                     __end_of___awdiv:
  3081                           
  3082                           	psect	text10
  3083     1733                     __ptext10:	
  3084 ;; *************** function ___wmul *****************
  3085 ;; Defined at:
  3086 ;;		line 15 in file "C:\Program Files\Microchip\xc8\v3.10\pic\sources\c99\common\Umul16.c"
  3087 ;; Parameters:    Size  Location     Type
  3088 ;;  multiplier      2    0[COMMON] unsigned int 
  3089 ;;  multiplicand    2    2[COMMON] unsigned int 
  3090 ;; Auto vars:     Size  Location     Type
  3091 ;;  product         2    4[COMMON] unsigned int 
  3092 ;; Return value:  Size  Location     Type
  3093 ;;                  2    0[COMMON] unsigned int 
  3094 ;; Registers used:
  3095 ;;		wreg, status,2, status,0
  3096 ;; Tracked objects:
  3097 ;;		On entry : 0/0
  3098 ;;		On exit  : 0/0
  3099 ;;		Unchanged: 0/0
  3100 ;; Data sizes:     COMMON   BANK0   BANK1   BANK3   BANK2
  3101 ;;      Params:         4       0       0       0       0
  3102 ;;      Locals:         2       0       0       0       0
  3103 ;;      Temps:          0       0       0       0       0
  3104 ;;      Totals:         6       0       0       0       0
  3105 ;;Total ram usage:        6 bytes
  3106 ;; Hardware stack levels used: 1
  3107 ;; This function calls:
  3108 ;;		Nothing
  3109 ;; This function is called by:
  3110 ;;		_float_to_string_opt
  3111 ;; This function uses a non-reentrant model
  3112 ;;
  3113                           
  3114     1733                     ___wmul:	
  3115                           ;psect for function ___wmul
  3116                           
  3117     1733                     l2587:	
  3118                           ;incstack = 0
  3119                           ; Regs used in ___wmul: [wreg+status,2+status,0]
  3120                           
  3121     1733  01F4               	clrf	___wmul@product
  3122     1734  01F5               	clrf	___wmul@product+1
  3123     1735                     l2589:
  3124     1735  1C70               	btfss	___wmul@multiplier,0
  3125     1736  2F38               	goto	u3181
  3126     1737  2F39               	goto	u3180
  3127     1738                     u3181:
  3128     1738  2F3F               	goto	l348
  3129     1739                     u3180:
  3130     1739                     l2591:
  3131     1739  0872               	movf	___wmul@multiplicand,w
  3132     173A  07F4               	addwf	___wmul@product,f
  3133     173B  1803               	skipnc
  3134     173C  0AF5               	incf	___wmul@product+1,f
  3135     173D  0873               	movf	___wmul@multiplicand+1,w
  3136     173E  07F5               	addwf	___wmul@product+1,f
  3137     173F                     l348:
  3138     173F  3001               	movlw	1
  3139     1740                     u3195:
  3140     1740  1003               	clrc
  3141     1741  0DF2               	rlf	___wmul@multiplicand,f
  3142     1742  0DF3               	rlf	___wmul@multiplicand+1,f
  3143     1743  3EFF               	addlw	-1
  3144     1744  1D03               	skipz
  3145     1745  2F40               	goto	u3195
  3146     1746                     l2593:
  3147     1746  3001               	movlw	1
  3148     1747                     u3205:
  3149     1747  1003               	clrc
  3150     1748  0CF1               	rrf	___wmul@multiplier+1,f
  3151     1749  0CF0               	rrf	___wmul@multiplier,f
  3152     174A  3EFF               	addlw	-1
  3153     174B  1D03               	skipz
  3154     174C  2F47               	goto	u3205
  3155     174D                     l2595:
  3156     174D  0870               	movf	___wmul@multiplier,w
  3157     174E  0471               	iorwf	___wmul@multiplier+1,w
  3158     174F  1D03               	btfss	3,2
  3159     1750  2F52               	goto	u3211
  3160     1751  2F53               	goto	u3210
  3161     1752                     u3211:
  3162     1752  2F35               	goto	l2589
  3163     1753                     u3210:
  3164     1753                     l2597:
  3165     1753  0875               	movf	___wmul@product+1,w
  3166     1754  00F1               	movwf	?___wmul+1
  3167     1755  0874               	movf	___wmul@product,w
  3168     1756  00F0               	movwf	?___wmul
  3169     1757                     l350:
  3170     1757  0008               	return
  3171     1758                     __end_of___wmul:
  3172                           
  3173                           	psect	text11
  3174     0015                     __ptext11:	
  3175 ;; *************** function ___fltol *****************
  3176 ;; Defined at:
  3177 ;;		line 43 in file "C:\Program Files\Microchip\xc8\v3.10\pic\sources\c99\common\fltol.c"
  3178 ;; Parameters:    Size  Location     Type
  3179 ;;  f1              4   60[BANK0 ] unsigned int 
  3180 ;; Auto vars:     Size  Location     Type
  3181 ;;  exp1            1   69[BANK0 ] unsigned char 
  3182 ;;  sign1           1   68[BANK0 ] unsigned char 
  3183 ;; Return value:  Size  Location     Type
  3184 ;;                  4   60[BANK0 ] long 
  3185 ;; Registers used:
  3186 ;;		wreg, status,2, status,0
  3187 ;; Tracked objects:
  3188 ;;		On entry : 0/0
  3189 ;;		On exit  : 0/0
  3190 ;;		Unchanged: 0/0
  3191 ;; Data sizes:     COMMON   BANK0   BANK1   BANK3   BANK2
  3192 ;;      Params:         0       4       0       0       0
  3193 ;;      Locals:         0       2       0       0       0
  3194 ;;      Temps:          0       4       0       0       0
  3195 ;;      Totals:         0      10       0       0       0
  3196 ;;Total ram usage:       10 bytes
  3197 ;; Hardware stack levels used: 1
  3198 ;; This function calls:
  3199 ;;		Nothing
  3200 ;; This function is called by:
  3201 ;;		_float_to_string_opt
  3202 ;; This function uses a non-reentrant model
  3203 ;;
  3204                           
  3205     0015                     ___fltol:	
  3206                           ;psect for function ___fltol
  3207                           
  3208     0015                     l2629:	
  3209                           ;incstack = 0
  3210                           ; Regs used in ___fltol: [wreg+status,2+status,0]
  3211                           
  3212     0015  1003               	clrc
  3213     0016  1283               	bcf	3,5	;RP0=0, select bank0
  3214     0017  1303               	bcf	3,6	;RP1=0, select bank0
  3215     0018  0D5E               	rlf	___fltol@f1+2,w
  3216     0019  0D5F               	rlf	___fltol@f1+3,w
  3217     001A  00E5               	movwf	___fltol@exp1
  3218     001B  0865               	movf	___fltol@exp1,w
  3219     001C  1D03               	btfss	3,2
  3220     001D  281F               	goto	u3301
  3221     001E  2820               	goto	u3300
  3222     001F                     u3301:
  3223     001F  2829               	goto	l2635
  3224     0020                     u3300:
  3225     0020                     l2631:
  3226     0020  3000               	movlw	0
  3227     0021  00DF               	movwf	?___fltol+3
  3228     0022  3000               	movlw	0
  3229     0023  00DE               	movwf	?___fltol+2
  3230     0024  3000               	movlw	0
  3231     0025  00DD               	movwf	?___fltol+1
  3232     0026  3000               	movlw	0
  3233     0027  00DC               	movwf	?___fltol
  3234     0028  288A               	goto	l542
  3235     0029                     l2635:
  3236     0029  085C               	movf	___fltol@f1,w
  3237     002A  00E0               	movwf	??___fltol
  3238     002B  085D               	movf	___fltol@f1+1,w
  3239     002C  00E1               	movwf	??___fltol+1
  3240     002D  085E               	movf	___fltol@f1+2,w
  3241     002E  00E2               	movwf	??___fltol+2
  3242     002F  085F               	movf	___fltol@f1+3,w
  3243     0030  00E3               	movwf	??___fltol+3
  3244     0031  301F               	movlw	31
  3245     0032                     u3315:
  3246     0032  1003               	clrc
  3247     0033  0CE3               	rrf	??___fltol+3,f
  3248     0034  0CE2               	rrf	??___fltol+2,f
  3249     0035  0CE1               	rrf	??___fltol+1,f
  3250     0036  0CE0               	rrf	??___fltol,f
  3251     0037                     u3310:
  3252     0037  3EFF               	addlw	-1
  3253     0038  1D03               	skipz
  3254     0039  2832               	goto	u3315
  3255     003A  0860               	movf	??___fltol,w
  3256     003B  00E4               	movwf	___fltol@sign1
  3257     003C                     l2637:
  3258     003C  17DE               	bsf	___fltol@f1+2,7
  3259     003D                     l2639:
  3260     003D  30FF               	movlw	255
  3261     003E  05DC               	andwf	___fltol@f1,f
  3262     003F  30FF               	movlw	255
  3263     0040  05DD               	andwf	___fltol@f1+1,f
  3264     0041  30FF               	movlw	255
  3265     0042  05DE               	andwf	___fltol@f1+2,f
  3266     0043  3000               	movlw	0
  3267     0044  05DF               	andwf	___fltol@f1+3,f
  3268     0045                     l2641:
  3269     0045  3096               	movlw	150
  3270     0046  02E5               	subwf	___fltol@exp1,f
  3271     0047                     l2643:
  3272     0047  1FE5               	btfss	___fltol@exp1,7
  3273     0048  284A               	goto	u3321
  3274     0049  284B               	goto	u3320
  3275     004A                     u3321:
  3276     004A  2863               	goto	l2653
  3277     004B                     u3320:
  3278     004B                     l2645:
  3279     004B  0865               	movf	___fltol@exp1,w
  3280     004C  3A80               	xorlw	128
  3281     004D  3E97               	addlw	151
  3282     004E  1803               	skipnc
  3283     004F  2851               	goto	u3331
  3284     0050  2852               	goto	u3330
  3285     0051                     u3331:
  3286     0051  2853               	goto	l2651
  3287     0052                     u3330:
  3288     0052  2820               	goto	l2631
  3289     0053                     l2651:
  3290     0053  3001               	movlw	1
  3291     0054                     u3345:
  3292     0054  1003               	clrc
  3293     0055  0CDF               	rrf	___fltol@f1+3,f
  3294     0056  0CDE               	rrf	___fltol@f1+2,f
  3295     0057  0CDD               	rrf	___fltol@f1+1,f
  3296     0058  0CDC               	rrf	___fltol@f1,f
  3297     0059  3EFF               	addlw	-1
  3298     005A  1D03               	skipz
  3299     005B  2854               	goto	u3345
  3300     005C  3001               	movlw	1
  3301     005D  07E5               	addwf	___fltol@exp1,f
  3302     005E  1D03               	btfss	3,2
  3303     005F  2861               	goto	u3351
  3304     0060  2862               	goto	u3350
  3305     0061                     u3351:
  3306     0061  2853               	goto	l2651
  3307     0062                     u3350:
  3308     0062  287A               	goto	l2661
  3309     0063                     l2653:
  3310     0063  3020               	movlw	32
  3311     0064  0265               	subwf	___fltol@exp1,w
  3312     0065  1C03               	skipc
  3313     0066  2868               	goto	u3361
  3314     0067  2869               	goto	u3360
  3315     0068                     u3361:
  3316     0068  2875               	goto	l549
  3317     0069                     u3360:
  3318     0069  2820               	goto	l2631
  3319     006A                     l2659:
  3320     006A  3001               	movlw	1
  3321     006B  00E0               	movwf	??___fltol
  3322     006C                     u3375:
  3323     006C  1003               	clrc
  3324     006D  0DDC               	rlf	___fltol@f1,f
  3325     006E  0DDD               	rlf	___fltol@f1+1,f
  3326     006F  0DDE               	rlf	___fltol@f1+2,f
  3327     0070  0DDF               	rlf	___fltol@f1+3,f
  3328     0071  0BE0               	decfsz	??___fltol,f
  3329     0072  286C               	goto	u3375
  3330     0073  3001               	movlw	1
  3331     0074  02E5               	subwf	___fltol@exp1,f
  3332     0075                     l549:
  3333     0075  0865               	movf	___fltol@exp1,w
  3334     0076  1D03               	btfss	3,2
  3335     0077  2879               	goto	u3381
  3336     0078  287A               	goto	u3380
  3337     0079                     u3381:
  3338     0079  286A               	goto	l2659
  3339     007A                     u3380:
  3340     007A                     l2661:
  3341     007A  0864               	movf	___fltol@sign1,w
  3342     007B  1903               	btfsc	3,2
  3343     007C  287E               	goto	u3391
  3344     007D  287F               	goto	u3390
  3345     007E                     u3391:
  3346     007E  288A               	goto	l552
  3347     007F                     u3390:
  3348     007F                     l2663:
  3349     007F  09DC               	comf	___fltol@f1,f
  3350     0080  09DD               	comf	___fltol@f1+1,f
  3351     0081  09DE               	comf	___fltol@f1+2,f
  3352     0082  09DF               	comf	___fltol@f1+3,f
  3353     0083  0ADC               	incf	___fltol@f1,f
  3354     0084  1903               	skipnz
  3355     0085  0ADD               	incf	___fltol@f1+1,f
  3356     0086  1903               	skipnz
  3357     0087  0ADE               	incf	___fltol@f1+2,f
  3358     0088  1903               	skipnz
  3359     0089  0ADF               	incf	___fltol@f1+3,f
  3360     008A                     l552:
  3361     008A                     l542:
  3362     008A  0008               	return
  3363     008B                     __end_of___fltol:
  3364                           
  3365                           	psect	text12
  3366     170F                     __ptext12:	
  3367 ;; *************** function ___flsub *****************
  3368 ;; Defined at:
  3369 ;;		line 242 in file "C:\Program Files\Microchip\xc8\v3.10\pic\sources\c99\common\sprcadd.c"
  3370 ;; Parameters:    Size  Location     Type
  3371 ;;  a               4   52[BANK0 ] long 
  3372 ;;  b               4   56[BANK0 ] long 
  3373 ;; Auto vars:     Size  Location     Type
  3374 ;;		None
  3375 ;; Return value:  Size  Location     Type
  3376 ;;                  4   52[BANK0 ] long 
  3377 ;; Registers used:
  3378 ;;		wreg, status,2, status,0, pclath, btemp1, cstack
  3379 ;; Tracked objects:
  3380 ;;		On entry : 0/0
  3381 ;;		On exit  : 0/0
  3382 ;;		Unchanged: 0/0
  3383 ;; Data sizes:     COMMON   BANK0   BANK1   BANK3   BANK2
  3384 ;;      Params:         0       8       0       0       0
  3385 ;;      Locals:         0       0       0       0       0
  3386 ;;      Temps:          0       0       0       0       0
  3387 ;;      Totals:         0       8       0       0       0
  3388 ;;Total ram usage:        8 bytes
  3389 ;; Hardware stack levels used: 1
  3390 ;; Hardware stack levels required when called: 1
  3391 ;; This function calls:
  3392 ;;		___fladd
  3393 ;; This function is called by:
  3394 ;;		_float_to_string_opt
  3395 ;; This function uses a non-reentrant model
  3396 ;;
  3397                           
  3398     170F                     ___flsub:	
  3399                           ;psect for function ___flsub
  3400                           
  3401     170F                     l2665:	
  3402                           ;incstack = 0
  3403                           ; Regs used in ___flsub: [wreg+status,2+status,0+pclath+btemp1+cstack]
  3404                           
  3405     170F  3080               	movlw	128
  3406     1710  1283               	bcf	3,5	;RP0=0, select bank0
  3407     1711  1303               	bcf	3,6	;RP1=0, select bank0
  3408     1712  06D7               	xorwf	___flsub@a+3,f
  3409     1713                     l2667:
  3410     1713  085B               	movf	___flsub@b+3,w
  3411     1714  00C3               	movwf	___fladd@b+3
  3412     1715  085A               	movf	___flsub@b+2,w
  3413     1716  00C2               	movwf	___fladd@b+2
  3414     1717  0859               	movf	___flsub@b+1,w
  3415     1718  00C1               	movwf	___fladd@b+1
  3416     1719  0858               	movf	___flsub@b,w
  3417     171A  00C0               	movwf	___fladd@b
  3418     171B  0857               	movf	___flsub@a+3,w
  3419     171C  00C7               	movwf	___fladd@a+3
  3420     171D  0856               	movf	___flsub@a+2,w
  3421     171E  00C6               	movwf	___fladd@a+2
  3422     171F  0855               	movf	___flsub@a+1,w
  3423     1720  00C5               	movwf	___fladd@a+1
  3424     1721  0854               	movf	___flsub@a,w
  3425     1722  00C4               	movwf	___fladd@a
  3426     1723  120A  118A  2255  160A  118A  	fcall	___fladd
  3427     1728  1283               	bcf	3,5	;RP0=0, select bank0
  3428     1729  1303               	bcf	3,6	;RP1=0, select bank0
  3429     172A  0843               	movf	?___fladd+3,w
  3430     172B  00D7               	movwf	?___flsub+3
  3431     172C  0842               	movf	?___fladd+2,w
  3432     172D  00D6               	movwf	?___flsub+2
  3433     172E  0841               	movf	?___fladd+1,w
  3434     172F  00D5               	movwf	?___flsub+1
  3435     1730  0840               	movf	?___fladd,w
  3436     1731  00D4               	movwf	?___flsub
  3437     1732                     l695:
  3438     1732  0008               	return
  3439     1733                     __end_of___flsub:
  3440                           
  3441                           	psect	text13
  3442     0861                     __ptext13:	
  3443 ;; *************** function ___flneg *****************
  3444 ;; Defined at:
  3445 ;;		line 15 in file "C:\Program Files\Microchip\xc8\v3.10\pic\sources\c99\common\flneg.c"
  3446 ;; Parameters:    Size  Location     Type
  3447 ;;  f1              4    0[COMMON] long 
  3448 ;; Auto vars:     Size  Location     Type
  3449 ;;		None
  3450 ;; Return value:  Size  Location     Type
  3451 ;;                  4    0[COMMON] long 
  3452 ;; Registers used:
  3453 ;;		wreg
  3454 ;; Tracked objects:
  3455 ;;		On entry : 0/0
  3456 ;;		On exit  : 0/0
  3457 ;;		Unchanged: 0/0
  3458 ;; Data sizes:     COMMON   BANK0   BANK1   BANK3   BANK2
  3459 ;;      Params:         4       0       0       0       0
  3460 ;;      Locals:         0       0       0       0       0
  3461 ;;      Temps:          0       0       0       0       0
  3462 ;;      Totals:         4       0       0       0       0
  3463 ;;Total ram usage:        4 bytes
  3464 ;; Hardware stack levels used: 1
  3465 ;; This function calls:
  3466 ;;		Nothing
  3467 ;; This function is called by:
  3468 ;;		_float_to_string_opt
  3469 ;; This function uses a non-reentrant model
  3470 ;;
  3471                           
  3472     0861                     ___flneg:	
  3473                           ;psect for function ___flneg
  3474                           
  3475     0861                     l2621:	
  3476                           ;incstack = 0
  3477                           ; Regs used in ___flneg: [wreg]
  3478                           
  3479     0861  0873               	movf	___flneg@f1+3,w
  3480     0862  0472               	iorwf	___flneg@f1+2,w
  3481     0863  0471               	iorwf	___flneg@f1+1,w
  3482     0864  0470               	iorwf	___flneg@f1,w
  3483     0865  1903               	skipnz
  3484     0866  2868               	goto	u3291
  3485     0867  2869               	goto	u3290
  3486     0868                     u3291:
  3487     0868  286B               	goto	l2625
  3488     0869                     u3290:
  3489     0869                     l2623:
  3490     0869  3080               	movlw	128
  3491     086A  06F3               	xorwf	___flneg@f1+3,f
  3492     086B                     l2625:
  3493     086B                     l538:
  3494     086B  0008               	return
  3495     086C                     __end_of___flneg:
  3496                           
  3497                           	psect	text14
  3498     04A5                     __ptext14:	
  3499 ;; *************** function ___flmul *****************
  3500 ;; Defined at:
  3501 ;;		line 8 in file "C:\Program Files\Microchip\xc8\v3.10\pic\sources\c99\common\sprcmul.c"
  3502 ;; Parameters:    Size  Location     Type
  3503 ;;  b               4    0[BANK0 ] long 
  3504 ;;  a               4    4[BANK0 ] long 
  3505 ;; Auto vars:     Size  Location     Type
  3506 ;;  prod            4   15[BANK0 ] struct .
  3507 ;;  grs             4    9[BANK0 ] unsigned long 
  3508 ;;  temp            2   19[BANK0 ] struct .
  3509 ;;  bexp            1   14[BANK0 ] unsigned char 
  3510 ;;  aexp            1   13[BANK0 ] unsigned char 
  3511 ;;  sign            1    8[BANK0 ] unsigned char 
  3512 ;; Return value:  Size  Location     Type
  3513 ;;                  4    0[BANK0 ] unsigned char 
  3514 ;; Registers used:
  3515 ;;		wreg, status,2, status,0, pclath, btemp1, cstack
  3516 ;; Tracked objects:
  3517 ;;		On entry : 0/0
  3518 ;;		On exit  : 0/0
  3519 ;;		Unchanged: 0/0
  3520 ;; Data sizes:     COMMON   BANK0   BANK1   BANK3   BANK2
  3521 ;;      Params:         0       8       0       0       0
  3522 ;;      Locals:         0      13       0       0       0
  3523 ;;      Temps:          5       0       0       0       0
  3524 ;;      Totals:         5      21       0       0       0
  3525 ;;Total ram usage:       26 bytes
  3526 ;; Hardware stack levels used: 1
  3527 ;; Hardware stack levels required when called: 1
  3528 ;; This function calls:
  3529 ;;		__Umul8_16
  3530 ;; This function is called by:
  3531 ;;		_float_to_string_opt
  3532 ;; This function uses a non-reentrant model
  3533 ;;
  3534                           
  3535     04A5                     ___flmul:	
  3536                           ;psect for function ___flmul
  3537                           
  3538     04A5                     l2815:	
  3539                           ;incstack = 0
  3540                           ; Regs used in ___flmul: [wreg+status,2+status,0+pclath+btemp1+cstack]
  3541                           
  3542     04A5  1283               	bcf	3,5	;RP0=0, select bank0
  3543     04A6  1303               	bcf	3,6	;RP1=0, select bank0
  3544     04A7  0823               	movf	___flmul@b+3,w
  3545     04A8  00A8               	movwf	___flmul@sign
  3546     04A9                     l2817:
  3547     04A9  3080               	movlw	128
  3548     04AA  05A8               	andwf	___flmul@sign,f
  3549     04AB                     l2819:
  3550     04AB  0823               	movf	___flmul@b+3,w
  3551     04AC  00F9               	movwf	??___flmul
  3552     04AD  0779               	addwf	??___flmul,w
  3553     04AE  00AE               	movwf	___flmul@bexp
  3554     04AF                     l2821:
  3555     04AF  1FA2               	btfss	___flmul@b+2,7
  3556     04B0  2CB2               	goto	u3691
  3557     04B1  2CB3               	goto	u3690
  3558     04B2                     u3691:
  3559     04B2  2CB4               	goto	l2825
  3560     04B3                     u3690:
  3561     04B3                     l2823:
  3562     04B3  142E               	bsf	___flmul@bexp,0
  3563     04B4                     l2825:
  3564     04B4  082E               	movf	___flmul@bexp,w
  3565     04B5  1903               	btfsc	3,2
  3566     04B6  2CB8               	goto	u3701
  3567     04B7  2CB9               	goto	u3700
  3568     04B8                     u3701:
  3569     04B8  2CC8               	goto	l2833
  3570     04B9                     u3700:
  3571     04B9                     l2827:
  3572     04B9  0A2E               	incf	___flmul@bexp,w
  3573     04BA  1D03               	btfss	3,2
  3574     04BB  2CBD               	goto	u3711
  3575     04BC  2CBE               	goto	u3710
  3576     04BD                     u3711:
  3577     04BD  2CC6               	goto	l2831
  3578     04BE                     u3710:
  3579     04BE                     l2829:
  3580     04BE  3000               	movlw	0
  3581     04BF  00A3               	movwf	___flmul@b+3
  3582     04C0  3000               	movlw	0
  3583     04C1  00A2               	movwf	___flmul@b+2
  3584     04C2  3000               	movlw	0
  3585     04C3  00A1               	movwf	___flmul@b+1
  3586     04C4  3000               	movlw	0
  3587     04C5  00A0               	movwf	___flmul@b
  3588     04C6                     l2831:
  3589     04C6  17A2               	bsf	___flmul@b+2,7
  3590     04C7  2CD0               	goto	l2835
  3591     04C8                     l2833:
  3592     04C8  3000               	movlw	0
  3593     04C9  00A3               	movwf	___flmul@b+3
  3594     04CA  3000               	movlw	0
  3595     04CB  00A2               	movwf	___flmul@b+2
  3596     04CC  3000               	movlw	0
  3597     04CD  00A1               	movwf	___flmul@b+1
  3598     04CE  3000               	movlw	0
  3599     04CF  00A0               	movwf	___flmul@b
  3600     04D0                     l2835:
  3601     04D0  0827               	movf	___flmul@a+3,w
  3602     04D1  3980               	andlw	128
  3603     04D2  06A8               	xorwf	___flmul@sign,f
  3604     04D3                     l2837:
  3605     04D3  0827               	movf	___flmul@a+3,w
  3606     04D4  00F9               	movwf	??___flmul
  3607     04D5  0779               	addwf	??___flmul,w
  3608     04D6  00AD               	movwf	___flmul@aexp
  3609     04D7                     l2839:
  3610     04D7  1FA6               	btfss	___flmul@a+2,7
  3611     04D8  2CDA               	goto	u3721
  3612     04D9  2CDB               	goto	u3720
  3613     04DA                     u3721:
  3614     04DA  2CDC               	goto	l2843
  3615     04DB                     u3720:
  3616     04DB                     l2841:
  3617     04DB  142D               	bsf	___flmul@aexp,0
  3618     04DC                     l2843:
  3619     04DC  082D               	movf	___flmul@aexp,w
  3620     04DD  1903               	btfsc	3,2
  3621     04DE  2CE0               	goto	u3731
  3622     04DF  2CE1               	goto	u3730
  3623     04E0                     u3731:
  3624     04E0  2CF0               	goto	l2851
  3625     04E1                     u3730:
  3626     04E1                     l2845:
  3627     04E1  0A2D               	incf	___flmul@aexp,w
  3628     04E2  1D03               	btfss	3,2
  3629     04E3  2CE5               	goto	u3741
  3630     04E4  2CE6               	goto	u3740
  3631     04E5                     u3741:
  3632     04E5  2CEE               	goto	l2849
  3633     04E6                     u3740:
  3634     04E6                     l2847:
  3635     04E6  3000               	movlw	0
  3636     04E7  00A7               	movwf	___flmul@a+3
  3637     04E8  3000               	movlw	0
  3638     04E9  00A6               	movwf	___flmul@a+2
  3639     04EA  3000               	movlw	0
  3640     04EB  00A5               	movwf	___flmul@a+1
  3641     04EC  3000               	movlw	0
  3642     04ED  00A4               	movwf	___flmul@a
  3643     04EE                     l2849:
  3644     04EE  17A6               	bsf	___flmul@a+2,7
  3645     04EF  2CF8               	goto	l2853
  3646     04F0                     l2851:
  3647     04F0  3000               	movlw	0
  3648     04F1  00A7               	movwf	___flmul@a+3
  3649     04F2  3000               	movlw	0
  3650     04F3  00A6               	movwf	___flmul@a+2
  3651     04F4  3000               	movlw	0
  3652     04F5  00A5               	movwf	___flmul@a+1
  3653     04F6  3000               	movlw	0
  3654     04F7  00A4               	movwf	___flmul@a
  3655     04F8                     l2853:
  3656     04F8  082D               	movf	___flmul@aexp,w
  3657     04F9  1903               	btfsc	3,2
  3658     04FA  2CFC               	goto	u3751
  3659     04FB  2CFD               	goto	u3750
  3660     04FC                     u3751:
  3661     04FC  2D02               	goto	l2857
  3662     04FD                     u3750:
  3663     04FD                     l2855:
  3664     04FD  082E               	movf	___flmul@bexp,w
  3665     04FE  1D03               	btfss	3,2
  3666     04FF  2D01               	goto	u3761
  3667     0500  2D02               	goto	u3760
  3668     0501                     u3761:
  3669     0501  2D0B               	goto	l2861
  3670     0502                     u3760:
  3671     0502                     l2857:
  3672     0502  3000               	movlw	0
  3673     0503  00A3               	movwf	?___flmul+3
  3674     0504  3000               	movlw	0
  3675     0505  00A2               	movwf	?___flmul+2
  3676     0506  3000               	movlw	0
  3677     0507  00A1               	movwf	?___flmul+1
  3678     0508  3000               	movlw	0
  3679     0509  00A0               	movwf	?___flmul
  3680     050A  2FE6               	goto	l745
  3681     050B                     l2861:
  3682     050B  0820               	movf	___flmul@b,w
  3683     050C  00F0               	movwf	__Umul8_16@multiplicand
  3684     050D  0826               	movf	___flmul@a+2,w
  3685     050E  120A  158A  206C  120A  118A  	fcall	__Umul8_16
  3686     0513  0871               	movf	?__Umul8_16+1,w
  3687     0514  1283               	bcf	3,5	;RP0=0, select bank0
  3688     0515  1303               	bcf	3,6	;RP1=0, select bank0
  3689     0516  00B4               	movwf	___flmul@temp+1
  3690     0517  0870               	movf	?__Umul8_16,w
  3691     0518  00B3               	movwf	___flmul@temp
  3692     0519                     l2863:
  3693     0519  0833               	movf	___flmul@temp,w
  3694     051A  00F9               	movwf	??___flmul
  3695     051B  01FA               	clrf	??___flmul+1
  3696     051C  01FB               	clrf	??___flmul+2
  3697     051D  01FC               	clrf	??___flmul+3
  3698     051E  087C               	movf	??___flmul+3,w
  3699     051F  00AC               	movwf	___flmul@grs+3
  3700     0520  087B               	movf	??___flmul+2,w
  3701     0521  00AB               	movwf	___flmul@grs+2
  3702     0522  087A               	movf	??___flmul+1,w
  3703     0523  00AA               	movwf	___flmul@grs+1
  3704     0524  0879               	movf	??___flmul,w
  3705     0525  00A9               	movwf	___flmul@grs
  3706     0526                     l2865:
  3707     0526  0834               	movf	___flmul@temp+1,w
  3708     0527  00F9               	movwf	??___flmul
  3709     0528  01FA               	clrf	??___flmul+1
  3710     0529  01FB               	clrf	??___flmul+2
  3711     052A  01FC               	clrf	??___flmul+3
  3712     052B  087C               	movf	??___flmul+3,w
  3713     052C  00B2               	movwf	___flmul@prod+3
  3714     052D  087B               	movf	??___flmul+2,w
  3715     052E  00B1               	movwf	___flmul@prod+2
  3716     052F  087A               	movf	??___flmul+1,w
  3717     0530  00B0               	movwf	___flmul@prod+1
  3718     0531  0879               	movf	??___flmul,w
  3719     0532  00AF               	movwf	___flmul@prod
  3720     0533  0821               	movf	___flmul@b+1,w
  3721     0534  00F0               	movwf	__Umul8_16@multiplicand
  3722     0535  0825               	movf	___flmul@a+1,w
  3723     0536  120A  158A  206C  120A  118A  	fcall	__Umul8_16
  3724     053B  0871               	movf	?__Umul8_16+1,w
  3725     053C  1283               	bcf	3,5	;RP0=0, select bank0
  3726     053D  1303               	bcf	3,6	;RP1=0, select bank0
  3727     053E  00B4               	movwf	___flmul@temp+1
  3728     053F  0870               	movf	?__Umul8_16,w
  3729     0540  00B3               	movwf	___flmul@temp
  3730     0541                     l2867:
  3731     0541  0833               	movf	___flmul@temp,w
  3732     0542  00F9               	movwf	??___flmul
  3733     0543  01FA               	clrf	??___flmul+1
  3734     0544  01FB               	clrf	??___flmul+2
  3735     0545  01FC               	clrf	??___flmul+3
  3736     0546  0879               	movf	??___flmul,w
  3737     0547  07A9               	addwf	___flmul@grs,f
  3738     0548  087A               	movf	??___flmul+1,w
  3739     0549  1103               	clrz
  3740     054A  1803               	skipnc
  3741     054B  3E01               	addlw	1
  3742     054C  1903               	skipnz
  3743     054D  2D4F               	goto	u3771
  3744     054E  07AA               	addwf	___flmul@grs+1,f
  3745     054F                     u3771:
  3746     054F  087B               	movf	??___flmul+2,w
  3747     0550  1103               	clrz
  3748     0551  1803               	skipnc
  3749     0552  3E01               	addlw	1
  3750     0553  1903               	skipnz
  3751     0554  2D56               	goto	u3772
  3752     0555  07AB               	addwf	___flmul@grs+2,f
  3753     0556                     u3772:
  3754     0556  087C               	movf	??___flmul+3,w
  3755     0557  1103               	clrz
  3756     0558  1803               	skipnc
  3757     0559  3E01               	addlw	1
  3758     055A  1903               	skipnz
  3759     055B  2D5D               	goto	u3773
  3760     055C  07AC               	addwf	___flmul@grs+3,f
  3761     055D                     u3773:
  3762     055D                     l2869:
  3763     055D  0834               	movf	___flmul@temp+1,w
  3764     055E  00F9               	movwf	??___flmul
  3765     055F  01FA               	clrf	??___flmul+1
  3766     0560  01FB               	clrf	??___flmul+2
  3767     0561  01FC               	clrf	??___flmul+3
  3768     0562  0879               	movf	??___flmul,w
  3769     0563  07AF               	addwf	___flmul@prod,f
  3770     0564  087A               	movf	??___flmul+1,w
  3771     0565  1103               	clrz
  3772     0566  1803               	skipnc
  3773     0567  3E01               	addlw	1
  3774     0568  1903               	skipnz
  3775     0569  2D6B               	goto	u3781
  3776     056A  07B0               	addwf	___flmul@prod+1,f
  3777     056B                     u3781:
  3778     056B  087B               	movf	??___flmul+2,w
  3779     056C  1103               	clrz
  3780     056D  1803               	skipnc
  3781     056E  3E01               	addlw	1
  3782     056F  1903               	skipnz
  3783     0570  2D72               	goto	u3782
  3784     0571  07B1               	addwf	___flmul@prod+2,f
  3785     0572                     u3782:
  3786     0572  087C               	movf	??___flmul+3,w
  3787     0573  1103               	clrz
  3788     0574  1803               	skipnc
  3789     0575  3E01               	addlw	1
  3790     0576  1903               	skipnz
  3791     0577  2D79               	goto	u3783
  3792     0578  07B2               	addwf	___flmul@prod+3,f
  3793     0579                     u3783:
  3794     0579  0822               	movf	___flmul@b+2,w
  3795     057A  00F0               	movwf	__Umul8_16@multiplicand
  3796     057B  0824               	movf	___flmul@a,w
  3797     057C  120A  158A  206C  120A  118A  	fcall	__Umul8_16
  3798     0581  0871               	movf	?__Umul8_16+1,w
  3799     0582  1283               	bcf	3,5	;RP0=0, select bank0
  3800     0583  1303               	bcf	3,6	;RP1=0, select bank0
  3801     0584  00B4               	movwf	___flmul@temp+1
  3802     0585  0870               	movf	?__Umul8_16,w
  3803     0586  00B3               	movwf	___flmul@temp
  3804     0587                     l2871:
  3805     0587  0833               	movf	___flmul@temp,w
  3806     0588  00F9               	movwf	??___flmul
  3807     0589  01FA               	clrf	??___flmul+1
  3808     058A  01FB               	clrf	??___flmul+2
  3809     058B  01FC               	clrf	??___flmul+3
  3810     058C  0879               	movf	??___flmul,w
  3811     058D  07A9               	addwf	___flmul@grs,f
  3812     058E  087A               	movf	??___flmul+1,w
  3813     058F  1103               	clrz
  3814     0590  1803               	skipnc
  3815     0591  3E01               	addlw	1
  3816     0592  1903               	skipnz
  3817     0593  2D95               	goto	u3791
  3818     0594  07AA               	addwf	___flmul@grs+1,f
  3819     0595                     u3791:
  3820     0595  087B               	movf	??___flmul+2,w
  3821     0596  1103               	clrz
  3822     0597  1803               	skipnc
  3823     0598  3E01               	addlw	1
  3824     0599  1903               	skipnz
  3825     059A  2D9C               	goto	u3792
  3826     059B  07AB               	addwf	___flmul@grs+2,f
  3827     059C                     u3792:
  3828     059C  087C               	movf	??___flmul+3,w
  3829     059D  1103               	clrz
  3830     059E  1803               	skipnc
  3831     059F  3E01               	addlw	1
  3832     05A0  1903               	skipnz
  3833     05A1  2DA3               	goto	u3793
  3834     05A2  07AC               	addwf	___flmul@grs+3,f
  3835     05A3                     u3793:
  3836     05A3                     l2873:
  3837     05A3  0834               	movf	___flmul@temp+1,w
  3838     05A4  00F9               	movwf	??___flmul
  3839     05A5  01FA               	clrf	??___flmul+1
  3840     05A6  01FB               	clrf	??___flmul+2
  3841     05A7  01FC               	clrf	??___flmul+3
  3842     05A8  0879               	movf	??___flmul,w
  3843     05A9  07AF               	addwf	___flmul@prod,f
  3844     05AA  087A               	movf	??___flmul+1,w
  3845     05AB  1103               	clrz
  3846     05AC  1803               	skipnc
  3847     05AD  3E01               	addlw	1
  3848     05AE  1903               	skipnz
  3849     05AF  2DB1               	goto	u3801
  3850     05B0  07B0               	addwf	___flmul@prod+1,f
  3851     05B1                     u3801:
  3852     05B1  087B               	movf	??___flmul+2,w
  3853     05B2  1103               	clrz
  3854     05B3  1803               	skipnc
  3855     05B4  3E01               	addlw	1
  3856     05B5  1903               	skipnz
  3857     05B6  2DB8               	goto	u3802
  3858     05B7  07B1               	addwf	___flmul@prod+2,f
  3859     05B8                     u3802:
  3860     05B8  087C               	movf	??___flmul+3,w
  3861     05B9  1103               	clrz
  3862     05BA  1803               	skipnc
  3863     05BB  3E01               	addlw	1
  3864     05BC  1903               	skipnz
  3865     05BD  2DBF               	goto	u3803
  3866     05BE  07B2               	addwf	___flmul@prod+3,f
  3867     05BF                     u3803:
  3868     05BF                     l2875:
  3869     05BF  3008               	movlw	8
  3870     05C0  00F9               	movwf	??___flmul
  3871     05C1                     u3815:
  3872     05C1  1003               	clrc
  3873     05C2  0DA9               	rlf	___flmul@grs,f
  3874     05C3  0DAA               	rlf	___flmul@grs+1,f
  3875     05C4  0DAB               	rlf	___flmul@grs+2,f
  3876     05C5  0DAC               	rlf	___flmul@grs+3,f
  3877     05C6  0BF9               	decfsz	??___flmul,f
  3878     05C7  2DC1               	goto	u3815
  3879     05C8                     l2877:
  3880     05C8  0821               	movf	___flmul@b+1,w
  3881     05C9  00F0               	movwf	__Umul8_16@multiplicand
  3882     05CA  0824               	movf	___flmul@a,w
  3883     05CB  120A  158A  206C  120A  118A  	fcall	__Umul8_16
  3884     05D0  0871               	movf	?__Umul8_16+1,w
  3885     05D1  1283               	bcf	3,5	;RP0=0, select bank0
  3886     05D2  1303               	bcf	3,6	;RP1=0, select bank0
  3887     05D3  00B4               	movwf	___flmul@temp+1
  3888     05D4  0870               	movf	?__Umul8_16,w
  3889     05D5  00B3               	movwf	___flmul@temp
  3890     05D6                     l2879:
  3891     05D6  0833               	movf	___flmul@temp,w
  3892     05D7  00F9               	movwf	??___flmul
  3893     05D8  0834               	movf	___flmul@temp+1,w
  3894     05D9  00FA               	movwf	??___flmul+1
  3895     05DA  01FB               	clrf	??___flmul+2
  3896     05DB  01FC               	clrf	??___flmul+3
  3897     05DC  0879               	movf	??___flmul,w
  3898     05DD  07A9               	addwf	___flmul@grs,f
  3899     05DE  087A               	movf	??___flmul+1,w
  3900     05DF  1103               	clrz
  3901     05E0  1803               	skipnc
  3902     05E1  3E01               	addlw	1
  3903     05E2  1903               	skipnz
  3904     05E3  2DE5               	goto	u3821
  3905     05E4  07AA               	addwf	___flmul@grs+1,f
  3906     05E5                     u3821:
  3907     05E5  087B               	movf	??___flmul+2,w
  3908     05E6  1103               	clrz
  3909     05E7  1803               	skipnc
  3910     05E8  3E01               	addlw	1
  3911     05E9  1903               	skipnz
  3912     05EA  2DEC               	goto	u3822
  3913     05EB  07AB               	addwf	___flmul@grs+2,f
  3914     05EC                     u3822:
  3915     05EC  087C               	movf	??___flmul+3,w
  3916     05ED  1103               	clrz
  3917     05EE  1803               	skipnc
  3918     05EF  3E01               	addlw	1
  3919     05F0  1903               	skipnz
  3920     05F1  2DF3               	goto	u3823
  3921     05F2  07AC               	addwf	___flmul@grs+3,f
  3922     05F3                     u3823:
  3923     05F3                     l2881:
  3924     05F3  0820               	movf	___flmul@b,w
  3925     05F4  00F0               	movwf	__Umul8_16@multiplicand
  3926     05F5  0825               	movf	___flmul@a+1,w
  3927     05F6  120A  158A  206C  120A  118A  	fcall	__Umul8_16
  3928     05FB  0871               	movf	?__Umul8_16+1,w
  3929     05FC  1283               	bcf	3,5	;RP0=0, select bank0
  3930     05FD  1303               	bcf	3,6	;RP1=0, select bank0
  3931     05FE  00B4               	movwf	___flmul@temp+1
  3932     05FF  0870               	movf	?__Umul8_16,w
  3933     0600  00B3               	movwf	___flmul@temp
  3934     0601                     l2883:
  3935     0601  0833               	movf	___flmul@temp,w
  3936     0602  00F9               	movwf	??___flmul
  3937     0603  0834               	movf	___flmul@temp+1,w
  3938     0604  00FA               	movwf	??___flmul+1
  3939     0605  01FB               	clrf	??___flmul+2
  3940     0606  01FC               	clrf	??___flmul+3
  3941     0607  0879               	movf	??___flmul,w
  3942     0608  07A9               	addwf	___flmul@grs,f
  3943     0609  087A               	movf	??___flmul+1,w
  3944     060A  1103               	clrz
  3945     060B  1803               	skipnc
  3946     060C  3E01               	addlw	1
  3947     060D  1903               	skipnz
  3948     060E  2E10               	goto	u3831
  3949     060F  07AA               	addwf	___flmul@grs+1,f
  3950     0610                     u3831:
  3951     0610  087B               	movf	??___flmul+2,w
  3952     0611  1103               	clrz
  3953     0612  1803               	skipnc
  3954     0613  3E01               	addlw	1
  3955     0614  1903               	skipnz
  3956     0615  2E17               	goto	u3832
  3957     0616  07AB               	addwf	___flmul@grs+2,f
  3958     0617                     u3832:
  3959     0617  087C               	movf	??___flmul+3,w
  3960     0618  1103               	clrz
  3961     0619  1803               	skipnc
  3962     061A  3E01               	addlw	1
  3963     061B  1903               	skipnz
  3964     061C  2E1E               	goto	u3833
  3965     061D  07AC               	addwf	___flmul@grs+3,f
  3966     061E                     u3833:
  3967     061E                     l2885:
  3968     061E  3008               	movlw	8
  3969     061F  00F9               	movwf	??___flmul
  3970     0620                     u3845:
  3971     0620  1003               	clrc
  3972     0621  0DA9               	rlf	___flmul@grs,f
  3973     0622  0DAA               	rlf	___flmul@grs+1,f
  3974     0623  0DAB               	rlf	___flmul@grs+2,f
  3975     0624  0DAC               	rlf	___flmul@grs+3,f
  3976     0625  0BF9               	decfsz	??___flmul,f
  3977     0626  2E20               	goto	u3845
  3978     0627  0820               	movf	___flmul@b,w
  3979     0628  00F0               	movwf	__Umul8_16@multiplicand
  3980     0629  0824               	movf	___flmul@a,w
  3981     062A  120A  158A  206C  120A  118A  	fcall	__Umul8_16
  3982     062F  0871               	movf	?__Umul8_16+1,w
  3983     0630  1283               	bcf	3,5	;RP0=0, select bank0
  3984     0631  1303               	bcf	3,6	;RP1=0, select bank0
  3985     0632  00B4               	movwf	___flmul@temp+1
  3986     0633  0870               	movf	?__Umul8_16,w
  3987     0634  00B3               	movwf	___flmul@temp
  3988     0635                     l2887:
  3989     0635  0833               	movf	___flmul@temp,w
  3990     0636  00F9               	movwf	??___flmul
  3991     0637  0834               	movf	___flmul@temp+1,w
  3992     0638  00FA               	movwf	??___flmul+1
  3993     0639  01FB               	clrf	??___flmul+2
  3994     063A  01FC               	clrf	??___flmul+3
  3995     063B  0879               	movf	??___flmul,w
  3996     063C  07A9               	addwf	___flmul@grs,f
  3997     063D  087A               	movf	??___flmul+1,w
  3998     063E  1103               	clrz
  3999     063F  1803               	skipnc
  4000     0640  3E01               	addlw	1
  4001     0641  1903               	skipnz
  4002     0642  2E44               	goto	u3851
  4003     0643  07AA               	addwf	___flmul@grs+1,f
  4004     0644                     u3851:
  4005     0644  087B               	movf	??___flmul+2,w
  4006     0645  1103               	clrz
  4007     0646  1803               	skipnc
  4008     0647  3E01               	addlw	1
  4009     0648  1903               	skipnz
  4010     0649  2E4B               	goto	u3852
  4011     064A  07AB               	addwf	___flmul@grs+2,f
  4012     064B                     u3852:
  4013     064B  087C               	movf	??___flmul+3,w
  4014     064C  1103               	clrz
  4015     064D  1803               	skipnc
  4016     064E  3E01               	addlw	1
  4017     064F  1903               	skipnz
  4018     0650  2E52               	goto	u3853
  4019     0651  07AC               	addwf	___flmul@grs+3,f
  4020     0652                     u3853:
  4021     0652                     l2889:
  4022     0652  0821               	movf	___flmul@b+1,w
  4023     0653  00F0               	movwf	__Umul8_16@multiplicand
  4024     0654  0826               	movf	___flmul@a+2,w
  4025     0655  120A  158A  206C  120A  118A  	fcall	__Umul8_16
  4026     065A  0871               	movf	?__Umul8_16+1,w
  4027     065B  1283               	bcf	3,5	;RP0=0, select bank0
  4028     065C  1303               	bcf	3,6	;RP1=0, select bank0
  4029     065D  00B4               	movwf	___flmul@temp+1
  4030     065E  0870               	movf	?__Umul8_16,w
  4031     065F  00B3               	movwf	___flmul@temp
  4032     0660  0833               	movf	___flmul@temp,w
  4033     0661  00F9               	movwf	??___flmul
  4034     0662  0834               	movf	___flmul@temp+1,w
  4035     0663  00FA               	movwf	??___flmul+1
  4036     0664  01FB               	clrf	??___flmul+2
  4037     0665  01FC               	clrf	??___flmul+3
  4038     0666  0879               	movf	??___flmul,w
  4039     0667  07AF               	addwf	___flmul@prod,f
  4040     0668  087A               	movf	??___flmul+1,w
  4041     0669  1103               	clrz
  4042     066A  1803               	skipnc
  4043     066B  3E01               	addlw	1
  4044     066C  1903               	skipnz
  4045     066D  2E6F               	goto	u3861
  4046     066E  07B0               	addwf	___flmul@prod+1,f
  4047     066F                     u3861:
  4048     066F  087B               	movf	??___flmul+2,w
  4049     0670  1103               	clrz
  4050     0671  1803               	skipnc
  4051     0672  3E01               	addlw	1
  4052     0673  1903               	skipnz
  4053     0674  2E76               	goto	u3862
  4054     0675  07B1               	addwf	___flmul@prod+2,f
  4055     0676                     u3862:
  4056     0676  087C               	movf	??___flmul+3,w
  4057     0677  1103               	clrz
  4058     0678  1803               	skipnc
  4059     0679  3E01               	addlw	1
  4060     067A  1903               	skipnz
  4061     067B  2E7D               	goto	u3863
  4062     067C  07B2               	addwf	___flmul@prod+3,f
  4063     067D                     u3863:
  4064     067D                     l2891:
  4065     067D  0822               	movf	___flmul@b+2,w
  4066     067E  00F0               	movwf	__Umul8_16@multiplicand
  4067     067F  0825               	movf	___flmul@a+1,w
  4068     0680  120A  158A  206C  120A  118A  	fcall	__Umul8_16
  4069     0685  0871               	movf	?__Umul8_16+1,w
  4070     0686  1283               	bcf	3,5	;RP0=0, select bank0
  4071     0687  1303               	bcf	3,6	;RP1=0, select bank0
  4072     0688  00B4               	movwf	___flmul@temp+1
  4073     0689  0870               	movf	?__Umul8_16,w
  4074     068A  00B3               	movwf	___flmul@temp
  4075     068B                     l2893:
  4076     068B  0833               	movf	___flmul@temp,w
  4077     068C  00F9               	movwf	??___flmul
  4078     068D  0834               	movf	___flmul@temp+1,w
  4079     068E  00FA               	movwf	??___flmul+1
  4080     068F  01FB               	clrf	??___flmul+2
  4081     0690  01FC               	clrf	??___flmul+3
  4082     0691  0879               	movf	??___flmul,w
  4083     0692  07AF               	addwf	___flmul@prod,f
  4084     0693  087A               	movf	??___flmul+1,w
  4085     0694  1103               	clrz
  4086     0695  1803               	skipnc
  4087     0696  3E01               	addlw	1
  4088     0697  1903               	skipnz
  4089     0698  2E9A               	goto	u3871
  4090     0699  07B0               	addwf	___flmul@prod+1,f
  4091     069A                     u3871:
  4092     069A  087B               	movf	??___flmul+2,w
  4093     069B  1103               	clrz
  4094     069C  1803               	skipnc
  4095     069D  3E01               	addlw	1
  4096     069E  1903               	skipnz
  4097     069F  2EA1               	goto	u3872
  4098     06A0  07B1               	addwf	___flmul@prod+2,f
  4099     06A1                     u3872:
  4100     06A1  087C               	movf	??___flmul+3,w
  4101     06A2  1103               	clrz
  4102     06A3  1803               	skipnc
  4103     06A4  3E01               	addlw	1
  4104     06A5  1903               	skipnz
  4105     06A6  2EA8               	goto	u3873
  4106     06A7  07B2               	addwf	___flmul@prod+3,f
  4107     06A8                     u3873:
  4108     06A8  0822               	movf	___flmul@b+2,w
  4109     06A9  00F0               	movwf	__Umul8_16@multiplicand
  4110     06AA  0826               	movf	___flmul@a+2,w
  4111     06AB  120A  158A  206C  120A  118A  	fcall	__Umul8_16
  4112     06B0  0871               	movf	?__Umul8_16+1,w
  4113     06B1  1283               	bcf	3,5	;RP0=0, select bank0
  4114     06B2  1303               	bcf	3,6	;RP1=0, select bank0
  4115     06B3  00B4               	movwf	___flmul@temp+1
  4116     06B4  0870               	movf	?__Umul8_16,w
  4117     06B5  00B3               	movwf	___flmul@temp
  4118     06B6                     l2895:
  4119     06B6  0833               	movf	___flmul@temp,w
  4120     06B7  00F9               	movwf	??___flmul
  4121     06B8  0834               	movf	___flmul@temp+1,w
  4122     06B9  00FA               	movwf	??___flmul+1
  4123     06BA  01FB               	clrf	??___flmul+2
  4124     06BB  01FC               	clrf	??___flmul+3
  4125     06BC  3008               	movlw	8
  4126     06BD                     u3885:
  4127     06BD  1003               	clrc
  4128     06BE  0DF9               	rlf	??___flmul,f
  4129     06BF  0DFA               	rlf	??___flmul+1,f
  4130     06C0  0DFB               	rlf	??___flmul+2,f
  4131     06C1  0DFC               	rlf	??___flmul+3,f
  4132     06C2                     u3880:
  4133     06C2  3EFF               	addlw	-1
  4134     06C3  1D03               	skipz
  4135     06C4  2EBD               	goto	u3885
  4136     06C5  0879               	movf	??___flmul,w
  4137     06C6  07AF               	addwf	___flmul@prod,f
  4138     06C7  087A               	movf	??___flmul+1,w
  4139     06C8  1103               	clrz
  4140     06C9  1803               	skipnc
  4141     06CA  3E01               	addlw	1
  4142     06CB  1903               	skipnz
  4143     06CC  2ECE               	goto	u3891
  4144     06CD  07B0               	addwf	___flmul@prod+1,f
  4145     06CE                     u3891:
  4146     06CE  087B               	movf	??___flmul+2,w
  4147     06CF  1103               	clrz
  4148     06D0  1803               	skipnc
  4149     06D1  3E01               	addlw	1
  4150     06D2  1903               	skipnz
  4151     06D3  2ED5               	goto	u3892
  4152     06D4  07B1               	addwf	___flmul@prod+2,f
  4153     06D5                     u3892:
  4154     06D5  087C               	movf	??___flmul+3,w
  4155     06D6  1103               	clrz
  4156     06D7  1803               	skipnc
  4157     06D8  3E01               	addlw	1
  4158     06D9  1903               	skipnz
  4159     06DA  2EDC               	goto	u3893
  4160     06DB  07B2               	addwf	___flmul@prod+3,f
  4161     06DC                     u3893:
  4162     06DC                     l2897:
  4163     06DC  0829               	movf	___flmul@grs,w
  4164     06DD  00F9               	movwf	??___flmul
  4165     06DE  082A               	movf	___flmul@grs+1,w
  4166     06DF  00FA               	movwf	??___flmul+1
  4167     06E0  082B               	movf	___flmul@grs+2,w
  4168     06E1  00FB               	movwf	??___flmul+2
  4169     06E2  082C               	movf	___flmul@grs+3,w
  4170     06E3  00FC               	movwf	??___flmul+3
  4171     06E4  3018               	movlw	24
  4172     06E5                     u3905:
  4173     06E5  1003               	clrc
  4174     06E6  0CFC               	rrf	??___flmul+3,f
  4175     06E7  0CFB               	rrf	??___flmul+2,f
  4176     06E8  0CFA               	rrf	??___flmul+1,f
  4177     06E9  0CF9               	rrf	??___flmul,f
  4178     06EA                     u3900:
  4179     06EA  3EFF               	addlw	-1
  4180     06EB  1D03               	skipz
  4181     06EC  2EE5               	goto	u3905
  4182     06ED  0879               	movf	??___flmul,w
  4183     06EE  07AF               	addwf	___flmul@prod,f
  4184     06EF  087A               	movf	??___flmul+1,w
  4185     06F0  1103               	clrz
  4186     06F1  1803               	skipnc
  4187     06F2  3E01               	addlw	1
  4188     06F3  1903               	skipnz
  4189     06F4  2EF6               	goto	u3911
  4190     06F5  07B0               	addwf	___flmul@prod+1,f
  4191     06F6                     u3911:
  4192     06F6  087B               	movf	??___flmul+2,w
  4193     06F7  1103               	clrz
  4194     06F8  1803               	skipnc
  4195     06F9  3E01               	addlw	1
  4196     06FA  1903               	skipnz
  4197     06FB  2EFD               	goto	u3912
  4198     06FC  07B1               	addwf	___flmul@prod+2,f
  4199     06FD                     u3912:
  4200     06FD  087C               	movf	??___flmul+3,w
  4201     06FE  1103               	clrz
  4202     06FF  1803               	skipnc
  4203     0700  3E01               	addlw	1
  4204     0701  1903               	skipnz
  4205     0702  2F04               	goto	u3913
  4206     0703  07B2               	addwf	___flmul@prod+3,f
  4207     0704                     u3913:
  4208     0704                     l2899:
  4209     0704  3008               	movlw	8
  4210     0705  00F9               	movwf	??___flmul
  4211     0706                     u3925:
  4212     0706  1003               	clrc
  4213     0707  0DA9               	rlf	___flmul@grs,f
  4214     0708  0DAA               	rlf	___flmul@grs+1,f
  4215     0709  0DAB               	rlf	___flmul@grs+2,f
  4216     070A  0DAC               	rlf	___flmul@grs+3,f
  4217     070B  0BF9               	decfsz	??___flmul,f
  4218     070C  2F06               	goto	u3925
  4219     070D                     l2901:
  4220     070D  082E               	movf	___flmul@bexp,w
  4221     070E  072D               	addwf	___flmul@aexp,w
  4222     070F  00F9               	movwf	??___flmul
  4223     0710  01FA               	clrf	??___flmul+1
  4224     0711  0DFA               	rlf	??___flmul+1,f
  4225     0712  0879               	movf	??___flmul,w
  4226     0713  3E82               	addlw	130
  4227     0714  00B3               	movwf	___flmul@temp
  4228     0715  087A               	movf	??___flmul+1,w
  4229     0716  1803               	skipnc
  4230     0717  3E01               	addlw	1
  4231     0718  3EFF               	addlw	255
  4232     0719  00B4               	movwf	___flmul@temp+1
  4233     071A  2F38               	goto	l2913
  4234     071B                     l2903:
  4235     071B  3001               	movlw	1
  4236     071C  00F9               	movwf	??___flmul
  4237     071D                     u3935:
  4238     071D  1003               	clrc
  4239     071E  0DAF               	rlf	___flmul@prod,f
  4240     071F  0DB0               	rlf	___flmul@prod+1,f
  4241     0720  0DB1               	rlf	___flmul@prod+2,f
  4242     0721  0DB2               	rlf	___flmul@prod+3,f
  4243     0722  0BF9               	decfsz	??___flmul,f
  4244     0723  2F1D               	goto	u3935
  4245     0724                     l2905:
  4246     0724  1FAC               	btfss	___flmul@grs+3,7
  4247     0725  2F27               	goto	u3941
  4248     0726  2F28               	goto	u3940
  4249     0727                     u3941:
  4250     0727  2F29               	goto	l2909
  4251     0728                     u3940:
  4252     0728                     l2907:
  4253     0728  142F               	bsf	___flmul@prod,0
  4254     0729                     l2909:
  4255     0729  3001               	movlw	1
  4256     072A  00F9               	movwf	??___flmul
  4257     072B                     u3955:
  4258     072B  1003               	clrc
  4259     072C  0DA9               	rlf	___flmul@grs,f
  4260     072D  0DAA               	rlf	___flmul@grs+1,f
  4261     072E  0DAB               	rlf	___flmul@grs+2,f
  4262     072F  0DAC               	rlf	___flmul@grs+3,f
  4263     0730  0BF9               	decfsz	??___flmul,f
  4264     0731  2F2B               	goto	u3955
  4265     0732                     l2911:
  4266     0732  30FF               	movlw	255
  4267     0733  07B3               	addwf	___flmul@temp,f
  4268     0734  1803               	skipnc
  4269     0735  0AB4               	incf	___flmul@temp+1,f
  4270     0736  30FF               	movlw	255
  4271     0737  07B4               	addwf	___flmul@temp+1,f
  4272     0738                     l2913:
  4273     0738  1FB1               	btfss	___flmul@prod+2,7
  4274     0739  2F3B               	goto	u3961
  4275     073A  2F3C               	goto	u3960
  4276     073B                     u3961:
  4277     073B  2F1B               	goto	l2903
  4278     073C                     u3960:
  4279     073C                     l2915:
  4280     073C  01AD               	clrf	___flmul@aexp
  4281     073D                     l2917:
  4282     073D  1FAC               	btfss	___flmul@grs+3,7
  4283     073E  2F40               	goto	u3971
  4284     073F  2F41               	goto	u3970
  4285     0740                     u3971:
  4286     0740  2F5D               	goto	l2925
  4287     0741                     u3970:
  4288     0741                     l2919:
  4289     0741  30FF               	movlw	255
  4290     0742  0529               	andwf	___flmul@grs,w
  4291     0743  00F9               	movwf	??___flmul
  4292     0744  30FF               	movlw	255
  4293     0745  052A               	andwf	___flmul@grs+1,w
  4294     0746  00FA               	movwf	??___flmul+1
  4295     0747  30FF               	movlw	255
  4296     0748  052B               	andwf	___flmul@grs+2,w
  4297     0749  00FB               	movwf	??___flmul+2
  4298     074A  307F               	movlw	127
  4299     074B  052C               	andwf	___flmul@grs+3,w
  4300     074C  00FC               	movwf	??___flmul+3
  4301     074D  087C               	movf	??___flmul+3,w
  4302     074E  047B               	iorwf	??___flmul+2,w
  4303     074F  047A               	iorwf	??___flmul+1,w
  4304     0750  0479               	iorwf	??___flmul,w
  4305     0751  1903               	skipnz
  4306     0752  2F54               	goto	u3981
  4307     0753  2F55               	goto	u3980
  4308     0754                     u3981:
  4309     0754  2F58               	goto	l751
  4310     0755                     u3980:
  4311     0755                     l2921:
  4312     0755  3001               	movlw	1
  4313     0756  00AD               	movwf	___flmul@aexp
  4314     0757  2F5D               	goto	l2925
  4315     0758                     l751:
  4316     0758  1C2F               	btfss	___flmul@prod,0
  4317     0759  2F5B               	goto	u3991
  4318     075A  2F5C               	goto	u3990
  4319     075B                     u3991:
  4320     075B  2F5D               	goto	l2925
  4321     075C                     u3990:
  4322     075C  2F55               	goto	l2921
  4323     075D                     l2925:
  4324     075D  082D               	movf	___flmul@aexp,w
  4325     075E  1903               	btfsc	3,2
  4326     075F  2F61               	goto	u4001
  4327     0760  2F62               	goto	u4000
  4328     0761                     u4001:
  4329     0761  2F93               	goto	l2935
  4330     0762                     u4000:
  4331     0762                     l2927:
  4332     0762  3001               	movlw	1
  4333     0763  07AF               	addwf	___flmul@prod,f
  4334     0764  3000               	movlw	0
  4335     0765  1803               	skipnc
  4336     0766  3001               	movlw	1
  4337     0767  07B0               	addwf	___flmul@prod+1,f
  4338     0768  3000               	movlw	0
  4339     0769  1803               	skipnc
  4340     076A  3001               	movlw	1
  4341     076B  07B1               	addwf	___flmul@prod+2,f
  4342     076C  3000               	movlw	0
  4343     076D  1803               	skipnc
  4344     076E  3001               	movlw	1
  4345     076F  07B2               	addwf	___flmul@prod+3,f
  4346     0770                     l2929:
  4347     0770  1C32               	btfss	___flmul@prod+3,0
  4348     0771  2F73               	goto	u4011
  4349     0772  2F74               	goto	u4010
  4350     0773                     u4011:
  4351     0773  2F93               	goto	l2935
  4352     0774                     u4010:
  4353     0774                     l2931:
  4354     0774  082F               	movf	___flmul@prod,w
  4355     0775  00F9               	movwf	??___flmul
  4356     0776  0830               	movf	___flmul@prod+1,w
  4357     0777  00FA               	movwf	??___flmul+1
  4358     0778  0831               	movf	___flmul@prod+2,w
  4359     0779  00FB               	movwf	??___flmul+2
  4360     077A  0832               	movf	___flmul@prod+3,w
  4361     077B  00FC               	movwf	??___flmul+3
  4362     077C  3001               	movlw	1
  4363     077D  00FD               	movwf	??___flmul+4
  4364     077E                     u4025:
  4365     077E  0D7C               	rlf	??___flmul+3,w
  4366     077F  0CFC               	rrf	??___flmul+3,f
  4367     0780  0CFB               	rrf	??___flmul+2,f
  4368     0781  0CFA               	rrf	??___flmul+1,f
  4369     0782  0CF9               	rrf	??___flmul,f
  4370     0783                     u4020:
  4371     0783  0BFD               	decfsz	??___flmul+4,f
  4372     0784  2F7E               	goto	u4025
  4373     0785  087C               	movf	??___flmul+3,w
  4374     0786  00B2               	movwf	___flmul@prod+3
  4375     0787  087B               	movf	??___flmul+2,w
  4376     0788  00B1               	movwf	___flmul@prod+2
  4377     0789  087A               	movf	??___flmul+1,w
  4378     078A  00B0               	movwf	___flmul@prod+1
  4379     078B  0879               	movf	??___flmul,w
  4380     078C  00AF               	movwf	___flmul@prod
  4381     078D                     l2933:
  4382     078D  3001               	movlw	1
  4383     078E  07B3               	addwf	___flmul@temp,f
  4384     078F  1803               	skipnc
  4385     0790  0AB4               	incf	___flmul@temp+1,f
  4386     0791  3000               	movlw	0
  4387     0792  07B4               	addwf	___flmul@temp+1,f
  4388     0793                     l2935:
  4389     0793  0834               	movf	___flmul@temp+1,w
  4390     0794  3A80               	xorlw	128
  4391     0795  00FF               	movwf	btemp1
  4392     0796  3080               	movlw	128
  4393     0797  027F               	subwf	btemp1,w
  4394     0798  1D03               	skipz
  4395     0799  2F9C               	goto	u4035
  4396     079A  30FF               	movlw	255
  4397     079B  0233               	subwf	___flmul@temp,w
  4398     079C                     u4035:
  4399     079C  1C03               	skipc
  4400     079D  2F9F               	goto	u4031
  4401     079E  2FA0               	goto	u4030
  4402     079F                     u4031:
  4403     079F  2FAB               	goto	l2939
  4404     07A0                     u4030:
  4405     07A0                     l2937:
  4406     07A0  307F               	movlw	127
  4407     07A1  1283               	bcf	3,5	;RP0=0, select bank0
  4408     07A2  1303               	bcf	3,6	;RP1=0, select bank0
  4409     07A3  00B2               	movwf	___flmul@prod+3
  4410     07A4  3080               	movlw	128
  4411     07A5  00B1               	movwf	___flmul@prod+2
  4412     07A6  3000               	movlw	0
  4413     07A7  00B0               	movwf	___flmul@prod+1
  4414     07A8  3000               	movlw	0
  4415     07A9  00AF               	movwf	___flmul@prod
  4416     07AA  2FDC               	goto	l757
  4417     07AB                     l2939:
  4418     07AB  1283               	bcf	3,5	;RP0=0, select bank0
  4419     07AC  1303               	bcf	3,6	;RP1=0, select bank0
  4420     07AD  0834               	movf	___flmul@temp+1,w
  4421     07AE  3A80               	xorlw	128
  4422     07AF  00FF               	movwf	btemp1
  4423     07B0  3080               	movlw	128
  4424     07B1  027F               	subwf	btemp1,w
  4425     07B2  1D03               	skipz
  4426     07B3  2FB6               	goto	u4045
  4427     07B4  3001               	movlw	1
  4428     07B5  0233               	subwf	___flmul@temp,w
  4429     07B6                     u4045:
  4430     07B6  1803               	skipnc
  4431     07B7  2FB9               	goto	u4041
  4432     07B8  2FBA               	goto	u4040
  4433     07B9                     u4041:
  4434     07B9  2FC6               	goto	l2945
  4435     07BA                     u4040:
  4436     07BA                     l2941:
  4437     07BA  3000               	movlw	0
  4438     07BB  1283               	bcf	3,5	;RP0=0, select bank0
  4439     07BC  1303               	bcf	3,6	;RP1=0, select bank0
  4440     07BD  00B2               	movwf	___flmul@prod+3
  4441     07BE  3000               	movlw	0
  4442     07BF  00B1               	movwf	___flmul@prod+2
  4443     07C0  3000               	movlw	0
  4444     07C1  00B0               	movwf	___flmul@prod+1
  4445     07C2  3000               	movlw	0
  4446     07C3  00AF               	movwf	___flmul@prod
  4447     07C4                     l2943:
  4448     07C4  01A8               	clrf	___flmul@sign
  4449     07C5  2FDC               	goto	l757
  4450     07C6                     l2945:
  4451     07C6  1283               	bcf	3,5	;RP0=0, select bank0
  4452     07C7  1303               	bcf	3,6	;RP1=0, select bank0
  4453     07C8  0833               	movf	___flmul@temp,w
  4454     07C9  00AE               	movwf	___flmul@bexp
  4455     07CA  30FF               	movlw	255
  4456     07CB  05AF               	andwf	___flmul@prod,f
  4457     07CC  30FF               	movlw	255
  4458     07CD  05B0               	andwf	___flmul@prod+1,f
  4459     07CE  307F               	movlw	127
  4460     07CF  05B1               	andwf	___flmul@prod+2,f
  4461     07D0  3000               	movlw	0
  4462     07D1  05B2               	andwf	___flmul@prod+3,f
  4463     07D2                     l2947:
  4464     07D2  1C2E               	btfss	___flmul@bexp,0
  4465     07D3  2FD5               	goto	u4051
  4466     07D4  2FD6               	goto	u4050
  4467     07D5                     u4051:
  4468     07D5  2FD7               	goto	l2951
  4469     07D6                     u4050:
  4470     07D6                     l2949:
  4471     07D6  17B1               	bsf	___flmul@prod+2,7
  4472     07D7                     l2951:
  4473     07D7  082E               	movf	___flmul@bexp,w
  4474     07D8  00F9               	movwf	??___flmul
  4475     07D9  1003               	clrc
  4476     07DA  0C79               	rrf	??___flmul,w
  4477     07DB  00B2               	movwf	___flmul@prod+3
  4478     07DC                     l757:
  4479     07DC  0828               	movf	___flmul@sign,w
  4480     07DD  04B2               	iorwf	___flmul@prod+3,f
  4481     07DE                     l2953:
  4482     07DE  0832               	movf	___flmul@prod+3,w
  4483     07DF  00A3               	movwf	?___flmul+3
  4484     07E0  0831               	movf	___flmul@prod+2,w
  4485     07E1  00A2               	movwf	?___flmul+2
  4486     07E2  0830               	movf	___flmul@prod+1,w
  4487     07E3  00A1               	movwf	?___flmul+1
  4488     07E4  082F               	movf	___flmul@prod,w
  4489     07E5  00A0               	movwf	?___flmul
  4490     07E6                     l745:
  4491     07E6  0008               	return
  4492     07E7                     __end_of___flmul:
  4493                           
  4494                           	psect	text15
  4495     086C                     __ptext15:	
  4496 ;; *************** function __Umul8_16 *****************
  4497 ;; Defined at:
  4498 ;;		line 4 in file "C:\Program Files\Microchip\xc8\v3.10\pic\sources\c99\common\Umul8_16.c"
  4499 ;; Parameters:    Size  Location     Type
  4500 ;;  multiplier      1    wreg     unsigned char 
  4501 ;;  multiplicand    1    0[COMMON] unsigned char 
  4502 ;; Auto vars:     Size  Location     Type
  4503 ;;  multiplier      1    8[COMMON] unsigned char 
  4504 ;;  word_mpld       2    6[COMMON] unsigned short 
  4505 ;;  product         2    4[COMMON] unsigned short 
  4506 ;; Return value:  Size  Location     Type
  4507 ;;                  2    0[COMMON] unsigned int 
  4508 ;; Registers used:
  4509 ;;		wreg, status,2, status,0
  4510 ;; Tracked objects:
  4511 ;;		On entry : 0/0
  4512 ;;		On exit  : 0/0
  4513 ;;		Unchanged: 0/0
  4514 ;; Data sizes:     COMMON   BANK0   BANK1   BANK3   BANK2
  4515 ;;      Params:         2       0       0       0       0
  4516 ;;      Locals:         5       0       0       0       0
  4517 ;;      Temps:          2       0       0       0       0
  4518 ;;      Totals:         9       0       0       0       0
  4519 ;;Total ram usage:        9 bytes
  4520 ;; Hardware stack levels used: 1
  4521 ;; This function calls:
  4522 ;;		Nothing
  4523 ;; This function is called by:
  4524 ;;		___flmul
  4525 ;; This function uses a non-reentrant model
  4526 ;;
  4527                           
  4528     086C                     __Umul8_16:	
  4529                           ;psect for function __Umul8_16
  4530                           
  4531                           
  4532                           ;incstack = 0
  4533                           ; Regs used in __Umul8_16: [wreg+status,2+status,0]
  4534                           ;__Umul8_16@multiplier stored from wreg
  4535     086C  00F8               	movwf	__Umul8_16@multiplier
  4536     086D                     l2475:
  4537     086D  01F4               	clrf	__Umul8_16@product
  4538     086E  01F5               	clrf	__Umul8_16@product+1
  4539     086F                     l2477:
  4540     086F  0870               	movf	__Umul8_16@multiplicand,w
  4541     0870  00F2               	movwf	??__Umul8_16
  4542     0871  01F3               	clrf	??__Umul8_16+1
  4543     0872  0872               	movf	??__Umul8_16,w
  4544     0873  00F6               	movwf	__Umul8_16@word_mpld
  4545     0874  0873               	movf	??__Umul8_16+1,w
  4546     0875  00F7               	movwf	__Umul8_16@word_mpld+1
  4547     0876                     l2479:
  4548     0876  1C78               	btfss	__Umul8_16@multiplier,0
  4549     0877  2879               	goto	u3081
  4550     0878  287A               	goto	u3080
  4551     0879                     u3081:
  4552     0879  2880               	goto	l764
  4553     087A                     u3080:
  4554     087A                     l2481:
  4555     087A  0876               	movf	__Umul8_16@word_mpld,w
  4556     087B  07F4               	addwf	__Umul8_16@product,f
  4557     087C  1803               	skipnc
  4558     087D  0AF5               	incf	__Umul8_16@product+1,f
  4559     087E  0877               	movf	__Umul8_16@word_mpld+1,w
  4560     087F  07F5               	addwf	__Umul8_16@product+1,f
  4561     0880                     l764:
  4562     0880  3001               	movlw	1
  4563     0881                     u3095:
  4564     0881  1003               	clrc
  4565     0882  0DF6               	rlf	__Umul8_16@word_mpld,f
  4566     0883  0DF7               	rlf	__Umul8_16@word_mpld+1,f
  4567     0884  3EFF               	addlw	-1
  4568     0885  1D03               	skipz
  4569     0886  2881               	goto	u3095
  4570     0887  1003               	clrc
  4571     0888  0CF8               	rrf	__Umul8_16@multiplier,f
  4572     0889                     l2483:
  4573     0889  0878               	movf	__Umul8_16@multiplier,w
  4574     088A  1D03               	btfss	3,2
  4575     088B  288D               	goto	u3101
  4576     088C  288E               	goto	u3100
  4577     088D                     u3101:
  4578     088D  2876               	goto	l2479
  4579     088E                     u3100:
  4580     088E                     l2485:
  4581     088E  0875               	movf	__Umul8_16@product+1,w
  4582     088F  00F1               	movwf	?__Umul8_16+1
  4583     0890  0874               	movf	__Umul8_16@product,w
  4584     0891  00F0               	movwf	?__Umul8_16
  4585     0892                     l766:
  4586     0892  0008               	return
  4587     0893                     __end_of__Umul8_16:
  4588                           
  4589                           	psect	text16
  4590     0A65                     __ptext16:	
  4591 ;; *************** function ___flge *****************
  4592 ;; Defined at:
  4593 ;;		line 4 in file "C:\Program Files\Microchip\xc8\v3.10\pic\sources\c99\common\flge.c"
  4594 ;; Parameters:    Size  Location     Type
  4595 ;;  ff1             4    0[COMMON] unsigned int 
  4596 ;;  ff2             4    4[COMMON] unsigned int 
  4597 ;; Auto vars:     Size  Location     Type
  4598 ;;		None
  4599 ;; Return value:  Size  Location     Type
  4600 ;;		None               void
  4601 ;; Registers used:
  4602 ;;		wreg, status,2, status,0
  4603 ;; Tracked objects:
  4604 ;;		On entry : 0/0
  4605 ;;		On exit  : 0/0
  4606 ;;		Unchanged: 0/0
  4607 ;; Data sizes:     COMMON   BANK0   BANK1   BANK3   BANK2
  4608 ;;      Params:         8       0       0       0       0
  4609 ;;      Locals:         0       0       0       0       0
  4610 ;;      Temps:          4       0       0       0       0
  4611 ;;      Totals:        12       0       0       0       0
  4612 ;;Total ram usage:       12 bytes
  4613 ;; Hardware stack levels used: 1
  4614 ;; This function calls:
  4615 ;;		Nothing
  4616 ;; This function is called by:
  4617 ;;		_float_to_string_opt
  4618 ;; This function uses a non-reentrant model
  4619 ;;
  4620                           
  4621     0A65                     ___flge:	
  4622                           ;psect for function ___flge
  4623                           
  4624     0A65                     l2601:	
  4625                           ;incstack = 0
  4626                           ; Regs used in ___flge: [wreg+status,2+status,0]
  4627                           
  4628     0A65  3000               	movlw	0
  4629     0A66  0570               	andwf	___flge@ff1,w
  4630     0A67  00F8               	movwf	??___flge
  4631     0A68  3000               	movlw	0
  4632     0A69  0571               	andwf	___flge@ff1+1,w
  4633     0A6A  00F9               	movwf	??___flge+1
  4634     0A6B  3080               	movlw	128
  4635     0A6C  0572               	andwf	___flge@ff1+2,w
  4636     0A6D  00FA               	movwf	??___flge+2
  4637     0A6E  307F               	movlw	127
  4638     0A6F  0573               	andwf	___flge@ff1+3,w
  4639     0A70  00FB               	movwf	??___flge+3
  4640     0A71  087B               	movf	??___flge+3,w
  4641     0A72  047A               	iorwf	??___flge+2,w
  4642     0A73  0479               	iorwf	??___flge+1,w
  4643     0A74  0478               	iorwf	??___flge,w
  4644     0A75  1D03               	skipz
  4645     0A76  2A78               	goto	u3221
  4646     0A77  2A79               	goto	u3220
  4647     0A78                     u3221:
  4648     0A78  2A81               	goto	l526
  4649     0A79                     u3220:
  4650     0A79                     l2603:
  4651     0A79  3000               	movlw	0
  4652     0A7A  00F3               	movwf	___flge@ff1+3
  4653     0A7B  3000               	movlw	0
  4654     0A7C  00F2               	movwf	___flge@ff1+2
  4655     0A7D  3000               	movlw	0
  4656     0A7E  00F1               	movwf	___flge@ff1+1
  4657     0A7F  3000               	movlw	0
  4658     0A80  00F0               	movwf	___flge@ff1
  4659     0A81                     l526:
  4660     0A81  3000               	movlw	0
  4661     0A82  0574               	andwf	___flge@ff2,w
  4662     0A83  00F8               	movwf	??___flge
  4663     0A84  3000               	movlw	0
  4664     0A85  0575               	andwf	___flge@ff2+1,w
  4665     0A86  00F9               	movwf	??___flge+1
  4666     0A87  3080               	movlw	128
  4667     0A88  0576               	andwf	___flge@ff2+2,w
  4668     0A89  00FA               	movwf	??___flge+2
  4669     0A8A  307F               	movlw	127
  4670     0A8B  0577               	andwf	___flge@ff2+3,w
  4671     0A8C  00FB               	movwf	??___flge+3
  4672     0A8D  087B               	movf	??___flge+3,w
  4673     0A8E  047A               	iorwf	??___flge+2,w
  4674     0A8F  0479               	iorwf	??___flge+1,w
  4675     0A90  0478               	iorwf	??___flge,w
  4676     0A91  1D03               	skipz
  4677     0A92  2A94               	goto	u3231
  4678     0A93  2A95               	goto	u3230
  4679     0A94                     u3231:
  4680     0A94  2A9D               	goto	l2607
  4681     0A95                     u3230:
  4682     0A95                     l2605:
  4683     0A95  3000               	movlw	0
  4684     0A96  00F7               	movwf	___flge@ff2+3
  4685     0A97  3000               	movlw	0
  4686     0A98  00F6               	movwf	___flge@ff2+2
  4687     0A99  3000               	movlw	0
  4688     0A9A  00F5               	movwf	___flge@ff2+1
  4689     0A9B  3000               	movlw	0
  4690     0A9C  00F4               	movwf	___flge@ff2
  4691     0A9D                     l2607:
  4692     0A9D  1FF3               	btfss	___flge@ff1+3,7
  4693     0A9E  2AA0               	goto	u3241
  4694     0A9F  2AA1               	goto	u3240
  4695     0AA0                     u3241:
  4696     0AA0  2AC5               	goto	l2611
  4697     0AA1                     u3240:
  4698     0AA1                     l2609:
  4699     0AA1  3000               	movlw	0
  4700     0AA2  00F8               	movwf	??___flge
  4701     0AA3  3000               	movlw	0
  4702     0AA4  00F9               	movwf	??___flge+1
  4703     0AA5  3000               	movlw	0
  4704     0AA6  00FA               	movwf	??___flge+2
  4705     0AA7  3080               	movlw	128
  4706     0AA8  00FB               	movwf	??___flge+3
  4707     0AA9  0870               	movf	___flge@ff1,w
  4708     0AAA  02F8               	subwf	??___flge,f
  4709     0AAB  0871               	movf	___flge@ff1+1,w
  4710     0AAC  1C03               	skipc
  4711     0AAD  0F71               	incfsz	___flge@ff1+1,w
  4712     0AAE  2AB0               	goto	u3251
  4713     0AAF  2AB1               	goto	u3252
  4714     0AB0                     u3251:
  4715     0AB0  02F9               	subwf	??___flge+1,f
  4716     0AB1                     u3252:
  4717     0AB1  0872               	movf	___flge@ff1+2,w
  4718     0AB2  1C03               	skipc
  4719     0AB3  0F72               	incfsz	___flge@ff1+2,w
  4720     0AB4  2AB6               	goto	u3253
  4721     0AB5  2AB7               	goto	u3254
  4722     0AB6                     u3253:
  4723     0AB6  02FA               	subwf	??___flge+2,f
  4724     0AB7                     u3254:
  4725     0AB7  0873               	movf	___flge@ff1+3,w
  4726     0AB8  1C03               	skipc
  4727     0AB9  0F73               	incfsz	___flge@ff1+3,w
  4728     0ABA  2ABC               	goto	u3255
  4729     0ABB  2ABD               	goto	u3256
  4730     0ABC                     u3255:
  4731     0ABC  02FB               	subwf	??___flge+3,f
  4732     0ABD                     u3256:
  4733     0ABD  087B               	movf	??___flge+3,w
  4734     0ABE  00F3               	movwf	___flge@ff1+3
  4735     0ABF  087A               	movf	??___flge+2,w
  4736     0AC0  00F2               	movwf	___flge@ff1+2
  4737     0AC1  0879               	movf	??___flge+1,w
  4738     0AC2  00F1               	movwf	___flge@ff1+1
  4739     0AC3  0878               	movf	??___flge,w
  4740     0AC4  00F0               	movwf	___flge@ff1
  4741     0AC5                     l2611:
  4742     0AC5  1FF7               	btfss	___flge@ff2+3,7
  4743     0AC6  2AC8               	goto	u3261
  4744     0AC7  2AC9               	goto	u3260
  4745     0AC8                     u3261:
  4746     0AC8  2AED               	goto	l529
  4747     0AC9                     u3260:
  4748     0AC9                     l2613:
  4749     0AC9  3000               	movlw	0
  4750     0ACA  00F8               	movwf	??___flge
  4751     0ACB  3000               	movlw	0
  4752     0ACC  00F9               	movwf	??___flge+1
  4753     0ACD  3000               	movlw	0
  4754     0ACE  00FA               	movwf	??___flge+2
  4755     0ACF  3080               	movlw	128
  4756     0AD0  00FB               	movwf	??___flge+3
  4757     0AD1  0874               	movf	___flge@ff2,w
  4758     0AD2  02F8               	subwf	??___flge,f
  4759     0AD3  0875               	movf	___flge@ff2+1,w
  4760     0AD4  1C03               	skipc
  4761     0AD5  0F75               	incfsz	___flge@ff2+1,w
  4762     0AD6  2AD8               	goto	u3271
  4763     0AD7  2AD9               	goto	u3272
  4764     0AD8                     u3271:
  4765     0AD8  02F9               	subwf	??___flge+1,f
  4766     0AD9                     u3272:
  4767     0AD9  0876               	movf	___flge@ff2+2,w
  4768     0ADA  1C03               	skipc
  4769     0ADB  0F76               	incfsz	___flge@ff2+2,w
  4770     0ADC  2ADE               	goto	u3273
  4771     0ADD  2ADF               	goto	u3274
  4772     0ADE                     u3273:
  4773     0ADE  02FA               	subwf	??___flge+2,f
  4774     0ADF                     u3274:
  4775     0ADF  0877               	movf	___flge@ff2+3,w
  4776     0AE0  1C03               	skipc
  4777     0AE1  0F77               	incfsz	___flge@ff2+3,w
  4778     0AE2  2AE4               	goto	u3275
  4779     0AE3  2AE5               	goto	u3276
  4780     0AE4                     u3275:
  4781     0AE4  02FB               	subwf	??___flge+3,f
  4782     0AE5                     u3276:
  4783     0AE5  087B               	movf	??___flge+3,w
  4784     0AE6  00F7               	movwf	___flge@ff2+3
  4785     0AE7  087A               	movf	??___flge+2,w
  4786     0AE8  00F6               	movwf	___flge@ff2+2
  4787     0AE9  0879               	movf	??___flge+1,w
  4788     0AEA  00F5               	movwf	___flge@ff2+1
  4789     0AEB  0878               	movf	??___flge,w
  4790     0AEC  00F4               	movwf	___flge@ff2
  4791     0AED                     l529:
  4792     0AED  3080               	movlw	128
  4793     0AEE  06F3               	xorwf	___flge@ff1+3,f
  4794     0AEF  3080               	movlw	128
  4795     0AF0  06F7               	xorwf	___flge@ff2+3,f
  4796     0AF1  0877               	movf	___flge@ff2+3,w
  4797     0AF2  0273               	subwf	___flge@ff1+3,w
  4798     0AF3  1D03               	skipz
  4799     0AF4  2AFF               	goto	u3285
  4800     0AF5  0876               	movf	___flge@ff2+2,w
  4801     0AF6  0272               	subwf	___flge@ff1+2,w
  4802     0AF7  1D03               	skipz
  4803     0AF8  2AFF               	goto	u3285
  4804     0AF9  0875               	movf	___flge@ff2+1,w
  4805     0AFA  0271               	subwf	___flge@ff1+1,w
  4806     0AFB  1D03               	skipz
  4807     0AFC  2AFF               	goto	u3285
  4808     0AFD  0874               	movf	___flge@ff2,w
  4809     0AFE  0270               	subwf	___flge@ff1,w
  4810     0AFF                     u3285:
  4811     0AFF  1803               	skipnc
  4812     0B00  2B02               	goto	u3281
  4813     0B01  2B03               	goto	u3280
  4814     0B02                     u3281:
  4815     0B02  2B05               	goto	l2617
  4816     0B03                     u3280:
  4817     0B03                     l2615:
  4818     0B03  1003               	clrc
  4819     0B04  2B06               	goto	l534
  4820     0B05                     l2617:
  4821     0B05  1403               	setc
  4822     0B06                     l534:
  4823     0B06  0008               	return
  4824     0B07                     __end_of___flge:
  4825                           
  4826                           	psect	text17
  4827     0D61                     __ptext17:	
  4828 ;; *************** function _dht11_read *****************
  4829 ;; Defined at:
  4830 ;;		line 104 in file "dht11.c"
  4831 ;; Parameters:    Size  Location     Type
  4832 ;;  phum            1   52[BANK0 ] PTR float 
  4833 ;;		 -> main@hum(4), 
  4834 ;;  ptemp           1   53[BANK0 ] PTR float 
  4835 ;;		 -> main@tem(4), 
  4836 ;; Auto vars:     Size  Location     Type
  4837 ;;  i               1   63[BANK0 ] unsigned char 
  4838 ;;  checksum        1   62[BANK0 ] unsigned char 
  4839 ;; Return value:  Size  Location     Type
  4840 ;;                  1    wreg      unsigned char 
  4841 ;; Registers used:
  4842 ;;		wreg, fsr0l, fsr0h, status,2, status,0, pclath, btemp1, cstack
  4843 ;; Tracked objects:
  4844 ;;		On entry : 0/0
  4845 ;;		On exit  : 0/0
  4846 ;;		Unchanged: 0/0
  4847 ;; Data sizes:     COMMON   BANK0   BANK1   BANK3   BANK2
  4848 ;;      Params:         0       2       0       0       0
  4849 ;;      Locals:         0       2       0       0       0
  4850 ;;      Temps:          0       8       0       0       0
  4851 ;;      Totals:         0      12       0       0       0
  4852 ;;Total ram usage:       12 bytes
  4853 ;; Hardware stack levels used: 1
  4854 ;; Hardware stack levels required when called: 1
  4855 ;; This function calls:
  4856 ;;		___fladd
  4857 ;;		___fldiv
  4858 ;;		___xxtofl
  4859 ;;		_dht11_read_byte
  4860 ;; This function is called by:
  4861 ;;		_main
  4862 ;; This function uses a non-reentrant model
  4863 ;;
  4864                           
  4865     0D61                     _dht11_read:	
  4866                           ;psect for function _dht11_read
  4867                           
  4868     0D61                     l3065:	
  4869                           ;incstack = 0
  4870                           ; Regs used in _dht11_read: [wreg-fsr0h+status,2+status,0+pclath+btemp1+cstack]
  4871                           
  4872                           
  4873                           ;dht11.c: 105:     uint8_t i;;dht11.c: 106:     uint8_t checksum;;dht11.c: 109:     PORT
      +                          Abits.RA0 = 0; TRISAbits.TRISA0 = 0;;
  4874     0D61  1283               	bcf	3,5	;RP0=0, select bank0
  4875     0D62  1303               	bcf	3,6	;RP1=0, select bank0
  4876     0D63  1005               	bcf	5,0	;volatile
  4877     0D64  1683               	bsf	3,5	;RP0=1, select bank1
  4878     0D65  1303               	bcf	3,6	;RP1=0, select bank1
  4879     0D66  1005               	bcf	5,0	;volatile
  4880     0D67                     l3067:
  4881                           
  4882                           ;dht11.c: 110:     _delay((unsigned long)((20)*((20000000L)/4000.0)));
  4883     0D67  3082               	movlw	130
  4884     0D68  1283               	bcf	3,5	;RP0=0, select bank0
  4885     0D69  1303               	bcf	3,6	;RP1=0, select bank0
  4886     0D6A  00D7               	movwf	??_dht11_read+1
  4887     0D6B  30DD               	movlw	221
  4888     0D6C  00D6               	movwf	??_dht11_read
  4889     0D6D                     u4497:
  4890     0D6D  0BD6               	decfsz	??_dht11_read,f
  4891     0D6E  2D6D               	goto	u4497
  4892     0D6F  0BD7               	decfsz	??_dht11_read+1,f
  4893     0D70  2D6D               	goto	u4497
  4894     0D71                     l3069:
  4895                           
  4896                           ;dht11.c: 113:     TRISAbits.TRISA0 = 1;;
  4897     0D71  1683               	bsf	3,5	;RP0=1, select bank1
  4898     0D72  1303               	bcf	3,6	;RP1=0, select bank1
  4899     0D73  1405               	bsf	5,0	;volatile
  4900                           
  4901                           ;dht11.c: 114:     _delay((unsigned long)((30)*((20000000L)/4000000.0)));
  4902     0D74  3031               	movlw	49
  4903     0D75  1283               	bcf	3,5	;RP0=0, select bank0
  4904     0D76  1303               	bcf	3,6	;RP1=0, select bank0
  4905     0D77  00D6               	movwf	??_dht11_read
  4906     0D78                     u4507:
  4907     0D78  0BD6               	decfsz	??_dht11_read,f
  4908     0D79  2D78               	goto	u4507
  4909     0D7A                     l3071:
  4910                           
  4911                           ;dht11.c: 117:     TMR0 = 0;
  4912     0D7A  1283               	bcf	3,5	;RP0=0, select bank0
  4913     0D7B  1303               	bcf	3,6	;RP1=0, select bank0
  4914     0D7C  0181               	clrf	1	;volatile
  4915     0D7D                     l201:	
  4916                           ;dht11.c: 122:     }
  4917                           
  4918                           
  4919                           ;dht11.c: 118:     while(PORTAbits.RA0) {
  4920     0D7D  1805               	btfsc	5,0	;volatile
  4921     0D7E  2D80               	goto	u4241
  4922     0D7F  2D81               	goto	u4240
  4923     0D80                     u4241:
  4924     0D80  2D7D               	goto	l201
  4925     0D81                     u4240:
  4926     0D81                     l3077:
  4927                           
  4928                           ;dht11.c: 125:     TMR0 = 0;
  4929     0D81  0181               	clrf	1	;volatile
  4930     0D82                     l206:	
  4931                           ;dht11.c: 130:     }
  4932                           
  4933                           
  4934                           ;dht11.c: 126:     while(!PORTAbits.RA0) {
  4935     0D82  1C05               	btfss	5,0	;volatile
  4936     0D83  2D85               	goto	u4251
  4937     0D84  2D86               	goto	u4250
  4938     0D85                     u4251:
  4939     0D85  2D82               	goto	l206
  4940     0D86                     u4250:
  4941     0D86                     l3083:
  4942                           
  4943                           ;dht11.c: 133:     TMR0 = 0;
  4944     0D86  0181               	clrf	1	;volatile
  4945     0D87                     l210:	
  4946                           ;dht11.c: 138:     }
  4947                           
  4948                           
  4949                           ;dht11.c: 134:     while(PORTAbits.RA0) {
  4950     0D87  1805               	btfsc	5,0	;volatile
  4951     0D88  2D8A               	goto	u4261
  4952     0D89  2D8B               	goto	u4260
  4953     0D8A                     u4261:
  4954     0D8A  2D87               	goto	l210
  4955     0D8B                     u4260:
  4956     0D8B                     l3089:
  4957                           
  4958                           ;dht11.c: 141:     for(i = 0; i < (5); i++) {
  4959     0D8B  01DF               	clrf	dht11_read@i
  4960     0D8C                     l3095:
  4961                           
  4962                           ;dht11.c: 142:         if(!dht11_read_byte()) {
  4963     0D8C  160A  118A  26C9  120A  158A  	fcall	_dht11_read_byte
  4964     0D91  3A00               	xorlw	0
  4965     0D92  1D03               	skipz
  4966     0D93  2D95               	goto	u4271
  4967     0D94  2D96               	goto	u4270
  4968     0D95                     u4271:
  4969     0D95  2D98               	goto	l3101
  4970     0D96                     u4270:
  4971     0D96                     l3097:
  4972                           
  4973                           ;dht11.c: 143:             return 0;
  4974     0D96  3000               	movlw	0
  4975     0D97  2EA5               	goto	l204
  4976     0D98                     l3101:
  4977                           
  4978                           ;dht11.c: 145:         dht11_byte[i] = dht11_aux;
  4979     0D98  1283               	bcf	3,5	;RP0=0, select bank0
  4980     0D99  1303               	bcf	3,6	;RP1=0, select bank0
  4981     0D9A  085F               	movf	dht11_read@i,w
  4982     0D9B  3EA0               	addlw	(low (_dht11_byte| 0))& (0+255)
  4983     0D9C  0084               	movwf	4
  4984     0D9D  086F               	movf	_dht11_aux,w
  4985     0D9E  1383               	bcf	3,7	;select IRP bank1
  4986     0D9F  0080               	movwf	0
  4987     0DA0                     l3103:
  4988                           
  4989                           ;dht11.c: 146:     }
  4990     0DA0  3001               	movlw	1
  4991     0DA1  07DF               	addwf	dht11_read@i,f
  4992     0DA2                     l3105:
  4993     0DA2  3005               	movlw	5
  4994     0DA3  025F               	subwf	dht11_read@i,w
  4995     0DA4  1C03               	skipc
  4996     0DA5  2DA7               	goto	u4281
  4997     0DA6  2DA8               	goto	u4280
  4998     0DA7                     u4281:
  4999     0DA7  2D8C               	goto	l3095
  5000     0DA8                     u4280:
  5001     0DA8                     l3107:
  5002                           
  5003                           ;dht11.c: 149:     checksum = dht11_byte[0] + dht11_byte[1] + dht11_byte[2] + dht11_byte
      +                          [3];
  5004     0DA8  1683               	bsf	3,5	;RP0=1, select bank1
  5005     0DA9  1303               	bcf	3,6	;RP1=0, select bank1
  5006     0DAA  0822               	movf	(_dht11_byte^(0+128)+2),w
  5007     0DAB  0721               	addwf	(_dht11_byte^(0+128)+1),w
  5008     0DAC  1283               	bcf	3,5	;RP0=0, select bank0
  5009     0DAD  1303               	bcf	3,6	;RP1=0, select bank0
  5010     0DAE  00D6               	movwf	??_dht11_read
  5011     0DAF  1683               	bsf	3,5	;RP0=1, select bank1
  5012     0DB0  1303               	bcf	3,6	;RP1=0, select bank1
  5013     0DB1  0823               	movf	(_dht11_byte^(0+128)+3),w
  5014     0DB2  1283               	bcf	3,5	;RP0=0, select bank0
  5015     0DB3  1303               	bcf	3,6	;RP1=0, select bank0
  5016     0DB4  0756               	addwf	??_dht11_read,w
  5017     0DB5  00D7               	movwf	??_dht11_read+1
  5018     0DB6  1683               	bsf	3,5	;RP0=1, select bank1
  5019     0DB7  1303               	bcf	3,6	;RP1=0, select bank1
  5020     0DB8  0820               	movf	_dht11_byte^(0+128),w
  5021     0DB9  1283               	bcf	3,5	;RP0=0, select bank0
  5022     0DBA  1303               	bcf	3,6	;RP1=0, select bank0
  5023     0DBB  0757               	addwf	??_dht11_read+1,w
  5024     0DBC  00DE               	movwf	dht11_read@checksum
  5025     0DBD                     l3109:
  5026                           
  5027                           ;dht11.c: 150:     if(checksum != dht11_byte[4]) {
  5028     0DBD  1683               	bsf	3,5	;RP0=1, select bank1
  5029     0DBE  1303               	bcf	3,6	;RP1=0, select bank1
  5030     0DBF  0824               	movf	(_dht11_byte^(0+128)+4),w
  5031     0DC0  1283               	bcf	3,5	;RP0=0, select bank0
  5032     0DC1  1303               	bcf	3,6	;RP1=0, select bank0
  5033     0DC2  065E               	xorwf	dht11_read@checksum,w
  5034     0DC3  1903               	skipnz
  5035     0DC4  2DC6               	goto	u4291
  5036     0DC5  2DC7               	goto	u4290
  5037     0DC6                     u4291:
  5038     0DC6  2DC8               	goto	l3115
  5039     0DC7                     u4290:
  5040     0DC7  2D96               	goto	l3097
  5041     0DC8                     l3115:
  5042                           
  5043                           ;dht11.c: 155:     *phum = ((float)dht11_byte[0]) + ((float)dht11_byte[1]) / 10.0;
  5044     0DC8  3041               	movlw	65
  5045     0DC9  00A9               	movwf	___fldiv@a+3
  5046     0DCA  3020               	movlw	32
  5047     0DCB  00A8               	movwf	___fldiv@a+2
  5048     0DCC  3000               	movlw	0
  5049     0DCD  00A7               	movwf	___fldiv@a+1
  5050     0DCE  3000               	movlw	0
  5051     0DCF  00A6               	movwf	___fldiv@a
  5052     0DD0  1683               	bsf	3,5	;RP0=1, select bank1
  5053     0DD1  1303               	bcf	3,6	;RP1=0, select bank1
  5054     0DD2  0821               	movf	(_dht11_byte^(0+128)+1),w
  5055     0DD3  1283               	bcf	3,5	;RP0=0, select bank0
  5056     0DD4  1303               	bcf	3,6	;RP1=0, select bank0
  5057     0DD5  00D6               	movwf	??_dht11_read
  5058     0DD6  01D7               	clrf	??_dht11_read+1
  5059     0DD7  01D8               	clrf	??_dht11_read+2
  5060     0DD8  01D9               	clrf	??_dht11_read+3
  5061     0DD9  0859               	movf	??_dht11_read+3,w
  5062     0DDA  00F9               	movwf	___xxtofl@val+3
  5063     0DDB  0858               	movf	??_dht11_read+2,w
  5064     0DDC  00F8               	movwf	___xxtofl@val+2
  5065     0DDD  0857               	movf	??_dht11_read+1,w
  5066     0DDE  00F7               	movwf	___xxtofl@val+1
  5067     0DDF  0856               	movf	??_dht11_read,w
  5068     0DE0  00F6               	movwf	___xxtofl@val
  5069     0DE1  3000               	movlw	0
  5070     0DE2  120A  158A  2307  120A  158A  	fcall	___xxtofl
  5071     0DE7  0879               	movf	?___xxtofl+3,w
  5072     0DE8  1283               	bcf	3,5	;RP0=0, select bank0
  5073     0DE9  1303               	bcf	3,6	;RP1=0, select bank0
  5074     0DEA  00AD               	movwf	___fldiv@b+3
  5075     0DEB  0878               	movf	?___xxtofl+2,w
  5076     0DEC  00AC               	movwf	___fldiv@b+2
  5077     0DED  0877               	movf	?___xxtofl+1,w
  5078     0DEE  00AB               	movwf	___fldiv@b+1
  5079     0DEF  0876               	movf	?___xxtofl,w
  5080     0DF0  00AA               	movwf	___fldiv@b
  5081     0DF1  120A  118A  208B  120A  158A  	fcall	___fldiv
  5082     0DF6  1283               	bcf	3,5	;RP0=0, select bank0
  5083     0DF7  1303               	bcf	3,6	;RP1=0, select bank0
  5084     0DF8  0829               	movf	?___fldiv+3,w
  5085     0DF9  00C3               	movwf	___fladd@b+3
  5086     0DFA  0828               	movf	?___fldiv+2,w
  5087     0DFB  00C2               	movwf	___fladd@b+2
  5088     0DFC  0827               	movf	?___fldiv+1,w
  5089     0DFD  00C1               	movwf	___fladd@b+1
  5090     0DFE  0826               	movf	?___fldiv,w
  5091     0DFF  00C0               	movwf	___fladd@b
  5092     0E00  1683               	bsf	3,5	;RP0=1, select bank1
  5093     0E01  1303               	bcf	3,6	;RP1=0, select bank1
  5094     0E02  0820               	movf	_dht11_byte^(0+128),w
  5095     0E03  1283               	bcf	3,5	;RP0=0, select bank0
  5096     0E04  1303               	bcf	3,6	;RP1=0, select bank0
  5097     0E05  00DA               	movwf	??_dht11_read+4
  5098     0E06  01DB               	clrf	??_dht11_read+5
  5099     0E07  01DC               	clrf	??_dht11_read+6
  5100     0E08  01DD               	clrf	??_dht11_read+7
  5101     0E09  085D               	movf	??_dht11_read+7,w
  5102     0E0A  00F9               	movwf	___xxtofl@val+3
  5103     0E0B  085C               	movf	??_dht11_read+6,w
  5104     0E0C  00F8               	movwf	___xxtofl@val+2
  5105     0E0D  085B               	movf	??_dht11_read+5,w
  5106     0E0E  00F7               	movwf	___xxtofl@val+1
  5107     0E0F  085A               	movf	??_dht11_read+4,w
  5108     0E10  00F6               	movwf	___xxtofl@val
  5109     0E11  3000               	movlw	0
  5110     0E12  120A  158A  2307  120A  158A  	fcall	___xxtofl
  5111     0E17  0879               	movf	?___xxtofl+3,w
  5112     0E18  1283               	bcf	3,5	;RP0=0, select bank0
  5113     0E19  1303               	bcf	3,6	;RP1=0, select bank0
  5114     0E1A  00C7               	movwf	___fladd@a+3
  5115     0E1B  0878               	movf	?___xxtofl+2,w
  5116     0E1C  00C6               	movwf	___fladd@a+2
  5117     0E1D  0877               	movf	?___xxtofl+1,w
  5118     0E1E  00C5               	movwf	___fladd@a+1
  5119     0E1F  0876               	movf	?___xxtofl,w
  5120     0E20  00C4               	movwf	___fladd@a
  5121     0E21  120A  118A  2255  120A  158A  	fcall	___fladd
  5122     0E26  1283               	bcf	3,5	;RP0=0, select bank0
  5123     0E27  1303               	bcf	3,6	;RP1=0, select bank0
  5124     0E28  0854               	movf	dht11_read@phum,w
  5125     0E29  0084               	movwf	4
  5126     0E2A  0840               	movf	?___fladd,w
  5127     0E2B  1383               	bcf	3,7	;select IRP bank0
  5128     0E2C  0080               	movwf	0
  5129     0E2D  0A84               	incf	4,f
  5130     0E2E  0841               	movf	?___fladd+1,w
  5131     0E2F  0080               	movwf	0
  5132     0E30  0A84               	incf	4,f
  5133     0E31  0842               	movf	?___fladd+2,w
  5134     0E32  0080               	movwf	0
  5135     0E33  0A84               	incf	4,f
  5136     0E34  0843               	movf	?___fladd+3,w
  5137     0E35  0080               	movwf	0
  5138                           
  5139                           ;dht11.c: 156:     *ptemp = ((float)dht11_byte[2]) + ((float)dht11_byte[3]) / 10.0;
  5140     0E36  3041               	movlw	65
  5141     0E37  00A9               	movwf	___fldiv@a+3
  5142     0E38  3020               	movlw	32
  5143     0E39  00A8               	movwf	___fldiv@a+2
  5144     0E3A  3000               	movlw	0
  5145     0E3B  00A7               	movwf	___fldiv@a+1
  5146     0E3C  3000               	movlw	0
  5147     0E3D  00A6               	movwf	___fldiv@a
  5148     0E3E  1683               	bsf	3,5	;RP0=1, select bank1
  5149     0E3F  1303               	bcf	3,6	;RP1=0, select bank1
  5150     0E40  0823               	movf	(_dht11_byte^(0+128)+3),w
  5151     0E41  1283               	bcf	3,5	;RP0=0, select bank0
  5152     0E42  1303               	bcf	3,6	;RP1=0, select bank0
  5153     0E43  00D6               	movwf	??_dht11_read
  5154     0E44  01D7               	clrf	??_dht11_read+1
  5155     0E45  01D8               	clrf	??_dht11_read+2
  5156     0E46  01D9               	clrf	??_dht11_read+3
  5157     0E47  0859               	movf	??_dht11_read+3,w
  5158     0E48  00F9               	movwf	___xxtofl@val+3
  5159     0E49  0858               	movf	??_dht11_read+2,w
  5160     0E4A  00F8               	movwf	___xxtofl@val+2
  5161     0E4B  0857               	movf	??_dht11_read+1,w
  5162     0E4C  00F7               	movwf	___xxtofl@val+1
  5163     0E4D  0856               	movf	??_dht11_read,w
  5164     0E4E  00F6               	movwf	___xxtofl@val
  5165     0E4F  3000               	movlw	0
  5166     0E50  120A  158A  2307  120A  158A  	fcall	___xxtofl
  5167     0E55  0879               	movf	?___xxtofl+3,w
  5168     0E56  1283               	bcf	3,5	;RP0=0, select bank0
  5169     0E57  1303               	bcf	3,6	;RP1=0, select bank0
  5170     0E58  00AD               	movwf	___fldiv@b+3
  5171     0E59  0878               	movf	?___xxtofl+2,w
  5172     0E5A  00AC               	movwf	___fldiv@b+2
  5173     0E5B  0877               	movf	?___xxtofl+1,w
  5174     0E5C  00AB               	movwf	___fldiv@b+1
  5175     0E5D  0876               	movf	?___xxtofl,w
  5176     0E5E  00AA               	movwf	___fldiv@b
  5177     0E5F  120A  118A  208B  120A  158A  	fcall	___fldiv
  5178     0E64  1283               	bcf	3,5	;RP0=0, select bank0
  5179     0E65  1303               	bcf	3,6	;RP1=0, select bank0
  5180     0E66  0829               	movf	?___fldiv+3,w
  5181     0E67  00C3               	movwf	___fladd@b+3
  5182     0E68  0828               	movf	?___fldiv+2,w
  5183     0E69  00C2               	movwf	___fladd@b+2
  5184     0E6A  0827               	movf	?___fldiv+1,w
  5185     0E6B  00C1               	movwf	___fladd@b+1
  5186     0E6C  0826               	movf	?___fldiv,w
  5187     0E6D  00C0               	movwf	___fladd@b
  5188     0E6E  1683               	bsf	3,5	;RP0=1, select bank1
  5189     0E6F  1303               	bcf	3,6	;RP1=0, select bank1
  5190     0E70  0822               	movf	(_dht11_byte^(0+128)+2),w
  5191     0E71  1283               	bcf	3,5	;RP0=0, select bank0
  5192     0E72  1303               	bcf	3,6	;RP1=0, select bank0
  5193     0E73  00DA               	movwf	??_dht11_read+4
  5194     0E74  01DB               	clrf	??_dht11_read+5
  5195     0E75  01DC               	clrf	??_dht11_read+6
  5196     0E76  01DD               	clrf	??_dht11_read+7
  5197     0E77  085D               	movf	??_dht11_read+7,w
  5198     0E78  00F9               	movwf	___xxtofl@val+3
  5199     0E79  085C               	movf	??_dht11_read+6,w
  5200     0E7A  00F8               	movwf	___xxtofl@val+2
  5201     0E7B  085B               	movf	??_dht11_read+5,w
  5202     0E7C  00F7               	movwf	___xxtofl@val+1
  5203     0E7D  085A               	movf	??_dht11_read+4,w
  5204     0E7E  00F6               	movwf	___xxtofl@val
  5205     0E7F  3000               	movlw	0
  5206     0E80  120A  158A  2307  120A  158A  	fcall	___xxtofl
  5207     0E85  0879               	movf	?___xxtofl+3,w
  5208     0E86  1283               	bcf	3,5	;RP0=0, select bank0
  5209     0E87  1303               	bcf	3,6	;RP1=0, select bank0
  5210     0E88  00C7               	movwf	___fladd@a+3
  5211     0E89  0878               	movf	?___xxtofl+2,w
  5212     0E8A  00C6               	movwf	___fladd@a+2
  5213     0E8B  0877               	movf	?___xxtofl+1,w
  5214     0E8C  00C5               	movwf	___fladd@a+1
  5215     0E8D  0876               	movf	?___xxtofl,w
  5216     0E8E  00C4               	movwf	___fladd@a
  5217     0E8F  120A  118A  2255  120A  158A  	fcall	___fladd
  5218     0E94  1283               	bcf	3,5	;RP0=0, select bank0
  5219     0E95  1303               	bcf	3,6	;RP1=0, select bank0
  5220     0E96  0855               	movf	dht11_read@ptemp,w
  5221     0E97  0084               	movwf	4
  5222     0E98  0840               	movf	?___fladd,w
  5223     0E99  1383               	bcf	3,7	;select IRP bank0
  5224     0E9A  0080               	movwf	0
  5225     0E9B  0A84               	incf	4,f
  5226     0E9C  0841               	movf	?___fladd+1,w
  5227     0E9D  0080               	movwf	0
  5228     0E9E  0A84               	incf	4,f
  5229     0E9F  0842               	movf	?___fladd+2,w
  5230     0EA0  0080               	movwf	0
  5231     0EA1  0A84               	incf	4,f
  5232     0EA2  0843               	movf	?___fladd+3,w
  5233     0EA3  0080               	movwf	0
  5234     0EA4                     l3117:
  5235                           
  5236                           ;dht11.c: 158:     return 1;
  5237     0EA4  3001               	movlw	1
  5238     0EA5                     l204:
  5239     0EA5  0008               	return
  5240     0EA6                     __end_of_dht11_read:
  5241                           
  5242                           	psect	text18
  5243     16C9                     __ptext18:	
  5244 ;; *************** function _dht11_read_byte *****************
  5245 ;; Defined at:
  5246 ;;		line 50 in file "dht11.c"
  5247 ;; Parameters:    Size  Location     Type
  5248 ;;		None
  5249 ;; Auto vars:     Size  Location     Type
  5250 ;;  i               1    1[COMMON] unsigned char 
  5251 ;;  timer_val       1    0[COMMON] unsigned char 
  5252 ;; Return value:  Size  Location     Type
  5253 ;;                  1    wreg      unsigned char 
  5254 ;; Registers used:
  5255 ;;		wreg, status,2, status,0
  5256 ;; Tracked objects:
  5257 ;;		On entry : 0/0
  5258 ;;		On exit  : 0/0
  5259 ;;		Unchanged: 0/0
  5260 ;; Data sizes:     COMMON   BANK0   BANK1   BANK3   BANK2
  5261 ;;      Params:         0       0       0       0       0
  5262 ;;      Locals:         2       0       0       0       0
  5263 ;;      Temps:          0       0       0       0       0
  5264 ;;      Totals:         2       0       0       0       0
  5265 ;;Total ram usage:        2 bytes
  5266 ;; Hardware stack levels used: 1
  5267 ;; This function calls:
  5268 ;;		Nothing
  5269 ;; This function is called by:
  5270 ;;		_dht11_read
  5271 ;; This function uses a non-reentrant model
  5272 ;;
  5273                           
  5274     16C9                     _dht11_read_byte:	
  5275                           ;psect for function _dht11_read_byte
  5276                           
  5277     16C9                     l2557:	
  5278                           ;incstack = 0
  5279                           ; Regs used in _dht11_read_byte: [wreg+status,2+status,0]
  5280                           
  5281                           
  5282                           ;dht11.c: 51:     uint8_t i;;dht11.c: 52:     uint8_t timer_val;;dht11.c: 53:     dht11_
      +                          aux = 0;
  5283     16C9  1283               	bcf	3,5	;RP0=0, select bank0
  5284     16CA  1303               	bcf	3,6	;RP1=0, select bank0
  5285     16CB  01EF               	clrf	_dht11_aux
  5286                           
  5287                           ;dht11.c: 56:     for(i = 0; i < 8; i++) {
  5288     16CC  01F1               	clrf	dht11_read_byte@i
  5289     16CD                     l2563:
  5290                           
  5291                           ;dht11.c: 58:         TMR0 = 0;
  5292     16CD  0181               	clrf	1	;volatile
  5293     16CE                     l186:	
  5294                           ;dht11.c: 61:         }
  5295                           
  5296                           
  5297                           ;dht11.c: 59:         while(!PORTAbits.RA0) {
  5298     16CE  1C05               	btfss	5,0	;volatile
  5299     16CF  2ED1               	goto	u3141
  5300     16D0  2ED2               	goto	u3140
  5301     16D1                     u3141:
  5302     16D1  2ECE               	goto	l186
  5303     16D2                     u3140:
  5304     16D2                     l2569:
  5305                           
  5306                           ;dht11.c: 66:         TMR0 = 0;
  5307     16D2  0181               	clrf	1	;volatile
  5308     16D3                     l191:	
  5309                           ;dht11.c: 69:         }
  5310                           
  5311                           
  5312                           ;dht11.c: 67:         while(PORTAbits.RA0) {
  5313     16D3  1805               	btfsc	5,0	;volatile
  5314     16D4  2ED6               	goto	u3151
  5315     16D5  2ED7               	goto	u3150
  5316     16D6                     u3151:
  5317     16D6  2ED3               	goto	l191
  5318     16D7                     u3150:
  5319     16D7                     l2575:
  5320                           
  5321                           ;dht11.c: 71:         timer_val = TMR0;
  5322     16D7  0801               	movf	1,w	;volatile
  5323     16D8  00F0               	movwf	dht11_read_byte@timer_val
  5324                           
  5325                           ;dht11.c: 74:         dht11_aux <<= 1;
  5326     16D9  1003               	clrc
  5327     16DA  0DEF               	rlf	_dht11_aux,f
  5328                           
  5329                           ;dht11.c: 80:         if(timer_val > 50) {
  5330     16DB  3033               	movlw	51
  5331     16DC  0270               	subwf	dht11_read_byte@timer_val,w
  5332     16DD  1C03               	skipc
  5333     16DE  2EE0               	goto	u3161
  5334     16DF  2EE1               	goto	u3160
  5335     16E0                     u3161:
  5336     16E0  2EE2               	goto	l2579
  5337     16E1                     u3160:
  5338     16E1                     l2577:
  5339                           
  5340                           ;dht11.c: 81:             dht11_aux |= 0x01;
  5341     16E1  146F               	bsf	_dht11_aux,0
  5342     16E2                     l2579:
  5343                           
  5344                           ;dht11.c: 83:     }
  5345     16E2  3001               	movlw	1
  5346     16E3  07F1               	addwf	dht11_read_byte@i,f
  5347     16E4                     l2581:
  5348     16E4  3008               	movlw	8
  5349     16E5  0271               	subwf	dht11_read_byte@i,w
  5350     16E6  1C03               	skipc
  5351     16E7  2EE9               	goto	u3171
  5352     16E8  2EEA               	goto	u3170
  5353     16E9                     u3171:
  5354     16E9  2ECD               	goto	l2563
  5355     16EA                     u3170:
  5356     16EA                     l2583:
  5357                           
  5358                           ;dht11.c: 84:     return 1;
  5359     16EA  3001               	movlw	1
  5360     16EB                     l189:
  5361     16EB  0008               	return
  5362     16EC                     __end_of_dht11_read_byte:
  5363                           
  5364                           	psect	text19
  5365     0B07                     __ptext19:	
  5366 ;; *************** function ___xxtofl *****************
  5367 ;; Defined at:
  5368 ;;		line 10 in file "C:\Program Files\Microchip\xc8\v3.10\pic\sources\c99\common\xxtofl.c"
  5369 ;; Parameters:    Size  Location     Type
  5370 ;;  sign            1    wreg     unsigned char 
  5371 ;;  val             4    6[COMMON] long 
  5372 ;; Auto vars:     Size  Location     Type
  5373 ;;  sign            1    0[BANK0 ] unsigned char 
  5374 ;;  arg             4    2[BANK0 ] unsigned long 
  5375 ;;  exp             1    1[BANK0 ] unsigned char 
  5376 ;; Return value:  Size  Location     Type
  5377 ;;                  4    6[COMMON] unsigned char 
  5378 ;; Registers used:
  5379 ;;		wreg, status,2, status,0
  5380 ;; Tracked objects:
  5381 ;;		On entry : 0/0
  5382 ;;		On exit  : 0/0
  5383 ;;		Unchanged: 0/0
  5384 ;; Data sizes:     COMMON   BANK0   BANK1   BANK3   BANK2
  5385 ;;      Params:         4       0       0       0       0
  5386 ;;      Locals:         0       6       0       0       0
  5387 ;;      Temps:          4       0       0       0       0
  5388 ;;      Totals:         8       6       0       0       0
  5389 ;;Total ram usage:       14 bytes
  5390 ;; Hardware stack levels used: 1
  5391 ;; This function calls:
  5392 ;;		Nothing
  5393 ;; This function is called by:
  5394 ;;		_float_to_string_opt
  5395 ;;		_dht11_read
  5396 ;; This function uses a non-reentrant model
  5397 ;;
  5398                           
  5399     0B07                     ___xxtofl:	
  5400                           ;psect for function ___xxtofl
  5401                           
  5402                           
  5403                           ;incstack = 0
  5404                           ; Regs used in ___xxtofl: [wreg+status,2+status,0]
  5405                           ;___xxtofl@sign stored from wreg
  5406     0B07  1283               	bcf	3,5	;RP0=0, select bank0
  5407     0B08  1303               	bcf	3,6	;RP1=0, select bank0
  5408     0B09  00A0               	movwf	___xxtofl@sign
  5409     0B0A                     l2957:
  5410     0B0A  0820               	movf	___xxtofl@sign,w
  5411     0B0B  1903               	btfsc	3,2
  5412     0B0C  2B0E               	goto	u4061
  5413     0B0D  2B0F               	goto	u4060
  5414     0B0E                     u4061:
  5415     0B0E  2B23               	goto	l2963
  5416     0B0F                     u4060:
  5417     0B0F                     l2959:
  5418     0B0F  1FF9               	btfss	___xxtofl@val+3,7
  5419     0B10  2B12               	goto	u4071
  5420     0B11  2B13               	goto	u4070
  5421     0B12                     u4071:
  5422     0B12  2B23               	goto	l2963
  5423     0B13                     u4070:
  5424     0B13                     l2961:
  5425     0B13  0976               	comf	___xxtofl@val,w
  5426     0B14  00A2               	movwf	___xxtofl@arg
  5427     0B15  0977               	comf	___xxtofl@val+1,w
  5428     0B16  00A3               	movwf	___xxtofl@arg+1
  5429     0B17  0978               	comf	___xxtofl@val+2,w
  5430     0B18  00A4               	movwf	___xxtofl@arg+2
  5431     0B19  0979               	comf	___xxtofl@val+3,w
  5432     0B1A  00A5               	movwf	___xxtofl@arg+3
  5433     0B1B  0AA2               	incf	___xxtofl@arg,f
  5434     0B1C  1903               	skipnz
  5435     0B1D  0AA3               	incf	___xxtofl@arg+1,f
  5436     0B1E  1903               	skipnz
  5437     0B1F  0AA4               	incf	___xxtofl@arg+2,f
  5438     0B20  1903               	skipnz
  5439     0B21  0AA5               	incf	___xxtofl@arg+3,f
  5440     0B22  2B2B               	goto	l789
  5441     0B23                     l2963:
  5442     0B23  0879               	movf	___xxtofl@val+3,w
  5443     0B24  00A5               	movwf	___xxtofl@arg+3
  5444     0B25  0878               	movf	___xxtofl@val+2,w
  5445     0B26  00A4               	movwf	___xxtofl@arg+2
  5446     0B27  0877               	movf	___xxtofl@val+1,w
  5447     0B28  00A3               	movwf	___xxtofl@arg+1
  5448     0B29  0876               	movf	___xxtofl@val,w
  5449     0B2A  00A2               	movwf	___xxtofl@arg
  5450     0B2B                     l789:
  5451     0B2B  0879               	movf	___xxtofl@val+3,w
  5452     0B2C  0478               	iorwf	___xxtofl@val+2,w
  5453     0B2D  0477               	iorwf	___xxtofl@val+1,w
  5454     0B2E  0476               	iorwf	___xxtofl@val,w
  5455     0B2F  1D03               	skipz
  5456     0B30  2B32               	goto	u4081
  5457     0B31  2B33               	goto	u4080
  5458     0B32                     u4081:
  5459     0B32  2B3C               	goto	l790
  5460     0B33                     u4080:
  5461     0B33                     l2965:
  5462     0B33  3000               	movlw	0
  5463     0B34  00F9               	movwf	?___xxtofl+3
  5464     0B35  3000               	movlw	0
  5465     0B36  00F8               	movwf	?___xxtofl+2
  5466     0B37  3000               	movlw	0
  5467     0B38  00F7               	movwf	?___xxtofl+1
  5468     0B39  3000               	movlw	0
  5469     0B3A  00F6               	movwf	?___xxtofl
  5470     0B3B  2BBC               	goto	l791
  5471     0B3C                     l790:
  5472     0B3C  3096               	movlw	150
  5473     0B3D  00A1               	movwf	___xxtofl@exp
  5474     0B3E  2B4A               	goto	l2971
  5475     0B3F                     l2969:
  5476     0B3F  3001               	movlw	1
  5477     0B40  07A1               	addwf	___xxtofl@exp,f
  5478     0B41  3001               	movlw	1
  5479     0B42                     u4095:
  5480     0B42  1003               	clrc
  5481     0B43  0CA5               	rrf	___xxtofl@arg+3,f
  5482     0B44  0CA4               	rrf	___xxtofl@arg+2,f
  5483     0B45  0CA3               	rrf	___xxtofl@arg+1,f
  5484     0B46  0CA2               	rrf	___xxtofl@arg,f
  5485     0B47  3EFF               	addlw	-1
  5486     0B48  1D03               	skipz
  5487     0B49  2B42               	goto	u4095
  5488     0B4A                     l2971:
  5489     0B4A  30FE               	movlw	254
  5490     0B4B  0525               	andwf	___xxtofl@arg+3,w
  5491     0B4C  1D03               	btfss	3,2
  5492     0B4D  2B4F               	goto	u4101
  5493     0B4E  2B50               	goto	u4100
  5494     0B4F                     u4101:
  5495     0B4F  2B3F               	goto	l2969
  5496     0B50                     u4100:
  5497     0B50  2B6A               	goto	l795
  5498     0B51                     l2973:
  5499     0B51  3001               	movlw	1
  5500     0B52  07A1               	addwf	___xxtofl@exp,f
  5501     0B53                     l2975:
  5502     0B53  3001               	movlw	1
  5503     0B54  07A2               	addwf	___xxtofl@arg,f
  5504     0B55  3000               	movlw	0
  5505     0B56  1803               	skipnc
  5506     0B57  3001               	movlw	1
  5507     0B58  07A3               	addwf	___xxtofl@arg+1,f
  5508     0B59  3000               	movlw	0
  5509     0B5A  1803               	skipnc
  5510     0B5B  3001               	movlw	1
  5511     0B5C  07A4               	addwf	___xxtofl@arg+2,f
  5512     0B5D  3000               	movlw	0
  5513     0B5E  1803               	skipnc
  5514     0B5F  3001               	movlw	1
  5515     0B60  07A5               	addwf	___xxtofl@arg+3,f
  5516     0B61                     l2977:
  5517     0B61  3001               	movlw	1
  5518     0B62                     u4115:
  5519     0B62  1003               	clrc
  5520     0B63  0CA5               	rrf	___xxtofl@arg+3,f
  5521     0B64  0CA4               	rrf	___xxtofl@arg+2,f
  5522     0B65  0CA3               	rrf	___xxtofl@arg+1,f
  5523     0B66  0CA2               	rrf	___xxtofl@arg,f
  5524     0B67  3EFF               	addlw	-1
  5525     0B68  1D03               	skipz
  5526     0B69  2B62               	goto	u4115
  5527     0B6A                     l795:
  5528     0B6A  30FF               	movlw	255
  5529     0B6B  0525               	andwf	___xxtofl@arg+3,w
  5530     0B6C  1D03               	btfss	3,2
  5531     0B6D  2B6F               	goto	u4121
  5532     0B6E  2B70               	goto	u4120
  5533     0B6F                     u4121:
  5534     0B6F  2B51               	goto	l2973
  5535     0B70                     u4120:
  5536     0B70  2B7C               	goto	l2981
  5537     0B71                     l2979:
  5538     0B71  3001               	movlw	1
  5539     0B72  02A1               	subwf	___xxtofl@exp,f
  5540     0B73  3001               	movlw	1
  5541     0B74  00FA               	movwf	??___xxtofl
  5542     0B75                     u4135:
  5543     0B75  1003               	clrc
  5544     0B76  0DA2               	rlf	___xxtofl@arg,f
  5545     0B77  0DA3               	rlf	___xxtofl@arg+1,f
  5546     0B78  0DA4               	rlf	___xxtofl@arg+2,f
  5547     0B79  0DA5               	rlf	___xxtofl@arg+3,f
  5548     0B7A  0BFA               	decfsz	??___xxtofl,f
  5549     0B7B  2B75               	goto	u4135
  5550     0B7C                     l2981:
  5551     0B7C  1BA4               	btfsc	___xxtofl@arg+2,7
  5552     0B7D  2B7F               	goto	u4141
  5553     0B7E  2B80               	goto	u4140
  5554     0B7F                     u4141:
  5555     0B7F  2B86               	goto	l802
  5556     0B80                     u4140:
  5557     0B80                     l2983:
  5558     0B80  3002               	movlw	2
  5559     0B81  0221               	subwf	___xxtofl@exp,w
  5560     0B82  1803               	skipnc
  5561     0B83  2B85               	goto	u4151
  5562     0B84  2B86               	goto	u4150
  5563     0B85                     u4151:
  5564     0B85  2B71               	goto	l2979
  5565     0B86                     u4150:
  5566     0B86                     l802:
  5567     0B86  1821               	btfsc	___xxtofl@exp,0
  5568     0B87  2B89               	goto	u4161
  5569     0B88  2B8A               	goto	u4160
  5570     0B89                     u4161:
  5571     0B89  2B92               	goto	l803
  5572     0B8A                     u4160:
  5573     0B8A                     l2985:
  5574     0B8A  30FF               	movlw	255
  5575     0B8B  05A2               	andwf	___xxtofl@arg,f
  5576     0B8C  30FF               	movlw	255
  5577     0B8D  05A3               	andwf	___xxtofl@arg+1,f
  5578     0B8E  307F               	movlw	127
  5579     0B8F  05A4               	andwf	___xxtofl@arg+2,f
  5580     0B90  30FF               	movlw	255
  5581     0B91  05A5               	andwf	___xxtofl@arg+3,f
  5582     0B92                     l803:
  5583     0B92  1003               	clrc
  5584     0B93  0CA1               	rrf	___xxtofl@exp,f
  5585     0B94                     l2987:
  5586     0B94  0821               	movf	___xxtofl@exp,w
  5587     0B95  00FA               	movwf	??___xxtofl
  5588     0B96  01FB               	clrf	??___xxtofl+1
  5589     0B97  01FC               	clrf	??___xxtofl+2
  5590     0B98  01FD               	clrf	??___xxtofl+3
  5591     0B99  3018               	movlw	24
  5592     0B9A                     u4175:
  5593     0B9A  1003               	clrc
  5594     0B9B  0DFA               	rlf	??___xxtofl,f
  5595     0B9C  0DFB               	rlf	??___xxtofl+1,f
  5596     0B9D  0DFC               	rlf	??___xxtofl+2,f
  5597     0B9E  0DFD               	rlf	??___xxtofl+3,f
  5598     0B9F                     u4170:
  5599     0B9F  3EFF               	addlw	-1
  5600     0BA0  1D03               	skipz
  5601     0BA1  2B9A               	goto	u4175
  5602     0BA2  087A               	movf	??___xxtofl,w
  5603     0BA3  04A2               	iorwf	___xxtofl@arg,f
  5604     0BA4  087B               	movf	??___xxtofl+1,w
  5605     0BA5  04A3               	iorwf	___xxtofl@arg+1,f
  5606     0BA6  087C               	movf	??___xxtofl+2,w
  5607     0BA7  04A4               	iorwf	___xxtofl@arg+2,f
  5608     0BA8  087D               	movf	??___xxtofl+3,w
  5609     0BA9  04A5               	iorwf	___xxtofl@arg+3,f
  5610     0BAA                     l2989:
  5611     0BAA  0820               	movf	___xxtofl@sign,w
  5612     0BAB  1903               	btfsc	3,2
  5613     0BAC  2BAE               	goto	u4181
  5614     0BAD  2BAF               	goto	u4180
  5615     0BAE                     u4181:
  5616     0BAE  2BB4               	goto	l2995
  5617     0BAF                     u4180:
  5618     0BAF                     l2991:
  5619     0BAF  1FF9               	btfss	___xxtofl@val+3,7
  5620     0BB0  2BB2               	goto	u4191
  5621     0BB1  2BB3               	goto	u4190
  5622     0BB2                     u4191:
  5623     0BB2  2BB4               	goto	l2995
  5624     0BB3                     u4190:
  5625     0BB3                     l2993:
  5626     0BB3  17A5               	bsf	___xxtofl@arg+3,7
  5627     0BB4                     l2995:
  5628     0BB4  0825               	movf	___xxtofl@arg+3,w
  5629     0BB5  00F9               	movwf	?___xxtofl+3
  5630     0BB6  0824               	movf	___xxtofl@arg+2,w
  5631     0BB7  00F8               	movwf	?___xxtofl+2
  5632     0BB8  0823               	movf	___xxtofl@arg+1,w
  5633     0BB9  00F7               	movwf	?___xxtofl+1
  5634     0BBA  0822               	movf	___xxtofl@arg,w
  5635     0BBB  00F6               	movwf	?___xxtofl
  5636     0BBC                     l791:
  5637     0BBC  0008               	return
  5638     0BBD                     __end_of___xxtofl:
  5639                           
  5640                           	psect	text20
  5641     008B                     __ptext20:	
  5642 ;; *************** function ___fldiv *****************
  5643 ;; Defined at:
  5644 ;;		line 8 in file "C:\Program Files\Microchip\xc8\v3.10\pic\sources\c99\common\sprcdiv.c"
  5645 ;; Parameters:    Size  Location     Type
  5646 ;;  a               4    6[BANK0 ] unsigned char 
  5647 ;;  b               4   10[BANK0 ] unsigned char 
  5648 ;; Auto vars:     Size  Location     Type
  5649 ;;  grs             4   26[BANK0 ] unsigned long 
  5650 ;;  rem             4   19[BANK0 ] unsigned long 
  5651 ;;  new_exp         2   24[BANK0 ] short 
  5652 ;;  aexp            1   31[BANK0 ] unsigned char 
  5653 ;;  bexp            1   30[BANK0 ] unsigned char 
  5654 ;;  sign            1   23[BANK0 ] unsigned char 
  5655 ;; Return value:  Size  Location     Type
  5656 ;;                  4    6[BANK0 ] unsigned char 
  5657 ;; Registers used:
  5658 ;;		wreg, status,2, status,0, btemp1
  5659 ;; Tracked objects:
  5660 ;;		On entry : 0/0
  5661 ;;		On exit  : 0/0
  5662 ;;		Unchanged: 0/0
  5663 ;; Data sizes:     COMMON   BANK0   BANK1   BANK3   BANK2
  5664 ;;      Params:         0       8       0       0       0
  5665 ;;      Locals:         0      13       0       0       0
  5666 ;;      Temps:          0       5       0       0       0
  5667 ;;      Totals:         0      26       0       0       0
  5668 ;;Total ram usage:       26 bytes
  5669 ;; Hardware stack levels used: 1
  5670 ;; This function calls:
  5671 ;;		Nothing
  5672 ;; This function is called by:
  5673 ;;		_dht11_read
  5674 ;; This function uses a non-reentrant model
  5675 ;;
  5676                           
  5677     008B                     ___fldiv:	
  5678                           ;psect for function ___fldiv
  5679                           
  5680     008B                     l2671:	
  5681                           ;incstack = 0
  5682                           ; Regs used in ___fldiv: [wreg+status,2+status,0+btemp1]
  5683                           
  5684     008B  1283               	bcf	3,5	;RP0=0, select bank0
  5685     008C  1303               	bcf	3,6	;RP1=0, select bank0
  5686     008D  082D               	movf	___fldiv@b+3,w
  5687     008E  00B7               	movwf	___fldiv@sign
  5688     008F                     l2673:
  5689     008F  3080               	movlw	128
  5690     0090  05B7               	andwf	___fldiv@sign,f
  5691     0091                     l2675:
  5692     0091  082D               	movf	___fldiv@b+3,w
  5693     0092  00AE               	movwf	??___fldiv
  5694     0093  072E               	addwf	??___fldiv,w
  5695     0094  00BE               	movwf	___fldiv@bexp
  5696     0095                     l2677:
  5697     0095  1FAC               	btfss	___fldiv@b+2,7
  5698     0096  2898               	goto	u3401
  5699     0097  2899               	goto	u3400
  5700     0098                     u3401:
  5701     0098  289A               	goto	l2681
  5702     0099                     u3400:
  5703     0099                     l2679:
  5704     0099  143E               	bsf	___fldiv@bexp,0
  5705     009A                     l2681:
  5706     009A  083E               	movf	___fldiv@bexp,w
  5707     009B  1903               	btfsc	3,2
  5708     009C  289E               	goto	u3411
  5709     009D  289F               	goto	u3410
  5710     009E                     u3411:
  5711     009E  28AF               	goto	l2691
  5712     009F                     u3410:
  5713     009F                     l2683:
  5714     009F  0A3E               	incf	___fldiv@bexp,w
  5715     00A0  1D03               	btfss	3,2
  5716     00A1  28A3               	goto	u3421
  5717     00A2  28A4               	goto	u3420
  5718     00A3                     u3421:
  5719     00A3  28AC               	goto	l2687
  5720     00A4                     u3420:
  5721     00A4                     l2685:
  5722     00A4  3000               	movlw	0
  5723     00A5  00AD               	movwf	___fldiv@b+3
  5724     00A6  3000               	movlw	0
  5725     00A7  00AC               	movwf	___fldiv@b+2
  5726     00A8  3000               	movlw	0
  5727     00A9  00AB               	movwf	___fldiv@b+1
  5728     00AA  3000               	movlw	0
  5729     00AB  00AA               	movwf	___fldiv@b
  5730     00AC                     l2687:
  5731     00AC  17AC               	bsf	___fldiv@b+2,7
  5732     00AD                     l2689:
  5733     00AD  01AD               	clrf	___fldiv@b+3
  5734     00AE  28B7               	goto	l2693
  5735     00AF                     l2691:
  5736     00AF  3000               	movlw	0
  5737     00B0  00AD               	movwf	___fldiv@b+3
  5738     00B1  3000               	movlw	0
  5739     00B2  00AC               	movwf	___fldiv@b+2
  5740     00B3  3000               	movlw	0
  5741     00B4  00AB               	movwf	___fldiv@b+1
  5742     00B5  3000               	movlw	0
  5743     00B6  00AA               	movwf	___fldiv@b
  5744     00B7                     l2693:
  5745     00B7  0829               	movf	___fldiv@a+3,w
  5746     00B8  3980               	andlw	128
  5747     00B9  06B7               	xorwf	___fldiv@sign,f
  5748     00BA                     l2695:
  5749     00BA  0829               	movf	___fldiv@a+3,w
  5750     00BB  00AE               	movwf	??___fldiv
  5751     00BC  072E               	addwf	??___fldiv,w
  5752     00BD  00BF               	movwf	___fldiv@aexp
  5753     00BE                     l2697:
  5754     00BE  1FA8               	btfss	___fldiv@a+2,7
  5755     00BF  28C1               	goto	u3431
  5756     00C0  28C2               	goto	u3430
  5757     00C1                     u3431:
  5758     00C1  28C3               	goto	l2701
  5759     00C2                     u3430:
  5760     00C2                     l2699:
  5761     00C2  143F               	bsf	___fldiv@aexp,0
  5762     00C3                     l2701:
  5763     00C3  083F               	movf	___fldiv@aexp,w
  5764     00C4  1903               	btfsc	3,2
  5765     00C5  28C7               	goto	u3441
  5766     00C6  28C8               	goto	u3440
  5767     00C7                     u3441:
  5768     00C7  28D8               	goto	l2711
  5769     00C8                     u3440:
  5770     00C8                     l2703:
  5771     00C8  0A3F               	incf	___fldiv@aexp,w
  5772     00C9  1D03               	btfss	3,2
  5773     00CA  28CC               	goto	u3451
  5774     00CB  28CD               	goto	u3450
  5775     00CC                     u3451:
  5776     00CC  28D5               	goto	l2707
  5777     00CD                     u3450:
  5778     00CD                     l2705:
  5779     00CD  3000               	movlw	0
  5780     00CE  00A9               	movwf	___fldiv@a+3
  5781     00CF  3000               	movlw	0
  5782     00D0  00A8               	movwf	___fldiv@a+2
  5783     00D1  3000               	movlw	0
  5784     00D2  00A7               	movwf	___fldiv@a+1
  5785     00D3  3000               	movlw	0
  5786     00D4  00A6               	movwf	___fldiv@a
  5787     00D5                     l2707:
  5788     00D5  17A8               	bsf	___fldiv@a+2,7
  5789     00D6                     l2709:
  5790     00D6  01A9               	clrf	___fldiv@a+3
  5791     00D7  28E0               	goto	l705
  5792     00D8                     l2711:
  5793     00D8  3000               	movlw	0
  5794     00D9  00A9               	movwf	___fldiv@a+3
  5795     00DA  3000               	movlw	0
  5796     00DB  00A8               	movwf	___fldiv@a+2
  5797     00DC  3000               	movlw	0
  5798     00DD  00A7               	movwf	___fldiv@a+1
  5799     00DE  3000               	movlw	0
  5800     00DF  00A6               	movwf	___fldiv@a
  5801     00E0                     l705:
  5802     00E0  0829               	movf	___fldiv@a+3,w
  5803     00E1  0428               	iorwf	___fldiv@a+2,w
  5804     00E2  0427               	iorwf	___fldiv@a+1,w
  5805     00E3  0426               	iorwf	___fldiv@a,w
  5806     00E4  1D03               	skipz
  5807     00E5  28E7               	goto	u3461
  5808     00E6  28E8               	goto	u3460
  5809     00E7                     u3461:
  5810     00E7  28FF               	goto	l2721
  5811     00E8                     u3460:
  5812     00E8                     l2713:
  5813     00E8  3000               	movlw	0
  5814     00E9  00AD               	movwf	___fldiv@b+3
  5815     00EA  3000               	movlw	0
  5816     00EB  00AC               	movwf	___fldiv@b+2
  5817     00EC  3000               	movlw	0
  5818     00ED  00AB               	movwf	___fldiv@b+1
  5819     00EE  3000               	movlw	0
  5820     00EF  00AA               	movwf	___fldiv@b
  5821     00F0  3080               	movlw	128
  5822     00F1  04AC               	iorwf	___fldiv@b+2,f
  5823     00F2  307F               	movlw	127
  5824     00F3  04AD               	iorwf	___fldiv@b+3,f
  5825     00F4                     l2715:
  5826     00F4  0837               	movf	___fldiv@sign,w
  5827     00F5  04AD               	iorwf	___fldiv@b+3,f
  5828     00F6                     l2717:
  5829     00F6  082D               	movf	___fldiv@b+3,w
  5830     00F7  00A9               	movwf	?___fldiv+3
  5831     00F8  082C               	movf	___fldiv@b+2,w
  5832     00F9  00A8               	movwf	?___fldiv+2
  5833     00FA  082B               	movf	___fldiv@b+1,w
  5834     00FB  00A7               	movwf	?___fldiv+1
  5835     00FC  082A               	movf	___fldiv@b,w
  5836     00FD  00A6               	movwf	?___fldiv
  5837     00FE  2A54               	goto	l707
  5838     00FF                     l2721:
  5839     00FF  083E               	movf	___fldiv@bexp,w
  5840     0100  1D03               	btfss	3,2
  5841     0101  2903               	goto	u3471
  5842     0102  2904               	goto	u3470
  5843     0103                     u3471:
  5844     0103  290D               	goto	l2727
  5845     0104                     u3470:
  5846     0104                     l2723:
  5847     0104  3000               	movlw	0
  5848     0105  00A9               	movwf	?___fldiv+3
  5849     0106  3000               	movlw	0
  5850     0107  00A8               	movwf	?___fldiv+2
  5851     0108  3000               	movlw	0
  5852     0109  00A7               	movwf	?___fldiv+1
  5853     010A  3000               	movlw	0
  5854     010B  00A6               	movwf	?___fldiv
  5855     010C  2A54               	goto	l707
  5856     010D                     l2727:
  5857     010D  083E               	movf	___fldiv@bexp,w
  5858     010E  00AE               	movwf	??___fldiv
  5859     010F  01AF               	clrf	??___fldiv+1
  5860     0110  082F               	movf	??___fldiv+1,w
  5861     0111  00B1               	movwf	??___fldiv+3
  5862     0112  083F               	movf	___fldiv@aexp,w
  5863     0113  022E               	subwf	??___fldiv,w
  5864     0114  00B0               	movwf	??___fldiv+2
  5865     0115  1C03               	skipc
  5866     0116  03B1               	decf	??___fldiv+3,f
  5867     0117  0830               	movf	??___fldiv+2,w
  5868     0118  3E7F               	addlw	127
  5869     0119  00B8               	movwf	___fldiv@new_exp
  5870     011A  0831               	movf	??___fldiv+3,w
  5871     011B  1803               	skipnc
  5872     011C  3E01               	addlw	1
  5873     011D  3E00               	addlw	0
  5874     011E  00B9               	movwf	___fldiv@new_exp+1
  5875     011F                     l2729:
  5876     011F  082D               	movf	___fldiv@b+3,w
  5877     0120  00B6               	movwf	___fldiv@rem+3
  5878     0121  082C               	movf	___fldiv@b+2,w
  5879     0122  00B5               	movwf	___fldiv@rem+2
  5880     0123  082B               	movf	___fldiv@b+1,w
  5881     0124  00B4               	movwf	___fldiv@rem+1
  5882     0125  082A               	movf	___fldiv@b,w
  5883     0126  00B3               	movwf	___fldiv@rem
  5884     0127                     l2731:
  5885     0127  3000               	movlw	0
  5886     0128  00AD               	movwf	___fldiv@b+3
  5887     0129  3000               	movlw	0
  5888     012A  00AC               	movwf	___fldiv@b+2
  5889     012B  3000               	movlw	0
  5890     012C  00AB               	movwf	___fldiv@b+1
  5891     012D  3000               	movlw	0
  5892     012E  00AA               	movwf	___fldiv@b
  5893     012F                     l2733:
  5894     012F  3000               	movlw	0
  5895     0130  00BD               	movwf	___fldiv@grs+3
  5896     0131  3000               	movlw	0
  5897     0132  00BC               	movwf	___fldiv@grs+2
  5898     0133  3000               	movlw	0
  5899     0134  00BB               	movwf	___fldiv@grs+1
  5900     0135  3000               	movlw	0
  5901     0136  00BA               	movwf	___fldiv@grs
  5902     0137                     l2735:
  5903     0137  01BF               	clrf	___fldiv@aexp
  5904     0138  2981               	goto	l2755
  5905     0139                     l2737:
  5906     0139  083F               	movf	___fldiv@aexp,w
  5907     013A  1903               	btfsc	3,2
  5908     013B  293D               	goto	u3481
  5909     013C  293E               	goto	u3480
  5910     013D                     u3481:
  5911     013D  295E               	goto	l2747
  5912     013E                     u3480:
  5913     013E                     l2739:
  5914     013E  3001               	movlw	1
  5915     013F  00AE               	movwf	??___fldiv
  5916     0140                     u3495:
  5917     0140  1003               	clrc
  5918     0141  0DB3               	rlf	___fldiv@rem,f
  5919     0142  0DB4               	rlf	___fldiv@rem+1,f
  5920     0143  0DB5               	rlf	___fldiv@rem+2,f
  5921     0144  0DB6               	rlf	___fldiv@rem+3,f
  5922     0145  0BAE               	decfsz	??___fldiv,f
  5923     0146  2940               	goto	u3495
  5924     0147  3001               	movlw	1
  5925     0148  00AE               	movwf	??___fldiv
  5926     0149                     u3505:
  5927     0149  1003               	clrc
  5928     014A  0DAA               	rlf	___fldiv@b,f
  5929     014B  0DAB               	rlf	___fldiv@b+1,f
  5930     014C  0DAC               	rlf	___fldiv@b+2,f
  5931     014D  0DAD               	rlf	___fldiv@b+3,f
  5932     014E  0BAE               	decfsz	??___fldiv,f
  5933     014F  2949               	goto	u3505
  5934     0150                     l2741:
  5935     0150  1FBD               	btfss	___fldiv@grs+3,7
  5936     0151  2953               	goto	u3511
  5937     0152  2954               	goto	u3510
  5938     0153                     u3511:
  5939     0153  2955               	goto	l2745
  5940     0154                     u3510:
  5941     0154                     l2743:
  5942     0154  142A               	bsf	___fldiv@b,0
  5943     0155                     l2745:
  5944     0155  3001               	movlw	1
  5945     0156  00AE               	movwf	??___fldiv
  5946     0157                     u3525:
  5947     0157  1003               	clrc
  5948     0158  0DBA               	rlf	___fldiv@grs,f
  5949     0159  0DBB               	rlf	___fldiv@grs+1,f
  5950     015A  0DBC               	rlf	___fldiv@grs+2,f
  5951     015B  0DBD               	rlf	___fldiv@grs+3,f
  5952     015C  0BAE               	decfsz	??___fldiv,f
  5953     015D  2957               	goto	u3525
  5954     015E                     l2747:
  5955     015E  0829               	movf	___fldiv@a+3,w
  5956     015F  0236               	subwf	___fldiv@rem+3,w
  5957     0160  1D03               	skipz
  5958     0161  296C               	goto	u3535
  5959     0162  0828               	movf	___fldiv@a+2,w
  5960     0163  0235               	subwf	___fldiv@rem+2,w
  5961     0164  1D03               	skipz
  5962     0165  296C               	goto	u3535
  5963     0166  0827               	movf	___fldiv@a+1,w
  5964     0167  0234               	subwf	___fldiv@rem+1,w
  5965     0168  1D03               	skipz
  5966     0169  296C               	goto	u3535
  5967     016A  0826               	movf	___fldiv@a,w
  5968     016B  0233               	subwf	___fldiv@rem,w
  5969     016C                     u3535:
  5970     016C  1C03               	skipc
  5971     016D  296F               	goto	u3531
  5972     016E  2970               	goto	u3530
  5973     016F                     u3531:
  5974     016F  297F               	goto	l2753
  5975     0170                     u3530:
  5976     0170                     l2749:
  5977     0170  173D               	bsf	___fldiv@grs+3,6
  5978     0171                     l2751:
  5979     0171  0826               	movf	___fldiv@a,w
  5980     0172  02B3               	subwf	___fldiv@rem,f
  5981     0173  0827               	movf	___fldiv@a+1,w
  5982     0174  1C03               	skipc
  5983     0175  0F27               	incfsz	___fldiv@a+1,w
  5984     0176  02B4               	subwf	___fldiv@rem+1,f
  5985     0177  0828               	movf	___fldiv@a+2,w
  5986     0178  1C03               	skipc
  5987     0179  0F28               	incfsz	___fldiv@a+2,w
  5988     017A  02B5               	subwf	___fldiv@rem+2,f
  5989     017B  0829               	movf	___fldiv@a+3,w
  5990     017C  1C03               	skipc
  5991     017D  0F29               	incfsz	___fldiv@a+3,w
  5992     017E  02B6               	subwf	___fldiv@rem+3,f
  5993     017F                     l2753:
  5994     017F  3001               	movlw	1
  5995     0180  07BF               	addwf	___fldiv@aexp,f
  5996     0181                     l2755:
  5997     0181  301A               	movlw	26
  5998     0182  023F               	subwf	___fldiv@aexp,w
  5999     0183  1C03               	skipc
  6000     0184  2986               	goto	u3541
  6001     0185  2987               	goto	u3540
  6002     0186                     u3541:
  6003     0186  2939               	goto	l2737
  6004     0187                     u3540:
  6005     0187                     l2757:
  6006     0187  0836               	movf	___fldiv@rem+3,w
  6007     0188  0435               	iorwf	___fldiv@rem+2,w
  6008     0189  0434               	iorwf	___fldiv@rem+1,w
  6009     018A  0433               	iorwf	___fldiv@rem,w
  6010     018B  1903               	skipnz
  6011     018C  298E               	goto	u3551
  6012     018D  298F               	goto	u3550
  6013     018E                     u3551:
  6014     018E  29AE               	goto	l2771
  6015     018F                     u3550:
  6016     018F                     l2759:
  6017     018F  143A               	bsf	___fldiv@grs,0
  6018     0190  29AE               	goto	l2771
  6019     0191                     l2761:
  6020     0191  3001               	movlw	1
  6021     0192  00AE               	movwf	??___fldiv
  6022     0193                     u3565:
  6023     0193  1003               	clrc
  6024     0194  0DAA               	rlf	___fldiv@b,f
  6025     0195  0DAB               	rlf	___fldiv@b+1,f
  6026     0196  0DAC               	rlf	___fldiv@b+2,f
  6027     0197  0DAD               	rlf	___fldiv@b+3,f
  6028     0198  0BAE               	decfsz	??___fldiv,f
  6029     0199  2993               	goto	u3565
  6030     019A                     l2763:
  6031     019A  1FBD               	btfss	___fldiv@grs+3,7
  6032     019B  299D               	goto	u3571
  6033     019C  299E               	goto	u3570
  6034     019D                     u3571:
  6035     019D  299F               	goto	l2767
  6036     019E                     u3570:
  6037     019E                     l2765:
  6038     019E  142A               	bsf	___fldiv@b,0
  6039     019F                     l2767:
  6040     019F  3001               	movlw	1
  6041     01A0  00AE               	movwf	??___fldiv
  6042     01A1                     u3585:
  6043     01A1  1003               	clrc
  6044     01A2  0DBA               	rlf	___fldiv@grs,f
  6045     01A3  0DBB               	rlf	___fldiv@grs+1,f
  6046     01A4  0DBC               	rlf	___fldiv@grs+2,f
  6047     01A5  0DBD               	rlf	___fldiv@grs+3,f
  6048     01A6  0BAE               	decfsz	??___fldiv,f
  6049     01A7  29A1               	goto	u3585
  6050     01A8                     l2769:
  6051     01A8  30FF               	movlw	255
  6052     01A9  07B8               	addwf	___fldiv@new_exp,f
  6053     01AA  1803               	skipnc
  6054     01AB  0AB9               	incf	___fldiv@new_exp+1,f
  6055     01AC  30FF               	movlw	255
  6056     01AD  07B9               	addwf	___fldiv@new_exp+1,f
  6057     01AE                     l2771:
  6058     01AE  1FAC               	btfss	___fldiv@b+2,7
  6059     01AF  29B1               	goto	u3591
  6060     01B0  29B2               	goto	u3590
  6061     01B1                     u3591:
  6062     01B1  2991               	goto	l2761
  6063     01B2                     u3590:
  6064     01B2                     l2773:
  6065     01B2  01BF               	clrf	___fldiv@aexp
  6066     01B3                     l2775:
  6067     01B3  1FBD               	btfss	___fldiv@grs+3,7
  6068     01B4  29B6               	goto	u3601
  6069     01B5  29B7               	goto	u3600
  6070     01B6                     u3601:
  6071     01B6  29D3               	goto	l2783
  6072     01B7                     u3600:
  6073     01B7                     l2777:
  6074     01B7  30FF               	movlw	255
  6075     01B8  053A               	andwf	___fldiv@grs,w
  6076     01B9  00AE               	movwf	??___fldiv
  6077     01BA  30FF               	movlw	255
  6078     01BB  053B               	andwf	___fldiv@grs+1,w
  6079     01BC  00AF               	movwf	??___fldiv+1
  6080     01BD  30FF               	movlw	255
  6081     01BE  053C               	andwf	___fldiv@grs+2,w
  6082     01BF  00B0               	movwf	??___fldiv+2
  6083     01C0  307F               	movlw	127
  6084     01C1  053D               	andwf	___fldiv@grs+3,w
  6085     01C2  00B1               	movwf	??___fldiv+3
  6086     01C3  0831               	movf	??___fldiv+3,w
  6087     01C4  0430               	iorwf	??___fldiv+2,w
  6088     01C5  042F               	iorwf	??___fldiv+1,w
  6089     01C6  042E               	iorwf	??___fldiv,w
  6090     01C7  1903               	skipnz
  6091     01C8  29CA               	goto	u3611
  6092     01C9  29CB               	goto	u3610
  6093     01CA                     u3611:
  6094     01CA  29CE               	goto	l721
  6095     01CB                     u3610:
  6096     01CB                     l2779:
  6097     01CB  3001               	movlw	1
  6098     01CC  00BF               	movwf	___fldiv@aexp
  6099     01CD  29D3               	goto	l2783
  6100     01CE                     l721:
  6101     01CE  1C2A               	btfss	___fldiv@b,0
  6102     01CF  29D1               	goto	u3621
  6103     01D0  29D2               	goto	u3620
  6104     01D1                     u3621:
  6105     01D1  29D3               	goto	l2783
  6106     01D2                     u3620:
  6107     01D2  29CB               	goto	l2779
  6108     01D3                     l2783:
  6109     01D3  083F               	movf	___fldiv@aexp,w
  6110     01D4  1903               	btfsc	3,2
  6111     01D5  29D7               	goto	u3631
  6112     01D6  29D8               	goto	u3630
  6113     01D7                     u3631:
  6114     01D7  2A09               	goto	l2793
  6115     01D8                     u3630:
  6116     01D8                     l2785:
  6117     01D8  3001               	movlw	1
  6118     01D9  07AA               	addwf	___fldiv@b,f
  6119     01DA  3000               	movlw	0
  6120     01DB  1803               	skipnc
  6121     01DC  3001               	movlw	1
  6122     01DD  07AB               	addwf	___fldiv@b+1,f
  6123     01DE  3000               	movlw	0
  6124     01DF  1803               	skipnc
  6125     01E0  3001               	movlw	1
  6126     01E1  07AC               	addwf	___fldiv@b+2,f
  6127     01E2  3000               	movlw	0
  6128     01E3  1803               	skipnc
  6129     01E4  3001               	movlw	1
  6130     01E5  07AD               	addwf	___fldiv@b+3,f
  6131     01E6                     l2787:
  6132     01E6  1C2D               	btfss	___fldiv@b+3,0
  6133     01E7  29E9               	goto	u3641
  6134     01E8  29EA               	goto	u3640
  6135     01E9                     u3641:
  6136     01E9  2A09               	goto	l2793
  6137     01EA                     u3640:
  6138     01EA                     l2789:
  6139     01EA  082A               	movf	___fldiv@b,w
  6140     01EB  00AE               	movwf	??___fldiv
  6141     01EC  082B               	movf	___fldiv@b+1,w
  6142     01ED  00AF               	movwf	??___fldiv+1
  6143     01EE  082C               	movf	___fldiv@b+2,w
  6144     01EF  00B0               	movwf	??___fldiv+2
  6145     01F0  082D               	movf	___fldiv@b+3,w
  6146     01F1  00B1               	movwf	??___fldiv+3
  6147     01F2  3001               	movlw	1
  6148     01F3  00B2               	movwf	??___fldiv+4
  6149     01F4                     u3655:
  6150     01F4  0D31               	rlf	??___fldiv+3,w
  6151     01F5  0CB1               	rrf	??___fldiv+3,f
  6152     01F6  0CB0               	rrf	??___fldiv+2,f
  6153     01F7  0CAF               	rrf	??___fldiv+1,f
  6154     01F8  0CAE               	rrf	??___fldiv,f
  6155     01F9                     u3650:
  6156     01F9  0BB2               	decfsz	??___fldiv+4,f
  6157     01FA  29F4               	goto	u3655
  6158     01FB  0831               	movf	??___fldiv+3,w
  6159     01FC  00AD               	movwf	___fldiv@b+3
  6160     01FD  0830               	movf	??___fldiv+2,w
  6161     01FE  00AC               	movwf	___fldiv@b+2
  6162     01FF  082F               	movf	??___fldiv+1,w
  6163     0200  00AB               	movwf	___fldiv@b+1
  6164     0201  082E               	movf	??___fldiv,w
  6165     0202  00AA               	movwf	___fldiv@b
  6166     0203                     l2791:
  6167     0203  3001               	movlw	1
  6168     0204  07B8               	addwf	___fldiv@new_exp,f
  6169     0205  1803               	skipnc
  6170     0206  0AB9               	incf	___fldiv@new_exp+1,f
  6171     0207  3000               	movlw	0
  6172     0208  07B9               	addwf	___fldiv@new_exp+1,f
  6173     0209                     l2793:
  6174     0209  0839               	movf	___fldiv@new_exp+1,w
  6175     020A  3A80               	xorlw	128
  6176     020B  00FF               	movwf	btemp1
  6177     020C  3080               	movlw	128
  6178     020D  027F               	subwf	btemp1,w
  6179     020E  1D03               	skipz
  6180     020F  2A12               	goto	u3665
  6181     0210  30FF               	movlw	255
  6182     0211  0238               	subwf	___fldiv@new_exp,w
  6183     0212                     u3665:
  6184     0212  1C03               	skipc
  6185     0213  2A15               	goto	u3661
  6186     0214  2A16               	goto	u3660
  6187     0215                     u3661:
  6188     0215  2A24               	goto	l2797
  6189     0216                     u3660:
  6190     0216                     l2795:
  6191     0216  30FF               	movlw	255
  6192     0217  1283               	bcf	3,5	;RP0=0, select bank0
  6193     0218  1303               	bcf	3,6	;RP1=0, select bank0
  6194     0219  00B8               	movwf	___fldiv@new_exp
  6195     021A  3000               	movlw	0
  6196     021B  00B9               	movwf	___fldiv@new_exp+1
  6197     021C  3000               	movlw	0
  6198     021D  00AD               	movwf	___fldiv@b+3
  6199     021E  3000               	movlw	0
  6200     021F  00AC               	movwf	___fldiv@b+2
  6201     0220  3000               	movlw	0
  6202     0221  00AB               	movwf	___fldiv@b+1
  6203     0222  3000               	movlw	0
  6204     0223  00AA               	movwf	___fldiv@b
  6205     0224                     l2797:
  6206     0224  1283               	bcf	3,5	;RP0=0, select bank0
  6207     0225  1303               	bcf	3,6	;RP1=0, select bank0
  6208     0226  0839               	movf	___fldiv@new_exp+1,w
  6209     0227  3A80               	xorlw	128
  6210     0228  00FF               	movwf	btemp1
  6211     0229  3080               	movlw	128
  6212     022A  027F               	subwf	btemp1,w
  6213     022B  1D03               	skipz
  6214     022C  2A2F               	goto	u3675
  6215     022D  3001               	movlw	1
  6216     022E  0238               	subwf	___fldiv@new_exp,w
  6217     022F                     u3675:
  6218     022F  1803               	skipnc
  6219     0230  2A32               	goto	u3671
  6220     0231  2A33               	goto	u3670
  6221     0232                     u3671:
  6222     0232  2A40               	goto	l727
  6223     0233                     u3670:
  6224     0233                     l2799:
  6225     0233  1283               	bcf	3,5	;RP0=0, select bank0
  6226     0234  1303               	bcf	3,6	;RP1=0, select bank0
  6227     0235  01B8               	clrf	___fldiv@new_exp
  6228     0236  01B9               	clrf	___fldiv@new_exp+1
  6229     0237                     l2801:
  6230     0237  3000               	movlw	0
  6231     0238  00AD               	movwf	___fldiv@b+3
  6232     0239  3000               	movlw	0
  6233     023A  00AC               	movwf	___fldiv@b+2
  6234     023B  3000               	movlw	0
  6235     023C  00AB               	movwf	___fldiv@b+1
  6236     023D  3000               	movlw	0
  6237     023E  00AA               	movwf	___fldiv@b
  6238     023F                     l2803:
  6239     023F  01B7               	clrf	___fldiv@sign
  6240     0240                     l727:
  6241     0240  1283               	bcf	3,5	;RP0=0, select bank0
  6242     0241  1303               	bcf	3,6	;RP1=0, select bank0
  6243     0242  0838               	movf	___fldiv@new_exp,w
  6244     0243  00BE               	movwf	___fldiv@bexp
  6245     0244                     l2805:
  6246     0244  1C3E               	btfss	___fldiv@bexp,0
  6247     0245  2A47               	goto	u3681
  6248     0246  2A48               	goto	u3680
  6249     0247                     u3681:
  6250     0247  2A4A               	goto	l2809
  6251     0248                     u3680:
  6252     0248                     l2807:
  6253     0248  17AC               	bsf	___fldiv@b+2,7
  6254     0249  2A4C               	goto	l729
  6255     024A                     l2809:
  6256     024A  307F               	movlw	127
  6257     024B  05AC               	andwf	___fldiv@b+2,f
  6258     024C                     l729:
  6259     024C  083E               	movf	___fldiv@bexp,w
  6260     024D  00AE               	movwf	??___fldiv
  6261     024E  1003               	clrc
  6262     024F  0C2E               	rrf	??___fldiv,w
  6263     0250  00AD               	movwf	___fldiv@b+3
  6264     0251  0837               	movf	___fldiv@sign,w
  6265     0252  04AD               	iorwf	___fldiv@b+3,f
  6266     0253  28F6               	goto	l2717
  6267     0254                     l707:
  6268     0254  0008               	return
  6269     0255                     __end_of___fldiv:
  6270                           
  6271                           	psect	text21
  6272     0255                     __ptext21:	
  6273 ;; *************** function ___fladd *****************
  6274 ;; Defined at:
  6275 ;;		line 10 in file "C:\Program Files\Microchip\xc8\v3.10\pic\sources\c99\common\sprcadd.c"
  6276 ;; Parameters:    Size  Location     Type
  6277 ;;  b               4   32[BANK0 ] unsigned char 
  6278 ;;  a               4   36[BANK0 ] unsigned char 
  6279 ;; Auto vars:     Size  Location     Type
  6280 ;;  grs             1   51[BANK0 ] unsigned char 
  6281 ;;  bexp            1   50[BANK0 ] unsigned char 
  6282 ;;  aexp            1   49[BANK0 ] unsigned char 
  6283 ;;  signs           1   48[BANK0 ] unsigned char 
  6284 ;; Return value:  Size  Location     Type
  6285 ;;                  4   32[BANK0 ] unsigned char 
  6286 ;; Registers used:
  6287 ;;		wreg, status,2, status,0, btemp1
  6288 ;; Tracked objects:
  6289 ;;		On entry : 0/0
  6290 ;;		On exit  : 0/0
  6291 ;;		Unchanged: 0/0
  6292 ;; Data sizes:     COMMON   BANK0   BANK1   BANK3   BANK2
  6293 ;;      Params:         0       8       0       0       0
  6294 ;;      Locals:         0       4       0       0       0
  6295 ;;      Temps:          0       8       0       0       0
  6296 ;;      Totals:         0      20       0       0       0
  6297 ;;Total ram usage:       20 bytes
  6298 ;; Hardware stack levels used: 1
  6299 ;; This function calls:
  6300 ;;		Nothing
  6301 ;; This function is called by:
  6302 ;;		_dht11_read
  6303 ;;		___flsub
  6304 ;; This function uses a non-reentrant model
  6305 ;;
  6306                           
  6307     0255                     ___fladd:	
  6308                           ;psect for function ___fladd
  6309                           
  6310     0255                     l2277:	
  6311                           ;incstack = 0
  6312                           ; Regs used in ___fladd: [wreg+status,2+status,0+btemp1]
  6313                           
  6314     0255  1283               	bcf	3,5	;RP0=0, select bank0
  6315     0256  1303               	bcf	3,6	;RP1=0, select bank0
  6316     0257  0843               	movf	___fladd@b+3,w
  6317     0258  00D0               	movwf	___fladd@signs
  6318     0259                     l2279:
  6319     0259  3080               	movlw	128
  6320     025A  05D0               	andwf	___fladd@signs,f
  6321     025B                     l2281:
  6322     025B  0843               	movf	___fladd@b+3,w
  6323     025C  00C8               	movwf	??___fladd
  6324     025D  0748               	addwf	??___fladd,w
  6325     025E  00D2               	movwf	___fladd@bexp
  6326     025F                     l2283:
  6327     025F  1FC2               	btfss	___fladd@b+2,7
  6328     0260  2A62               	goto	u2621
  6329     0261  2A63               	goto	u2620
  6330     0262                     u2621:
  6331     0262  2A64               	goto	l2287
  6332     0263                     u2620:
  6333     0263                     l2285:
  6334     0263  1452               	bsf	___fladd@bexp,0
  6335     0264                     l2287:
  6336     0264  0852               	movf	___fladd@bexp,w
  6337     0265  1903               	btfsc	3,2
  6338     0266  2A68               	goto	u2631
  6339     0267  2A69               	goto	u2630
  6340     0268                     u2631:
  6341     0268  2A79               	goto	l2297
  6342     0269                     u2630:
  6343     0269                     l2289:
  6344     0269  0A52               	incf	___fladd@bexp,w
  6345     026A  1D03               	btfss	3,2
  6346     026B  2A6D               	goto	u2641
  6347     026C  2A6E               	goto	u2640
  6348     026D                     u2641:
  6349     026D  2A76               	goto	l2293
  6350     026E                     u2640:
  6351     026E                     l2291:
  6352     026E  3000               	movlw	0
  6353     026F  00C3               	movwf	___fladd@b+3
  6354     0270  3000               	movlw	0
  6355     0271  00C2               	movwf	___fladd@b+2
  6356     0272  3000               	movlw	0
  6357     0273  00C1               	movwf	___fladd@b+1
  6358     0274  3000               	movlw	0
  6359     0275  00C0               	movwf	___fladd@b
  6360     0276                     l2293:
  6361     0276  17C2               	bsf	___fladd@b+2,7
  6362     0277                     l2295:
  6363     0277  01C3               	clrf	___fladd@b+3
  6364     0278  2A81               	goto	l644
  6365     0279                     l2297:
  6366     0279  3000               	movlw	0
  6367     027A  00C3               	movwf	___fladd@b+3
  6368     027B  3000               	movlw	0
  6369     027C  00C2               	movwf	___fladd@b+2
  6370     027D  3000               	movlw	0
  6371     027E  00C1               	movwf	___fladd@b+1
  6372     027F  3000               	movlw	0
  6373     0280  00C0               	movwf	___fladd@b
  6374     0281                     l644:
  6375     0281  0847               	movf	___fladd@a+3,w
  6376     0282  00D1               	movwf	___fladd@aexp
  6377     0283                     l2299:
  6378     0283  3080               	movlw	128
  6379     0284  05D1               	andwf	___fladd@aexp,f
  6380     0285                     l2301:
  6381     0285  0851               	movf	___fladd@aexp,w
  6382     0286  0650               	xorwf	___fladd@signs,w
  6383     0287  1903               	skipnz
  6384     0288  2A8A               	goto	u2651
  6385     0289  2A8B               	goto	u2650
  6386     028A                     u2651:
  6387     028A  2A8C               	goto	l2305
  6388     028B                     u2650:
  6389     028B                     l2303:
  6390     028B  1750               	bsf	___fladd@signs,6
  6391     028C                     l2305:
  6392     028C  0847               	movf	___fladd@a+3,w
  6393     028D  00C8               	movwf	??___fladd
  6394     028E  0748               	addwf	??___fladd,w
  6395     028F  00D1               	movwf	___fladd@aexp
  6396     0290                     l2307:
  6397     0290  1FC6               	btfss	___fladd@a+2,7
  6398     0291  2A93               	goto	u2661
  6399     0292  2A94               	goto	u2660
  6400     0293                     u2661:
  6401     0293  2A95               	goto	l2311
  6402     0294                     u2660:
  6403     0294                     l2309:
  6404     0294  1451               	bsf	___fladd@aexp,0
  6405     0295                     l2311:
  6406     0295  0851               	movf	___fladd@aexp,w
  6407     0296  1903               	btfsc	3,2
  6408     0297  2A99               	goto	u2671
  6409     0298  2A9A               	goto	u2670
  6410     0299                     u2671:
  6411     0299  2AAA               	goto	l2321
  6412     029A                     u2670:
  6413     029A                     l2313:
  6414     029A  0A51               	incf	___fladd@aexp,w
  6415     029B  1D03               	btfss	3,2
  6416     029C  2A9E               	goto	u2681
  6417     029D  2A9F               	goto	u2680
  6418     029E                     u2681:
  6419     029E  2AA7               	goto	l2317
  6420     029F                     u2680:
  6421     029F                     l2315:
  6422     029F  3000               	movlw	0
  6423     02A0  00C7               	movwf	___fladd@a+3
  6424     02A1  3000               	movlw	0
  6425     02A2  00C6               	movwf	___fladd@a+2
  6426     02A3  3000               	movlw	0
  6427     02A4  00C5               	movwf	___fladd@a+1
  6428     02A5  3000               	movlw	0
  6429     02A6  00C4               	movwf	___fladd@a
  6430     02A7                     l2317:
  6431     02A7  17C6               	bsf	___fladd@a+2,7
  6432     02A8                     l2319:
  6433     02A8  01C7               	clrf	___fladd@a+3
  6434     02A9  2AB2               	goto	l649
  6435     02AA                     l2321:
  6436     02AA  3000               	movlw	0
  6437     02AB  00C7               	movwf	___fladd@a+3
  6438     02AC  3000               	movlw	0
  6439     02AD  00C6               	movwf	___fladd@a+2
  6440     02AE  3000               	movlw	0
  6441     02AF  00C5               	movwf	___fladd@a+1
  6442     02B0  3000               	movlw	0
  6443     02B1  00C4               	movwf	___fladd@a
  6444     02B2                     l649:
  6445     02B2  0852               	movf	___fladd@bexp,w
  6446     02B3  0251               	subwf	___fladd@aexp,w
  6447     02B4  1803               	skipnc
  6448     02B5  2AB7               	goto	u2691
  6449     02B6  2AB8               	goto	u2690
  6450     02B7                     u2691:
  6451     02B7  2ADC               	goto	l2357
  6452     02B8                     u2690:
  6453     02B8                     l2323:
  6454     02B8  1F50               	btfss	___fladd@signs,6
  6455     02B9  2ABB               	goto	u2701
  6456     02BA  2ABC               	goto	u2700
  6457     02BB                     u2701:
  6458     02BB  2ABE               	goto	l2327
  6459     02BC                     u2700:
  6460     02BC                     l2325:
  6461     02BC  3080               	movlw	128
  6462     02BD  06D0               	xorwf	___fladd@signs,f
  6463     02BE                     l2327:
  6464     02BE  0852               	movf	___fladd@bexp,w
  6465     02BF  00D3               	movwf	___fladd@grs
  6466     02C0                     l2329:
  6467     02C0  0851               	movf	___fladd@aexp,w
  6468     02C1  00D2               	movwf	___fladd@bexp
  6469     02C2                     l2331:
  6470     02C2  0853               	movf	___fladd@grs,w
  6471     02C3  00D1               	movwf	___fladd@aexp
  6472     02C4                     l2333:
  6473     02C4  0840               	movf	___fladd@b,w
  6474     02C5  00D3               	movwf	___fladd@grs
  6475     02C6                     l2335:
  6476     02C6  0844               	movf	___fladd@a,w
  6477     02C7  00C0               	movwf	___fladd@b
  6478     02C8                     l2337:
  6479     02C8  0853               	movf	___fladd@grs,w
  6480     02C9  00C4               	movwf	___fladd@a
  6481     02CA                     l2339:
  6482     02CA  0841               	movf	___fladd@b+1,w
  6483     02CB  00D3               	movwf	___fladd@grs
  6484     02CC                     l2341:
  6485     02CC  0845               	movf	___fladd@a+1,w
  6486     02CD  00C1               	movwf	___fladd@b+1
  6487     02CE                     l2343:
  6488     02CE  0853               	movf	___fladd@grs,w
  6489     02CF  00C5               	movwf	___fladd@a+1
  6490     02D0                     l2345:
  6491     02D0  0842               	movf	___fladd@b+2,w
  6492     02D1  00D3               	movwf	___fladd@grs
  6493     02D2                     l2347:
  6494     02D2  0846               	movf	___fladd@a+2,w
  6495     02D3  00C2               	movwf	___fladd@b+2
  6496     02D4                     l2349:
  6497     02D4  0853               	movf	___fladd@grs,w
  6498     02D5  00C6               	movwf	___fladd@a+2
  6499     02D6                     l2351:
  6500     02D6  0843               	movf	___fladd@b+3,w
  6501     02D7  00D3               	movwf	___fladd@grs
  6502     02D8                     l2353:
  6503     02D8  0847               	movf	___fladd@a+3,w
  6504     02D9  00C3               	movwf	___fladd@b+3
  6505     02DA                     l2355:
  6506     02DA  0853               	movf	___fladd@grs,w
  6507     02DB  00C7               	movwf	___fladd@a+3
  6508     02DC                     l2357:
  6509     02DC  01D3               	clrf	___fladd@grs
  6510     02DD                     l2359:
  6511     02DD  0851               	movf	___fladd@aexp,w
  6512     02DE  00C8               	movwf	??___fladd
  6513     02DF  01C9               	clrf	??___fladd+1
  6514     02E0  0849               	movf	??___fladd+1,w
  6515     02E1  00CB               	movwf	??___fladd+3
  6516     02E2  0852               	movf	___fladd@bexp,w
  6517     02E3  0248               	subwf	??___fladd,w
  6518     02E4  00CA               	movwf	??___fladd+2
  6519     02E5  1C03               	skipc
  6520     02E6  03CB               	decf	??___fladd+3,f
  6521     02E7  084B               	movf	??___fladd+3,w
  6522     02E8  3A80               	xorlw	128
  6523     02E9  00FF               	movwf	btemp1
  6524     02EA  3080               	movlw	128
  6525     02EB  027F               	subwf	btemp1,w
  6526     02EC  1D03               	skipz
  6527     02ED  2AF0               	goto	u2715
  6528     02EE  301A               	movlw	26
  6529     02EF  024A               	subwf	??___fladd+2,w
  6530     02F0                     u2715:
  6531     02F0  1C03               	skipc
  6532     02F1  2AF3               	goto	u2711
  6533     02F2  2AF4               	goto	u2710
  6534     02F3                     u2711:
  6535     02F3  2B29               	goto	l2375
  6536     02F4                     u2710:
  6537     02F4                     l2361:
  6538     02F4  1283               	bcf	3,5	;RP0=0, select bank0
  6539     02F5  1303               	bcf	3,6	;RP1=0, select bank0
  6540     02F6  0843               	movf	___fladd@b+3,w
  6541     02F7  0442               	iorwf	___fladd@b+2,w
  6542     02F8  0441               	iorwf	___fladd@b+1,w
  6543     02F9  0440               	iorwf	___fladd@b,w
  6544     02FA  1D03               	skipz
  6545     02FB  2AFD               	goto	u2721
  6546     02FC  2AFF               	goto	u2720
  6547     02FD                     u2721:
  6548     02FD  3001               	movlw	1
  6549     02FE  2B00               	goto	u2730
  6550     02FF                     u2720:
  6551     02FF  3000               	movlw	0
  6552     0300                     u2730:
  6553     0300  00D3               	movwf	___fladd@grs
  6554     0301  3000               	movlw	0
  6555     0302  00C3               	movwf	___fladd@b+3
  6556     0303  3000               	movlw	0
  6557     0304  00C2               	movwf	___fladd@b+2
  6558     0305  3000               	movlw	0
  6559     0306  00C1               	movwf	___fladd@b+1
  6560     0307  3000               	movlw	0
  6561     0308  00C0               	movwf	___fladd@b
  6562     0309  0851               	movf	___fladd@aexp,w
  6563     030A  00D2               	movwf	___fladd@bexp
  6564     030B  2B31               	goto	l653
  6565     030C                     l655:
  6566     030C  1C53               	btfss	___fladd@grs,0
  6567     030D  2B0F               	goto	u2741
  6568     030E  2B10               	goto	u2740
  6569     030F                     u2741:
  6570     030F  2B17               	goto	l2365
  6571     0310                     u2740:
  6572     0310                     l2363:
  6573     0310  0853               	movf	___fladd@grs,w
  6574     0311  00C8               	movwf	??___fladd
  6575     0312  1003               	clrc
  6576     0313  0C48               	rrf	??___fladd,w
  6577     0314  3801               	iorlw	1
  6578     0315  00D3               	movwf	___fladd@grs
  6579     0316  2B19               	goto	l2367
  6580     0317                     l2365:
  6581     0317  1003               	clrc
  6582     0318  0CD3               	rrf	___fladd@grs,f
  6583     0319                     l2367:
  6584     0319  1C40               	btfss	___fladd@b,0
  6585     031A  2B1C               	goto	u2751
  6586     031B  2B1D               	goto	u2750
  6587     031C                     u2751:
  6588     031C  2B1E               	goto	l2371
  6589     031D                     u2750:
  6590     031D                     l2369:
  6591     031D  17D3               	bsf	___fladd@grs,7
  6592     031E                     l2371:
  6593     031E  3001               	movlw	1
  6594     031F  00C8               	movwf	??___fladd
  6595     0320                     u2765:
  6596     0320  0D43               	rlf	___fladd@b+3,w
  6597     0321  0CC3               	rrf	___fladd@b+3,f
  6598     0322  0CC2               	rrf	___fladd@b+2,f
  6599     0323  0CC1               	rrf	___fladd@b+1,f
  6600     0324  0CC0               	rrf	___fladd@b,f
  6601     0325  0BC8               	decfsz	??___fladd& (0+127),f
  6602     0326  2B20               	goto	u2765
  6603     0327                     l2373:
  6604     0327  3001               	movlw	1
  6605     0328  07D2               	addwf	___fladd@bexp,f
  6606     0329                     l2375:
  6607     0329  1283               	bcf	3,5	;RP0=0, select bank0
  6608     032A  1303               	bcf	3,6	;RP1=0, select bank0
  6609     032B  0851               	movf	___fladd@aexp,w
  6610     032C  0252               	subwf	___fladd@bexp,w
  6611     032D  1C03               	skipc
  6612     032E  2B30               	goto	u2771
  6613     032F  2B31               	goto	u2770
  6614     0330                     u2771:
  6615     0330  2B0C               	goto	l655
  6616     0331                     u2770:
  6617     0331                     l653:
  6618     0331  1B50               	btfsc	___fladd@signs,6
  6619     0332  2B34               	goto	u2781
  6620     0333  2B35               	goto	u2780
  6621     0334                     u2781:
  6622     0334  2B7C               	goto	l2401
  6623     0335                     u2780:
  6624     0335                     l2377:
  6625     0335  0852               	movf	___fladd@bexp,w
  6626     0336  1D03               	btfss	3,2
  6627     0337  2B39               	goto	u2791
  6628     0338  2B3A               	goto	u2790
  6629     0339                     u2791:
  6630     0339  2B43               	goto	l2383
  6631     033A                     u2790:
  6632     033A                     l2379:
  6633     033A  3000               	movlw	0
  6634     033B  00C3               	movwf	?___fladd+3
  6635     033C  3000               	movlw	0
  6636     033D  00C2               	movwf	?___fladd+2
  6637     033E  3000               	movlw	0
  6638     033F  00C1               	movwf	?___fladd+1
  6639     0340  3000               	movlw	0
  6640     0341  00C0               	movwf	?___fladd
  6641     0342  2CA4               	goto	l662
  6642     0343                     l2383:
  6643     0343  0844               	movf	___fladd@a,w
  6644     0344  07C0               	addwf	___fladd@b,f
  6645     0345  0845               	movf	___fladd@a+1,w
  6646     0346  1103               	clrz
  6647     0347  1803               	skipnc
  6648     0348  3E01               	addlw	1
  6649     0349  1903               	skipnz
  6650     034A  2B4C               	goto	u2801
  6651     034B  07C1               	addwf	___fladd@b+1,f
  6652     034C                     u2801:
  6653     034C  0846               	movf	___fladd@a+2,w
  6654     034D  1103               	clrz
  6655     034E  1803               	skipnc
  6656     034F  3E01               	addlw	1
  6657     0350  1903               	skipnz
  6658     0351  2B53               	goto	u2802
  6659     0352  07C2               	addwf	___fladd@b+2,f
  6660     0353                     u2802:
  6661     0353  0847               	movf	___fladd@a+3,w
  6662     0354  1103               	clrz
  6663     0355  1803               	skipnc
  6664     0356  3E01               	addlw	1
  6665     0357  1903               	skipnz
  6666     0358  2B5A               	goto	u2803
  6667     0359  07C3               	addwf	___fladd@b+3,f
  6668     035A                     u2803:
  6669     035A                     l2385:
  6670     035A  1C43               	btfss	___fladd@b+3,0
  6671     035B  2B5D               	goto	u2811
  6672     035C  2B5E               	goto	u2810
  6673     035D                     u2811:
  6674     035D  2C30               	goto	l2437
  6675     035E                     u2810:
  6676     035E                     l2387:
  6677     035E  1C53               	btfss	___fladd@grs,0
  6678     035F  2B61               	goto	u2821
  6679     0360  2B62               	goto	u2820
  6680     0361                     u2821:
  6681     0361  2B69               	goto	l2391
  6682     0362                     u2820:
  6683     0362                     l2389:
  6684     0362  0853               	movf	___fladd@grs,w
  6685     0363  00C8               	movwf	??___fladd
  6686     0364  1003               	clrc
  6687     0365  0C48               	rrf	??___fladd,w
  6688     0366  3801               	iorlw	1
  6689     0367  00D3               	movwf	___fladd@grs
  6690     0368  2B6B               	goto	l2393
  6691     0369                     l2391:
  6692     0369  1003               	clrc
  6693     036A  0CD3               	rrf	___fladd@grs,f
  6694     036B                     l2393:
  6695     036B  1C40               	btfss	___fladd@b,0
  6696     036C  2B6E               	goto	u2831
  6697     036D  2B6F               	goto	u2830
  6698     036E                     u2831:
  6699     036E  2B70               	goto	l2397
  6700     036F                     u2830:
  6701     036F                     l2395:
  6702     036F  17D3               	bsf	___fladd@grs,7
  6703     0370                     l2397:
  6704     0370  3001               	movlw	1
  6705     0371  00C8               	movwf	??___fladd
  6706     0372                     u2845:
  6707     0372  0D43               	rlf	___fladd@b+3,w
  6708     0373  0CC3               	rrf	___fladd@b+3,f
  6709     0374  0CC2               	rrf	___fladd@b+2,f
  6710     0375  0CC1               	rrf	___fladd@b+1,f
  6711     0376  0CC0               	rrf	___fladd@b,f
  6712     0377  0BC8               	decfsz	??___fladd& (0+127),f
  6713     0378  2B72               	goto	u2845
  6714     0379                     l2399:
  6715     0379  3001               	movlw	1
  6716     037A  07D2               	addwf	___fladd@bexp,f
  6717     037B  2C30               	goto	l2437
  6718     037C                     l2401:
  6719     037C  0843               	movf	___fladd@b+3,w
  6720     037D  3A80               	xorlw	128
  6721     037E  00FF               	movwf	btemp1
  6722     037F  0847               	movf	___fladd@a+3,w
  6723     0380  3A80               	xorlw	128
  6724     0381  027F               	subwf	btemp1,w
  6725     0382  1D03               	skipz
  6726     0383  2B8E               	goto	u2853
  6727     0384  0846               	movf	___fladd@a+2,w
  6728     0385  0242               	subwf	___fladd@b+2,w
  6729     0386  1D03               	skipz
  6730     0387  2B8E               	goto	u2853
  6731     0388  0845               	movf	___fladd@a+1,w
  6732     0389  0241               	subwf	___fladd@b+1,w
  6733     038A  1D03               	skipz
  6734     038B  2B8E               	goto	u2853
  6735     038C  0844               	movf	___fladd@a,w
  6736     038D  0240               	subwf	___fladd@b,w
  6737     038E                     u2853:
  6738     038E  1803               	skipnc
  6739     038F  2B91               	goto	u2851
  6740     0390  2B92               	goto	u2850
  6741     0391                     u2851:
  6742     0391  2BE9               	goto	l2413
  6743     0392                     u2850:
  6744     0392                     l2403:
  6745     0392  30FF               	movlw	255
  6746     0393  00C8               	movwf	??___fladd
  6747     0394  30FF               	movlw	255
  6748     0395  00C9               	movwf	??___fladd+1
  6749     0396  30FF               	movlw	255
  6750     0397  00CA               	movwf	??___fladd+2
  6751     0398  30FF               	movlw	255
  6752     0399  00CB               	movwf	??___fladd+3
  6753     039A  0844               	movf	___fladd@a,w
  6754     039B  00CC               	movwf	??___fladd+4
  6755     039C  0845               	movf	___fladd@a+1,w
  6756     039D  00CD               	movwf	??___fladd+5
  6757     039E  0846               	movf	___fladd@a+2,w
  6758     039F  00CE               	movwf	??___fladd+6
  6759     03A0  0847               	movf	___fladd@a+3,w
  6760     03A1  00CF               	movwf	??___fladd+7
  6761     03A2  0840               	movf	___fladd@b,w
  6762     03A3  02CC               	subwf	??___fladd+4,f
  6763     03A4  0841               	movf	___fladd@b+1,w
  6764     03A5  1C03               	skipc
  6765     03A6  0F41               	incfsz	___fladd@b+1,w
  6766     03A7  2BA9               	goto	u2861
  6767     03A8  2BAA               	goto	u2862
  6768     03A9                     u2861:
  6769     03A9  02CD               	subwf	??___fladd+5,f
  6770     03AA                     u2862:
  6771     03AA  0842               	movf	___fladd@b+2,w
  6772     03AB  1C03               	skipc
  6773     03AC  0F42               	incfsz	___fladd@b+2,w
  6774     03AD  2BAF               	goto	u2863
  6775     03AE  2BB0               	goto	u2864
  6776     03AF                     u2863:
  6777     03AF  02CE               	subwf	??___fladd+6,f
  6778     03B0                     u2864:
  6779     03B0  0843               	movf	___fladd@b+3,w
  6780     03B1  1C03               	skipc
  6781     03B2  0F43               	incfsz	___fladd@b+3,w
  6782     03B3  2BB5               	goto	u2865
  6783     03B4  2BB6               	goto	u2866
  6784     03B5                     u2865:
  6785     03B5  02CF               	subwf	??___fladd+7,f
  6786     03B6                     u2866:
  6787     03B6  084C               	movf	??___fladd+4,w
  6788     03B7  07C8               	addwf	??___fladd,f
  6789     03B8  084D               	movf	??___fladd+5,w
  6790     03B9  1803               	skipnc
  6791     03BA  0F4D               	incfsz	??___fladd+5,w
  6792     03BB  2BBD               	goto	u2870
  6793     03BC  2BBE               	goto	u2871
  6794     03BD                     u2870:
  6795     03BD  07C9               	addwf	??___fladd+1,f
  6796     03BE                     u2871:
  6797     03BE  084E               	movf	??___fladd+6,w
  6798     03BF  1803               	skipnc
  6799     03C0  0F4E               	incfsz	??___fladd+6,w
  6800     03C1  2BC3               	goto	u2872
  6801     03C2  2BC4               	goto	u2873
  6802     03C3                     u2872:
  6803     03C3  07CA               	addwf	??___fladd+2,f
  6804     03C4                     u2873:
  6805     03C4  084F               	movf	??___fladd+7,w
  6806     03C5  1803               	skipnc
  6807     03C6  0A4F               	incf	??___fladd+7,w
  6808     03C7  07CB               	addwf	??___fladd+3,f
  6809     03C8  084B               	movf	??___fladd+3,w
  6810     03C9  00C3               	movwf	___fladd@b+3
  6811     03CA  084A               	movf	??___fladd+2,w
  6812     03CB  00C2               	movwf	___fladd@b+2
  6813     03CC  0849               	movf	??___fladd+1,w
  6814     03CD  00C1               	movwf	___fladd@b+1
  6815     03CE  0848               	movf	??___fladd,w
  6816     03CF  00C0               	movwf	___fladd@b
  6817     03D0                     l2405:
  6818     03D0  3080               	movlw	128
  6819     03D1  06D0               	xorwf	___fladd@signs,f
  6820     03D2                     l2407:
  6821     03D2  0353               	decf	___fladd@grs,w
  6822     03D3  3AFF               	xorlw	255
  6823     03D4  00D3               	movwf	___fladd@grs
  6824     03D5                     l2409:
  6825     03D5  0853               	movf	___fladd@grs,w
  6826     03D6  1D03               	btfss	3,2
  6827     03D7  2BD9               	goto	u2881
  6828     03D8  2BDA               	goto	u2880
  6829     03D9                     u2881:
  6830     03D9  2BF7               	goto	l670
  6831     03DA                     u2880:
  6832     03DA                     l2411:
  6833     03DA  3001               	movlw	1
  6834     03DB  07C0               	addwf	___fladd@b,f
  6835     03DC  3000               	movlw	0
  6836     03DD  1803               	skipnc
  6837     03DE  3001               	movlw	1
  6838     03DF  07C1               	addwf	___fladd@b+1,f
  6839     03E0  3000               	movlw	0
  6840     03E1  1803               	skipnc
  6841     03E2  3001               	movlw	1
  6842     03E3  07C2               	addwf	___fladd@b+2,f
  6843     03E4  3000               	movlw	0
  6844     03E5  1803               	skipnc
  6845     03E6  3001               	movlw	1
  6846     03E7  07C3               	addwf	___fladd@b+3,f
  6847     03E8  2BF7               	goto	l670
  6848     03E9                     l2413:
  6849     03E9  0844               	movf	___fladd@a,w
  6850     03EA  02C0               	subwf	___fladd@b,f
  6851     03EB  0845               	movf	___fladd@a+1,w
  6852     03EC  1C03               	skipc
  6853     03ED  0F45               	incfsz	___fladd@a+1,w
  6854     03EE  02C1               	subwf	___fladd@b+1,f
  6855     03EF  0846               	movf	___fladd@a+2,w
  6856     03F0  1C03               	skipc
  6857     03F1  0F46               	incfsz	___fladd@a+2,w
  6858     03F2  02C2               	subwf	___fladd@b+2,f
  6859     03F3  0847               	movf	___fladd@a+3,w
  6860     03F4  1C03               	skipc
  6861     03F5  0F47               	incfsz	___fladd@a+3,w
  6862     03F6  02C3               	subwf	___fladd@b+3,f
  6863     03F7                     l670:
  6864     03F7  0843               	movf	___fladd@b+3,w
  6865     03F8  0442               	iorwf	___fladd@b+2,w
  6866     03F9  0441               	iorwf	___fladd@b+1,w
  6867     03FA  0440               	iorwf	___fladd@b,w
  6868     03FB  1D03               	skipz
  6869     03FC  2BFE               	goto	u2891
  6870     03FD  2BFF               	goto	u2890
  6871     03FE                     u2891:
  6872     03FE  2C2C               	goto	l2435
  6873     03FF                     u2890:
  6874     03FF                     l2415:
  6875     03FF  0853               	movf	___fladd@grs,w
  6876     0400  1D03               	btfss	3,2
  6877     0401  2C03               	goto	u2901
  6878     0402  2C04               	goto	u2900
  6879     0403                     u2901:
  6880     0403  2C2C               	goto	l2435
  6881     0404                     u2900:
  6882     0404                     l2417:
  6883     0404  3000               	movlw	0
  6884     0405  00C3               	movwf	?___fladd+3
  6885     0406  3000               	movlw	0
  6886     0407  00C2               	movwf	?___fladd+2
  6887     0408  3000               	movlw	0
  6888     0409  00C1               	movwf	?___fladd+1
  6889     040A  3000               	movlw	0
  6890     040B  00C0               	movwf	?___fladd
  6891     040C  2CA4               	goto	l662
  6892     040D                     l2421:
  6893     040D  3001               	movlw	1
  6894     040E  00C8               	movwf	??___fladd
  6895     040F                     u2915:
  6896     040F  1003               	clrc
  6897     0410  0DC0               	rlf	___fladd@b,f
  6898     0411  0DC1               	rlf	___fladd@b+1,f
  6899     0412  0DC2               	rlf	___fladd@b+2,f
  6900     0413  0DC3               	rlf	___fladd@b+3,f
  6901     0414  0BC8               	decfsz	??___fladd,f
  6902     0415  2C0F               	goto	u2915
  6903     0416                     l2423:
  6904     0416  1FD3               	btfss	___fladd@grs,7
  6905     0417  2C19               	goto	u2921
  6906     0418  2C1A               	goto	u2920
  6907     0419                     u2921:
  6908     0419  2C1B               	goto	l674
  6909     041A                     u2920:
  6910     041A                     l2425:
  6911     041A  1440               	bsf	___fladd@b,0
  6912     041B                     l674:
  6913     041B  1C53               	btfss	___fladd@grs,0
  6914     041C  2C1E               	goto	u2931
  6915     041D  2C1F               	goto	u2930
  6916     041E                     u2931:
  6917     041E  2C23               	goto	l2429
  6918     041F                     u2930:
  6919     041F                     l2427:
  6920     041F  1403               	setc
  6921     0420  0D53               	rlf	___fladd@grs,w
  6922     0421  00D3               	movwf	___fladd@grs
  6923     0422  2C25               	goto	l2431
  6924     0423                     l2429:
  6925     0423  1003               	clrc
  6926     0424  0DD3               	rlf	___fladd@grs,f
  6927     0425                     l2431:
  6928     0425  0852               	movf	___fladd@bexp,w
  6929     0426  1903               	btfsc	3,2
  6930     0427  2C29               	goto	u2941
  6931     0428  2C2A               	goto	u2940
  6932     0429                     u2941:
  6933     0429  2C2C               	goto	l2435
  6934     042A                     u2940:
  6935     042A                     l2433:
  6936     042A  3001               	movlw	1
  6937     042B  02D2               	subwf	___fladd@bexp,f
  6938     042C                     l2435:
  6939     042C  1FC2               	btfss	___fladd@b+2,7
  6940     042D  2C2F               	goto	u2951
  6941     042E  2C30               	goto	u2950
  6942     042F                     u2951:
  6943     042F  2C0D               	goto	l2421
  6944     0430                     u2950:
  6945     0430                     l2437:
  6946     0430  01D1               	clrf	___fladd@aexp
  6947     0431                     l2439:
  6948     0431  1FD3               	btfss	___fladd@grs,7
  6949     0432  2C34               	goto	u2961
  6950     0433  2C35               	goto	u2960
  6951     0434                     u2961:
  6952     0434  2C43               	goto	l2447
  6953     0435                     u2960:
  6954     0435                     l2441:
  6955     0435  0853               	movf	___fladd@grs,w
  6956     0436  397F               	andlw	127
  6957     0437  1903               	btfsc	3,2
  6958     0438  2C3A               	goto	u2971
  6959     0439  2C3B               	goto	u2970
  6960     043A                     u2971:
  6961     043A  2C3E               	goto	l680
  6962     043B                     u2970:
  6963     043B                     l2443:
  6964     043B  3001               	movlw	1
  6965     043C  00D1               	movwf	___fladd@aexp
  6966     043D  2C43               	goto	l2447
  6967     043E                     l680:
  6968     043E  1C40               	btfss	___fladd@b,0
  6969     043F  2C41               	goto	u2981
  6970     0440  2C42               	goto	u2980
  6971     0441                     u2981:
  6972     0441  2C43               	goto	l2447
  6973     0442                     u2980:
  6974     0442  2C3B               	goto	l2443
  6975     0443                     l2447:
  6976     0443  0851               	movf	___fladd@aexp,w
  6977     0444  1903               	btfsc	3,2
  6978     0445  2C47               	goto	u2991
  6979     0446  2C48               	goto	u2990
  6980     0447                     u2991:
  6981     0447  2C7A               	goto	l683
  6982     0448                     u2990:
  6983     0448                     l2449:
  6984     0448  3001               	movlw	1
  6985     0449  07C0               	addwf	___fladd@b,f
  6986     044A  3000               	movlw	0
  6987     044B  1803               	skipnc
  6988     044C  3001               	movlw	1
  6989     044D  07C1               	addwf	___fladd@b+1,f
  6990     044E  3000               	movlw	0
  6991     044F  1803               	skipnc
  6992     0450  3001               	movlw	1
  6993     0451  07C2               	addwf	___fladd@b+2,f
  6994     0452  3000               	movlw	0
  6995     0453  1803               	skipnc
  6996     0454  3001               	movlw	1
  6997     0455  07C3               	addwf	___fladd@b+3,f
  6998     0456                     l2451:
  6999     0456  1C43               	btfss	___fladd@b+3,0
  7000     0457  2C59               	goto	u3001
  7001     0458  2C5A               	goto	u3000
  7002     0459                     u3001:
  7003     0459  2C7A               	goto	l683
  7004     045A                     u3000:
  7005     045A                     l2453:
  7006     045A  0840               	movf	___fladd@b,w
  7007     045B  00C8               	movwf	??___fladd
  7008     045C  0841               	movf	___fladd@b+1,w
  7009     045D  00C9               	movwf	??___fladd+1
  7010     045E  0842               	movf	___fladd@b+2,w
  7011     045F  00CA               	movwf	??___fladd+2
  7012     0460  0843               	movf	___fladd@b+3,w
  7013     0461  00CB               	movwf	??___fladd+3
  7014     0462  3001               	movlw	1
  7015     0463  00CC               	movwf	??___fladd+4
  7016     0464                     u3015:
  7017     0464  0D4B               	rlf	??___fladd+3,w
  7018     0465  0CCB               	rrf	??___fladd+3,f
  7019     0466  0CCA               	rrf	??___fladd+2,f
  7020     0467  0CC9               	rrf	??___fladd+1,f
  7021     0468  0CC8               	rrf	??___fladd,f
  7022     0469                     u3010:
  7023     0469  0BCC               	decfsz	??___fladd+4,f
  7024     046A  2C64               	goto	u3015
  7025     046B  084B               	movf	??___fladd+3,w
  7026     046C  00C3               	movwf	___fladd@b+3
  7027     046D  084A               	movf	??___fladd+2,w
  7028     046E  00C2               	movwf	___fladd@b+2
  7029     046F  0849               	movf	??___fladd+1,w
  7030     0470  00C1               	movwf	___fladd@b+1
  7031     0471  0848               	movf	??___fladd,w
  7032     0472  00C0               	movwf	___fladd@b
  7033     0473  0A52               	incf	___fladd@bexp,w
  7034     0474  1903               	btfsc	3,2
  7035     0475  2C77               	goto	u3021
  7036     0476  2C78               	goto	u3020
  7037     0477                     u3021:
  7038     0477  2C7A               	goto	l683
  7039     0478                     u3020:
  7040     0478                     l2455:
  7041     0478  3001               	movlw	1
  7042     0479  07D2               	addwf	___fladd@bexp,f
  7043     047A                     l683:
  7044     047A  0A52               	incf	___fladd@bexp,w
  7045     047B  1903               	btfsc	3,2
  7046     047C  2C7E               	goto	u3031
  7047     047D  2C7F               	goto	u3030
  7048     047E                     u3031:
  7049     047E  2C84               	goto	l2459
  7050     047F                     u3030:
  7051     047F                     l2457:
  7052     047F  0852               	movf	___fladd@bexp,w
  7053     0480  1D03               	btfss	3,2
  7054     0481  2C83               	goto	u3041
  7055     0482  2C84               	goto	u3040
  7056     0483                     u3041:
  7057     0483  2C92               	goto	l2465
  7058     0484                     u3040:
  7059     0484                     l2459:
  7060     0484  3000               	movlw	0
  7061     0485  00C3               	movwf	___fladd@b+3
  7062     0486  3000               	movlw	0
  7063     0487  00C2               	movwf	___fladd@b+2
  7064     0488  3000               	movlw	0
  7065     0489  00C1               	movwf	___fladd@b+1
  7066     048A  3000               	movlw	0
  7067     048B  00C0               	movwf	___fladd@b
  7068     048C                     l2461:
  7069     048C  0852               	movf	___fladd@bexp,w
  7070     048D  1D03               	btfss	3,2
  7071     048E  2C90               	goto	u3051
  7072     048F  2C91               	goto	u3050
  7073     0490                     u3051:
  7074     0490  2C92               	goto	l2465
  7075     0491                     u3050:
  7076     0491                     l2463:
  7077     0491  01D0               	clrf	___fladd@signs
  7078     0492                     l2465:
  7079     0492  1C52               	btfss	___fladd@bexp,0
  7080     0493  2C95               	goto	u3061
  7081     0494  2C96               	goto	u3060
  7082     0495                     u3061:
  7083     0495  2C98               	goto	l2469
  7084     0496                     u3060:
  7085     0496                     l2467:
  7086     0496  17C2               	bsf	___fladd@b+2,7
  7087     0497  2C9A               	goto	l691
  7088     0498                     l2469:
  7089     0498  307F               	movlw	127
  7090     0499  05C2               	andwf	___fladd@b+2,f
  7091     049A                     l691:
  7092     049A  0852               	movf	___fladd@bexp,w
  7093     049B  00C8               	movwf	??___fladd
  7094     049C  1003               	clrc
  7095     049D  0C48               	rrf	??___fladd,w
  7096     049E  00C3               	movwf	___fladd@b+3
  7097     049F                     l2471:
  7098     049F  1FD0               	btfss	___fladd@signs,7
  7099     04A0  2CA2               	goto	u3071
  7100     04A1  2CA3               	goto	u3070
  7101     04A2                     u3071:
  7102     04A2  2CA4               	goto	l692
  7103     04A3                     u3070:
  7104     04A3                     l2473:
  7105     04A3  17C3               	bsf	___fladd@b+3,7
  7106     04A4                     l692:
  7107     04A4                     l662:
  7108     04A4  0008               	return
  7109     04A5                     __end_of___fladd:
  7110                           
  7111                           	psect	text22
  7112     167F                     __ptext22:	
  7113 ;; *************** function _dht11_config *****************
  7114 ;; Defined at:
  7115 ;;		line 92 in file "dht11.c"
  7116 ;; Parameters:    Size  Location     Type
  7117 ;;		None
  7118 ;; Auto vars:     Size  Location     Type
  7119 ;;		None
  7120 ;; Return value:  Size  Location     Type
  7121 ;;                  1    wreg      void 
  7122 ;; Registers used:
  7123 ;;		wreg, status,2, status,0
  7124 ;; Tracked objects:
  7125 ;;		On entry : 0/0
  7126 ;;		On exit  : 0/0
  7127 ;;		Unchanged: 0/0
  7128 ;; Data sizes:     COMMON   BANK0   BANK1   BANK3   BANK2
  7129 ;;      Params:         0       0       0       0       0
  7130 ;;      Locals:         0       0       0       0       0
  7131 ;;      Temps:          0       0       0       0       0
  7132 ;;      Totals:         0       0       0       0       0
  7133 ;;Total ram usage:        0 bytes
  7134 ;; Hardware stack levels used: 1
  7135 ;; This function calls:
  7136 ;;		Nothing
  7137 ;; This function is called by:
  7138 ;;		_main
  7139 ;; This function uses a non-reentrant model
  7140 ;;
  7141                           
  7142     167F                     _dht11_config:	
  7143                           ;psect for function _dht11_config
  7144                           
  7145     167F                     l3039:	
  7146                           ;incstack = 0
  7147                           ; Regs used in _dht11_config: [wreg+status,2+status,0]
  7148                           
  7149                           
  7150                           ;dht11.c: 93:     TRISAbits.TRISA0 = 1;;
  7151     167F  1683               	bsf	3,5	;RP0=1, select bank1
  7152     1680  1303               	bcf	3,6	;RP1=0, select bank1
  7153     1681  1405               	bsf	5,0	;volatile
  7154                           
  7155                           ;dht11.c: 94:     OPTION_REGbits.T0CS = 0; OPTION_REGbits.PSA = 0; OPTION_REGbits.PS = 0
      +                          b001;;
  7156     1682  1281               	bcf	1,5	;volatile
  7157     1683  1181               	bcf	1,3	;volatile
  7158     1684                     l3041:
  7159     1684  0801               	movf	1,w	;volatile
  7160     1685  39F8               	andlw	-8
  7161     1686  3801               	iorlw	1
  7162     1687  0081               	movwf	1	;volatile
  7163     1688                     l198:
  7164     1688  0008               	return
  7165     1689                     __end_of_dht11_config:
  7166                           
  7167                           	psect	text23
  7168     17A3                     __ptext23:	
  7169 ;; *************** function _Lcd_Write_String *****************
  7170 ;; Defined at:
  7171 ;;		line 81 in file "lcd_i2c.c"
  7172 ;; Parameters:    Size  Location     Type
  7173 ;;  str             2    6[COMMON] PTR const unsigned char 
  7174 ;;		 -> STR_7(16), STR_6(16), STR_5(13), STR_4(7), 
  7175 ;;		 -> STR_3(7), buffer_hum(16), buffer_tem(16), STR_2(12), 
  7176 ;; Auto vars:     Size  Location     Type
  7177 ;;		None
  7178 ;; Return value:  Size  Location     Type
  7179 ;;                  1    wreg      void 
  7180 ;; Registers used:
  7181 ;;		wreg, fsr0l, fsr0h, status,2, status,0, pclath, btemp1, cstack
  7182 ;; Tracked objects:
  7183 ;;		On entry : 0/0
  7184 ;;		On exit  : 0/0
  7185 ;;		Unchanged: 0/0
  7186 ;; Data sizes:     COMMON   BANK0   BANK1   BANK3   BANK2
  7187 ;;      Params:         2       0       0       0       0
  7188 ;;      Locals:         0       0       0       0       0
  7189 ;;      Temps:          0       0       0       0       0
  7190 ;;      Totals:         2       0       0       0       0
  7191 ;;Total ram usage:        2 bytes
  7192 ;; Hardware stack levels used: 1
  7193 ;; Hardware stack levels required when called: 1
  7194 ;; This function calls:
  7195 ;;		_Lcd_Write_Char
  7196 ;; This function is called by:
  7197 ;;		_main
  7198 ;; This function uses a non-reentrant model
  7199 ;;
  7200                           
  7201     17A3                     _Lcd_Write_String:	
  7202                           ;psect for function _Lcd_Write_String
  7203                           
  7204     17A3                     l3057:	
  7205                           ;incstack = 0
  7206                           ; Regs used in _Lcd_Write_String: [wreg-fsr0h+status,2+status,0+pclath+btemp1+cstack]
  7207                           
  7208                           
  7209                           ;lcd_i2c.c: 81: void Lcd_Write_String(const char *str);lcd_i2c.c: 82: {;lcd_i2c.c: 83:  
      +                             while(*str != '\0')
  7210     17A3  2FB8               	goto	l3063
  7211     17A4                     l3059:
  7212                           
  7213                           ;lcd_i2c.c: 84:     {;lcd_i2c.c: 85:         Lcd_Write_Char(*str++);
  7214     17A4  0877               	movf	Lcd_Write_String@str+1,w
  7215     17A5  00FF               	movwf	btemp1
  7216     17A6  0876               	movf	Lcd_Write_String@str,w
  7217     17A7  0084               	movwf	4
  7218     17A8  120A  158A  2000  160A  118A  	fcall	stringtab
  7219     17AD  120A  158A  20D2  160A  118A  	fcall	_Lcd_Write_Char
  7220     17B2                     l3061:
  7221     17B2  3001               	movlw	1
  7222     17B3  07F6               	addwf	Lcd_Write_String@str,f
  7223     17B4  1803               	skipnc
  7224     17B5  0AF7               	incf	Lcd_Write_String@str+1,f
  7225     17B6  3000               	movlw	0
  7226     17B7  07F7               	addwf	Lcd_Write_String@str+1,f
  7227     17B8                     l3063:
  7228                           
  7229                           ;lcd_i2c.c: 83:     while(*str != '\0')
  7230     17B8  0877               	movf	Lcd_Write_String@str+1,w
  7231     17B9  1283               	bcf	3,5	;RP0=0, select bank0
  7232     17BA  1303               	bcf	3,6	;RP1=0, select bank0
  7233     17BB  00FF               	movwf	btemp1
  7234     17BC  0876               	movf	Lcd_Write_String@str,w
  7235     17BD  0084               	movwf	4
  7236     17BE  120A  158A  2000  160A  118A  	fcall	stringtab
  7237     17C3  3A00               	xorlw	0
  7238     17C4  1D03               	skipz
  7239     17C5  2FC7               	goto	u4231
  7240     17C6  2FC8               	goto	u4230
  7241     17C7                     u4231:
  7242     17C7  2FA4               	goto	l3059
  7243     17C8                     u4230:
  7244     17C8                     l143:
  7245     17C8  0008               	return
  7246     17C9                     __end_of_Lcd_Write_String:
  7247                           
  7248                           	psect	text24
  7249     08D2                     __ptext24:	
  7250 ;; *************** function _Lcd_Write_Char *****************
  7251 ;; Defined at:
  7252 ;;		line 41 in file "lcd_i2c.c"
  7253 ;; Parameters:    Size  Location     Type
  7254 ;;  c               1    wreg     unsigned char 
  7255 ;; Auto vars:     Size  Location     Type
  7256 ;;  c               1    3[COMMON] unsigned char 
  7257 ;;  data_l          1    5[COMMON] unsigned char 
  7258 ;;  data_u          1    4[COMMON] unsigned char 
  7259 ;; Return value:  Size  Location     Type
  7260 ;;                  1    wreg      void 
  7261 ;; Registers used:
  7262 ;;		wreg, status,2, status,0, pclath, cstack
  7263 ;; Tracked objects:
  7264 ;;		On entry : 0/0
  7265 ;;		On exit  : 0/0
  7266 ;;		Unchanged: 0/0
  7267 ;; Data sizes:     COMMON   BANK0   BANK1   BANK3   BANK2
  7268 ;;      Params:         0       0       0       0       0
  7269 ;;      Locals:         3       0       0       0       0
  7270 ;;      Temps:          1       0       0       0       0
  7271 ;;      Totals:         4       0       0       0       0
  7272 ;;Total ram usage:        4 bytes
  7273 ;; Hardware stack levels used: 1
  7274 ;; This function calls:
  7275 ;;		_I2C_Start
  7276 ;;		_I2C_Stop
  7277 ;;		_I2C_Write
  7278 ;; This function is called by:
  7279 ;;		_main
  7280 ;;		_Lcd_Write_String
  7281 ;;		_Lcd_CGRAM_WriteChar
  7282 ;;		_Lcd_CGRAM_CreateChar
  7283 ;; This function uses a non-reentrant model
  7284 ;;
  7285                           
  7286     08D2                     _Lcd_Write_Char:	
  7287                           ;psect for function _Lcd_Write_Char
  7288                           
  7289                           
  7290                           ;incstack = 0
  7291                           ; Regs used in _Lcd_Write_Char: [wreg+status,2+status,0+pclath+cstack]
  7292                           ;Lcd_Write_Char@c stored from wreg
  7293     08D2  00F3               	movwf	Lcd_Write_Char@c
  7294     08D3                     l2513:
  7295                           
  7296                           ;lcd_i2c.c: 41: void Lcd_Write_Char(char c);lcd_i2c.c: 42: {;lcd_i2c.c: 43:     char dat
      +                          a_u, data_l;;lcd_i2c.c: 44:     data_u = (c & 0xF0);
  7297     08D3  0873               	movf	Lcd_Write_Char@c,w
  7298     08D4  00F4               	movwf	Lcd_Write_Char@data_u
  7299     08D5                     l2515:
  7300     08D5  30F0               	movlw	240
  7301     08D6  05F4               	andwf	Lcd_Write_Char@data_u,f
  7302     08D7                     l2517:
  7303                           
  7304                           ;lcd_i2c.c: 45:     data_l = ((c<<4) & 0xF0);
  7305     08D7  0873               	movf	Lcd_Write_Char@c,w
  7306     08D8  00F2               	movwf	??_Lcd_Write_Char
  7307     08D9  3003               	movlw	3
  7308     08DA                     u3125:
  7309     08DA  1003               	clrc
  7310     08DB  0DF2               	rlf	??_Lcd_Write_Char,f
  7311     08DC  3EFF               	addlw	-1
  7312     08DD  1D03               	skipz
  7313     08DE  28DA               	goto	u3125
  7314     08DF  1003               	clrc
  7315     08E0  0D72               	rlf	??_Lcd_Write_Char,w
  7316     08E1  00F5               	movwf	Lcd_Write_Char@data_l
  7317     08E2                     l2519:
  7318     08E2  30F0               	movlw	240
  7319     08E3  05F5               	andwf	Lcd_Write_Char@data_l,f
  7320     08E4                     l2521:
  7321                           
  7322                           ;lcd_i2c.c: 47:     I2C_Start();
  7323     08E4  160A  118A  266B  120A  158A  	fcall	_I2C_Start
  7324     08E9                     l2523:
  7325                           
  7326                           ;lcd_i2c.c: 48:     I2C_Write(0x4E);
  7327     08E9  304E               	movlw	78
  7328     08EA  120A  118A  2003  120A  158A  	fcall	_I2C_Write
  7329     08EF                     l2525:
  7330                           
  7331                           ;lcd_i2c.c: 49:     I2C_Write(data_u|0x0D);
  7332     08EF  0874               	movf	Lcd_Write_Char@data_u,w
  7333     08F0  380D               	iorlw	13
  7334     08F1  120A  118A  2003  120A  158A  	fcall	_I2C_Write
  7335     08F6                     l2527:
  7336                           
  7337                           ;lcd_i2c.c: 50:     I2C_Write(data_u|0x09);
  7338     08F6  0874               	movf	Lcd_Write_Char@data_u,w
  7339     08F7  3809               	iorlw	9
  7340     08F8  120A  118A  2003  120A  158A  	fcall	_I2C_Write
  7341     08FD                     l2529:
  7342                           
  7343                           ;lcd_i2c.c: 51:     I2C_Write(data_l|0x0D);
  7344     08FD  0875               	movf	Lcd_Write_Char@data_l,w
  7345     08FE  380D               	iorlw	13
  7346     08FF  120A  118A  2003  120A  158A  	fcall	_I2C_Write
  7347     0904                     l2531:
  7348                           
  7349                           ;lcd_i2c.c: 52:     I2C_Write(data_l|0x09);
  7350     0904  0875               	movf	Lcd_Write_Char@data_l,w
  7351     0905  3809               	iorlw	9
  7352     0906  120A  118A  2003  120A  158A  	fcall	_I2C_Write
  7353     090B                     l2533:
  7354                           
  7355                           ;lcd_i2c.c: 53:     I2C_Stop();
  7356     090B  160A  118A  2675  120A  158A  	fcall	_I2C_Stop
  7357     0910                     l127:
  7358     0910  0008               	return
  7359     0911                     __end_of_Lcd_Write_Char:
  7360                           
  7361                           	psect	text25
  7362     177D                     __ptext25:	
  7363 ;; *************** function _Lcd_Set_Cursor *****************
  7364 ;; Defined at:
  7365 ;;		line 56 in file "lcd_i2c.c"
  7366 ;; Parameters:    Size  Location     Type
  7367 ;;  col             1    wreg     unsigned char 
  7368 ;;  row             1    6[COMMON] unsigned char 
  7369 ;; Auto vars:     Size  Location     Type
  7370 ;;  col             1    7[COMMON] unsigned char 
  7371 ;;  address         1    8[COMMON] unsigned char 
  7372 ;; Return value:  Size  Location     Type
  7373 ;;                  1    wreg      void 
  7374 ;; Registers used:
  7375 ;;		wreg, fsr0l, fsr0h, status,2, status,0, pclath, cstack
  7376 ;; Tracked objects:
  7377 ;;		On entry : 0/0
  7378 ;;		On exit  : 0/0
  7379 ;;		Unchanged: 0/0
  7380 ;; Data sizes:     COMMON   BANK0   BANK1   BANK3   BANK2
  7381 ;;      Params:         1       0       0       0       0
  7382 ;;      Locals:         2       0       0       0       0
  7383 ;;      Temps:          0       0       0       0       0
  7384 ;;      Totals:         3       0       0       0       0
  7385 ;;Total ram usage:        3 bytes
  7386 ;; Hardware stack levels used: 1
  7387 ;; Hardware stack levels required when called: 1
  7388 ;; This function calls:
  7389 ;;		_Lcd_Cmd
  7390 ;; This function is called by:
  7391 ;;		_main
  7392 ;; This function uses a non-reentrant model
  7393 ;;
  7394                           
  7395     177D                     _Lcd_Set_Cursor:	
  7396                           ;psect for function _Lcd_Set_Cursor
  7397                           
  7398                           
  7399                           ;incstack = 0
  7400                           ; Regs used in _Lcd_Set_Cursor: [wreg-fsr0h+status,2+status,0+pclath+cstack]
  7401                           ;Lcd_Set_Cursor@col stored from wreg
  7402     177D  00F7               	movwf	Lcd_Set_Cursor@col
  7403     177E                     l3043:
  7404                           
  7405                           ;lcd_i2c.c: 56: void Lcd_Set_Cursor(char col, char row);lcd_i2c.c: 57: {;lcd_i2c.c: 58: 
      +                              unsigned char address;;lcd_i2c.c: 59:     switch(row)
  7406     177E  2F8A               	goto	l3051
  7407     177F                     l3045:
  7408                           
  7409                           ;lcd_i2c.c: 62:             address = 0x00;
  7410     177F  01F8               	clrf	Lcd_Set_Cursor@address
  7411                           
  7412                           ;lcd_i2c.c: 63:             break;
  7413     1780  2F98               	goto	l3053
  7414     1781                     l133:	
  7415                           ;lcd_i2c.c: 64:         case 2:
  7416                           
  7417                           
  7418                           ;lcd_i2c.c: 65:             address = 0x40;
  7419     1781  3040               	movlw	64
  7420     1782  00F8               	movwf	Lcd_Set_Cursor@address
  7421                           
  7422                           ;lcd_i2c.c: 66:             break;
  7423     1783  2F98               	goto	l3053
  7424     1784                     l134:	
  7425                           ;lcd_i2c.c: 67:         case 3:
  7426                           
  7427                           
  7428                           ;lcd_i2c.c: 68:             address = 0x14;
  7429     1784  3014               	movlw	20
  7430     1785  00F8               	movwf	Lcd_Set_Cursor@address
  7431                           
  7432                           ;lcd_i2c.c: 69:             break;
  7433     1786  2F98               	goto	l3053
  7434     1787                     l135:	
  7435                           ;lcd_i2c.c: 70:         case 4:
  7436                           
  7437                           
  7438                           ;lcd_i2c.c: 71:             address = 0x54;
  7439     1787  3054               	movlw	84
  7440     1788  00F8               	movwf	Lcd_Set_Cursor@address
  7441                           
  7442                           ;lcd_i2c.c: 72:             break;
  7443     1789  2F98               	goto	l3053
  7444     178A                     l3051:
  7445     178A  0876               	movf	Lcd_Set_Cursor@row,w
  7446                           
  7447                           ; Switch size 1, requested type "simple"
  7448                           ; Number of cases is 4, Range of values is 1 to 4
  7449                           ; switch strategies available:
  7450                           ; Name         Instructions Cycles
  7451                           ; simple_byte           13     7 (average)
  7452                           ; direct_byte           23    11 (fixed)
  7453                           ; jumptable            263     9 (fixed)
  7454                           ;	Chosen strategy is simple_byte
  7455     178B  3A01               	xorlw	1	; case 1
  7456     178C  1903               	skipnz
  7457     178D  2F7F               	goto	l3045
  7458     178E  3A03               	xorlw	3	; case 2
  7459     178F  1903               	skipnz
  7460     1790  2F81               	goto	l133
  7461     1791  3A01               	xorlw	1	; case 3
  7462     1792  1903               	skipnz
  7463     1793  2F84               	goto	l134
  7464     1794  3A07               	xorlw	7	; case 4
  7465     1795  1903               	skipnz
  7466     1796  2F87               	goto	l135
  7467     1797  2F7F               	goto	l3045
  7468     1798                     l3053:
  7469                           
  7470                           ;lcd_i2c.c: 77:     address += col - 1;
  7471     1798  0877               	movf	Lcd_Set_Cursor@col,w
  7472     1799  3EFF               	addlw	255
  7473     179A  07F8               	addwf	Lcd_Set_Cursor@address,f
  7474     179B                     l3055:
  7475                           
  7476                           ;lcd_i2c.c: 78:     Lcd_Cmd(0x80 | address);
  7477     179B  0878               	movf	Lcd_Set_Cursor@address,w
  7478     179C  3880               	iorlw	128
  7479     179D  120A  158A  2093  160A  118A  	fcall	_Lcd_Cmd
  7480     17A2                     l137:
  7481     17A2  0008               	return
  7482     17A3                     __end_of_Lcd_Set_Cursor:
  7483                           
  7484                           	psect	text26
  7485     17C9                     __ptext26:	
  7486 ;; *************** function _Lcd_Init *****************
  7487 ;; Defined at:
  7488 ;;		line 13 in file "lcd_i2c.c"
  7489 ;; Parameters:    Size  Location     Type
  7490 ;;		None
  7491 ;; Auto vars:     Size  Location     Type
  7492 ;;		None
  7493 ;; Return value:  Size  Location     Type
  7494 ;;                  1    wreg      void 
  7495 ;; Registers used:
  7496 ;;		wreg, status,2, status,0, pclath, cstack
  7497 ;; Tracked objects:
  7498 ;;		On entry : 0/0
  7499 ;;		On exit  : 0/0
  7500 ;;		Unchanged: 0/0
  7501 ;; Data sizes:     COMMON   BANK0   BANK1   BANK3   BANK2
  7502 ;;      Params:         0       0       0       0       0
  7503 ;;      Locals:         0       0       0       0       0
  7504 ;;      Temps:          2       0       0       0       0
  7505 ;;      Totals:         2       0       0       0       0
  7506 ;;Total ram usage:        2 bytes
  7507 ;; Hardware stack levels used: 1
  7508 ;; Hardware stack levels required when called: 1
  7509 ;; This function calls:
  7510 ;;		_Lcd_Cmd
  7511 ;; This function is called by:
  7512 ;;		_main
  7513 ;; This function uses a non-reentrant model
  7514 ;;
  7515                           
  7516     17C9                     _Lcd_Init:	
  7517                           ;psect for function _Lcd_Init
  7518                           
  7519     17C9                     l3025:	
  7520                           ;incstack = 0
  7521                           ; Regs used in _Lcd_Init: [wreg+status,2+status,0+pclath+cstack]
  7522                           
  7523                           
  7524                           ;lcd_i2c.c: 15:     _delay((unsigned long)((20)*(20000000/4000.0)));
  7525     17C9  3082               	movlw	130
  7526     17CA  00F7               	movwf	??_Lcd_Init+1
  7527     17CB  30DD               	movlw	221
  7528     17CC  00F6               	movwf	??_Lcd_Init
  7529     17CD                     u4517:
  7530     17CD  0BF6               	decfsz	??_Lcd_Init,f
  7531     17CE  2FCD               	goto	u4517
  7532     17CF  0BF7               	decfsz	??_Lcd_Init+1,f
  7533     17D0  2FCD               	goto	u4517
  7534     17D1  2FD2               	nop2
  7535     17D2                     l3027:
  7536                           
  7537                           ;lcd_i2c.c: 16:     Lcd_Cmd(0x33);
  7538     17D2  3033               	movlw	51
  7539     17D3  120A  158A  2093  160A  118A  	fcall	_Lcd_Cmd
  7540     17D8                     l3029:
  7541                           
  7542                           ;lcd_i2c.c: 17:     Lcd_Cmd(0x32);
  7543     17D8  3032               	movlw	50
  7544     17D9  120A  158A  2093  160A  118A  	fcall	_Lcd_Cmd
  7545     17DE                     l3031:
  7546                           
  7547                           ;lcd_i2c.c: 18:     Lcd_Cmd(0x28);
  7548     17DE  3028               	movlw	40
  7549     17DF  120A  158A  2093  160A  118A  	fcall	_Lcd_Cmd
  7550     17E4                     l3033:
  7551                           
  7552                           ;lcd_i2c.c: 19:     Lcd_Cmd(0x0C);
  7553     17E4  300C               	movlw	12
  7554     17E5  120A  158A  2093  160A  118A  	fcall	_Lcd_Cmd
  7555     17EA                     l3035:
  7556                           
  7557                           ;lcd_i2c.c: 20:     Lcd_Cmd(0x06);
  7558     17EA  3006               	movlw	6
  7559     17EB  120A  158A  2093  160A  118A  	fcall	_Lcd_Cmd
  7560     17F0                     l3037:
  7561                           
  7562                           ;lcd_i2c.c: 21:     Lcd_Cmd(0x01);
  7563     17F0  3001               	movlw	1
  7564     17F1  120A  158A  2093  160A  118A  	fcall	_Lcd_Cmd
  7565                           
  7566                           ;lcd_i2c.c: 22:     _delay((unsigned long)((3)*(20000000/4000.0)));
  7567     17F6  3014               	movlw	20
  7568     17F7  00F7               	movwf	??_Lcd_Init+1
  7569     17F8  3079               	movlw	121
  7570     17F9  00F6               	movwf	??_Lcd_Init
  7571     17FA                     u4527:
  7572     17FA  0BF6               	decfsz	??_Lcd_Init,f
  7573     17FB  2FFA               	goto	u4527
  7574     17FC  0BF7               	decfsz	??_Lcd_Init+1,f
  7575     17FD  2FFA               	goto	u4527
  7576     17FE  2FFF               	nop2
  7577     17FF                     l121:
  7578     17FF  0008               	return
  7579     1800                     __end_of_Lcd_Init:
  7580                           
  7581                           	psect	text27
  7582     1689                     __ptext27:	
  7583 ;; *************** function _Lcd_Clear *****************
  7584 ;; Defined at:
  7585 ;;		line 89 in file "lcd_i2c.c"
  7586 ;; Parameters:    Size  Location     Type
  7587 ;;		None
  7588 ;; Auto vars:     Size  Location     Type
  7589 ;;		None
  7590 ;; Return value:  Size  Location     Type
  7591 ;;                  1    wreg      void 
  7592 ;; Registers used:
  7593 ;;		wreg, status,2, status,0, pclath, cstack
  7594 ;; Tracked objects:
  7595 ;;		On entry : 0/0
  7596 ;;		On exit  : 0/0
  7597 ;;		Unchanged: 0/0
  7598 ;; Data sizes:     COMMON   BANK0   BANK1   BANK3   BANK2
  7599 ;;      Params:         0       0       0       0       0
  7600 ;;      Locals:         0       0       0       0       0
  7601 ;;      Temps:          2       0       0       0       0
  7602 ;;      Totals:         2       0       0       0       0
  7603 ;;Total ram usage:        2 bytes
  7604 ;; Hardware stack levels used: 1
  7605 ;; Hardware stack levels required when called: 2
  7606 ;; This function calls:
  7607 ;;		_Lcd_Cmd
  7608 ;; This function is called by:
  7609 ;;		_main
  7610 ;; This function uses a non-reentrant model
  7611 ;;
  7612                           
  7613     1689                     _Lcd_Clear:	
  7614                           ;psect for function _Lcd_Clear
  7615                           
  7616     1689                     l3121:	
  7617                           ;incstack = 0
  7618                           ; Regs used in _Lcd_Clear: [wreg+status,2+status,0+pclath+cstack]
  7619                           
  7620                           
  7621                           ;lcd_i2c.c: 91:     Lcd_Cmd(0x01);
  7622     1689  3001               	movlw	1
  7623     168A  120A  158A  2093  160A  118A  	fcall	_Lcd_Cmd
  7624     168F                     l3123:
  7625                           
  7626                           ;lcd_i2c.c: 92:     _delay((unsigned long)((2)*(20000000/4000.0)));
  7627     168F  300D               	movlw	13
  7628     1690  00F7               	movwf	??_Lcd_Clear+1
  7629     1691  30FB               	movlw	251
  7630     1692  00F6               	movwf	??_Lcd_Clear
  7631     1693                     u4537:
  7632     1693  0BF6               	decfsz	??_Lcd_Clear,f
  7633     1694  2E93               	goto	u4537
  7634     1695  0BF7               	decfsz	??_Lcd_Clear+1,f
  7635     1696  2E93               	goto	u4537
  7636     1697  2E98               	nop2
  7637     1698                     l146:
  7638     1698  0008               	return
  7639     1699                     __end_of_Lcd_Clear:
  7640                           
  7641                           	psect	text28
  7642     0893                     __ptext28:	
  7643 ;; *************** function _Lcd_Cmd *****************
  7644 ;; Defined at:
  7645 ;;		line 25 in file "lcd_i2c.c"
  7646 ;; Parameters:    Size  Location     Type
  7647 ;;  cmd             1    wreg     unsigned char 
  7648 ;; Auto vars:     Size  Location     Type
  7649 ;;  cmd             1    3[COMMON] unsigned char 
  7650 ;;  data_l          1    5[COMMON] unsigned char 
  7651 ;;  data_u          1    4[COMMON] unsigned char 
  7652 ;; Return value:  Size  Location     Type
  7653 ;;                  1    wreg      void 
  7654 ;; Registers used:
  7655 ;;		wreg, status,2, status,0, pclath, cstack
  7656 ;; Tracked objects:
  7657 ;;		On entry : 0/0
  7658 ;;		On exit  : 0/0
  7659 ;;		Unchanged: 0/0
  7660 ;; Data sizes:     COMMON   BANK0   BANK1   BANK3   BANK2
  7661 ;;      Params:         0       0       0       0       0
  7662 ;;      Locals:         3       0       0       0       0
  7663 ;;      Temps:          1       0       0       0       0
  7664 ;;      Totals:         4       0       0       0       0
  7665 ;;Total ram usage:        4 bytes
  7666 ;; Hardware stack levels used: 1
  7667 ;; This function calls:
  7668 ;;		_I2C_Start
  7669 ;;		_I2C_Stop
  7670 ;;		_I2C_Write
  7671 ;; This function is called by:
  7672 ;;		_Lcd_Init
  7673 ;;		_Lcd_Set_Cursor
  7674 ;;		_Lcd_Clear
  7675 ;;		_Lcd_Shift_Right
  7676 ;;		_Lcd_Shift_Left
  7677 ;;		_Lcd_Blink
  7678 ;;		_Lcd_NoBlink
  7679 ;;		_Lcd_CGRAM_CreateChar
  7680 ;; This function uses a non-reentrant model
  7681 ;;
  7682                           
  7683     0893                     _Lcd_Cmd:	
  7684                           ;psect for function _Lcd_Cmd
  7685                           
  7686                           
  7687                           ;incstack = 0
  7688                           ; Regs used in _Lcd_Cmd: [wreg+status,2+status,0+pclath+cstack]
  7689                           ;Lcd_Cmd@cmd stored from wreg
  7690     0893  00F3               	movwf	Lcd_Cmd@cmd
  7691     0894                     l2535:
  7692                           
  7693                           ;lcd_i2c.c: 25: void Lcd_Cmd(unsigned char cmd);lcd_i2c.c: 26: {;lcd_i2c.c: 27:     char
      +                           data_u, data_l;;lcd_i2c.c: 28:     data_u = (cmd & 0xF0);
  7694     0894  0873               	movf	Lcd_Cmd@cmd,w
  7695     0895  00F4               	movwf	Lcd_Cmd@data_u
  7696     0896                     l2537:
  7697     0896  30F0               	movlw	240
  7698     0897  05F4               	andwf	Lcd_Cmd@data_u,f
  7699     0898                     l2539:
  7700                           
  7701                           ;lcd_i2c.c: 29:     data_l = ((cmd<<4) & 0xF0);
  7702     0898  0873               	movf	Lcd_Cmd@cmd,w
  7703     0899  00F2               	movwf	??_Lcd_Cmd
  7704     089A  3003               	movlw	3
  7705     089B                     u3135:
  7706     089B  1003               	clrc
  7707     089C  0DF2               	rlf	??_Lcd_Cmd,f
  7708     089D  3EFF               	addlw	-1
  7709     089E  1D03               	skipz
  7710     089F  289B               	goto	u3135
  7711     08A0  1003               	clrc
  7712     08A1  0D72               	rlf	??_Lcd_Cmd,w
  7713     08A2  00F5               	movwf	Lcd_Cmd@data_l
  7714     08A3                     l2541:
  7715     08A3  30F0               	movlw	240
  7716     08A4  05F5               	andwf	Lcd_Cmd@data_l,f
  7717     08A5                     l2543:
  7718                           
  7719                           ;lcd_i2c.c: 32:     I2C_Start();
  7720     08A5  160A  118A  266B  120A  158A  	fcall	_I2C_Start
  7721     08AA                     l2545:
  7722                           
  7723                           ;lcd_i2c.c: 33:     I2C_Write(0x4E);
  7724     08AA  304E               	movlw	78
  7725     08AB  120A  118A  2003  120A  158A  	fcall	_I2C_Write
  7726     08B0                     l2547:
  7727                           
  7728                           ;lcd_i2c.c: 34:     I2C_Write(data_u|0x0C);
  7729     08B0  0874               	movf	Lcd_Cmd@data_u,w
  7730     08B1  380C               	iorlw	12
  7731     08B2  120A  118A  2003  120A  158A  	fcall	_I2C_Write
  7732     08B7                     l2549:
  7733                           
  7734                           ;lcd_i2c.c: 35:     I2C_Write(data_u|0x08);
  7735     08B7  0874               	movf	Lcd_Cmd@data_u,w
  7736     08B8  3808               	iorlw	8
  7737     08B9  120A  118A  2003  120A  158A  	fcall	_I2C_Write
  7738     08BE                     l2551:
  7739                           
  7740                           ;lcd_i2c.c: 36:     I2C_Write(data_l|0x0C);
  7741     08BE  0875               	movf	Lcd_Cmd@data_l,w
  7742     08BF  380C               	iorlw	12
  7743     08C0  120A  118A  2003  120A  158A  	fcall	_I2C_Write
  7744     08C5                     l2553:
  7745                           
  7746                           ;lcd_i2c.c: 37:     I2C_Write(data_l|0x08);
  7747     08C5  0875               	movf	Lcd_Cmd@data_l,w
  7748     08C6  3808               	iorlw	8
  7749     08C7  120A  118A  2003  120A  158A  	fcall	_I2C_Write
  7750     08CC                     l2555:
  7751                           
  7752                           ;lcd_i2c.c: 38:     I2C_Stop();
  7753     08CC  160A  118A  2675  120A  158A  	fcall	_I2C_Stop
  7754     08D1                     l124:
  7755     08D1  0008               	return
  7756     08D2                     __end_of_Lcd_Cmd:
  7757                           
  7758                           	psect	text29
  7759     0003                     __ptext29:	
  7760 ;; *************** function _I2C_Write *****************
  7761 ;; Defined at:
  7762 ;;		line 64 in file "i2c.c"
  7763 ;; Parameters:    Size  Location     Type
  7764 ;;  data            1    wreg     unsigned char 
  7765 ;; Auto vars:     Size  Location     Type
  7766 ;;  data            1    1[COMMON] unsigned char 
  7767 ;; Return value:  Size  Location     Type
  7768 ;;                  1    wreg      unsigned char 
  7769 ;; Registers used:
  7770 ;;		wreg, status,2, status,0
  7771 ;; Tracked objects:
  7772 ;;		On entry : 0/0
  7773 ;;		On exit  : 0/0
  7774 ;;		Unchanged: 0/0
  7775 ;; Data sizes:     COMMON   BANK0   BANK1   BANK3   BANK2
  7776 ;;      Params:         0       0       0       0       0
  7777 ;;      Locals:         1       0       0       0       0
  7778 ;;      Temps:          1       0       0       0       0
  7779 ;;      Totals:         2       0       0       0       0
  7780 ;;Total ram usage:        2 bytes
  7781 ;; Hardware stack levels used: 1
  7782 ;; This function calls:
  7783 ;;		Nothing
  7784 ;; This function is called by:
  7785 ;;		_Lcd_Cmd
  7786 ;;		_Lcd_Write_Char
  7787 ;;		_ds1307_init
  7788 ;;		_ds1307_set_date
  7789 ;;		_ds1307_set_time
  7790 ;;		_ds1307_get_date
  7791 ;;		_ds1307_get_time
  7792 ;; This function uses a non-reentrant model
  7793 ;;
  7794                           
  7795     0003                     _I2C_Write:	
  7796                           ;psect for function _I2C_Write
  7797                           
  7798                           
  7799                           ;incstack = 0
  7800                           ; Regs used in _I2C_Write: [wreg+status,2+status,0]
  7801                           ;I2C_Write@data stored from wreg
  7802     0003  00F1               	movwf	I2C_Write@data
  7803     0004                     l2271:
  7804                           
  7805                           ;i2c.c: 64: uint8_t I2C_Write(char data);i2c.c: 65: {;i2c.c: 66:     SSPBUF = data;
  7806     0004  0871               	movf	I2C_Write@data,w
  7807     0005  1283               	bcf	3,5	;RP0=0, select bank0
  7808     0006  1303               	bcf	3,6	;RP1=0, select bank0
  7809     0007  0093               	movwf	19	;volatile
  7810     0008                     l99:	
  7811                           ;i2c.c: 67:     while(!PIR1bits.SSPIF);
  7812                           
  7813     0008  1D8C               	btfss	12,3	;volatile
  7814     0009  280B               	goto	u2611
  7815     000A  280C               	goto	u2610
  7816     000B                     u2611:
  7817     000B  2808               	goto	l99
  7818     000C                     u2610:
  7819     000C                     l101:
  7820                           
  7821                           ;i2c.c: 68:     PIR1bits.SSPIF = 0;
  7822     000C  118C               	bcf	12,3	;volatile
  7823     000D                     l2273:
  7824                           
  7825                           ;i2c.c: 70:     return (uint8_t)SSPCON2bits.ACKSTAT;
  7826     000D  1683               	bsf	3,5	;RP0=1, select bank1
  7827     000E  1303               	bcf	3,6	;RP1=0, select bank1
  7828     000F  0E11               	swapf	17,w	;volatile
  7829     0010  00F0               	movwf	??_I2C_Write
  7830     0011  0CF0               	rrf	??_I2C_Write,f
  7831     0012  0C70               	rrf	??_I2C_Write,w
  7832     0013  3901               	andlw	1
  7833     0014                     l102:
  7834     0014  0008               	return
  7835     0015                     __end_of_I2C_Write:
  7836                           
  7837                           	psect	text30
  7838     1675                     __ptext30:	
  7839 ;; *************** function _I2C_Stop *****************
  7840 ;; Defined at:
  7841 ;;		line 34 in file "i2c.c"
  7842 ;; Parameters:    Size  Location     Type
  7843 ;;		None
  7844 ;; Auto vars:     Size  Location     Type
  7845 ;;		None
  7846 ;; Return value:  Size  Location     Type
  7847 ;;                  1    wreg      void 
  7848 ;; Registers used:
  7849 ;;		None
  7850 ;; Tracked objects:
  7851 ;;		On entry : 0/0
  7852 ;;		On exit  : 0/0
  7853 ;;		Unchanged: 0/0
  7854 ;; Data sizes:     COMMON   BANK0   BANK1   BANK3   BANK2
  7855 ;;      Params:         0       0       0       0       0
  7856 ;;      Locals:         0       0       0       0       0
  7857 ;;      Temps:          0       0       0       0       0
  7858 ;;      Totals:         0       0       0       0       0
  7859 ;;Total ram usage:        0 bytes
  7860 ;; Hardware stack levels used: 1
  7861 ;; This function calls:
  7862 ;;		Nothing
  7863 ;; This function is called by:
  7864 ;;		_Lcd_Cmd
  7865 ;;		_Lcd_Write_Char
  7866 ;;		_ds1307_init
  7867 ;;		_ds1307_set_date
  7868 ;;		_ds1307_set_time
  7869 ;;		_ds1307_get_date
  7870 ;;		_ds1307_get_time
  7871 ;; This function uses a non-reentrant model
  7872 ;;
  7873                           
  7874     1675                     _I2C_Stop:	
  7875                           ;psect for function _I2C_Stop
  7876                           
  7877     1675                     l2269:	
  7878                           ;incstack = 0
  7879                           ; Regs used in _I2C_Stop: []
  7880                           
  7881                           
  7882                           ;i2c.c: 36:     SSPCON2bits.PEN = 1;
  7883     1675  1683               	bsf	3,5	;RP0=1, select bank1
  7884     1676  1303               	bcf	3,6	;RP1=0, select bank1
  7885     1677  1511               	bsf	17,2	;volatile
  7886     1678                     l75:	
  7887                           ;i2c.c: 37:     while(PIR1bits.SSPIF == 0);
  7888                           
  7889     1678  1283               	bcf	3,5	;RP0=0, select bank0
  7890     1679  1D8C               	btfss	12,3	;volatile
  7891     167A  2E7C               	goto	u2601
  7892     167B  2E7D               	goto	u2600
  7893     167C                     u2601:
  7894     167C  2E78               	goto	l75
  7895     167D                     u2600:
  7896     167D                     l77:
  7897                           
  7898                           ;i2c.c: 38:     PIR1bits.SSPIF = 0;
  7899     167D  118C               	bcf	12,3	;volatile
  7900     167E                     l78:
  7901     167E  0008               	return
  7902     167F                     __end_of_I2C_Stop:
  7903                           
  7904                           	psect	text31
  7905     166B                     __ptext31:	
  7906 ;; *************** function _I2C_Start *****************
  7907 ;; Defined at:
  7908 ;;		line 27 in file "i2c.c"
  7909 ;; Parameters:    Size  Location     Type
  7910 ;;		None
  7911 ;; Auto vars:     Size  Location     Type
  7912 ;;		None
  7913 ;; Return value:  Size  Location     Type
  7914 ;;                  1    wreg      void 
  7915 ;; Registers used:
  7916 ;;		None
  7917 ;; Tracked objects:
  7918 ;;		On entry : 0/0
  7919 ;;		On exit  : 0/0
  7920 ;;		Unchanged: 0/0
  7921 ;; Data sizes:     COMMON   BANK0   BANK1   BANK3   BANK2
  7922 ;;      Params:         0       0       0       0       0
  7923 ;;      Locals:         0       0       0       0       0
  7924 ;;      Temps:          0       0       0       0       0
  7925 ;;      Totals:         0       0       0       0       0
  7926 ;;Total ram usage:        0 bytes
  7927 ;; Hardware stack levels used: 1
  7928 ;; This function calls:
  7929 ;;		Nothing
  7930 ;; This function is called by:
  7931 ;;		_Lcd_Cmd
  7932 ;;		_Lcd_Write_Char
  7933 ;;		_ds1307_init
  7934 ;;		_ds1307_set_date
  7935 ;;		_ds1307_set_time
  7936 ;;		_ds1307_get_date
  7937 ;;		_ds1307_get_time
  7938 ;; This function uses a non-reentrant model
  7939 ;;
  7940                           
  7941     166B                     _I2C_Start:	
  7942                           ;psect for function _I2C_Start
  7943                           
  7944     166B                     l2267:	
  7945                           ;incstack = 0
  7946                           ; Regs used in _I2C_Start: []
  7947                           
  7948                           
  7949                           ;i2c.c: 29:     SSPCON2bits.SEN = 1;
  7950     166B  1683               	bsf	3,5	;RP0=1, select bank1
  7951     166C  1303               	bcf	3,6	;RP1=0, select bank1
  7952     166D  1411               	bsf	17,0	;volatile
  7953     166E                     l69:	
  7954                           ;i2c.c: 30:     while(PIR1bits.SSPIF == 0);
  7955                           
  7956     166E  1283               	bcf	3,5	;RP0=0, select bank0
  7957     166F  1D8C               	btfss	12,3	;volatile
  7958     1670  2E72               	goto	u2591
  7959     1671  2E73               	goto	u2590
  7960     1672                     u2591:
  7961     1672  2E6E               	goto	l69
  7962     1673                     u2590:
  7963     1673                     l71:
  7964                           
  7965                           ;i2c.c: 31:     PIR1bits.SSPIF = 0;
  7966     1673  118C               	bcf	12,3	;volatile
  7967     1674                     l72:
  7968     1674  0008               	return
  7969     1675                     __end_of_I2C_Start:
  7970                           
  7971                           	psect	text32
  7972     16AA                     __ptext32:	
  7973 ;; *************** function _I2C_Init_Master *****************
  7974 ;; Defined at:
  7975 ;;		line 10 in file "i2c.c"
  7976 ;; Parameters:    Size  Location     Type
  7977 ;;  sp_i2c          1    wreg     unsigned char 
  7978 ;; Auto vars:     Size  Location     Type
  7979 ;;  sp_i2c          1    0[COMMON] unsigned char 
  7980 ;; Return value:  Size  Location     Type
  7981 ;;                  1    wreg      void 
  7982 ;; Registers used:
  7983 ;;		wreg, status,2, status,0
  7984 ;; Tracked objects:
  7985 ;;		On entry : 0/0
  7986 ;;		On exit  : 0/0
  7987 ;;		Unchanged: 0/0
  7988 ;; Data sizes:     COMMON   BANK0   BANK1   BANK3   BANK2
  7989 ;;      Params:         0       0       0       0       0
  7990 ;;      Locals:         1       0       0       0       0
  7991 ;;      Temps:          0       0       0       0       0
  7992 ;;      Totals:         1       0       0       0       0
  7993 ;;Total ram usage:        1 bytes
  7994 ;; Hardware stack levels used: 1
  7995 ;; This function calls:
  7996 ;;		Nothing
  7997 ;; This function is called by:
  7998 ;;		_main
  7999 ;; This function uses a non-reentrant model
  8000 ;;
  8001                           
  8002     16AA                     _I2C_Init_Master:	
  8003                           ;psect for function _I2C_Init_Master
  8004                           
  8005                           
  8006                           ;incstack = 0
  8007                           ; Regs used in _I2C_Init_Master: [wreg+status,2+status,0]
  8008                           ;I2C_Init_Master@sp_i2c stored from wreg
  8009     16AA  00F0               	movwf	I2C_Init_Master@sp_i2c
  8010     16AB                     l3009:
  8011                           
  8012                           ;i2c.c: 10: void I2C_Init_Master(unsigned char sp_i2c);i2c.c: 11: {;i2c.c: 12:     TRISC
      +                          bits.TRISC3 = 1;
  8013     16AB  1683               	bsf	3,5	;RP0=1, select bank1
  8014     16AC  1303               	bcf	3,6	;RP1=0, select bank1
  8015     16AD  1587               	bsf	7,3	;volatile
  8016                           
  8017                           ;i2c.c: 13:     TRISCbits.TRISC4 = 1;
  8018     16AE  1607               	bsf	7,4	;volatile
  8019     16AF                     l3011:
  8020                           
  8021                           ;i2c.c: 15:     SSPSTAT = sp_i2c;
  8022     16AF  0870               	movf	I2C_Init_Master@sp_i2c,w
  8023     16B0  0094               	movwf	20	;volatile
  8024     16B1                     l3013:
  8025                           
  8026                           ;i2c.c: 16:     SSPCON = 0x28;
  8027     16B1  3028               	movlw	40
  8028     16B2  1283               	bcf	3,5	;RP0=0, select bank0
  8029     16B3  1303               	bcf	3,6	;RP1=0, select bank0
  8030     16B4  0094               	movwf	20	;volatile
  8031     16B5                     l3015:
  8032                           
  8033                           ;i2c.c: 17:     SSPCON2 = 0x00;
  8034     16B5  1683               	bsf	3,5	;RP0=1, select bank1
  8035     16B6  1303               	bcf	3,6	;RP1=0, select bank1
  8036     16B7  0191               	clrf	17	;volatile
  8037     16B8                     l3017:
  8038                           
  8039                           ;i2c.c: 19:     if(sp_i2c == 0x80){
  8040     16B8  3080               	movlw	128
  8041     16B9  0670               	xorwf	I2C_Init_Master@sp_i2c,w
  8042     16BA  1D03               	btfss	3,2
  8043     16BB  2EBD               	goto	u4211
  8044     16BC  2EBE               	goto	u4210
  8045     16BD                     u4211:
  8046     16BD  2EC1               	goto	l3021
  8047     16BE                     u4210:
  8048     16BE                     l3019:
  8049                           
  8050                           ;i2c.c: 20:         SSPADD = 49;
  8051     16BE  3031               	movlw	49
  8052     16BF  0093               	movwf	19	;volatile
  8053                           
  8054                           ;i2c.c: 21:     }
  8055     16C0  2EC8               	goto	l66
  8056     16C1                     l3021:
  8057     16C1  0870               	movf	I2C_Init_Master@sp_i2c,w
  8058     16C2  1D03               	btfss	3,2
  8059     16C3  2EC5               	goto	u4221
  8060     16C4  2EC6               	goto	u4220
  8061     16C5                     u4221:
  8062     16C5  2EC8               	goto	l66
  8063     16C6                     u4220:
  8064     16C6                     l3023:
  8065                           
  8066                           ;i2c.c: 23:         SSPADD = 12;
  8067     16C6  300C               	movlw	12
  8068     16C7  0093               	movwf	19	;volatile
  8069     16C8                     l66:
  8070     16C8  0008               	return
  8071     16C9                     __end_of_I2C_Init_Master:
  8072     0002                     ___latbits      equ	2
  8073     007E                     btemp           set	126	;btemp
  8074     007E                     btemp0          set	126
  8075     007F                     btemp1          set	127
  8076     007E                     wtemp0          set	126
  8077     007F                     wtemp0a         set	127
  8078     007F                     ttemp0a         set	127
  8079     0080                     ltemp0a         set	128
  8080                           
  8081                           	psect	config
  8082                           
  8083                           ;Config register CONFIG1 @ 0x2007
  8084                           ;	Oscillator Selection bits
  8085                           ;	FOSC = HS, HS oscillator: High-speed crystal/resonator on RA6/OSC2/CLKOUT and RA7/OSC1
      +                          /CLKIN
  8086                           ;	Watchdog Timer Enable bit
  8087                           ;	WDTE = OFF, WDT disabled and can be enabled by SWDTEN bit of the WDTCON register
  8088                           ;	Power-up Timer Enable bit
  8089                           ;	PWRTE = ON, PWRT enabled
  8090                           ;	RE3/MCLR pin function select bit
  8091                           ;	MCLRE = ON, RE3/MCLR pin function is MCLR
  8092                           ;	Code Protection bit
  8093                           ;	CP = OFF, Program memory code protection is disabled
  8094                           ;	Data Code Protection bit
  8095                           ;	CPD = OFF, Data memory code protection is disabled
  8096                           ;	Brown Out Reset Selection bits
  8097                           ;	BOREN = ON, BOR enabled
  8098                           ;	Internal External Switchover bit
  8099                           ;	IESO = OFF, Internal/External Switchover mode is disabled
  8100                           ;	Fail-Safe Clock Monitor Enabled bit
  8101                           ;	FCMEN = OFF, Fail-Safe Clock Monitor is disabled
  8102                           ;	Low Voltage Programming Enable bit
  8103                           ;	LVP = OFF, RB3 pin has digital I/O, HV on MCLR must be used for programming
  8104                           ;	In-Circuit Debugger Mode bit
  8105                           ;	DEBUG = OFF, In-Circuit Debugger disabled, RB6/ICSPCLK and RB7/ICSPDAT are general pur
      +                          pose I/O pins
  8106     2007                     	org	8199
  8107     2007  23E2               	dw	9186

Data Sizes:
    Strings     77
    Constant    0
    Data        0
    BSS         75
    Persistent  0
    Stack       0

Auto Spaces:
    Space          Size  Autos    Used
    COMMON           14     14      14
    BANK0            80     79      80
    BANK1            80     12      54
    BANK3            96      0      32
    BANK2            96      0       0

Pointer List with Targets:

    dht11_read@phum	PTR float  size(1) Largest target is 4
		 -> main@hum(BANK1[4]), 

    dht11_read@ptemp	PTR float  size(1) Largest target is 4
		 -> main@tem(BANK1[4]), 

    f$.$buffer	PTR unsigned char  size(2) Largest target is 16
		 -> buffer_hum(BANK1[16]), buffer_tem(BANK1[16]), 

    f$.$source	PTR const unsigned char  size(1) Largest target is 0

    float_to_string_opt@buffer	PTR unsigned char  size(1) Largest target is 16
		 -> buffer_hum(BANK1[16]), buffer_tem(BANK1[16]), 

    fputc@fp	PTR struct _IO_FILE size(2) Largest target is 11
		 -> sprintf@f(BANK0[11]), 

    fputc@fp$.$buffer	PTR unsigned char  size(2) Largest target is 16
		 -> buffer_hum(BANK1[16]), buffer_tem(BANK1[16]), 

    fputc@fp$.$source	PTR const unsigned char  size(1) Largest target is 0

    Lcd_Write_String@str	PTR const unsigned char  size(2) Largest target is 16
		 -> buffer_hum(BANK1[16]), buffer_tem(BANK1[16]), STR_2(CODE[12]), STR_3(CODE[7]), 
		 -> STR_4(CODE[7]), STR_5(CODE[13]), STR_6(CODE[16]), STR_7(CODE[16]), 

    S820$buffer	PTR unsigned char  size(2) Largest target is 16
		 -> buffer_hum(BANK1[16]), buffer_tem(BANK1[16]), 

    S820$source	PTR const unsigned char  size(1) Largest target is 0

    sprintf@ap	PTR void [1] size(1) Largest target is 2
		 -> ?_sprintf(BANK0[2]), 

    sprintf@fmt	PTR const unsigned char  size(1) Largest target is 6
		 -> STR_1(CODE[6]), 

    sprintf@s	PTR unsigned char  size(1) Largest target is 16
		 -> buffer_hum(BANK1[16]), buffer_tem(BANK1[16]), 

    vfpfcnvrt@ap	PTR PTR void  size(1) Largest target is 1
		 -> sprintf@ap(BANK0[1]), 

    vfpfcnvrt@cp	PTR unsigned char  size(1) Largest target is 6
		 -> STR_1(CODE[6]), 

    vfpfcnvrt@fmt	PTR PTR unsigned char  size(1) Largest target is 1
		 -> vfprintf@cfmt(COMMON[1]), 

    vfpfcnvrt@fp	PTR struct _IO_FILE size(2) Largest target is 11
		 -> sprintf@f(BANK0[11]), 

    vfprintf@ap	PTR PTR void  size(1) Largest target is 1
		 -> sprintf@ap(BANK0[1]), 

    vfprintf@cfmt	PTR unsigned char  size(1) Largest target is 6
		 -> STR_1(CODE[6]), 

    vfprintf@fmt	PTR const unsigned char  size(1) Largest target is 6
		 -> STR_1(CODE[6]), 

    vfprintf@fp	PTR struct _IO_FILE size(2) Largest target is 11
		 -> sprintf@f(BANK0[11]), 


Critical Paths under _main in COMMON

    _float_to_string_opt->___flmul
    _float_to_string_opt->___xxtofl
    _sprintf->_vfprintf
    _vfpfcnvrt->_fputc
    _abs->___awmod
    ___fltol->___flmul
    ___fltol->___xxtofl
    ___flsub->___flmul
    ___flsub->___xxtofl
    ___flmul->__Umul8_16
    _dht11_read->___xxtofl
    ___xxtofl->___wmul
    ___fldiv->___xxtofl
    ___fladd->___xxtofl
    _Lcd_Write_String->_Lcd_Write_Char
    _Lcd_Write_Char->_I2C_Write
    _Lcd_Set_Cursor->_Lcd_Cmd
    _Lcd_Init->_Lcd_Cmd
    _Lcd_Clear->_Lcd_Cmd
    _Lcd_Cmd->_I2C_Write

Critical Paths under _main in BANK0

    _main->_float_to_string_opt
    _float_to_string_opt->___fltol
    _sprintf->_vfprintf
    _vfprintf->_vfpfcnvrt
    ___fltol->___flsub
    ___flsub->___fladd
    _dht11_read->___fladd
    ___fldiv->___xxtofl
    ___fladd->___fldiv

Critical Paths under _main in BANK1

    None.

Critical Paths under _main in BANK3

    None.

Critical Paths under _main in BANK2

    None.

Call Graph Tables:

 ---------------------------------------------------------------------------------
 (Depth) Function   	        Calls       Base Space   Used Autos Params    Refs
 ---------------------------------------------------------------------------------
 (0) _main                                                12    12      0   11391
                                              0 BANK1     12    12      0
                    _I2C_Init_Master
                          _Lcd_Clear
                           _Lcd_Init
                     _Lcd_Set_Cursor
                     _Lcd_Write_Char
                   _Lcd_Write_String
                       _dht11_config
                         _dht11_read
                _float_to_string_opt
 ---------------------------------------------------------------------------------
 (1) _float_to_string_opt                                  9     4      5    6490
                                             70 BANK0      9     4      5
                             ___flge
                            ___flmul
                            ___flneg
                            ___flsub
                            ___fltol
                             ___wmul
                           ___xxtofl
                            _sprintf
 ---------------------------------------------------------------------------------
 (2) _sprintf                                             21    15      6    1764
                                             17 BANK0     19    13      6
                           _vfprintf
 ---------------------------------------------------------------------------------
 (3) _vfprintf                                             5     1      4    1563
                                             13 COMMON     1     1      0
                                             13 BANK0      4     0      4
                          _vfpfcnvrt
 ---------------------------------------------------------------------------------
 (4) _vfpfcnvrt                                           13     9      4    1438
                                              0 BANK0     13     9      4
                            ___awdiv
                            ___awmod
                                _abs
                              _fputc
 ---------------------------------------------------------------------------------
 (5) _fputc                                               13     9      4     230
                                              0 COMMON    13     9      4
                              _putch
 ---------------------------------------------------------------------------------
 (6) _putch                                                1     1      0       0
 ---------------------------------------------------------------------------------
 (5) _abs                                                  4     2      2      67
                                              6 COMMON     4     2      2
                            ___awmod (ARG)
 ---------------------------------------------------------------------------------
 (5) ___awmod                                              6     2      4     300
                                              0 COMMON     6     2      4
 ---------------------------------------------------------------------------------
 (5) ___awdiv                                              8     4      4     304
                                              0 COMMON     8     4      4
 ---------------------------------------------------------------------------------
 (2) ___wmul                                               6     2      4      94
                                              0 COMMON     6     2      4
 ---------------------------------------------------------------------------------
 (2) ___fltol                                             10     6      4     231
                                             60 BANK0     10     6      4
                            ___flmul (ARG)
                            ___flsub (ARG)
                             ___wmul (ARG)
                           ___xxtofl (ARG)
 ---------------------------------------------------------------------------------
 (2) ___flsub                                              8     0      8    2039
                                             52 BANK0      8     0      8
                            ___fladd
                            ___flmul (ARG)
                             ___wmul (ARG)
                           ___xxtofl (ARG)
 ---------------------------------------------------------------------------------
 (2) ___flneg                                              4     0      4      46
                                              0 COMMON     4     0      4
 ---------------------------------------------------------------------------------
 (2) ___flmul                                             26    18      8    1608
                                              9 COMMON     5     5      0
                                              0 BANK0     21    13      8
                          __Umul8_16
 ---------------------------------------------------------------------------------
 (3) __Umul8_16                                            9     7      2     139
                                              0 COMMON     9     7      2
 ---------------------------------------------------------------------------------
 (2) ___flge                                              12     4      8     184
                                              0 COMMON    12     4      8
 ---------------------------------------------------------------------------------
 (1) _dht11_read                                          12    10      2    3665
                                             52 BANK0     12    10      2
                            ___fladd
                            ___fldiv
                           ___xxtofl
                    _dht11_read_byte
 ---------------------------------------------------------------------------------
 (2) _dht11_read_byte                                      2     2      0      69
                                              0 COMMON     2     2      0
 ---------------------------------------------------------------------------------
 (2) ___xxtofl                                            14    10      4     341
                                              6 COMMON     8     4      4
                                              0 BANK0      6     6      0
                             ___wmul (ARG)
 ---------------------------------------------------------------------------------
 (2) ___fldiv                                             26    18      8    1126
                                              6 BANK0     26    18      8
                           ___xxtofl (ARG)
 ---------------------------------------------------------------------------------
 (3) ___fladd                                             20    12      8    1992
                                             32 BANK0     20    12      8
                            ___fldiv (ARG)
                           ___xxtofl (ARG)
 ---------------------------------------------------------------------------------
 (1) _dht11_config                                         0     0      0       0
 ---------------------------------------------------------------------------------
 (1) _Lcd_Write_String                                     2     0      2     232
                                              6 COMMON     2     0      2
                     _Lcd_Write_Char
 ---------------------------------------------------------------------------------
 (2) _Lcd_Write_Char                                       4     4      0     179
                                              2 COMMON     4     4      0
                          _I2C_Start
                           _I2C_Stop
                          _I2C_Write
 ---------------------------------------------------------------------------------
 (1) _Lcd_Set_Cursor                                       3     2      1     263
                                              6 COMMON     3     2      1
                            _Lcd_Cmd
 ---------------------------------------------------------------------------------
 (1) _Lcd_Init                                             2     2      0     179
                                              6 COMMON     2     2      0
                            _Lcd_Cmd
 ---------------------------------------------------------------------------------
 (1) _Lcd_Clear                                            2     2      0     179
                                              6 COMMON     2     2      0
                            _Lcd_Cmd
 ---------------------------------------------------------------------------------
 (2) _Lcd_Cmd                                              4     4      0     179
                                              2 COMMON     4     4      0
                          _I2C_Start
                           _I2C_Stop
                          _I2C_Write
 ---------------------------------------------------------------------------------
 (3) _I2C_Write                                            2     2      0      29
                                              0 COMMON     2     2      0
 ---------------------------------------------------------------------------------
 (3) _I2C_Stop                                             0     0      0       0
 ---------------------------------------------------------------------------------
 (3) _I2C_Start                                            0     0      0       0
 ---------------------------------------------------------------------------------
 (1) _I2C_Init_Master                                      1     1      0      87
                                              0 COMMON     1     1      0
 ---------------------------------------------------------------------------------
 Estimated maximum stack depth 6
 ---------------------------------------------------------------------------------

 Call Graph Graphs:

 _main (ROOT)
   _I2C_Init_Master
   _Lcd_Clear
     _Lcd_Cmd
       _I2C_Start
       _I2C_Stop
       _I2C_Write
   _Lcd_Init
     _Lcd_Cmd
   _Lcd_Set_Cursor
     _Lcd_Cmd
   _Lcd_Write_Char
     _I2C_Start
     _I2C_Stop
     _I2C_Write
   _Lcd_Write_String
     _Lcd_Write_Char
   _dht11_config
   _dht11_read
     ___fladd
       ___fldiv (ARG)
         ___xxtofl (ARG)
           ___wmul (ARG)
       ___xxtofl (ARG)
     ___fldiv
     ___xxtofl
     _dht11_read_byte
   _float_to_string_opt
     ___flge
     ___flmul
       __Umul8_16
     ___flneg
     ___flsub
       ___fladd
       ___flmul (ARG)
       ___wmul (ARG)
       ___xxtofl (ARG)
     ___fltol
       ___flmul (ARG)
       ___flsub (ARG)
       ___wmul (ARG)
       ___xxtofl (ARG)
     ___wmul
     ___xxtofl
     _sprintf
       _vfprintf
         _vfpfcnvrt
           ___awdiv
           ___awmod
           _abs
             ___awmod (ARG)
           _fputc
             _putch

Address spaces:
Name               Size   Autos  Total    Usage
BITCOMMON           14      0       0      0.0%
BITBANK0            80      0       0      0.0%
BITBANK1            80      0       0      0.0%
BITBANK3            96      0       0      0.0%
BITBANK2            96      0       0      0.0%
COMMON              14     14      14    100.0%
BANK0               80     79      80    100.0%
BANK1               80     12      54     67.5%
BANK3               96      0      32     33.3%
BANK2               96      0       0      0.0%
STACK                0      0       0      0.0%
DATA                 0      0     180      0.0%


Microchip Technology PIC Macro Assembler V3.10 build 20250813170317 
Symbol Table                                                                                   Wed Nov  5 07:32:32 2025

                    ___fldiv@aexp 003F                      ___fldiv@bexp 003E                                 pc 0002  
                    ___fldiv@sign 0037  float_to_string_opt@parte_decimal 006B                                l32 0C76  
                              l71 1673                                l72 1674                                l66 16C8  
                              l75 1678                                l69 166E                                l77 167D  
                              l78 167E                                l99 0008                      ___awdiv@sign 0075  
                              fsr 0004               ___wmul@multiplicand 0072               __Umul8_16@word_mpld 0076  
     __end_of_float_to_string_opt 0C77                               l101 000C                               l102 0014  
                             l121 17FF                               l201 0D7D                               l210 0D87  
                             l124 08D1                               l204 0EA5                               l133 1781  
                             l134 1784                               l206 0D82                               l135 1787  
                             l127 0910                               l143 17C8                               l137 17A2  
                             l146 1698                               l501 09CA                               l350 1757  
                             l191 16D3                               l186 16CE                               l514 0967  
                             l348 173F                               l189 16EB                               l198 1688  
                             l534 0B06                               l526 0A81                               l542 008A  
                             l552 008A                               l721 01CE                               l705 00E0  
                             l529 0AED                               l802 0B86                               l538 086B  
                             l707 0254                               l803 0B92                               l811 170E  
                             l644 0281                               l653 0331                               l549 0075  
                             l670 03F7                               l662 04A4                               l655 030C  
                             l727 0240                               l751 0758                               l680 043E  
                             l649 02B2                               l729 024C                               l745 07E6  
                             l674 041B                               l691 049A                               l683 047A  
                             l692 04A4                               l764 0880                               l757 07DC  
                             l790 0B3C                               l766 0892                               l862 16A9  
                             l791 0BBC                               l695 1732                               l855 177C  
                             l849 0D60                               l874 0A64                               l795 0B6A  
                             l789 0B2B                               l885 0860                               _abs 1699  
                             fsr0 0004                               indf 0000                      ___awmod@sign 0075  
                    ___flmul@aexp 002D                      ___flmul@bexp 002E                      ___flmul@sign 0028  
                    ___flmul@temp 0033                      ___flmul@prod 002F                      ___fltol@exp1 0065  
                            ?_abs 0076                              l2121 0974                              l2113 0968  
                            l2201 09DE                              l3001 0BD8                              l3011 16AF  
                            l2131 0987                              l2123 0978                              l2115 0969  
                            l2211 169D                              l2203 09F6                              l3003 0BF1  
                            l3021 16C1                              l3013 16B1                              l2301 0285  
                            l3101 0D98                              l2141 09A8                              l2133 098A  
                            l2125 097D                              l2117 096D                              l2213 169E  
                            l2205 0A28                              l2221 0C8B                              l3005 0C06  
                            l3023 16C6                              l3015 16B5                              l3031 17DE  
                            l2311 0295                              l2303 028B                              l3103 0DA0  
                            l2151 09C1                              l2143 09AE                              l2135 0991  
                            l2127 097F                              l2119 0972                              l2231 0CB3  
                            l2223 0C91                              l3007 0C65                              l3017 16B8  
                            l3009 16AB                              l3121 1689                              l3033 17E4  
                            l3025 17C9                              l3041 1684                              l2401 037C  
                            l2313 029A                              l2321 02AA                              l2305 028C  
                            l3105 0DA2                              l2153 09C6                              l2145 09AF  
                            l2137 0993                              l2129 0981                              l2161 0916  
                            l2209 1699                              l2241 0D03                              l2233 0CC6  
                            l2225 0C95                              l2217 0C77                              l3019 16BE  
                            l3123 168F                              l3035 17EA                              l3027 17D2  
                            l3051 178A                              l3043 177E                              l2411 03DA  
                            l2403 0392                              l2331 02C2                              l2323 02B8  
                            l2315 029F                              l2307 0290                              l3115 0DC8  
                            l3107 0DA8                              l2147 09B6                              l2139 0997  
                            l2171 092C                              l2163 091B                              l2251 0D21  
                            l2243 0D09                              l2235 0CC8                              l2227 0C9B  
                            l2219 0C87                              l3131 0EC1                              l3037 17F0  
                            l3029 17D8                              l3053 1798                              l3045 177F  
                            l3061 17B2                              l2421 040D                              l2405 03D0  
                            l2413 03E9                              l2341 02CC                              l2333 02C4  
                            l2325 02BC                              l2317 02A7                              l2309 0294  
                            l3117 0EA4                              l3109 0DBD                              l2149 09BC  
                            l2181 0946                              l2173 092F                              l2165 091D  
                            l2157 0911                              l2253 0D35                              l2245 0D0E  
                            l2237 0CCF                              l2229 0CA7                              l2261 0D47  
                            l2501 16F0                              l3141 0EEA                              l3133 0EC6  
                            l3125 0EA6                              l2271 0004                              l3055 179B  
                            l3063 17B8                              l3039 167F                              l2431 0425  
                            l2423 0416                              l2415 03FF                              l2407 03D2  
                            l2351 02D6                              l2343 02CE                              l2335 02C6  
                            l2327 02BE                              l2319 02A8                              l3071 0D7A  
                            l2191 0963                              l2183 094C                              l2175 0936  
                            l2167 0921                              l2159 0912                              l2247 0D13  
                            l2255 0D39                              l2239 0CEE                              l2503 16F4  
                            l3151 0F47                              l3143 0EF8                              l3135 0ED4  
                            l3127 0EAD                              l2273 000D                              l2521 08E4  
                            l2513 08D3                              l3057 17A3                              l2441 0435  
                            l2433 042A                              l2425 041A                              l2417 0404  
                            l2409 03D5                              l2361 02F4                              l2353 02D8  
                            l2345 02D0                              l2337 02C8                              l2329 02C0  
                            l2281 025B                              l3065 0D61                              l2601 0A65  
                            l2185 0953                              l2177 0938                              l2169 0926  
                            l2249 0D18                              l2257 0D40                              l2505 16F6  
                            l3161 0F6E                              l3153 0F4C                              l3145 0F08  
                            l3137 0ED9                              l3129 0EB3                              l2267 166B  
                            l2531 0904                              l2523 08E9                              l2515 08D5  
                            l3059 17A4                              l2451 0456                              l2443 043B  
                            l2427 041F                              l2435 042C                              l2371 031E  
                            l2363 0310                              l2355 02DA                              l2347 02D2  
                            l2339 02CA                              l2291 026E                              l2283 025F  
                            l3083 0D86                              l3067 0D67                              l2611 0AC5  
                            l2603 0A79                              l2179 093C                              l2187 0959  
                            l2195 09CB                              l2507 16F8                              l3171 0F92  
                            l3163 0F77                              l3155 0F56                              l3147 0F0B  
                            l3139 0EE1                              l2269 1675                              l2541 08A3  
                            l2533 090B                              l2525 08EF                              l2517 08D7  
                            l2461 048C                              l2453 045A                              l2429 0423  
                            l2437 0430                              l2373 0327                              l2365 0317  
                            l2349 02D4                              l2357 02DC                              l2293 0276  
                            l2285 0263                              l2277 0255                              l2701 00C3  
                            l3077 0D81                              l3069 0D71                              l2613 0AC9  
                            l2605 0A95                              l2621 0861                              l2189 095E  
                            l2197 09D1                              l2509 1705                              l3181 0FB5  
                            l3173 0F9B                              l3165 0F7D                              l3157 0F5E  
                            l3149 0F28                              l2551 08BE                              l2543 08A5  
                            l2535 0894                              l2527 08F6                              l2519 08E2  
                            l2471 049F                              l2463 0491                              l2455 0478  
                            l2447 0443                              l2439 0431                              l2391 0369  
                            l2383 0343                              l2367 0319                              l2375 0329  
                            l2359 02DD                              l2295 0277                              l2287 0264  
                            l2279 0259                              l2703 00C8                              l2711 00D8  
                            l3095 0D8C                              l2615 0B03                              l2607 0A9D  
                            l2623 0869                              l2631 0020                              l2199 09D7  
                            l3191 0FDB                              l3183 0FBA                              l3175 0FA4  
                            l3167 0F83                              l3159 0F65                              l2553 08C5  
                            l2545 08AA                              l2537 0896                              l2529 08FD  
                            l2473 04A3                              l2465 0492                              l2457 047F  
                            l2449 0448                              l2393 036B                              l2385 035A  
                            l2377 0335                              l2369 031D                              l2289 0269  
                            l2297 0279                              l2801 0237                              l2713 00E8  
                            l2721 00FF                              l2705 00CD                              l3097 0D96  
                            l3089 0D8B                              l2617 0B05                              l2609 0AA1  
                            l2481 087A                              l2625 086B                              l2641 0045  
                            l3193 0FE5                              l3185 0FC2                              l3177 0FAA  
                            l3169 0F8B                              l2555 08CC                              l2547 08B0  
                            l2539 0898                              l2467 0496                              l2459 0484  
                            l2395 036F                              l2387 035E                              l2379 033A  
                            l2299 0283                              l2803 023F                              l2731 0127  
                            l2723 0104                              l2715 00F4                              l2707 00D5  
                            l2563 16CD                              l2483 0889                              l2475 086D  
                            l2651 0053                              l2643 0047                              l2635 0029  
                            l2491 175D                              l3187 0FCB                              l3195 0FEE  
                            l3179 0FB1                              l2549 08B7                              l2469 0498  
                            l2397 0370                              l2389 0362                              l2805 0244  
                            l2741 0150                              l2733 012F                              l2717 00F6  
                            l2709 00D6                              l2581 16E4                              l2557 16C9  
                            l2485 088E                              l2477 086F                              l2901 070D  
                            l2821 04AF                              l2661 007A                              l2645 004B  
                            l2653 0063                              l2637 003C                              l2629 0015  
                            l2493 176C                              l3189 0FD3                              l2399 0379  
                            l2807 0248                              l2751 0171                              l2743 0154  
                            l2735 0137                              l2727 010D                              l2671 008B  
                            l2583 16EA                              l2575 16D7                              l2479 0876  
                            l2911 0732                              l2903 071B                              l2831 04C6  
                            l2823 04B3                              l2815 04A5                              l2663 007F  
                            l2639 003D                              l2591 1739                              l2495 1778  
                            l2809 024A                              l2761 0191                              l2753 017F  
                            l2745 0155                              l2737 0139                              l2729 011F  
                            l2681 009A                              l2673 008F                              l2577 16E1  
                            l2569 16D2                              l2921 0755                              l2905 0724  
                            l2913 0738                              l2841 04DB                              l2833 04C8  
                            l2825 04B4                              l2817 04A9                              l2665 170F  
                            l2593 1746                              l2489 1758                              l2763 019A  
                            l2771 01AE                              l2739 013E                              l2747 015E  
                            l2755 0181                              l2683 009F                              l2691 00AF  
                            l2675 0091                              l2579 16E2                              l2931 0774  
                            l2915 073C                              l2907 0728                              l2851 04F0  
                            l2843 04DC                              l2835 04D0                              l2827 04B9  
                            l2819 04AB                              l2667 1713                              l2659 006A  
                            l2595 174D                              l2587 1733                              l2499 16EC  
                            l2773 01B2                              l2765 019E                              l2757 0187  
                            l2749 0170                              l2693 00B7                              l2685 00A4  
                            l2677 0095                              l2941 07BA                              l2933 078D  
                            l2925 075D                              l2917 073D                              l2909 0729  
                            l2861 050B                              l2853 04F8                              l2845 04E1  
                            l2837 04D3                              l2829 04BE                              l2597 1753  
                            l2589 1735                              l2791 0203                              l2783 01D3  
                            l2775 01B3                              l2767 019F                              l2759 018F  
                            l2695 00BA                              l2687 00AC                              l2679 0099  
                            l2951 07D7                              l2943 07C4                              l2927 0762  
                            l2935 0793                              l2919 0741                              l2871 0587  
                            l2863 0519                              l2855 04FD                              l2847 04E6  
                            l2839 04D7                              l2785 01D8                              l2793 0209  
                            l2777 01B7                              l2769 01A8                              l2697 00BE  
                            l2689 00AD                              l2961 0B13                              l2953 07DE  
                            l2945 07C6                              l2937 07A0                              l2929 0770  
                            l2881 05F3                              l2873 05A3                              l2865 0526  
                            l2857 0502                              l2849 04EE                              l2795 0216  
                            l2787 01E6                              l2779 01CB                              l2699 00C2  
                            l2971 0B4A                              l2963 0B23                              l2947 07D2  
                            l2939 07AB                              l2891 067D                              l2883 0601  
                            l2875 05BF                              l2867 0541                              l2797 0224  
                            l2789 01EA                              l2981 0B7C                              l2973 0B51  
                            l2965 0B33                              l2957 0B0A                              l2949 07D6  
                            l2893 068B                              l2885 061E                              l2877 05C8  
                            l2869 055D                              l2799 0233                              l2991 0BAF  
                            l2983 0B80                              l2975 0B53                              l2959 0B0F  
                            l2895 06B6                              l2887 0635                              l2879 05D6  
                            l2993 0BB3                              l2985 0B8A                              l2977 0B61  
                            l2969 0B3F                              l2897 06DC                              l2889 0652  
                            l2995 0BB4                              l2987 0B94                              l2979 0B71  
                            l2899 0704                              l2989 0BAA                              l2999 0BBD  
                            STR_1 0857                              STR_2 083D                              STR_3 0850  
                            STR_4 0849                              STR_5 0830                              STR_6 0810  
                            STR_7 0820                              u3000 045A                              u3001 0459  
                            u3010 0469                              u3020 0478                              u3100 088E  
                            u2300 09A8                              u3021 0477                              u3101 088D  
                            u2301 09A7                              u3030 047F                              u3110 1778  
                            u3031 047E                              u3015 0464                              u3111 1777  
                            u3040 0484                              u4000 0762                              u2320 09BC  
                            u2240 096D                              u3041 0483                              u4001 0761  
                            u2321 09BB                              u2305 09A4                              u2241 096C  
                            u3050 0491                              u4010 0774                              u3210 1753  
                            u2330 09C1                              u2250 0978                              u2410 0959  
                            u3051 0490                              u4011 0773                              u3211 1752  
                            u2331 09C0                              u2315 09B0                              u2251 0977  
                            u2411 0958                              u3060 0496                              u4100 0B50  
                            u3140 16D2                              u3220 0A79                              u4020 0783  
                            u3300 0020                              u2260 0987                              u2420 095E  
                            u2340 0916                              u2500 0CA7                              u3125 08DA  
                            u3061 0495                              u4101 0B4F                              u3141 16D1  
                            u3221 0A78                              u3301 001F                              u3205 1747  
                            u2261 0986                              u2421 095D                              u2405 094D  
                            u2341 0915                              u2501 0CA6                              u3070 04A3  
                            u3150 16D7                              u3230 0A95                              u4030 07A0  
                            u3310 0037                              u2350 0921                              u2430 09D1  
                            u2510 0CB3                              u3135 089B                              u3071 04A2  
                            u3151 16D6                              u3231 0A94                              u4031 079F  
                            u2351 0920                              u2431 09D0                              u2511 0CB2  
                            u2600 167D                              u3400 0099                              u4120 0B70  
                            u3160 16E1                              u3240 0AA1                              u3080 087A  
                            u4040 07BA                              u3320 004B                              u2280 0997  
                            u2360 092C                              u2440 09D7                              u2520 0CCD  
                            u4200 0BD8                              u2601 167C                              u3401 0098  
                            u4121 0B6F                              u3161 16E0                              u3241 0AA0  
                            u3081 0879                              u4041 07B9                              u4025 077E  
                            u3321 004A                              u2281 0996                              u2361 092B  
                            u2441 09D6                              u2521 0CCB                              u4201 0BD7  
                            u4210 16BE                              u2610 000C                              u3410 009F  
                            u3170 16EA                              u4050 07D6                              u3330 0052  
                            u2450 09F6                              u2530 0CCE                              u4211 16BD  
                            u2611 000B                              u3411 009E                              u4115 0B62  
                            u3171 16E9                              u3251 0AB0                              u4051 07D5  
                            u4035 079C                              u3331 0051                              u3315 0032  
                            u2275 098B                              u2451 09F5                              u4220 16C6  
                            u2700 02BC                              u2620 0263                              u3420 00A4  
                            u4140 0B80                              u4060 0B0F                              u3260 0AC9  
                            u3252 0AB1                              u3180 1739                              u2380 093C  
                            u2460 0A28                              u2540 0D09                              u4300 0F08  
                            u4221 16C5                              u2701 02BB                              u2621 0262  
                            u3421 00A3                              u4141 0B7F                              u4061 0B0E  
                            u3261 0AC8                              u3253 0AB6                              u4045 07B6  
                            u3181 1738                              u2381 093B                              u2461 0A27  
                            u2541 0D08                              u4301 0F07                              u4230 17C8  
                            u2710 02F4                              u2630 0269                              u3510 0154  
                            u3430 00C2                              u4150 0B86                              u4070 0B13  
                            u3254 0AB7                              u3350 0062                              u2390 0946  
                            u2470 0A49                              u2550 0D0E                              u4310 0FDB  
                            u4231 17C7                              u2711 02F3                              u2631 0268  
                            u3511 0153                              u3431 00C1                              u4151 0B85  
                            u4135 0B75                              u4071 0B12                              u3271 0AD8  
                            u3255 0ABC                              u3095 0881                              u3351 0061  
                            u2295 0998                              u2391 0945                              u2375 0930  
                            u2551 0D0D                              u4311 0FDA                              u2720 02FF  
                            u2640 026E                              u3600 01B7                              u3440 00C8  
                            u4160 0B8A                              u4080 0B33                              u4240 0D81  
                            u3280 0B03                              u3272 0AD9                              u3256 0ABD  
                            u3360 0069                              u2480 169D                              u2560 0D13  
                            u2801 034C                              u2721 02FD                              u2641 026D  
                            u3601 01B6                              u3505 0149                              u3441 00C7  
                            u4161 0B89                              u4081 0B32                              u4241 0D80  
                            u3281 0B02                              u3273 0ADE                              u3361 0068  
                            u3345 0054                              u2481 169C                              u2465 0A24  
                            u2561 0D12                              u2810 035E                              u2802 0353  
                            u2730 0300                              u2650 028B                              u3610 01CB  
                            u3530 0170                              u3450 00CD                              u4170 0B9F  
                            u4250 0D86                              u3274 0ADF                              u3290 0869  
                            u2570 0D18                              u2490 0C87                              u2811 035D  
                            u2803 035A                              u2715 02F0                              u2651 028A  
                            u3611 01CA                              u3531 016F                              u3451 00CC  
                            u4251 0D85                              u3275 0AE4                              u3291 0868  
                            u3195 1740                              u2395 0942                              u2571 0D17  
                            u2491 0C86                              u2900 0404                              u2820 0362  
                            u2740 0310                              u2660 0294                              u3620 01D2  
                            u3540 0187                              u3460 00E8                              u4180 0BAF  
                            u4260 0D8B                              u3276 0AE5                              u3700 04B9  
                            u3380 007A                              u2580 0D3F                              u2901 0403  
                            u2821 0361                              u2741 030F                              u2661 0293  
                            u3621 01D1                              u3541 0186                              u3525 0157  
                            u3461 00E7                              u4181 0BAE                              u4261 0D8A  
                            u3285 0AFF                              u3701 04B8                              u3381 0079  
                            u2581 0D3E                              u2590 1673                              u2830 036F  
                            u2750 031D                              u2670 029A                              u3630 01D8  
                            u3550 018F                              u3470 0104                              u4190 0BB3  
                            u4270 0D96                              u3710 04BE                              u3390 007F  
                            u2591 1672                              u2831 036E                              u2751 031C  
                            u2671 0299                              u3631 01D7                              u3551 018E  
                            u3535 016C                              u3471 0103                              u4191 0BB2  
                            u4175 0B9A                              u4095 0B42                              u4271 0D95  
                            u3711 04BD                              u3391 007E                              u3375 006C  
                            u2920 041A                              u2680 029F                              u3640 01EA  
                            u3480 013E                              u4280 0DA8                              u3720 04DB  
                            u2921 0419                              u2681 029E                              u3641 01E9  
                            u3481 013D                              u4281 0DA7                              u3801 05B1  
                            u3721 04DA                              u2930 041F                              u2850 0392  
                            u2770 0331                              u2690 02B8                              u3650 01F9  
                            u3570 019E                              u4290 0DC7                              u3802 05B8  
                            u3730 04E1                              u2931 041E                              u2915 040F  
                            u2851 0391                              u2771 0330                              u2691 02B7  
                            u3571 019D                              u4291 0DC6                              u4507 0D78  
                            u3803 05BF                              u3731 04E0                              u4427 0EBB  
                            u2940 042A                              u2780 0335                              u3660 0216  
                            u3900 06EA                              u3740 04E6                              u4517 17CD  
                            u2941 0429                              u2861 03A9                              u2853 038E  
                            u2845 0372                              u2781 0334                              u2765 0320  
                            u3661 0215                              u3565 0193                              u3821 05E5  
                            u3741 04E5                              u4437 0ECE                              u2950 0430  
                            u2870 03BD                              u2862 03AA                              u2790 033A  
                            u3670 0233                              u3590 01B2                              u3822 05EC  
                            u3750 04FD                              u4527 17FA                              u2951 042F  
                            u2871 03BE                              u2863 03AF                              u2791 0339  
                            u3671 0232                              u3655 01F4                              u3591 01B1  
                            u3495 0140                              u3911 06F6                              u3831 0610  
                            u3823 05F3                              u3815 05C1                              u3751 04FC  
                            u4447 0EF2                              u2960 0435                              u2880 03DA  
                            u2872 03C3                              u2864 03B0                              u3680 0248  
                            u3912 06FD                              u3832 0617                              u3760 0502  
                            u4537 1693                              u2961 0434                              u2881 03D9  
                            u2873 03C4                              u2865 03B5                              u3681 0247  
                            u3665 0212                              u3585 01A1                              u3913 0704  
                            u3905 06E5                              u3833 061E                              u3761 0501  
                            u4457 0F52                              u2970 043B                              u2890 03FF  
                            u2866 03B6                              u3690 04B3                              u2971 043A  
                            u2891 03FE                              u3675 022F                              u3851 0644  
                            u3771 054F                              u3691 04B2                              u4467 0F62  
                            u2980 0442                              u3940 0728                              u3852 064B  
                            u3772 0556                              u2981 0441                              u3941 0727  
                            u3925 0706                              u3861 066F                              u3853 0652  
                            u3845 0620                              u3781 056B                              u3773 055D  
                            u4477 0F8F                              u2990 0448                              u3862 0676  
                            u3782 0572                              u2991 0447                              u3935 071D  
                            u3871 069A                              u3863 067D                              u3791 0595  
                            u3783 0579                              u4487 0FF6                              u3960 073C  
                            u3880 06C2                              u3872 06A1                              u3792 059C  
                            u4497 0D6D                              u3961 073B                              u3873 06A8  
                            u3793 05A3                              u3970 0741                              u3971 0740  
                            u3955 072B                              u3891 06CE                              u3980 0755  
                            u3892 06D5                              u3981 0754                              u3893 06DC  
                            u3885 06BD                              u3990 075C                              u3991 075B  
                            _TMR0 0001               Lcd_Write_String@str 0076                              abs@a 0076  
               ?_Lcd_Write_String 0076                              _dbuf 0190                              _main 0EA6  
                            _prec 00A7                              btemp 007E                  __end_of_I2C_Stop 167F  
                            start 0000                ??_Lcd_Write_String 0078                  ?_I2C_Init_Master 0070  
                 ___fldiv@new_exp 0038                   __end_of_Lcd_Cmd 08D2                             ??_abs 0078  
                    _dht11_config 167F                     ___fltol@sign1 0064                   __end_of___fladd 04A5  
                           ?_main 0070                   __end_of___fldiv 0255                   __end_of___awdiv 09CB  
                 __end_of___flneg 086C                   __end_of___awmod 0968                   __end_of___flmul 07E7  
                 __end_of___flsub 1733                   __end_of___fltol 008B                             _ANSEL 0188  
                 ___awdiv@divisor 0070                   ___awdiv@counter 0074                      vfpfcnvrt@fmt 0022  
                    main@intentos 00CD                             _flags 00A9                             _fputc 09CB  
                           btemp0 007E                             btemp1 007F                             _width 00A5  
                           _putch 0860                 __end_of_I2C_Start 1675                 __end_of_I2C_Write 0015  
                           pclath 000A                             status 0003                             wtemp0 007E  
                 __end_of_sprintf 170F                  __end_of_Lcd_Init 1800                   __initialization 07E7  
                    __end_of_main 1000                            ??_main 00CA                            ?_fputc 0070  
                ___awdiv@dividend 0072                            ?_putch 0070                            _ANSELH 0189  
                       ??_Lcd_Cmd 0072                     vfpfcnvrt@done 0026                            _SSPADD 0093  
                          _SSPCON 0014                            _SSPBUF 0013                  __end_of___xxtofl 0BBD  
                    vfprintf@cfmt 007D                            ___flge 0A65                         ??___fladd 0048  
                          ___wmul 1733                         ??___fldiv 002E                         ??___awdiv 0074  
                       ??___flneg 0074                         ??___awmod 0074                         ??___flmul 0079  
                       ??___flsub 007E                         ??___fltol 0060                    dht11_read@phum 0054  
                ___awdiv@quotient 0076   float_to_string_opt@parte_entera 006D                   ___awmod@divisor 0070  
                 ___awmod@counter 0074                            fputc@c 0070                            ltemp0a 0080  
                       ?_I2C_Stop 0070                            putch@c 0070                            ttemp0a 007F  
                __end_of_vfprintf 177D                         ??_sprintf 0037                            wtemp0a 007F  
                      ___flge@ff1 0070                        ___flge@ff2 0074                      ___xxtofl@arg 0022  
                    ___xxtofl@exp 0021                      ___xxtofl@val 0076           __end_of__initialization 07FC  
                      ___flneg@f1 0070                 __end_of_Lcd_Clear 1699                        ___fltol@f1 005C  
                  __pcstackCOMMON 0070                        _dht11_byte 00A0                        _dht11_read 0D61  
                   __end_of_fputc 0A65                     __end_of_putch 0861                    _Lcd_Set_Cursor 177D  
                  _OPTION_REGbits 0081                        ??_I2C_Stop 0070                         ?_Lcd_Init 0070  
                         ??_fputc 0074                           ??_putch 0070                        __pbssBANK0 006F  
                      __pbssBANK1 00A0                        __pbssBANK3 0190                 __end_of__Umul8_16 0893  
                      __pmaintext 0EA6                           ?___flge 0070                           ?___wmul 0070  
          __end_of_Lcd_Set_Cursor 17A3                dht11_read@checksum 005E                         ?___xxtofl 0076  
                      _buffer_hum 00AA                        _buffer_tem 00BA                        ??_Lcd_Init 0076  
                         _SSPCON2 0091                           _SSPSTAT 0094                        __stringtab 0800  
       float_to_string_opt@buffer 006A                    _Lcd_Write_Char 08D2                           _Lcd_Cmd 0893  
                       _I2C_Start 166B                         _I2C_Write 0003                     Lcd_Cmd@data_l 0075  
                   Lcd_Cmd@data_u 0074                       ?_dht11_read 0054                           ___fladd 0255  
                         ___fldiv 008B                           ___awdiv 0968                           ___flneg 0861  
                         ___awmod 0911                           ___flmul 04A5                           ___flsub 170F  
                         ___fltol 0015                         ?_vfprintf 002D                   ?_Lcd_Set_Cursor 0076  
                         __ptext1 0BBD                           __ptext2 16EC                           __ptext3 1758  
                         __ptext4 0C77                           __ptext5 09CB                           __ptext6 0860  
                         __ptext7 1699                           __ptext8 0911                           __ptext9 0968  
                 dht11_read@ptemp 0055                        ??___xxtofl 007A                  ___awmod@dividend 0072  
               ??_dht11_read_byte 0070                           _sprintf 16EC                           main@hum 00D2  
                         clrloop0 1664                           main@tem 00CE            __end_of_Lcd_Write_Char 0911  
            end_of_initialization 07FC                           fputc@fp 0072                        ?_I2C_Start 0070  
                      ?_I2C_Write 0070                 __end_of_vfpfcnvrt 0D61                  vfpfcnvrt@convarg 0028  
                      ??_vfprintf 007D                         _PORTAbits 0005                       ___fladd@grs 0053  
                   ___xxtofl@sign 0020                         _TRISAbits 0085                         _TRISCbits 0087  
                     ___fldiv@grs 003A                       ___fldiv@rem 0033                   ?_Lcd_Write_Char 0070  
                     ___flmul@grs 0029                         _Lcd_Clear 1689                    __end_of___flge 0B07  
                     vfpfcnvrt@ap 0023                       vfpfcnvrt@cp 0027                       vfpfcnvrt@fp 0020  
                  __end_of___wmul 1758                  _Lcd_Write_String 17A3             Lcd_Set_Cursor@address 0078  
             start_initialization 07E7                 ??_I2C_Init_Master 0070                       __end_of_abs 16AA  
           I2C_Init_Master@sp_i2c 0070                       ??_I2C_Start 0070                       ??_I2C_Write 0070  
                     vfprintf@fmt 002F                        ?_Lcd_Clear 0070                          ??___flge 0078  
             _float_to_string_opt 0BBD                          ??___wmul 0074                         __Umul8_16 086C  
                   ?_dht11_config 0070                   Lcd_Write_Char@c 0073                         ___fladd@a 0044  
                       ___fladd@b 0040                         ___fldiv@a 0026                         ___fldiv@b 002A  
                       ___flmul@a 0024                         ___flmul@b 0020              Lcd_Write_Char@data_l 0075  
            Lcd_Write_Char@data_u 0074                         ___flsub@a 0054                         ___flsub@b 0058  
                       ___latbits 0002                     __pcstackBANK0 0020                     __pcstackBANK1 00CA  
                       _dht11_aux 006F              ?_float_to_string_opt 0066                          ?_Lcd_Cmd 0070  
                     dht11_read@i 005F          dht11_read_byte@timer_val 0070                  ??_Lcd_Set_Cursor 0077  
                    ??_dht11_read 0056                          ?___fladd 0040                          ?___fldiv 0026  
                        ?___awdiv 0070                          ?___flneg 0070                          ?___awmod 0070  
                        ?___flmul 0020                          ?___flsub 0054                          ?___fltol 005C  
                      ?__Umul8_16 0070                    ??_dht11_config 0070                   _dht11_read_byte 16C9  
                       __pstrings 0800                          _I2C_Stop 1675             ??_float_to_string_opt 007E  
                        ?_sprintf 0031                __end_of_dht11_read 0EA6                    ___wmul@product 0074  
                       clear_ram0 1663                          _PIR1bits 000C                       ??_Lcd_Clear 0076  
                       _vfpfcnvrt 0C77                       __stringbase 080F                 ___wmul@multiplier 0070  
                ??_Lcd_Write_Char 0072                          _Lcd_Init 17C9                        vfpfcnvrt@c 002C  
        __end_of_Lcd_Write_String 17C9           __end_of_dht11_read_byte 16EC                        vfprintf@ap 0030  
                      vfprintf@fp 002D                   _I2C_Init_Master 16AA                     I2C_Write@data 0071  
                     ??__Umul8_16 0072                        ?_vfpfcnvrt 0020                __end_of__stringtab 0810  
                      sprintf@fmt 0032                          ___xxtofl 0B07                          __ptext10 1733  
                        __ptext11 0015                          __ptext20 008B                          __ptext12 170F  
                        __ptext21 0255                          __ptext13 0861                          __ptext30 1675  
                        __ptext22 167F                          __ptext14 04A5                          __ptext31 166B  
                        __ptext23 17A3                          __ptext15 086C                          __ptext32 16AA  
                        __ptext24 08D2                          __ptext16 0A65                          __ptext25 177D  
                        __ptext17 0D61                          __ptext26 17C9                          __ptext18 16C9  
                        __ptext27 1689                          __ptext19 0B07                          __ptext28 0893  
                        __ptext29 0003              __end_of_dht11_config 1689                  dht11_read_byte@i 0071  
                        _vfprintf 1758          float_to_string_opt@value 0066                         sprintf@ap 0038  
         __end_of_I2C_Init_Master 16C9                        Lcd_Cmd@cmd 0073                         stringcode 080A  
                ?_dht11_read_byte 0070                       ??_vfpfcnvrt 0024            __Umul8_16@multiplicand 0070  
                        sprintf@f 0039                          sprintf@s 0031                          stringdir 080A  
                        stringtab 0800                       _SSPCON2bits 0091                 Lcd_Set_Cursor@col 0077  
               Lcd_Set_Cursor@row 0076                     ___fladd@signs 0050                      ___fladd@aexp 0051  
                    ___fladd@bexp 0052              __Umul8_16@multiplier 0078                 __Umul8_16@product 0074  
