

Microchip MPLAB XC8 Assembler V3.10 build 20250813170317 
                                                                                               Wed Nov  5 08:31:27 2025

Microchip MPLAB XC8 C Compiler v3.10 (Free license) build 20250813170317 Og1 
     1                           	processor	16F887
     2                           	pagewidth 120
     3                           	opt	flic
     4                           	psect	strings,global,class=STRING,space=0,delta=2,noexec
     5                           	psect	cinit,global,class=CODE,space=0,merge=1,delta=2
     6                           	psect	bssBANK1,global,class=BANK1,space=1,delta=1,noexec
     7                           	psect	bssBANK3,global,class=BANK3,space=1,delta=1,noexec
     8                           	psect	clrtext,global,class=CODE,space=0,delta=2
     9                           	psect	cstackBANK1,global,class=BANK1,space=1,delta=1,noexec
    10                           	psect	cstackCOMMON,global,class=COMMON,space=1,delta=1,noexec
    11                           	psect	cstackBANK0,global,class=BANK0,space=1,delta=1,noexec
    12                           	psect	maintext,global,class=CODE,space=0,split=1,delta=2
    13                           	psect	text1,local,class=CODE,space=0,merge=1,delta=2,group=3
    14                           	psect	text2,local,class=CODE,space=0,merge=1,delta=2,group=1
    15                           	psect	text3,local,class=CODE,space=0,merge=1,delta=2,group=1
    16                           	psect	text4,local,class=CODE,space=0,merge=1,delta=2,group=1
    17                           	psect	text5,local,class=CODE,space=0,merge=1,delta=2,group=2
    18                           	psect	text6,local,class=CODE,space=0,merge=1,delta=2,group=1
    19                           	psect	text7,local,class=CODE,space=0,merge=1,delta=2,group=1
    20                           	psect	text8,local,class=CODE,space=0,merge=1,delta=2,group=3
    21                           	psect	text9,local,class=CODE,space=0,merge=1,delta=2,group=3
    22                           	psect	text10,local,class=CODE,space=0,merge=1,delta=2,group=3
    23                           	psect	text11,local,class=CODE,space=0,merge=1,delta=2,group=3
    24                           	psect	text12,local,class=CODE,space=0,merge=1,delta=2
    25                           	psect	text13,local,class=CODE,space=0,merge=1,delta=2
    26                           	psect	text14,local,class=CODE,space=0,merge=1,delta=2
    27                           	psect	text15,local,class=CODE,space=0,merge=1,delta=2,group=2
    28                           	psect	text16,local,class=CODE,space=0,merge=1,delta=2,group=2
    29                           	psect	text17,local,class=CODE,space=0,merge=1,delta=2
    30                           	psect	text18,local,class=CODE,space=0,merge=1,delta=2
    31                           	psect	text19,local,class=CODE,space=0,merge=1,delta=2
    32                           	psect	text20,local,class=CODE,space=0,merge=1,delta=2
    33                           	psect	text21,local,class=CODE,space=0,merge=1,delta=2,group=2
    34                           	psect	text22,local,class=CODE,space=0,merge=1,delta=2
    35                           	psect	text23,local,class=CODE,space=0,merge=1,delta=2
    36                           	psect	text24,local,class=CODE,space=0,merge=1,delta=2
    37                           	psect	text25,local,class=CODE,space=0,merge=1,delta=2
    38                           	psect	text26,local,class=CODE,space=0,merge=1,delta=2
    39                           	psect	text27,local,class=CODE,space=0,merge=1,delta=2,group=2
    40                           	psect	text28,local,class=CODE,space=0,merge=1,delta=2,group=2
    41                           	psect	text29,local,class=CODE,space=0,merge=1,delta=2
    42                           	psect	text30,local,class=CODE,space=0,merge=1,delta=2,group=2
    43                           	psect	text31,local,class=CODE,space=0,merge=1,delta=2,group=2
    44                           	psect	text32,local,class=CODE,space=0,merge=1,delta=2,group=2
    45                           	psect	text33,local,class=CODE,space=0,merge=1,delta=2,group=2
    46                           	psect	text34,local,class=CODE,space=0,merge=1,delta=2,group=2
    47                           	psect	text35,local,class=CODE,space=0,merge=1,delta=2
    48                           	psect	text36,local,class=CODE,space=0,merge=1,delta=2
    49                           	psect	text37,local,class=CODE,space=0,merge=1,delta=2
    50                           	psect	text38,local,class=CODE,space=0,merge=1,delta=2
    51                           	psect	text39,local,class=CODE,space=0,merge=1,delta=2
    52                           	psect	text40,local,class=CODE,space=0,merge=1,delta=2
    53                           	psect	text41,local,class=CODE,space=0,merge=1,delta=2
    54                           	psect	text42,local,class=CODE,space=0,merge=1,delta=2
    55                           	psect	text43,local,class=CODE,space=0,merge=1,delta=2
    56                           	psect	text44,local,class=CODE,space=0,merge=1,delta=2
    57                           	psect	config,global,abs,ovrld,class=CONFIG,space=4,delta=2,noexec
    58                           	dabs	1,0x7E,2
    59     0000                     
    60                           ; Generated 12/10/2023 GMT
    61                           ; 
    62                           ; Copyright © 2023, Microchip Technology Inc. and its subsidiaries ("Microchip")
    63                           ; All rights reserved.
    64                           ; 
    65                           ; This software is developed by Microchip Technology Inc. and its subsidiaries ("Microch
      +                          ip").
    66                           ; 
    67                           ; Redistribution and use in source and binary forms, with or without modification, are
    68                           ; permitted provided that the following conditions are met:
    69                           ; 
    70                           ;     1. Redistributions of source code must retain the above copyright notice, this lis
      +                          t of
    71                           ;        conditions and the following disclaimer.
    72                           ; 
    73                           ;     2. Redistributions in binary form must reproduce the above copyright notice, this 
      +                          list
    74                           ;        of conditions and the following disclaimer in the documentation and/or other
    75                           ;        materials provided with the distribution. Publication is not required when
    76                           ;        this file is used in an embedded application.
    77                           ; 
    78                           ;     3. Microchip's name may not be used to endorse or promote products derived from th
      +                          is
    79                           ;        software without specific prior written permission.
    80                           ; 
    81                           ; THIS SOFTWARE IS PROVIDED BY MICROCHIP "AS IS" AND ANY EXPRESS OR IMPLIED WARRANTIES,
    82                           ; INCLUDING, BUT NOT LIMITED TO, THE IMPLIED WARRANTIES OF MERCHANTABILITY AND FITNESS F
      +                          OR
    83                           ; PURPOSE ARE DISCLAIMED.  IN NO EVENT SHALL MICROCHIP BE LIABLE FOR ANY DIRECT, INDIREC
      +                          T,
    84                           ; INCIDENTAL, SPECIAL, EXEMPLARY, OR CONSEQUENTIAL DAMAGES (INCLUDING BUT NOT LIMITED TO
    85                           ; PROCUREMENT OF SUBSTITUTE GOODS OR SERVICES; LOSS OF USE, DATA OR PROFITS; OR BUSINESS
    86                           ; INTERRUPTION) HOWSOEVER CAUSED AND ON ANY THEORY OF LIABILITY, WHETHER IN CONTRACT, ST
      +                          RICT
    87                           ; LIABILITY, OR TORT (INCLUDING NEGLIGENCE OR OTHERWISE) ARISING IN ANY WAY OUT OF THE U
      +                          SE OF
    88                           ; THIS SOFTWARE, EVEN IF ADVISED OF THE POSSIBILITY OF SUCH DAMAGE.
    89                           ; 
    90                           ; 
    91                           ; Code-generator required, PIC16F887 Definitions
    92                           ; 
    93                           ; SFR Addresses
    94     0004                     fsr             equ	4
    95     0004                     fsr0            equ	4
    96     0000                     indf            equ	0
    97     0000                     indf0           equ	0
    98     0002                     pc              equ	2
    99     0002                     pcl             equ	2
   100     000A                     pclath          equ	10
   101     0003                     status          equ	3
   102     0000                     INDF            equ	0	;# 
   103     0001                     TMR0            equ	1	;# 
   104     0002                     PCL             equ	2	;# 
   105     0003                     STATUS          equ	3	;# 
   106     0004                     FSR             equ	4	;# 
   107     0005                     PORTA           equ	5	;# 
   108     0006                     PORTB           equ	6	;# 
   109     0007                     PORTC           equ	7	;# 
   110     0008                     PORTD           equ	8	;# 
   111     0009                     PORTE           equ	9	;# 
   112     000A                     PCLATH          equ	10	;# 
   113     000B                     INTCON          equ	11	;# 
   114     000C                     PIR1            equ	12	;# 
   115     000D                     PIR2            equ	13	;# 
   116     000E                     TMR1            equ	14	;# 
   117     000E                     TMR1L           equ	14	;# 
   118     000F                     TMR1H           equ	15	;# 
   119     0010                     T1CON           equ	16	;# 
   120     0011                     TMR2            equ	17	;# 
   121     0012                     T2CON           equ	18	;# 
   122     0013                     SSPBUF          equ	19	;# 
   123     0014                     SSPCON          equ	20	;# 
   124     0015                     CCPR1           equ	21	;# 
   125     0015                     CCPR1L          equ	21	;# 
   126     0016                     CCPR1H          equ	22	;# 
   127     0017                     CCP1CON         equ	23	;# 
   128     0018                     RCSTA           equ	24	;# 
   129     0019                     TXREG           equ	25	;# 
   130     001A                     RCREG           equ	26	;# 
   131     001B                     CCPR2           equ	27	;# 
   132     001B                     CCPR2L          equ	27	;# 
   133     001C                     CCPR2H          equ	28	;# 
   134     001D                     CCP2CON         equ	29	;# 
   135     001E                     ADRESH          equ	30	;# 
   136     001F                     ADCON0          equ	31	;# 
   137     0081                     OPTION_REG      equ	129	;# 
   138     0085                     TRISA           equ	133	;# 
   139     0086                     TRISB           equ	134	;# 
   140     0087                     TRISC           equ	135	;# 
   141     0088                     TRISD           equ	136	;# 
   142     0089                     TRISE           equ	137	;# 
   143     008C                     PIE1            equ	140	;# 
   144     008D                     PIE2            equ	141	;# 
   145     008E                     PCON            equ	142	;# 
   146     008F                     OSCCON          equ	143	;# 
   147     0090                     OSCTUNE         equ	144	;# 
   148     0091                     SSPCON2         equ	145	;# 
   149     0092                     PR2             equ	146	;# 
   150     0093                     SSPADD          equ	147	;# 
   151     0093                     SSPMSK          equ	147	;# 
   152     0093                     MSK             equ	147	;# 
   153     0094                     SSPSTAT         equ	148	;# 
   154     0095                     WPUB            equ	149	;# 
   155     0096                     IOCB            equ	150	;# 
   156     0097                     VRCON           equ	151	;# 
   157     0098                     TXSTA           equ	152	;# 
   158     0099                     SPBRG           equ	153	;# 
   159     009A                     SPBRGH          equ	154	;# 
   160     009B                     PWM1CON         equ	155	;# 
   161     009C                     ECCPAS          equ	156	;# 
   162     009D                     PSTRCON         equ	157	;# 
   163     009E                     ADRESL          equ	158	;# 
   164     009F                     ADCON1          equ	159	;# 
   165     0105                     WDTCON          equ	261	;# 
   166     0107                     CM1CON0         equ	263	;# 
   167     0108                     CM2CON0         equ	264	;# 
   168     0109                     CM2CON1         equ	265	;# 
   169     010C                     EEDATA          equ	268	;# 
   170     010C                     EEDAT           equ	268	;# 
   171     010D                     EEADR           equ	269	;# 
   172     010E                     EEDATH          equ	270	;# 
   173     010F                     EEADRH          equ	271	;# 
   174     0185                     SRCON           equ	389	;# 
   175     0187                     BAUDCTL         equ	391	;# 
   176     0188                     ANSEL           equ	392	;# 
   177     0189                     ANSELH          equ	393	;# 
   178     018C                     EECON1          equ	396	;# 
   179     018D                     EECON2          equ	397	;# 
   180     0000                     INDF            equ	0	;# 
   181     0001                     TMR0            equ	1	;# 
   182     0002                     PCL             equ	2	;# 
   183     0003                     STATUS          equ	3	;# 
   184     0004                     FSR             equ	4	;# 
   185     0005                     PORTA           equ	5	;# 
   186     0006                     PORTB           equ	6	;# 
   187     0007                     PORTC           equ	7	;# 
   188     0008                     PORTD           equ	8	;# 
   189     0009                     PORTE           equ	9	;# 
   190     000A                     PCLATH          equ	10	;# 
   191     000B                     INTCON          equ	11	;# 
   192     000C                     PIR1            equ	12	;# 
   193     000D                     PIR2            equ	13	;# 
   194     000E                     TMR1            equ	14	;# 
   195     000E                     TMR1L           equ	14	;# 
   196     000F                     TMR1H           equ	15	;# 
   197     0010                     T1CON           equ	16	;# 
   198     0011                     TMR2            equ	17	;# 
   199     0012                     T2CON           equ	18	;# 
   200     0013                     SSPBUF          equ	19	;# 
   201     0014                     SSPCON          equ	20	;# 
   202     0015                     CCPR1           equ	21	;# 
   203     0015                     CCPR1L          equ	21	;# 
   204     0016                     CCPR1H          equ	22	;# 
   205     0017                     CCP1CON         equ	23	;# 
   206     0018                     RCSTA           equ	24	;# 
   207     0019                     TXREG           equ	25	;# 
   208     001A                     RCREG           equ	26	;# 
   209     001B                     CCPR2           equ	27	;# 
   210     001B                     CCPR2L          equ	27	;# 
   211     001C                     CCPR2H          equ	28	;# 
   212     001D                     CCP2CON         equ	29	;# 
   213     001E                     ADRESH          equ	30	;# 
   214     001F                     ADCON0          equ	31	;# 
   215     0081                     OPTION_REG      equ	129	;# 
   216     0085                     TRISA           equ	133	;# 
   217     0086                     TRISB           equ	134	;# 
   218     0087                     TRISC           equ	135	;# 
   219     0088                     TRISD           equ	136	;# 
   220     0089                     TRISE           equ	137	;# 
   221     008C                     PIE1            equ	140	;# 
   222     008D                     PIE2            equ	141	;# 
   223     008E                     PCON            equ	142	;# 
   224     008F                     OSCCON          equ	143	;# 
   225     0090                     OSCTUNE         equ	144	;# 
   226     0091                     SSPCON2         equ	145	;# 
   227     0092                     PR2             equ	146	;# 
   228     0093                     SSPADD          equ	147	;# 
   229     0093                     SSPMSK          equ	147	;# 
   230     0093                     MSK             equ	147	;# 
   231     0094                     SSPSTAT         equ	148	;# 
   232     0095                     WPUB            equ	149	;# 
   233     0096                     IOCB            equ	150	;# 
   234     0097                     VRCON           equ	151	;# 
   235     0098                     TXSTA           equ	152	;# 
   236     0099                     SPBRG           equ	153	;# 
   237     009A                     SPBRGH          equ	154	;# 
   238     009B                     PWM1CON         equ	155	;# 
   239     009C                     ECCPAS          equ	156	;# 
   240     009D                     PSTRCON         equ	157	;# 
   241     009E                     ADRESL          equ	158	;# 
   242     009F                     ADCON1          equ	159	;# 
   243     0105                     WDTCON          equ	261	;# 
   244     0107                     CM1CON0         equ	263	;# 
   245     0108                     CM2CON0         equ	264	;# 
   246     0109                     CM2CON1         equ	265	;# 
   247     010C                     EEDATA          equ	268	;# 
   248     010C                     EEDAT           equ	268	;# 
   249     010D                     EEADR           equ	269	;# 
   250     010E                     EEDATH          equ	270	;# 
   251     010F                     EEADRH          equ	271	;# 
   252     0185                     SRCON           equ	389	;# 
   253     0187                     BAUDCTL         equ	391	;# 
   254     0188                     ANSEL           equ	392	;# 
   255     0189                     ANSELH          equ	393	;# 
   256     018C                     EECON1          equ	396	;# 
   257     018D                     EECON2          equ	397	;# 
   258     0000                     INDF            equ	0	;# 
   259     0001                     TMR0            equ	1	;# 
   260     0002                     PCL             equ	2	;# 
   261     0003                     STATUS          equ	3	;# 
   262     0004                     FSR             equ	4	;# 
   263     0005                     PORTA           equ	5	;# 
   264     0006                     PORTB           equ	6	;# 
   265     0007                     PORTC           equ	7	;# 
   266     0008                     PORTD           equ	8	;# 
   267     0009                     PORTE           equ	9	;# 
   268     000A                     PCLATH          equ	10	;# 
   269     000B                     INTCON          equ	11	;# 
   270     000C                     PIR1            equ	12	;# 
   271     000D                     PIR2            equ	13	;# 
   272     000E                     TMR1            equ	14	;# 
   273     000E                     TMR1L           equ	14	;# 
   274     000F                     TMR1H           equ	15	;# 
   275     0010                     T1CON           equ	16	;# 
   276     0011                     TMR2            equ	17	;# 
   277     0012                     T2CON           equ	18	;# 
   278     0013                     SSPBUF          equ	19	;# 
   279     0014                     SSPCON          equ	20	;# 
   280     0015                     CCPR1           equ	21	;# 
   281     0015                     CCPR1L          equ	21	;# 
   282     0016                     CCPR1H          equ	22	;# 
   283     0017                     CCP1CON         equ	23	;# 
   284     0018                     RCSTA           equ	24	;# 
   285     0019                     TXREG           equ	25	;# 
   286     001A                     RCREG           equ	26	;# 
   287     001B                     CCPR2           equ	27	;# 
   288     001B                     CCPR2L          equ	27	;# 
   289     001C                     CCPR2H          equ	28	;# 
   290     001D                     CCP2CON         equ	29	;# 
   291     001E                     ADRESH          equ	30	;# 
   292     001F                     ADCON0          equ	31	;# 
   293     0081                     OPTION_REG      equ	129	;# 
   294     0085                     TRISA           equ	133	;# 
   295     0086                     TRISB           equ	134	;# 
   296     0087                     TRISC           equ	135	;# 
   297     0088                     TRISD           equ	136	;# 
   298     0089                     TRISE           equ	137	;# 
   299     008C                     PIE1            equ	140	;# 
   300     008D                     PIE2            equ	141	;# 
   301     008E                     PCON            equ	142	;# 
   302     008F                     OSCCON          equ	143	;# 
   303     0090                     OSCTUNE         equ	144	;# 
   304     0091                     SSPCON2         equ	145	;# 
   305     0092                     PR2             equ	146	;# 
   306     0093                     SSPADD          equ	147	;# 
   307     0093                     SSPMSK          equ	147	;# 
   308     0093                     MSK             equ	147	;# 
   309     0094                     SSPSTAT         equ	148	;# 
   310     0095                     WPUB            equ	149	;# 
   311     0096                     IOCB            equ	150	;# 
   312     0097                     VRCON           equ	151	;# 
   313     0098                     TXSTA           equ	152	;# 
   314     0099                     SPBRG           equ	153	;# 
   315     009A                     SPBRGH          equ	154	;# 
   316     009B                     PWM1CON         equ	155	;# 
   317     009C                     ECCPAS          equ	156	;# 
   318     009D                     PSTRCON         equ	157	;# 
   319     009E                     ADRESL          equ	158	;# 
   320     009F                     ADCON1          equ	159	;# 
   321     0105                     WDTCON          equ	261	;# 
   322     0107                     CM1CON0         equ	263	;# 
   323     0108                     CM2CON0         equ	264	;# 
   324     0109                     CM2CON1         equ	265	;# 
   325     010C                     EEDATA          equ	268	;# 
   326     010C                     EEDAT           equ	268	;# 
   327     010D                     EEADR           equ	269	;# 
   328     010E                     EEDATH          equ	270	;# 
   329     010F                     EEADRH          equ	271	;# 
   330     0185                     SRCON           equ	389	;# 
   331     0187                     BAUDCTL         equ	391	;# 
   332     0188                     ANSEL           equ	392	;# 
   333     0189                     ANSELH          equ	393	;# 
   334     018C                     EECON1          equ	396	;# 
   335     018D                     EECON2          equ	397	;# 
   336     0000                     INDF            equ	0	;# 
   337     0001                     TMR0            equ	1	;# 
   338     0002                     PCL             equ	2	;# 
   339     0003                     STATUS          equ	3	;# 
   340     0004                     FSR             equ	4	;# 
   341     0005                     PORTA           equ	5	;# 
   342     0006                     PORTB           equ	6	;# 
   343     0007                     PORTC           equ	7	;# 
   344     0008                     PORTD           equ	8	;# 
   345     0009                     PORTE           equ	9	;# 
   346     000A                     PCLATH          equ	10	;# 
   347     000B                     INTCON          equ	11	;# 
   348     000C                     PIR1            equ	12	;# 
   349     000D                     PIR2            equ	13	;# 
   350     000E                     TMR1            equ	14	;# 
   351     000E                     TMR1L           equ	14	;# 
   352     000F                     TMR1H           equ	15	;# 
   353     0010                     T1CON           equ	16	;# 
   354     0011                     TMR2            equ	17	;# 
   355     0012                     T2CON           equ	18	;# 
   356     0013                     SSPBUF          equ	19	;# 
   357     0014                     SSPCON          equ	20	;# 
   358     0015                     CCPR1           equ	21	;# 
   359     0015                     CCPR1L          equ	21	;# 
   360     0016                     CCPR1H          equ	22	;# 
   361     0017                     CCP1CON         equ	23	;# 
   362     0018                     RCSTA           equ	24	;# 
   363     0019                     TXREG           equ	25	;# 
   364     001A                     RCREG           equ	26	;# 
   365     001B                     CCPR2           equ	27	;# 
   366     001B                     CCPR2L          equ	27	;# 
   367     001C                     CCPR2H          equ	28	;# 
   368     001D                     CCP2CON         equ	29	;# 
   369     001E                     ADRESH          equ	30	;# 
   370     001F                     ADCON0          equ	31	;# 
   371     0081                     OPTION_REG      equ	129	;# 
   372     0085                     TRISA           equ	133	;# 
   373     0086                     TRISB           equ	134	;# 
   374     0087                     TRISC           equ	135	;# 
   375     0088                     TRISD           equ	136	;# 
   376     0089                     TRISE           equ	137	;# 
   377     008C                     PIE1            equ	140	;# 
   378     008D                     PIE2            equ	141	;# 
   379     008E                     PCON            equ	142	;# 
   380     008F                     OSCCON          equ	143	;# 
   381     0090                     OSCTUNE         equ	144	;# 
   382     0091                     SSPCON2         equ	145	;# 
   383     0092                     PR2             equ	146	;# 
   384     0093                     SSPADD          equ	147	;# 
   385     0093                     SSPMSK          equ	147	;# 
   386     0093                     MSK             equ	147	;# 
   387     0094                     SSPSTAT         equ	148	;# 
   388     0095                     WPUB            equ	149	;# 
   389     0096                     IOCB            equ	150	;# 
   390     0097                     VRCON           equ	151	;# 
   391     0098                     TXSTA           equ	152	;# 
   392     0099                     SPBRG           equ	153	;# 
   393     009A                     SPBRGH          equ	154	;# 
   394     009B                     PWM1CON         equ	155	;# 
   395     009C                     ECCPAS          equ	156	;# 
   396     009D                     PSTRCON         equ	157	;# 
   397     009E                     ADRESL          equ	158	;# 
   398     009F                     ADCON1          equ	159	;# 
   399     0105                     WDTCON          equ	261	;# 
   400     0107                     CM1CON0         equ	263	;# 
   401     0108                     CM2CON0         equ	264	;# 
   402     0109                     CM2CON1         equ	265	;# 
   403     010C                     EEDATA          equ	268	;# 
   404     010C                     EEDAT           equ	268	;# 
   405     010D                     EEADR           equ	269	;# 
   406     010E                     EEDATH          equ	270	;# 
   407     010F                     EEADRH          equ	271	;# 
   408     0185                     SRCON           equ	389	;# 
   409     0187                     BAUDCTL         equ	391	;# 
   410     0188                     ANSEL           equ	392	;# 
   411     0189                     ANSELH          equ	393	;# 
   412     018C                     EECON1          equ	396	;# 
   413     018D                     EECON2          equ	397	;# 
   414     0000                     INDF            equ	0	;# 
   415     0001                     TMR0            equ	1	;# 
   416     0002                     PCL             equ	2	;# 
   417     0003                     STATUS          equ	3	;# 
   418     0004                     FSR             equ	4	;# 
   419     0005                     PORTA           equ	5	;# 
   420     0006                     PORTB           equ	6	;# 
   421     0007                     PORTC           equ	7	;# 
   422     0008                     PORTD           equ	8	;# 
   423     0009                     PORTE           equ	9	;# 
   424     000A                     PCLATH          equ	10	;# 
   425     000B                     INTCON          equ	11	;# 
   426     000C                     PIR1            equ	12	;# 
   427     000D                     PIR2            equ	13	;# 
   428     000E                     TMR1            equ	14	;# 
   429     000E                     TMR1L           equ	14	;# 
   430     000F                     TMR1H           equ	15	;# 
   431     0010                     T1CON           equ	16	;# 
   432     0011                     TMR2            equ	17	;# 
   433     0012                     T2CON           equ	18	;# 
   434     0013                     SSPBUF          equ	19	;# 
   435     0014                     SSPCON          equ	20	;# 
   436     0015                     CCPR1           equ	21	;# 
   437     0015                     CCPR1L          equ	21	;# 
   438     0016                     CCPR1H          equ	22	;# 
   439     0017                     CCP1CON         equ	23	;# 
   440     0018                     RCSTA           equ	24	;# 
   441     0019                     TXREG           equ	25	;# 
   442     001A                     RCREG           equ	26	;# 
   443     001B                     CCPR2           equ	27	;# 
   444     001B                     CCPR2L          equ	27	;# 
   445     001C                     CCPR2H          equ	28	;# 
   446     001D                     CCP2CON         equ	29	;# 
   447     001E                     ADRESH          equ	30	;# 
   448     001F                     ADCON0          equ	31	;# 
   449     0081                     OPTION_REG      equ	129	;# 
   450     0085                     TRISA           equ	133	;# 
   451     0086                     TRISB           equ	134	;# 
   452     0087                     TRISC           equ	135	;# 
   453     0088                     TRISD           equ	136	;# 
   454     0089                     TRISE           equ	137	;# 
   455     008C                     PIE1            equ	140	;# 
   456     008D                     PIE2            equ	141	;# 
   457     008E                     PCON            equ	142	;# 
   458     008F                     OSCCON          equ	143	;# 
   459     0090                     OSCTUNE         equ	144	;# 
   460     0091                     SSPCON2         equ	145	;# 
   461     0092                     PR2             equ	146	;# 
   462     0093                     SSPADD          equ	147	;# 
   463     0093                     SSPMSK          equ	147	;# 
   464     0093                     MSK             equ	147	;# 
   465     0094                     SSPSTAT         equ	148	;# 
   466     0095                     WPUB            equ	149	;# 
   467     0096                     IOCB            equ	150	;# 
   468     0097                     VRCON           equ	151	;# 
   469     0098                     TXSTA           equ	152	;# 
   470     0099                     SPBRG           equ	153	;# 
   471     009A                     SPBRGH          equ	154	;# 
   472     009B                     PWM1CON         equ	155	;# 
   473     009C                     ECCPAS          equ	156	;# 
   474     009D                     PSTRCON         equ	157	;# 
   475     009E                     ADRESL          equ	158	;# 
   476     009F                     ADCON1          equ	159	;# 
   477     0105                     WDTCON          equ	261	;# 
   478     0107                     CM1CON0         equ	263	;# 
   479     0108                     CM2CON0         equ	264	;# 
   480     0109                     CM2CON1         equ	265	;# 
   481     010C                     EEDATA          equ	268	;# 
   482     010C                     EEDAT           equ	268	;# 
   483     010D                     EEADR           equ	269	;# 
   484     010E                     EEDATH          equ	270	;# 
   485     010F                     EEADRH          equ	271	;# 
   486     0185                     SRCON           equ	389	;# 
   487     0187                     BAUDCTL         equ	391	;# 
   488     0188                     ANSEL           equ	392	;# 
   489     0189                     ANSELH          equ	393	;# 
   490     018C                     EECON1          equ	396	;# 
   491     018D                     EECON2          equ	397	;# 
   492     0000                     INDF            equ	0	;# 
   493     0001                     TMR0            equ	1	;# 
   494     0002                     PCL             equ	2	;# 
   495     0003                     STATUS          equ	3	;# 
   496     0004                     FSR             equ	4	;# 
   497     0005                     PORTA           equ	5	;# 
   498     0006                     PORTB           equ	6	;# 
   499     0007                     PORTC           equ	7	;# 
   500     0008                     PORTD           equ	8	;# 
   501     0009                     PORTE           equ	9	;# 
   502     000A                     PCLATH          equ	10	;# 
   503     000B                     INTCON          equ	11	;# 
   504     000C                     PIR1            equ	12	;# 
   505     000D                     PIR2            equ	13	;# 
   506     000E                     TMR1            equ	14	;# 
   507     000E                     TMR1L           equ	14	;# 
   508     000F                     TMR1H           equ	15	;# 
   509     0010                     T1CON           equ	16	;# 
   510     0011                     TMR2            equ	17	;# 
   511     0012                     T2CON           equ	18	;# 
   512     0013                     SSPBUF          equ	19	;# 
   513     0014                     SSPCON          equ	20	;# 
   514     0015                     CCPR1           equ	21	;# 
   515     0015                     CCPR1L          equ	21	;# 
   516     0016                     CCPR1H          equ	22	;# 
   517     0017                     CCP1CON         equ	23	;# 
   518     0018                     RCSTA           equ	24	;# 
   519     0019                     TXREG           equ	25	;# 
   520     001A                     RCREG           equ	26	;# 
   521     001B                     CCPR2           equ	27	;# 
   522     001B                     CCPR2L          equ	27	;# 
   523     001C                     CCPR2H          equ	28	;# 
   524     001D                     CCP2CON         equ	29	;# 
   525     001E                     ADRESH          equ	30	;# 
   526     001F                     ADCON0          equ	31	;# 
   527     0081                     OPTION_REG      equ	129	;# 
   528     0085                     TRISA           equ	133	;# 
   529     0086                     TRISB           equ	134	;# 
   530     0087                     TRISC           equ	135	;# 
   531     0088                     TRISD           equ	136	;# 
   532     0089                     TRISE           equ	137	;# 
   533     008C                     PIE1            equ	140	;# 
   534     008D                     PIE2            equ	141	;# 
   535     008E                     PCON            equ	142	;# 
   536     008F                     OSCCON          equ	143	;# 
   537     0090                     OSCTUNE         equ	144	;# 
   538     0091                     SSPCON2         equ	145	;# 
   539     0092                     PR2             equ	146	;# 
   540     0093                     SSPADD          equ	147	;# 
   541     0093                     SSPMSK          equ	147	;# 
   542     0093                     MSK             equ	147	;# 
   543     0094                     SSPSTAT         equ	148	;# 
   544     0095                     WPUB            equ	149	;# 
   545     0096                     IOCB            equ	150	;# 
   546     0097                     VRCON           equ	151	;# 
   547     0098                     TXSTA           equ	152	;# 
   548     0099                     SPBRG           equ	153	;# 
   549     009A                     SPBRGH          equ	154	;# 
   550     009B                     PWM1CON         equ	155	;# 
   551     009C                     ECCPAS          equ	156	;# 
   552     009D                     PSTRCON         equ	157	;# 
   553     009E                     ADRESL          equ	158	;# 
   554     009F                     ADCON1          equ	159	;# 
   555     0105                     WDTCON          equ	261	;# 
   556     0107                     CM1CON0         equ	263	;# 
   557     0108                     CM2CON0         equ	264	;# 
   558     0109                     CM2CON1         equ	265	;# 
   559     010C                     EEDATA          equ	268	;# 
   560     010C                     EEDAT           equ	268	;# 
   561     010D                     EEADR           equ	269	;# 
   562     010E                     EEDATH          equ	270	;# 
   563     010F                     EEADRH          equ	271	;# 
   564     0185                     SRCON           equ	389	;# 
   565     0187                     BAUDCTL         equ	391	;# 
   566     0188                     ANSEL           equ	392	;# 
   567     0189                     ANSELH          equ	393	;# 
   568     018C                     EECON1          equ	396	;# 
   569     018D                     EECON2          equ	397	;# 
   570     0005                     _PORTAbits      set	5
   571     0001                     _TMR0           set	1
   572     0013                     _SSPBUF         set	19
   573     000C                     _PIR1bits       set	12
   574     0014                     _SSPCON         set	20
   575     0081                     _OPTION_REGbits set	129
   576     0085                     _TRISAbits      set	133
   577     0091                     _SSPCON2bits    set	145
   578     0093                     _SSPADD         set	147
   579     0091                     _SSPCON2        set	145
   580     0094                     _SSPSTAT        set	148
   581     0087                     _TRISCbits      set	135
   582     0189                     _ANSELH         set	393
   583     0188                     _ANSEL          set	392
   584                           
   585                           	psect	strings
   586     1000                     __pstrings:
   587     1000                     stringtab:
   588     1000                     __stringtab:
   589                           
   590                           ;	String table - string pointers are 1 byte each
   591     1000  1BFF               	btfsc	btemp+1,7
   592     1001  280A               	ljmp	stringcode
   593     1002  1383               	bcf	3,7
   594     1003  187F               	btfsc	btemp+1,0
   595     1004  1783               	bsf	3,7
   596     1005  0800               	movf	0,w
   597     1006  0A84               	incf	4,f
   598     1007  1903               	skipnz
   599     1008  0AFF               	incf	btemp+1,f
   600     1009  0008               	return
   601     100A                     stringcode:
   602     100A                     stringdir:
   603     100A  3010               	movlw	high stringdir
   604     100B  008A               	movwf	10
   605     100C  0804               	movf	4,w
   606     100D  0A84               	incf	4,f
   607     100E  0782               	addwf	2,f
   608     100F                     __stringbase:
   609     100F  3400               	retlw	0
   610     1010                     __end_of__stringtab:
   611     1010                     STR_3:
   612     1010  3420               	retlw	32	;' '
   613     1011  3425               	retlw	37	;'%'
   614     1012  3430               	retlw	48	;'0'
   615     1013  3432               	retlw	50	;'2'
   616     1014  3464               	retlw	100	;'d'
   617     1015  342F               	retlw	47	;'/'
   618     1016  3425               	retlw	37	;'%'
   619     1017  3430               	retlw	48	;'0'
   620     1018  3432               	retlw	50	;'2'
   621     1019  3464               	retlw	100	;'d'
   622     101A  342F               	retlw	47	;'/'
   623     101B  3432               	retlw	50	;'2'
   624     101C  3430               	retlw	48	;'0'
   625     101D  3425               	retlw	37	;'%'
   626     101E  3430               	retlw	48	;'0'
   627     101F  3432               	retlw	50	;'2'
   628     1020  3464               	retlw	100	;'d'
   629     1021  3400               	retlw	0
   630     1022                     STR_2:
   631     1022  3420               	retlw	32	;' '
   632     1023  3420               	retlw	32	;' '
   633     1024  3420               	retlw	32	;' '
   634     1025  3425               	retlw	37	;'%'
   635     1026  3430               	retlw	48	;'0'
   636     1027  3432               	retlw	50	;'2'
   637     1028  3464               	retlw	100	;'d'
   638     1029  343A               	retlw	58	;':'
   639     102A  3425               	retlw	37	;'%'
   640     102B  3430               	retlw	48	;'0'
   641     102C  3432               	retlw	50	;'2'
   642     102D  3464               	retlw	100	;'d'
   643     102E  343A               	retlw	58	;':'
   644     102F  3425               	retlw	37	;'%'
   645     1030  3430               	retlw	48	;'0'
   646     1031  3432               	retlw	50	;'2'
   647     1032  3464               	retlw	100	;'d'
   648     1033  3400               	retlw	0
   649     1034                     STR_6:
   650     1034  3448               	retlw	72	;'H'
   651     1035  3475               	retlw	117	;'u'
   652     1036  346D               	retlw	109	;'m'
   653     1037  3420               	retlw	32	;' '
   654     1038  343A               	retlw	58	;':'
   655     1039  3420               	retlw	32	;' '
   656     103A  3425               	retlw	37	;'%'
   657     103B  3464               	retlw	100	;'d'
   658     103C  342E               	retlw	46	;'.'
   659     103D  3425               	retlw	37	;'%'
   660     103E  3464               	retlw	100	;'d'
   661     103F  3420               	retlw	32	;' '
   662     1040  3425               	retlw	37	;'%'
   663     1041  3425               	retlw	37	;'%'
   664     1042  3400               	retlw	0
   665     1043                     STR_4:
   666     1043  3454               	retlw	84	;'T'
   667     1044  3465               	retlw	101	;'e'
   668     1045  346D               	retlw	109	;'m'
   669     1046  3470               	retlw	112	;'p'
   670     1047  343A               	retlw	58	;':'
   671     1048  3420               	retlw	32	;' '
   672     1049  3425               	retlw	37	;'%'
   673     104A  3464               	retlw	100	;'d'
   674     104B  342E               	retlw	46	;'.'
   675     104C  3425               	retlw	37	;'%'
   676     104D  3464               	retlw	100	;'d'
   677     104E  3420               	retlw	32	;' '
   678     104F  3443               	retlw	67	;'C'
   679     1050  3400               	retlw	0
   680     1051                     STR_1:
   681     1051  3420               	retlw	32	;' '
   682     1052  3420               	retlw	32	;' '
   683     1053  3448               	retlw	72	;'H'
   684     1054  346F               	retlw	111	;'o'
   685     1055  346C               	retlw	108	;'l'
   686     1056  3464               	retlw	100	;'d'
   687     1057  3420               	retlw	32	;' '
   688     1058  346F               	retlw	111	;'o'
   689     1059  346E               	retlw	110	;'n'
   690     105A  342E               	retlw	46	;'.'
   691     105B  342E               	retlw	46	;'.'
   692     105C  342E               	retlw	46	;'.'
   693     105D  3400               	retlw	0
   694     105E                     STR_7:
   695     105E  3448               	retlw	72	;'H'
   696     105F  3475               	retlw	117	;'u'
   697     1060  346D               	retlw	109	;'m'
   698     1061  3420               	retlw	32	;' '
   699     1062  343A               	retlw	58	;':'
   700     1063  3420               	retlw	32	;' '
   701     1064  342D               	retlw	45	;'-'
   702     1065  342D               	retlw	45	;'-'
   703     1066  3420               	retlw	32	;' '
   704     1067  3425               	retlw	37	;'%'
   705     1068  3425               	retlw	37	;'%'
   706     1069  3400               	retlw	0
   707     106A                     STR_5:
   708     106A  3454               	retlw	84	;'T'
   709     106B  3465               	retlw	101	;'e'
   710     106C  346D               	retlw	109	;'m'
   711     106D  3470               	retlw	112	;'p'
   712     106E  343A               	retlw	58	;':'
   713     106F  3420               	retlw	32	;' '
   714     1070  342D               	retlw	45	;'-'
   715     1071  342D               	retlw	45	;'-'
   716     1072  3420               	retlw	32	;' '
   717     1073  3443               	retlw	67	;'C'
   718     1074  3400               	retlw	0
   719                           
   720                           	psect	cinit
   721     07EA                     start_initialization:	
   722                           ; #config settings
   723                           
   724     07EA                     __initialization:
   725                           
   726                           ; Clear objects allocated to BANK1
   727     07EA  1383               	bcf	3,7	;select IRP bank0
   728     07EB  30DB               	movlw	low __pbssBANK1
   729     07EC  0084               	movwf	4
   730     07ED  30E6               	movlw	low (__pbssBANK1+11)
   731     07EE  160A  118A  21CF  120A  118A  	fcall	clear_ram0
   732                           
   733                           ; Clear objects allocated to BANK3
   734     07F3  1783               	bsf	3,7	;select IRP bank2
   735     07F4  3090               	movlw	low __pbssBANK3
   736     07F5  0084               	movwf	4
   737     07F6  30B0               	movlw	low (__pbssBANK3+32)
   738     07F7  160A  118A  21CF  120A  118A  	fcall	clear_ram0
   739     07FC                     end_of_initialization:	
   740                           ;End of C runtime variable initialization code
   741                           
   742     07FC                     __end_of__initialization:
   743     07FC  0183               	clrf	3
   744     07FD  120A  118A  2C88   	ljmp	_main	;jump to C main() function
   745                           
   746                           	psect	bssBANK1
   747     00DB                     __pbssBANK1:
   748     00DB                     _dht11_byte:
   749     00DB                     	ds	5
   750     00E0                     _width:
   751     00E0                     	ds	2
   752     00E2                     _prec:
   753     00E2                     	ds	2
   754     00E4                     _flags:
   755     00E4                     	ds	1
   756     00E5                     _dht11_aux:
   757     00E5                     	ds	1
   758                           
   759                           	psect	bssBANK3
   760     0190                     __pbssBANK3:
   761     0190                     _dbuf:
   762     0190                     	ds	32
   763                           
   764                           	psect	clrtext
   765     11CF                     clear_ram0:	
   766                           ;	Called with FSR containing the base address, and
   767                           ;	W with the last address+1
   768                           
   769     11CF  0064               	clrwdt	;clear the watchdog before getting into this loop
   770     11D0                     clrloop0:
   771     11D0  0180               	clrf	0	;clear RAM location pointed to by FSR
   772     11D1  0A84               	incf	4,f	;increment pointer
   773     11D2  0604               	xorwf	4,w	;XOR with final address
   774     11D3  1903               	btfsc	3,2	;have we reached the end yet?
   775     11D4  3400               	retlw	0	;all done for this memory range, return
   776     11D5  0604               	xorwf	4,w	;XOR again to restore value
   777     11D6  29D0               	goto	clrloop0	;do the next byte
   778                           
   779                           	psect	cstackBANK1
   780     00A0                     __pcstackBANK1:
   781     00A0                     ?___fltol:
   782     00A0                     ___fltol@f1:	
   783                           ; 4 bytes @ 0x0
   784                           
   785                           
   786                           ; 4 bytes @ 0x0
   787     00A0                     	ds	4
   788     00A4                     ??___fltol:
   789                           
   790                           ; 1 bytes @ 0x4
   791     00A4                     	ds	4
   792     00A8                     ___fltol@sign1:
   793                           
   794                           ; 1 bytes @ 0x8
   795     00A8                     	ds	1
   796     00A9                     ___fltol@exp1:
   797                           
   798                           ; 1 bytes @ 0x9
   799     00A9                     	ds	1
   800     00AA                     ??_main:
   801                           
   802                           ; 1 bytes @ 0xA
   803     00AA                     	ds	6
   804     00B0                     main@buffer:
   805                           
   806                           ; 17 bytes @ 0x10
   807     00B0                     	ds	17
   808     00C1                     main@temp_dec:
   809                           
   810                           ; 2 bytes @ 0x21
   811     00C1                     	ds	2
   812     00C3                     main@hum_dec:
   813                           
   814                           ; 2 bytes @ 0x23
   815     00C3                     	ds	2
   816     00C5                     main@contador_segundos:
   817                           
   818                           ; 1 bytes @ 0x25
   819     00C5                     	ds	1
   820     00C6                     main@contador_dht:
   821                           
   822                           ; 1 bytes @ 0x26
   823     00C6                     	ds	1
   824     00C7                     main@temp_ent:
   825                           
   826                           ; 2 bytes @ 0x27
   827     00C7                     	ds	2
   828     00C9                     main@hum_ent:
   829                           
   830                           ; 2 bytes @ 0x29
   831     00C9                     	ds	2
   832     00CB                     main@pantalla_actual:
   833                           
   834                           ; 1 bytes @ 0x2B
   835     00CB                     	ds	1
   836     00CC                     main@dht_ok:
   837                           
   838                           ; 1 bytes @ 0x2C
   839     00CC                     	ds	1
   840     00CD                     main@hora:
   841                           
   842                           ; 1 bytes @ 0x2D
   843     00CD                     	ds	1
   844     00CE                     main@min:
   845                           
   846                           ; 1 bytes @ 0x2E
   847     00CE                     	ds	1
   848     00CF                     main@seg:
   849                           
   850                           ; 1 bytes @ 0x2F
   851     00CF                     	ds	1
   852     00D0                     main@dia:
   853                           
   854                           ; 1 bytes @ 0x30
   855     00D0                     	ds	1
   856     00D1                     main@mes:
   857                           
   858                           ; 1 bytes @ 0x31
   859     00D1                     	ds	1
   860     00D2                     main@ano:
   861                           
   862                           ; 1 bytes @ 0x32
   863     00D2                     	ds	1
   864     00D3                     main@temp_f:
   865                           
   866                           ; 4 bytes @ 0x33
   867     00D3                     	ds	4
   868     00D7                     main@hum_f:
   869                           
   870                           ; 4 bytes @ 0x37
   871     00D7                     	ds	4
   872                           
   873                           	psect	cstackCOMMON
   874     0070                     __pcstackCOMMON:
   875     0070                     ?_I2C_Init_Master:
   876     0070                     ?_Lcd_Init:	
   877                           ; 1 bytes @ 0x0
   878                           
   879     0070                     ?_Lcd_Clear:	
   880                           ; 1 bytes @ 0x0
   881                           
   882     0070                     ?_dht11_config:	
   883                           ; 1 bytes @ 0x0
   884                           
   885     0070                     ?_ds1307_init:	
   886                           ; 1 bytes @ 0x0
   887                           
   888     0070                     ?_Lcd_Cmd:	
   889                           ; 1 bytes @ 0x0
   890                           
   891     0070                     ?_putch:	
   892                           ; 1 bytes @ 0x0
   893                           
   894     0070                     ?_main:	
   895                           ; 1 bytes @ 0x0
   896                           
   897     0070                     ?_I2C_Start:	
   898                           ; 1 bytes @ 0x0
   899                           
   900     0070                     ?_I2C_Stop:	
   901                           ; 1 bytes @ 0x0
   902                           
   903     0070                     ?_I2C_Ack:	
   904                           ; 1 bytes @ 0x0
   905                           
   906     0070                     ?_I2C_Nack:	
   907                           ; 1 bytes @ 0x0
   908                           
   909     0070                     ?_I2C_Write:	
   910                           ; 1 bytes @ 0x0
   911                           
   912     0070                     ?_I2C_Read:	
   913                           ; 1 bytes @ 0x0
   914                           
   915     0070                     ?_Lcd_Write_Char:	
   916                           ; 1 bytes @ 0x0
   917                           
   918     0070                     ?_dht11_read_byte:	
   919                           ; 1 bytes @ 0x0
   920                           
   921     0070                     ?_bcd_to_dec:	
   922                           ; 1 bytes @ 0x0
   923                           
   924     0070                     ?_dec_to_bcd:	
   925                           ; 1 bytes @ 0x0
   926                           
   927     0070                     ?___bmul:	
   928                           ; 1 bytes @ 0x0
   929                           
   930     0070                     ?__Umul8_16:	
   931                           ; 1 bytes @ 0x0
   932                           
   933     0070                     ?_fputc:	
   934                           ; 2 bytes @ 0x0
   935                           
   936     0070                     ?___wmul:	
   937                           ; 2 bytes @ 0x0
   938                           
   939     0070                     ?___awdiv:	
   940                           ; 2 bytes @ 0x0
   941                           
   942     0070                     ?___awmod:	
   943                           ; 2 bytes @ 0x0
   944                           
   945     0070                     ?___xxtofl:	
   946                           ; 2 bytes @ 0x0
   947                           
   948     0070                     I2C_Init_Master@sp_i2c:	
   949                           ; 4 bytes @ 0x0
   950                           
   951     0070                     dht11_read_byte@timer_val:	
   952                           ; 1 bytes @ 0x0
   953                           
   954     0070                     ___bmul@multiplicand:	
   955                           ; 1 bytes @ 0x0
   956                           
   957     0070                     __Umul8_16@multiplicand:	
   958                           ; 1 bytes @ 0x0
   959                           
   960     0070                     putch@c:	
   961                           ; 1 bytes @ 0x0
   962                           
   963     0070                     ___wmul@multiplier:	
   964                           ; 1 bytes @ 0x0
   965                           
   966     0070                     ___awdiv@divisor:	
   967                           ; 2 bytes @ 0x0
   968                           
   969     0070                     ___awmod@divisor:	
   970                           ; 2 bytes @ 0x0
   971                           
   972     0070                     fputc@c:	
   973                           ; 2 bytes @ 0x0
   974                           
   975     0070                     ___xxtofl@val:	
   976                           ; 2 bytes @ 0x0
   977                           
   978     0070                     ??_I2C_Init_Master:	
   979                           ; 4 bytes @ 0x0
   980                           
   981     0070                     ??_dht11_config:	
   982                           ; 1 bytes @ 0x0
   983                           
   984     0070                     ??_putch:	
   985                           ; 1 bytes @ 0x0
   986                           
   987     0070                     ??_I2C_Start:	
   988                           ; 1 bytes @ 0x0
   989                           
   990     0070                     ??_I2C_Stop:	
   991                           ; 1 bytes @ 0x0
   992                           
   993     0070                     ??_I2C_Ack:	
   994                           ; 1 bytes @ 0x0
   995                           
   996     0070                     ??_I2C_Nack:	
   997                           ; 1 bytes @ 0x0
   998                           
   999     0070                     ??_I2C_Read:	
  1000                           ; 1 bytes @ 0x0
  1001                           
  1002     0070                     ??_dht11_read_byte:	
  1003                           ; 1 bytes @ 0x0
  1004                           
  1005                           
  1006                           ; 1 bytes @ 0x0
  1007     0070                     	ds	1
  1008     0071                     dht11_read_byte@i:
  1009     0071                     ___bmul@product:	
  1010                           ; 1 bytes @ 0x1
  1011                           
  1012     0071                     ??___bmul:	
  1013                           ; 1 bytes @ 0x1
  1014                           
  1015                           
  1016                           ; 1 bytes @ 0x1
  1017     0071                     	ds	1
  1018     0072                     ___bmul@multiplier:
  1019     0072                     ___wmul@multiplicand:	
  1020                           ; 1 bytes @ 0x2
  1021                           
  1022     0072                     ___awdiv@dividend:	
  1023                           ; 2 bytes @ 0x2
  1024                           
  1025     0072                     ___awmod@dividend:	
  1026                           ; 2 bytes @ 0x2
  1027                           
  1028     0072                     fputc@fp:	
  1029                           ; 2 bytes @ 0x2
  1030                           
  1031     0072                     ??__Umul8_16:	
  1032                           ; 2 bytes @ 0x2
  1033                           
  1034                           
  1035                           ; 1 bytes @ 0x2
  1036     0072                     	ds	1
  1037     0073                     ??_bcd_to_dec:
  1038                           
  1039                           ; 1 bytes @ 0x3
  1040     0073                     	ds	1
  1041     0074                     ___awdiv@counter:
  1042     0074                     ___awmod@counter:	
  1043                           ; 1 bytes @ 0x4
  1044                           
  1045     0074                     ___wmul@product:	
  1046                           ; 1 bytes @ 0x4
  1047                           
  1048     0074                     __Umul8_16@product:	
  1049                           ; 2 bytes @ 0x4
  1050                           
  1051     0074                     ??_fputc:	
  1052                           ; 2 bytes @ 0x4
  1053                           
  1054     0074                     ??___wmul:	
  1055                           ; 1 bytes @ 0x4
  1056                           
  1057     0074                     ??___awdiv:	
  1058                           ; 1 bytes @ 0x4
  1059                           
  1060     0074                     ??___awmod:	
  1061                           ; 1 bytes @ 0x4
  1062                           
  1063     0074                     ??___xxtofl:	
  1064                           ; 1 bytes @ 0x4
  1065                           
  1066                           
  1067                           ; 1 bytes @ 0x4
  1068     0074                     	ds	1
  1069     0075                     bcd_to_dec@val:
  1070     0075                     ___awdiv@sign:	
  1071                           ; 1 bytes @ 0x5
  1072                           
  1073     0075                     ___awmod@sign:	
  1074                           ; 1 bytes @ 0x5
  1075                           
  1076                           
  1077                           ; 1 bytes @ 0x5
  1078     0075                     	ds	1
  1079     0076                     ?_abs:
  1080     0076                     ?_read_prec_or_width:	
  1081                           ; 2 bytes @ 0x6
  1082                           
  1083     0076                     read_prec_or_width@fmt:	
  1084                           ; 2 bytes @ 0x6
  1085                           
  1086     0076                     ___awdiv@quotient:	
  1087                           ; 1 bytes @ 0x6
  1088                           
  1089     0076                     __Umul8_16@word_mpld:	
  1090                           ; 2 bytes @ 0x6
  1091                           
  1092     0076                     abs@a:	
  1093                           ; 2 bytes @ 0x6
  1094                           
  1095                           
  1096                           ; 2 bytes @ 0x6
  1097     0076                     	ds	1
  1098     0077                     read_prec_or_width@ap:
  1099                           
  1100                           ; 1 bytes @ 0x7
  1101     0077                     	ds	1
  1102     0078                     __Umul8_16@multiplier:
  1103     0078                     ___xxtofl@sign:	
  1104                           ; 1 bytes @ 0x8
  1105                           
  1106     0078                     read_prec_or_width@c:	
  1107                           ; 1 bytes @ 0x8
  1108                           
  1109     0078                     ??_abs:	
  1110                           ; 1 bytes @ 0x8
  1111                           
  1112     0078                     ??_dec_to_bcd:	
  1113                           ; 1 bytes @ 0x8
  1114                           
  1115     0078                     ??_read_prec_or_width:	
  1116                           ; 1 bytes @ 0x8
  1117                           
  1118                           
  1119                           ; 1 bytes @ 0x8
  1120     0078                     	ds	1
  1121     0079                     ___xxtofl@exp:
  1122     0079                     read_prec_or_width@n:	
  1123                           ; 1 bytes @ 0x9
  1124                           
  1125                           
  1126                           ; 2 bytes @ 0x9
  1127     0079                     	ds	1
  1128     007A                     dec_to_bcd@decenas:
  1129     007A                     ___xxtofl@arg:	
  1130                           ; 1 bytes @ 0xA
  1131                           
  1132                           
  1133                           ; 4 bytes @ 0xA
  1134     007A                     	ds	1
  1135     007B                     dec_to_bcd@unidades:
  1136                           
  1137                           ; 1 bytes @ 0xB
  1138     007B                     	ds	1
  1139     007C                     dec_to_bcd@val:
  1140                           
  1141                           ; 1 bytes @ 0xC
  1142     007C                     	ds	1
  1143     007D                     ??_I2C_Write:
  1144     007D                     ??_pad:	
  1145                           ; 1 bytes @ 0xD
  1146                           
  1147                           
  1148                           ; 1 bytes @ 0xD
  1149     007D                     	ds	1
  1150     007E                     ??_Lcd_Set_Cursor:
  1151     007E                     ??_Lcd_Write_String:	
  1152                           ; 1 bytes @ 0xE
  1153                           
  1154     007E                     ??_vfprintf:	
  1155                           ; 1 bytes @ 0xE
  1156                           
  1157     007E                     ??___flsub:	
  1158                           ; 1 bytes @ 0xE
  1159                           
  1160     007E                     ??_dtoa:	
  1161                           ; 1 bytes @ 0xE
  1162                           
  1163                           
  1164                           	psect	cstackBANK0
  1165     0020                     __pcstackBANK0:	
  1166                           ; 1 bytes @ 0xE
  1167                           
  1168     0020                     ?_fputs:
  1169     0020                     ?___fldiv:	
  1170                           ; 2 bytes @ 0x0
  1171                           
  1172     0020                     I2C_Write@data:	
  1173                           ; 4 bytes @ 0x0
  1174                           
  1175     0020                     fputs@s:	
  1176                           ; 1 bytes @ 0x0
  1177                           
  1178     0020                     ___fldiv@a:	
  1179                           ; 1 bytes @ 0x0
  1180                           
  1181                           
  1182                           ; 4 bytes @ 0x0
  1183     0020                     	ds	1
  1184     0021                     ?_ds1307_set_time:
  1185     0021                     ?_ds1307_set_date:	
  1186                           ; 1 bytes @ 0x1
  1187                           
  1188     0021                     ?_ds1307_get_time:	
  1189                           ; 1 bytes @ 0x1
  1190                           
  1191     0021                     ?_ds1307_get_date:	
  1192                           ; 1 bytes @ 0x1
  1193                           
  1194     0021                     ds1307_set_date@month:	
  1195                           ; 1 bytes @ 0x1
  1196                           
  1197     0021                     ds1307_set_time@min:	
  1198                           ; 1 bytes @ 0x1
  1199                           
  1200     0021                     ds1307_get_date@day:	
  1201                           ; 1 bytes @ 0x1
  1202                           
  1203     0021                     ds1307_get_time@hour:	
  1204                           ; 1 bytes @ 0x1
  1205                           
  1206     0021                     fputs@fp:	
  1207                           ; 1 bytes @ 0x1
  1208                           
  1209     0021                     ??_ds1307_init:	
  1210                           ; 2 bytes @ 0x1
  1211                           
  1212     0021                     ??_Lcd_Cmd:	
  1213                           ; 1 bytes @ 0x1
  1214                           
  1215     0021                     ??_Lcd_Write_Char:	
  1216                           ; 1 bytes @ 0x1
  1217                           
  1218                           
  1219                           ; 1 bytes @ 0x1
  1220     0021                     	ds	1
  1221     0022                     Lcd_Cmd@cmd:
  1222     0022                     Lcd_Write_Char@c:	
  1223                           ; 1 bytes @ 0x2
  1224                           
  1225     0022                     ds1307_set_date@year:	
  1226                           ; 1 bytes @ 0x2
  1227                           
  1228     0022                     ds1307_set_time@sec:	
  1229                           ; 1 bytes @ 0x2
  1230                           
  1231     0022                     ds1307_get_date@month:	
  1232                           ; 1 bytes @ 0x2
  1233                           
  1234     0022                     ds1307_get_time@min:	
  1235                           ; 1 bytes @ 0x2
  1236                           
  1237                           
  1238                           ; 1 bytes @ 0x2
  1239     0022                     	ds	1
  1240     0023                     Lcd_Cmd@data_u:
  1241     0023                     Lcd_Write_Char@data_u:	
  1242                           ; 1 bytes @ 0x3
  1243                           
  1244     0023                     ds1307_get_date@year:	
  1245                           ; 1 bytes @ 0x3
  1246                           
  1247     0023                     ds1307_get_time@sec:	
  1248                           ; 1 bytes @ 0x3
  1249                           
  1250     0023                     ??_ds1307_set_time:	
  1251                           ; 1 bytes @ 0x3
  1252                           
  1253     0023                     ??_ds1307_set_date:	
  1254                           ; 1 bytes @ 0x3
  1255                           
  1256     0023                     ??_fputs:	
  1257                           ; 1 bytes @ 0x3
  1258                           
  1259                           
  1260                           ; 1 bytes @ 0x3
  1261     0023                     	ds	1
  1262     0024                     Lcd_Cmd@data_l:
  1263     0024                     Lcd_Write_Char@data_l:	
  1264                           ; 1 bytes @ 0x4
  1265                           
  1266     0024                     ___fldiv@b:	
  1267                           ; 1 bytes @ 0x4
  1268                           
  1269     0024                     ??_ds1307_get_time:	
  1270                           ; 4 bytes @ 0x4
  1271                           
  1272     0024                     ??_ds1307_get_date:	
  1273                           ; 1 bytes @ 0x4
  1274                           
  1275                           
  1276                           ; 1 bytes @ 0x4
  1277     0024                     	ds	1
  1278     0025                     ?_Lcd_Set_Cursor:
  1279     0025                     ?_Lcd_Write_String:	
  1280                           ; 1 bytes @ 0x5
  1281                           
  1282     0025                     Lcd_Set_Cursor@row:	
  1283                           ; 1 bytes @ 0x5
  1284                           
  1285     0025                     ds1307_set_date@day:	
  1286                           ; 1 bytes @ 0x5
  1287                           
  1288     0025                     ds1307_set_time@hour:	
  1289                           ; 1 bytes @ 0x5
  1290                           
  1291     0025                     ds1307_get_date@temp:	
  1292                           ; 1 bytes @ 0x5
  1293                           
  1294     0025                     ds1307_get_time@temp:	
  1295                           ; 1 bytes @ 0x5
  1296                           
  1297     0025                     fputs@c:	
  1298                           ; 1 bytes @ 0x5
  1299                           
  1300     0025                     Lcd_Write_String@str:	
  1301                           ; 1 bytes @ 0x5
  1302                           
  1303     0025                     ??_Lcd_Init:	
  1304                           ; 2 bytes @ 0x5
  1305                           
  1306     0025                     ??_Lcd_Clear:	
  1307                           ; 1 bytes @ 0x5
  1308                           
  1309                           
  1310                           ; 1 bytes @ 0x5
  1311     0025                     	ds	1
  1312     0026                     Lcd_Set_Cursor@col:
  1313     0026                     fputs@i:	
  1314                           ; 1 bytes @ 0x6
  1315                           
  1316                           
  1317                           ; 2 bytes @ 0x6
  1318     0026                     	ds	1
  1319     0027                     Lcd_Set_Cursor@address:
  1320                           
  1321                           ; 1 bytes @ 0x7
  1322     0027                     	ds	1
  1323     0028                     ?_pad:
  1324     0028                     pad@fp:	
  1325                           ; 1 bytes @ 0x8
  1326                           
  1327     0028                     ??___fldiv:	
  1328                           ; 2 bytes @ 0x8
  1329                           
  1330                           
  1331                           ; 1 bytes @ 0x8
  1332     0028                     	ds	2
  1333     002A                     pad@buf:
  1334                           
  1335                           ; 1 bytes @ 0xA
  1336     002A                     	ds	1
  1337     002B                     pad@p:
  1338                           
  1339                           ; 2 bytes @ 0xB
  1340     002B                     	ds	2
  1341     002D                     pad@i:
  1342     002D                     ___fldiv@rem:	
  1343                           ; 2 bytes @ 0xD
  1344                           
  1345                           
  1346                           ; 4 bytes @ 0xD
  1347     002D                     	ds	2
  1348     002F                     ?_dtoa:
  1349     002F                     dtoa@fp:	
  1350                           ; 1 bytes @ 0xF
  1351                           
  1352                           
  1353                           ; 2 bytes @ 0xF
  1354     002F                     	ds	2
  1355     0031                     ___fldiv@sign:
  1356     0031                     dtoa@d:	
  1357                           ; 1 bytes @ 0x11
  1358                           
  1359                           
  1360                           ; 2 bytes @ 0x11
  1361     0031                     	ds	1
  1362     0032                     ___fldiv@new_exp:
  1363                           
  1364                           ; 2 bytes @ 0x12
  1365     0032                     	ds	1
  1366     0033                     _dtoa$933:
  1367                           
  1368                           ; 2 bytes @ 0x13
  1369     0033                     	ds	1
  1370     0034                     ___fldiv@grs:
  1371                           
  1372                           ; 4 bytes @ 0x14
  1373     0034                     	ds	1
  1374     0035                     dtoa@p:
  1375                           
  1376                           ; 1 bytes @ 0x15
  1377     0035                     	ds	1
  1378     0036                     dtoa@w:
  1379                           
  1380                           ; 2 bytes @ 0x16
  1381     0036                     	ds	2
  1382     0038                     ___fldiv@bexp:
  1383     0038                     dtoa@s:	
  1384                           ; 1 bytes @ 0x18
  1385                           
  1386                           
  1387                           ; 1 bytes @ 0x18
  1388     0038                     	ds	1
  1389     0039                     ___fldiv@aexp:
  1390     0039                     dtoa@i:	
  1391                           ; 1 bytes @ 0x19
  1392                           
  1393                           
  1394                           ; 2 bytes @ 0x19
  1395     0039                     	ds	1
  1396     003A                     ?___fladd:
  1397     003A                     ___fladd@b:	
  1398                           ; 4 bytes @ 0x1A
  1399                           
  1400                           
  1401                           ; 4 bytes @ 0x1A
  1402     003A                     	ds	1
  1403     003B                     ?_vfpfcnvrt:
  1404     003B                     vfpfcnvrt@fp:	
  1405                           ; 1 bytes @ 0x1B
  1406                           
  1407                           
  1408                           ; 2 bytes @ 0x1B
  1409     003B                     	ds	2
  1410     003D                     vfpfcnvrt@fmt:
  1411                           
  1412                           ; 1 bytes @ 0x1D
  1413     003D                     	ds	1
  1414     003E                     vfpfcnvrt@ap:
  1415     003E                     ___fladd@a:	
  1416                           ; 1 bytes @ 0x1E
  1417                           
  1418                           
  1419                           ; 4 bytes @ 0x1E
  1420     003E                     	ds	1
  1421     003F                     ??_vfpfcnvrt:
  1422                           
  1423                           ; 1 bytes @ 0x1F
  1424     003F                     	ds	2
  1425     0041                     vfpfcnvrt@convarg:
  1426                           
  1427                           ; 4 bytes @ 0x21
  1428     0041                     	ds	1
  1429     0042                     ??___fladd:
  1430                           
  1431                           ; 1 bytes @ 0x22
  1432     0042                     	ds	3
  1433     0045                     vfpfcnvrt@done:
  1434                           
  1435                           ; 1 bytes @ 0x25
  1436     0045                     	ds	1
  1437     0046                     vfpfcnvrt@cp:
  1438                           
  1439                           ; 1 bytes @ 0x26
  1440     0046                     	ds	1
  1441     0047                     ?_vfprintf:
  1442     0047                     vfprintf@fp:	
  1443                           ; 2 bytes @ 0x27
  1444                           
  1445                           
  1446                           ; 2 bytes @ 0x27
  1447     0047                     	ds	2
  1448     0049                     vfprintf@fmt:
  1449                           
  1450                           ; 1 bytes @ 0x29
  1451     0049                     	ds	1
  1452     004A                     ___fladd@signs:
  1453     004A                     vfprintf@ap:	
  1454                           ; 1 bytes @ 0x2A
  1455                           
  1456                           
  1457                           ; 1 bytes @ 0x2A
  1458     004A                     	ds	1
  1459     004B                     ___fladd@aexp:
  1460     004B                     vfprintf@cfmt:	
  1461                           ; 1 bytes @ 0x2B
  1462                           
  1463                           
  1464                           ; 1 bytes @ 0x2B
  1465     004B                     	ds	1
  1466     004C                     ?_sprintf:
  1467     004C                     ___fladd@bexp:	
  1468                           ; 2 bytes @ 0x2C
  1469                           
  1470     004C                     sprintf@s:	
  1471                           ; 1 bytes @ 0x2C
  1472                           
  1473                           
  1474                           ; 1 bytes @ 0x2C
  1475     004C                     	ds	1
  1476     004D                     ___fladd@grs:
  1477     004D                     sprintf@fmt:	
  1478                           ; 1 bytes @ 0x2D
  1479                           
  1480                           
  1481                           ; 1 bytes @ 0x2D
  1482     004D                     	ds	1
  1483     004E                     ?_dht11_read:
  1484     004E                     ?___flsub:	
  1485                           ; 1 bytes @ 0x2E
  1486                           
  1487     004E                     dht11_read@phum:	
  1488                           ; 4 bytes @ 0x2E
  1489                           
  1490     004E                     ___flsub@a:	
  1491                           ; 1 bytes @ 0x2E
  1492                           
  1493                           
  1494                           ; 4 bytes @ 0x2E
  1495     004E                     	ds	1
  1496     004F                     dht11_read@ptemp:
  1497                           
  1498                           ; 1 bytes @ 0x2F
  1499     004F                     	ds	1
  1500     0050                     ??_dht11_read:
  1501                           
  1502                           ; 1 bytes @ 0x30
  1503     0050                     	ds	2
  1504     0052                     ___flsub@b:
  1505                           
  1506                           ; 4 bytes @ 0x32
  1507     0052                     	ds	2
  1508     0054                     ??_sprintf:
  1509                           
  1510                           ; 1 bytes @ 0x34
  1511     0054                     	ds	1
  1512     0055                     sprintf@ap:
  1513                           
  1514                           ; 1 bytes @ 0x35
  1515     0055                     	ds	1
  1516     0056                     ?___flmul:
  1517     0056                     ___flmul@b:	
  1518                           ; 4 bytes @ 0x36
  1519                           
  1520     0056                     sprintf@f:	
  1521                           ; 4 bytes @ 0x36
  1522                           
  1523                           
  1524                           ; 11 bytes @ 0x36
  1525     0056                     	ds	2
  1526     0058                     dht11_read@checksum:
  1527                           
  1528                           ; 1 bytes @ 0x38
  1529     0058                     	ds	1
  1530     0059                     dht11_read@i:
  1531                           
  1532                           ; 1 bytes @ 0x39
  1533     0059                     	ds	1
  1534     005A                     ___flmul@a:
  1535                           
  1536                           ; 4 bytes @ 0x3A
  1537     005A                     	ds	4
  1538     005E                     ??___flmul:
  1539                           
  1540                           ; 1 bytes @ 0x3E
  1541     005E                     	ds	5
  1542     0063                     ___flmul@sign:
  1543                           
  1544                           ; 1 bytes @ 0x43
  1545     0063                     	ds	1
  1546     0064                     ___flmul@grs:
  1547                           
  1548                           ; 4 bytes @ 0x44
  1549     0064                     	ds	4
  1550     0068                     ___flmul@aexp:
  1551                           
  1552                           ; 1 bytes @ 0x48
  1553     0068                     	ds	1
  1554     0069                     ___flmul@bexp:
  1555                           
  1556                           ; 1 bytes @ 0x49
  1557     0069                     	ds	1
  1558     006A                     ___flmul@prod:
  1559                           
  1560                           ; 4 bytes @ 0x4A
  1561     006A                     	ds	4
  1562     006E                     ___flmul@temp:
  1563                           
  1564                           ; 2 bytes @ 0x4E
  1565     006E                     	ds	2
  1566                           
  1567                           	psect	maintext
  1568     0488                     __pmaintext:	
  1569 ;;
  1570 ;;Main: autosize = 0, tempsize = 6, incstack = 0, save=0
  1571 ;;
  1572 ;; *************** function _main *****************
  1573 ;; Defined at:
  1574 ;;		line 30 in file "lcd.c"
  1575 ;; Parameters:    Size  Location     Type
  1576 ;;		None
  1577 ;; Auto vars:     Size  Location     Type
  1578 ;;  hum_ent         2   41[BANK1 ] int 
  1579 ;;  hum_dec         2   35[BANK1 ] int 
  1580 ;;  temp_ent        2   39[BANK1 ] int 
  1581 ;;  temp_dec        2   33[BANK1 ] int 
  1582 ;;  buffer         17   16[BANK1 ] unsigned char [17]
  1583 ;;  hum_f           4   55[BANK1 ] float 
  1584 ;;  temp_f          4   51[BANK1 ] float 
  1585 ;;  ano             1   50[BANK1 ] unsigned char 
  1586 ;;  mes             1   49[BANK1 ] unsigned char 
  1587 ;;  dia             1   48[BANK1 ] unsigned char 
  1588 ;;  seg             1   47[BANK1 ] unsigned char 
  1589 ;;  min             1   46[BANK1 ] unsigned char 
  1590 ;;  hora            1   45[BANK1 ] unsigned char 
  1591 ;;  dht_ok          1   44[BANK1 ] unsigned char 
  1592 ;;  pantalla_act    1   43[BANK1 ] unsigned char 
  1593 ;;  contador_dht    1   38[BANK1 ] unsigned char 
  1594 ;;  contador_seg    1   37[BANK1 ] unsigned char 
  1595 ;; Return value:  Size  Location     Type
  1596 ;;                  1    wreg      void 
  1597 ;; Registers used:
  1598 ;;		wreg, fsr0l, fsr0h, status,2, status,0, pclath, btemp1, cstack
  1599 ;; Tracked objects:
  1600 ;;		On entry : B00/0
  1601 ;;		On exit  : 0/0
  1602 ;;		Unchanged: 0/0
  1603 ;; Data sizes:     COMMON   BANK0   BANK1   BANK3   BANK2
  1604 ;;      Params:         0       0       0       0       0
  1605 ;;      Locals:         0       0      43       0       0
  1606 ;;      Temps:          0       0       6       0       0
  1607 ;;      Totals:         0       0      49       0       0
  1608 ;;Total ram usage:       49 bytes
  1609 ;; Hardware stack levels required when called: 7
  1610 ;; This function calls:
  1611 ;;		_I2C_Init_Master
  1612 ;;		_Lcd_Clear
  1613 ;;		_Lcd_Init
  1614 ;;		_Lcd_Set_Cursor
  1615 ;;		_Lcd_Write_String
  1616 ;;		___flmul
  1617 ;;		___flsub
  1618 ;;		___fltol
  1619 ;;		___xxtofl
  1620 ;;		_dht11_config
  1621 ;;		_dht11_read
  1622 ;;		_ds1307_get_date
  1623 ;;		_ds1307_get_time
  1624 ;;		_ds1307_init
  1625 ;;		_ds1307_set_date
  1626 ;;		_ds1307_set_time
  1627 ;;		_sprintf
  1628 ;; This function is called by:
  1629 ;;		Startup code after reset
  1630 ;; This function uses a non-reentrant model
  1631 ;;
  1632                           
  1633     0488                     _main:	
  1634                           ;psect for function _main
  1635                           
  1636     0488                     l3442:	
  1637                           ;incstack = 0
  1638                           ; Regs used in _main: [wreg-fsr0h+status,2+status,0+pclath+btemp1+cstack]
  1639                           
  1640                           
  1641                           ;lcd.c: 38: 
  1642     0488  1683               	bsf	3,5	;RP0=1, select bank1
  1643     0489  1303               	bcf	3,6	;RP1=0, select bank1
  1644     048A  01CB               	clrf	main@pantalla_actual^(0+128)
  1645                           
  1646                           ;lcd.c: 39:     ds1307_set_time(19, 30, 0);
  1647     048B  01C5               	clrf	main@contador_segundos^(0+128)
  1648                           
  1649                           ;lcd.c: 40:     ds1307_set_date(29, 10, 25);
  1650     048C  01C6               	clrf	main@contador_dht^(0+128)
  1651                           
  1652                           ;lcd.c: 43: 
  1653     048D  1683               	bsf	3,5	;RP0=1, select bank3
  1654     048E  1703               	bsf	3,6	;RP1=1, select bank3
  1655     048F  0188               	clrf	8	;volatile
  1656                           
  1657                           ;lcd.c: 44:     dht_ok = dht11_read(&hum_f, &temp_f);
  1658     0490  0189               	clrf	9	;volatile
  1659     0491                     l3444:
  1660                           
  1661                           ;lcd.c: 46:     Lcd_Clear();
  1662     0491  300D               	movlw	13
  1663     0492  1683               	bsf	3,5	;RP0=1, select bank1
  1664     0493  1303               	bcf	3,6	;RP1=0, select bank1
  1665     0494  00AC               	movwf	(??_main^(0+128)+2)
  1666     0495  30AF               	movlw	175
  1667     0496  00AB               	movwf	(??_main^(0+128)+1)
  1668     0497  30B5               	movlw	181
  1669     0498  00AA               	movwf	??_main^(0+128)
  1670     0499                     u4687:
  1671     0499  0BAA               	decfsz	??_main^(0+128),f
  1672     049A  2C99               	goto	u4687
  1673     049B  0BAB               	decfsz	(??_main^(0+128)+1),f
  1674     049C  2C99               	goto	u4687
  1675     049D  0BAC               	decfsz	(??_main^(0+128)+2),f
  1676     049E  2C99               	goto	u4687
  1677     049F  2CA0               	nop2
  1678     04A0                     l3446:
  1679                           
  1680                           ;lcd.c: 49:     {
  1681     04A0  3080               	movlw	128
  1682     04A1  160A  118A  2268  120A  118A  	fcall	_I2C_Init_Master
  1683     04A6                     l3448:
  1684                           
  1685                           ;lcd.c: 50:         ds1307_get_time(&hora, &min, &seg);
  1686     04A6  3003               	movlw	3
  1687     04A7  1683               	bsf	3,5	;RP0=1, select bank1
  1688     04A8  1303               	bcf	3,6	;RP1=0, select bank1
  1689     04A9  00AC               	movwf	(??_main^(0+128)+2)
  1690     04AA  308A               	movlw	138
  1691     04AB  00AB               	movwf	(??_main^(0+128)+1)
  1692     04AC  3055               	movlw	85
  1693     04AD  00AA               	movwf	??_main^(0+128)
  1694     04AE                     u4697:
  1695     04AE  0BAA               	decfsz	??_main^(0+128),f
  1696     04AF  2CAE               	goto	u4697
  1697     04B0  0BAB               	decfsz	(??_main^(0+128)+1),f
  1698     04B1  2CAE               	goto	u4697
  1699     04B2  0BAC               	decfsz	(??_main^(0+128)+2),f
  1700     04B3  2CAE               	goto	u4697
  1701     04B4                     l3450:
  1702                           
  1703                           ;lcd.c: 52: 
  1704     04B4  160A  118A  2410  120A  118A  	fcall	_Lcd_Init
  1705     04B9                     l3452:
  1706                           
  1707                           ;lcd.c: 53:         if(contador_dht >= 3) {
  1708     04B9  3003               	movlw	3
  1709     04BA  1683               	bsf	3,5	;RP0=1, select bank1
  1710     04BB  1303               	bcf	3,6	;RP1=0, select bank1
  1711     04BC  00AC               	movwf	(??_main^(0+128)+2)
  1712     04BD  308A               	movlw	138
  1713     04BE  00AB               	movwf	(??_main^(0+128)+1)
  1714     04BF  3055               	movlw	85
  1715     04C0  00AA               	movwf	??_main^(0+128)
  1716     04C1                     u4707:
  1717     04C1  0BAA               	decfsz	??_main^(0+128),f
  1718     04C2  2CC1               	goto	u4707
  1719     04C3  0BAB               	decfsz	(??_main^(0+128)+1),f
  1720     04C4  2CC1               	goto	u4707
  1721     04C5  0BAC               	decfsz	(??_main^(0+128)+2),f
  1722     04C6  2CC1               	goto	u4707
  1723     04C7                     l3454:
  1724                           
  1725                           ;lcd.c: 55:             contador_dht = 0;
  1726     04C7  160A  118A  220B  120A  118A  	fcall	_Lcd_Clear
  1727     04CC                     l3456:
  1728                           
  1729                           ;lcd.c: 56:         }
  1730     04CC  1283               	bcf	3,5	;RP0=0, select bank0
  1731     04CD  1303               	bcf	3,6	;RP1=0, select bank0
  1732     04CE  01A5               	clrf	Lcd_Set_Cursor@row
  1733     04CF  0AA5               	incf	Lcd_Set_Cursor@row,f
  1734     04D0  3001               	movlw	1
  1735     04D1  160A  118A  2364  120A  118A  	fcall	_Lcd_Set_Cursor
  1736     04D6                     l3458:
  1737                           
  1738                           ;lcd.c: 57:         contador_dht++;
  1739     04D6  3042               	movlw	(low ((STR_1-__stringbase)| (0+32768)))& (0+255)
  1740     04D7  1283               	bcf	3,5	;RP0=0, select bank0
  1741     04D8  1303               	bcf	3,6	;RP1=0, select bank0
  1742     04D9  00A5               	movwf	Lcd_Write_String@str
  1743     04DA  3080               	movlw	128
  1744     04DB  00A6               	movwf	Lcd_Write_String@str+1
  1745     04DC  160A  118A  238C  120A  118A  	fcall	_Lcd_Write_String
  1746     04E1                     l3460:
  1747                           
  1748                           ;lcd.c: 58: 
  1749     04E1  3033               	movlw	51
  1750     04E2  1683               	bsf	3,5	;RP0=1, select bank1
  1751     04E3  1303               	bcf	3,6	;RP1=0, select bank1
  1752     04E4  00AC               	movwf	(??_main^(0+128)+2)
  1753     04E5  30BB               	movlw	187
  1754     04E6  00AB               	movwf	(??_main^(0+128)+1)
  1755     04E7  30DF               	movlw	223
  1756     04E8  00AA               	movwf	??_main^(0+128)
  1757     04E9                     u4717:
  1758     04E9  0BAA               	decfsz	??_main^(0+128),f
  1759     04EA  2CE9               	goto	u4717
  1760     04EB  0BAB               	decfsz	(??_main^(0+128)+1),f
  1761     04EC  2CE9               	goto	u4717
  1762     04ED  0BAC               	decfsz	(??_main^(0+128)+2),f
  1763     04EE  2CE9               	goto	u4717
  1764     04EF                     l3462:
  1765                           
  1766                           ;lcd.c: 60:             pantalla_actual = !pantalla_actual;
  1767     04EF  160A  118A  21EB  120A  118A  	fcall	_dht11_config
  1768     04F4                     l3464:
  1769                           
  1770                           ;lcd.c: 61:             contador_segundos = 0;
  1771     04F4  3003               	movlw	3
  1772     04F5  1683               	bsf	3,5	;RP0=1, select bank1
  1773     04F6  1303               	bcf	3,6	;RP1=0, select bank1
  1774     04F7  00AC               	movwf	(??_main^(0+128)+2)
  1775     04F8  308A               	movlw	138
  1776     04F9  00AB               	movwf	(??_main^(0+128)+1)
  1777     04FA  3055               	movlw	85
  1778     04FB  00AA               	movwf	??_main^(0+128)
  1779     04FC                     u4727:
  1780     04FC  0BAA               	decfsz	??_main^(0+128),f
  1781     04FD  2CFC               	goto	u4727
  1782     04FE  0BAB               	decfsz	(??_main^(0+128)+1),f
  1783     04FF  2CFC               	goto	u4727
  1784     0500  0BAC               	decfsz	(??_main^(0+128)+2),f
  1785     0501  2CFC               	goto	u4727
  1786     0502                     l3466:
  1787                           
  1788                           ;lcd.c: 63:             _delay((unsigned long)((2)*(20000000/4000.0)));
  1789     0502  160A  118A  267E  120A  118A  	fcall	_ds1307_init
  1790     0507                     l3468:
  1791                           
  1792                           ;lcd.c: 64:         }
  1793     0507  3003               	movlw	3
  1794     0508  1683               	bsf	3,5	;RP0=1, select bank1
  1795     0509  1303               	bcf	3,6	;RP1=0, select bank1
  1796     050A  00AC               	movwf	(??_main^(0+128)+2)
  1797     050B  308A               	movlw	138
  1798     050C  00AB               	movwf	(??_main^(0+128)+1)
  1799     050D  3055               	movlw	85
  1800     050E  00AA               	movwf	??_main^(0+128)
  1801     050F                     u4737:
  1802     050F  0BAA               	decfsz	??_main^(0+128),f
  1803     0510  2D0F               	goto	u4737
  1804     0511  0BAB               	decfsz	(??_main^(0+128)+1),f
  1805     0512  2D0F               	goto	u4737
  1806     0513  0BAC               	decfsz	(??_main^(0+128)+2),f
  1807     0514  2D0F               	goto	u4737
  1808     0515                     l3470:
  1809                           
  1810                           ;lcd.c: 67:             Lcd_Set_Cursor(1, 1);
  1811     0515  301E               	movlw	30
  1812     0516  1283               	bcf	3,5	;RP0=0, select bank0
  1813     0517  1303               	bcf	3,6	;RP1=0, select bank0
  1814     0518  00A1               	movwf	ds1307_set_time@min
  1815     0519  01A2               	clrf	ds1307_set_time@sec
  1816     051A  3013               	movlw	19
  1817     051B  160A  118A  252B  120A  118A  	fcall	_ds1307_set_time
  1818     0520                     l3472:
  1819                           
  1820                           ;lcd.c: 68:             sprintf(buffer, "   %02d:%02d:%02d", hora, min, seg);
  1821     0520  300A               	movlw	10
  1822     0521  1283               	bcf	3,5	;RP0=0, select bank0
  1823     0522  1303               	bcf	3,6	;RP1=0, select bank0
  1824     0523  00A1               	movwf	ds1307_set_date@month
  1825     0524  3019               	movlw	25
  1826     0525  00A2               	movwf	ds1307_set_date@year
  1827     0526  301D               	movlw	29
  1828     0527  160A  118A  24DB  120A  118A  	fcall	_ds1307_set_date
  1829     052C                     l3474:
  1830                           
  1831                           ;lcd.c: 70: 
  1832     052C  3027               	movlw	39
  1833     052D  1683               	bsf	3,5	;RP0=1, select bank1
  1834     052E  1303               	bcf	3,6	;RP1=0, select bank1
  1835     052F  00AC               	movwf	(??_main^(0+128)+2)
  1836     0530  300D               	movlw	13
  1837     0531  00AB               	movwf	(??_main^(0+128)+1)
  1838     0532  3025               	movlw	37
  1839     0533  00AA               	movwf	??_main^(0+128)
  1840     0534                     u4747:
  1841     0534  0BAA               	decfsz	??_main^(0+128),f
  1842     0535  2D34               	goto	u4747
  1843     0536  0BAB               	decfsz	(??_main^(0+128)+1),f
  1844     0537  2D34               	goto	u4747
  1845     0538  0BAC               	decfsz	(??_main^(0+128)+2),f
  1846     0539  2D34               	goto	u4747
  1847     053A  2D3B               	nop2
  1848     053B                     l3476:
  1849                           
  1850                           ;lcd.c: 72:             sprintf(buffer, " %02d/%02d/20%02d", dia, mes, ano);
  1851     053B  30D7               	movlw	(low (main@hum_f| 0))& (0+255)
  1852     053C  1283               	bcf	3,5	;RP0=0, select bank0
  1853     053D  1303               	bcf	3,6	;RP1=0, select bank0
  1854     053E  00CE               	movwf	dht11_read@phum
  1855     053F  30D3               	movlw	(low (main@temp_f| 0))& (0+255)
  1856     0540  00CF               	movwf	dht11_read@ptemp
  1857     0541  120A  158A  229D  120A  118A  	fcall	_dht11_read
  1858     0546  1683               	bsf	3,5	;RP0=1, select bank1
  1859     0547  1303               	bcf	3,6	;RP1=0, select bank1
  1860     0548  00CC               	movwf	main@dht_ok^(0+128)
  1861     0549                     l3478:
  1862                           
  1863                           ;lcd.c: 74: 
  1864     0549  160A  118A  220B  120A  118A  	fcall	_Lcd_Clear
  1865     054E                     l3480:
  1866                           
  1867                           ;lcd.c: 77:             if(dht_ok) {;lcd.c: 78:                 int temp_ent = (int)temp
      +                          _f;
  1868     054E  30CD               	movlw	(low (main@hora| 0))& (0+255)
  1869     054F  1283               	bcf	3,5	;RP0=0, select bank0
  1870     0550  1303               	bcf	3,6	;RP1=0, select bank0
  1871     0551  00A1               	movwf	ds1307_get_time@hour
  1872     0552  30CE               	movlw	(low (main@min| 0))& (0+255)
  1873     0553  00A2               	movwf	ds1307_get_time@min
  1874     0554  30CF               	movlw	(low (main@seg| 0))& (0+255)
  1875     0555  00A3               	movwf	ds1307_get_time@sec
  1876     0556  160A  118A  26D9  120A  118A  	fcall	_ds1307_get_time
  1877     055B                     l3482:
  1878                           
  1879                           ;lcd.c: 79:                 int temp_dec = (int)((temp_f - temp_ent) * 10);
  1880     055B  30D0               	movlw	(low (main@dia| 0))& (0+255)
  1881     055C  1283               	bcf	3,5	;RP0=0, select bank0
  1882     055D  1303               	bcf	3,6	;RP1=0, select bank0
  1883     055E  00A1               	movwf	ds1307_get_date@day
  1884     055F  30D1               	movlw	(low (main@mes| 0))& (0+255)
  1885     0560  00A2               	movwf	ds1307_get_date@month
  1886     0561  30D2               	movlw	(low (main@ano| 0))& (0+255)
  1887     0562  00A3               	movwf	ds1307_get_date@year
  1888     0563  160A  118A  276C  120A  118A  	fcall	_ds1307_get_date
  1889     0568                     l3484:
  1890                           
  1891                           ;lcd.c: 81:             } else {
  1892     0568  3003               	movlw	3
  1893     0569  1683               	bsf	3,5	;RP0=1, select bank1
  1894     056A  1303               	bcf	3,6	;RP1=0, select bank1
  1895     056B  0246               	subwf	main@contador_dht^(0+128),w
  1896     056C  1C03               	skipc
  1897     056D  2D6F               	goto	u4581
  1898     056E  2D70               	goto	u4580
  1899     056F                     u4581:
  1900     056F  2D7F               	goto	l3490
  1901     0570                     u4580:
  1902     0570                     l3486:
  1903                           
  1904                           ;lcd.c: 82:                 sprintf(buffer, "Temp: -- C");
  1905     0570  30D7               	movlw	(low (main@hum_f| 0))& (0+255)
  1906     0571  1283               	bcf	3,5	;RP0=0, select bank0
  1907     0572  1303               	bcf	3,6	;RP1=0, select bank0
  1908     0573  00CE               	movwf	dht11_read@phum
  1909     0574  30D3               	movlw	(low (main@temp_f| 0))& (0+255)
  1910     0575  00CF               	movwf	dht11_read@ptemp
  1911     0576  120A  158A  229D  120A  118A  	fcall	_dht11_read
  1912     057B  1683               	bsf	3,5	;RP0=1, select bank1
  1913     057C  1303               	bcf	3,6	;RP1=0, select bank1
  1914     057D  00CC               	movwf	main@dht_ok^(0+128)
  1915     057E                     l3488:
  1916                           
  1917                           ;lcd.c: 83:             }
  1918     057E  01C6               	clrf	main@contador_dht^(0+128)
  1919     057F                     l3490:
  1920                           
  1921                           ;lcd.c: 85: 
  1922     057F  3001               	movlw	1
  1923     0580  07C6               	addwf	main@contador_dht^(0+128),f
  1924     0581                     l3492:
  1925                           
  1926                           ;lcd.c: 87:             if(dht_ok) {
  1927     0581  3005               	movlw	5
  1928     0582  0245               	subwf	main@contador_segundos^(0+128),w
  1929     0583  1C03               	skipc
  1930     0584  2D86               	goto	u4591
  1931     0585  2D87               	goto	u4590
  1932     0586                     u4591:
  1933     0586  2D9F               	goto	l3502
  1934     0587                     u4590:
  1935     0587                     l3494:
  1936                           
  1937                           ;lcd.c: 88:                 int hum_ent = (int)hum_f;
  1938     0587  084B               	movf	main@pantalla_actual^(0+128),w
  1939     0588  1903               	btfsc	3,2
  1940     0589  2D8B               	goto	u4601
  1941     058A  2D8D               	goto	u4600
  1942     058B                     u4601:
  1943     058B  3001               	movlw	1
  1944     058C  2D8E               	goto	u4610
  1945     058D                     u4600:
  1946     058D  3000               	movlw	0
  1947     058E                     u4610:
  1948     058E  00CB               	movwf	main@pantalla_actual^(0+128)
  1949     058F                     l3496:
  1950                           
  1951                           ;lcd.c: 89:                 int hum_dec = (int)((hum_f - hum_ent) * 10);
  1952     058F  01C5               	clrf	main@contador_segundos^(0+128)
  1953     0590                     l3498:
  1954                           
  1955                           ;lcd.c: 90:                 sprintf(buffer, "Hum : %d.%d %%", hum_ent, hum_dec);
  1956     0590  160A  118A  220B  120A  118A  	fcall	_Lcd_Clear
  1957     0595                     l3500:
  1958                           
  1959                           ;lcd.c: 91:             } else {
  1960     0595  300D               	movlw	13
  1961     0596  1683               	bsf	3,5	;RP0=1, select bank1
  1962     0597  1303               	bcf	3,6	;RP1=0, select bank1
  1963     0598  00AB               	movwf	(??_main^(0+128)+1)
  1964     0599  30FB               	movlw	251
  1965     059A  00AA               	movwf	??_main^(0+128)
  1966     059B                     u4757:
  1967     059B  0BAA               	decfsz	??_main^(0+128),f
  1968     059C  2D9B               	goto	u4757
  1969     059D  0BAB               	decfsz	(??_main^(0+128)+1),f
  1970     059E  2D9B               	goto	u4757
  1971     059F                     l3502:
  1972                           
  1973                           ;lcd.c: 94:             Lcd_Write_String(buffer);
  1974     059F  1683               	bsf	3,5	;RP0=1, select bank1
  1975     05A0  1303               	bcf	3,6	;RP1=0, select bank1
  1976     05A1  084B               	movf	main@pantalla_actual^(0+128),w
  1977     05A2  1D03               	btfss	3,2
  1978     05A3  2DA5               	goto	u4621
  1979     05A4  2DA6               	goto	u4620
  1980     05A5                     u4621:
  1981     05A5  2E41               	goto	l3514
  1982     05A6                     u4620:
  1983     05A6                     l3504:
  1984                           
  1985                           ;lcd.c: 95:         }
  1986     05A6  1283               	bcf	3,5	;RP0=0, select bank0
  1987     05A7  1303               	bcf	3,6	;RP1=0, select bank0
  1988     05A8  01A5               	clrf	Lcd_Set_Cursor@row
  1989     05A9  0AA5               	incf	Lcd_Set_Cursor@row,f
  1990     05AA  3001               	movlw	1
  1991     05AB  160A  118A  2364  120A  118A  	fcall	_Lcd_Set_Cursor
  1992     05B0                     l3506:
  1993                           
  1994                           ;lcd.c: 96: 
  1995     05B0  30B0               	movlw	(low (main@buffer| 0))& (0+255)
  1996     05B1  1283               	bcf	3,5	;RP0=0, select bank0
  1997     05B2  1303               	bcf	3,6	;RP1=0, select bank0
  1998     05B3  00CC               	movwf	sprintf@s
  1999     05B4  3013               	movlw	(low ((STR_2-__stringbase)| (0+32768)))& (0+255)
  2000     05B5  00CD               	movwf	sprintf@fmt
  2001     05B6  1683               	bsf	3,5	;RP0=1, select bank1
  2002     05B7  1303               	bcf	3,6	;RP1=0, select bank1
  2003     05B8  084D               	movf	main@hora^(0+128),w
  2004     05B9  00AA               	movwf	??_main^(0+128)
  2005     05BA  01AB               	clrf	(??_main+1)^(0+128)
  2006     05BB  082A               	movf	??_main^(0+128),w
  2007     05BC  1283               	bcf	3,5	;RP0=0, select bank0
  2008     05BD  1303               	bcf	3,6	;RP1=0, select bank0
  2009     05BE  00CE               	movwf	?_sprintf+2
  2010     05BF  1683               	bsf	3,5	;RP0=1, select bank1
  2011     05C0  1303               	bcf	3,6	;RP1=0, select bank1
  2012     05C1  082B               	movf	(??_main+1)^(0+128),w
  2013     05C2  1283               	bcf	3,5	;RP0=0, select bank0
  2014     05C3  1303               	bcf	3,6	;RP1=0, select bank0
  2015     05C4  00CF               	movwf	?_sprintf+3
  2016     05C5  1683               	bsf	3,5	;RP0=1, select bank1
  2017     05C6  1303               	bcf	3,6	;RP1=0, select bank1
  2018     05C7  084E               	movf	main@min^(0+128),w
  2019     05C8  00AC               	movwf	(??_main+2)^(0+128)
  2020     05C9  01AD               	clrf	(??_main+3)^(0+128)
  2021     05CA  082C               	movf	(??_main+2)^(0+128),w
  2022     05CB  1283               	bcf	3,5	;RP0=0, select bank0
  2023     05CC  1303               	bcf	3,6	;RP1=0, select bank0
  2024     05CD  00D0               	movwf	?_sprintf+4
  2025     05CE  1683               	bsf	3,5	;RP0=1, select bank1
  2026     05CF  1303               	bcf	3,6	;RP1=0, select bank1
  2027     05D0  082D               	movf	(??_main+3)^(0+128),w
  2028     05D1  1283               	bcf	3,5	;RP0=0, select bank0
  2029     05D2  1303               	bcf	3,6	;RP1=0, select bank0
  2030     05D3  00D1               	movwf	?_sprintf+5
  2031     05D4  1683               	bsf	3,5	;RP0=1, select bank1
  2032     05D5  1303               	bcf	3,6	;RP1=0, select bank1
  2033     05D6  084F               	movf	main@seg^(0+128),w
  2034     05D7  00AE               	movwf	(??_main+4)^(0+128)
  2035     05D8  01AF               	clrf	(??_main+5)^(0+128)
  2036     05D9  082E               	movf	(??_main+4)^(0+128),w
  2037     05DA  1283               	bcf	3,5	;RP0=0, select bank0
  2038     05DB  1303               	bcf	3,6	;RP1=0, select bank0
  2039     05DC  00D2               	movwf	?_sprintf+6
  2040     05DD  1683               	bsf	3,5	;RP0=1, select bank1
  2041     05DE  1303               	bcf	3,6	;RP1=0, select bank1
  2042     05DF  082F               	movf	(??_main+5)^(0+128),w
  2043     05E0  1283               	bcf	3,5	;RP0=0, select bank0
  2044     05E1  1303               	bcf	3,6	;RP1=0, select bank0
  2045     05E2  00D3               	movwf	?_sprintf+7
  2046     05E3  160A  118A  22AA  120A  118A  	fcall	_sprintf
  2047     05E8                     l3508:
  2048                           
  2049                           ;lcd.c: 97:         contador_segundos++;
  2050     05E8  30B0               	movlw	(low (main@buffer| 0))& (0+255)
  2051     05E9  1283               	bcf	3,5	;RP0=0, select bank0
  2052     05EA  1303               	bcf	3,6	;RP1=0, select bank0
  2053     05EB  00A5               	movwf	Lcd_Write_String@str
  2054     05EC  3000               	movlw	0
  2055     05ED  00A6               	movwf	Lcd_Write_String@str+1
  2056     05EE  160A  118A  238C  120A  118A  	fcall	_Lcd_Write_String
  2057                           
  2058                           ;lcd.c: 99:     }
  2059     05F3  3002               	movlw	2
  2060     05F4  1283               	bcf	3,5	;RP0=0, select bank0
  2061     05F5  1303               	bcf	3,6	;RP1=0, select bank0
  2062     05F6  00A5               	movwf	Lcd_Set_Cursor@row
  2063     05F7  3001               	movlw	1
  2064     05F8  160A  118A  2364  120A  118A  	fcall	_Lcd_Set_Cursor
  2065     05FD                     l3510:
  2066                           
  2067                           ;lcd.c: 100: }
  2068     05FD  30B0               	movlw	(low (main@buffer| 0))& (0+255)
  2069     05FE  1283               	bcf	3,5	;RP0=0, select bank0
  2070     05FF  1303               	bcf	3,6	;RP1=0, select bank0
  2071     0600  00CC               	movwf	sprintf@s
  2072     0601  3001               	movlw	(low ((STR_3-__stringbase)| (0+32768)))& (0+255)
  2073     0602  00CD               	movwf	sprintf@fmt
  2074     0603  1683               	bsf	3,5	;RP0=1, select bank1
  2075     0604  1303               	bcf	3,6	;RP1=0, select bank1
  2076     0605  0850               	movf	main@dia^(0+128),w
  2077     0606  00AA               	movwf	??_main^(0+128)
  2078     0607  01AB               	clrf	(??_main+1)^(0+128)
  2079     0608  082A               	movf	??_main^(0+128),w
  2080     0609  1283               	bcf	3,5	;RP0=0, select bank0
  2081     060A  1303               	bcf	3,6	;RP1=0, select bank0
  2082     060B  00CE               	movwf	?_sprintf+2
  2083     060C  1683               	bsf	3,5	;RP0=1, select bank1
  2084     060D  1303               	bcf	3,6	;RP1=0, select bank1
  2085     060E  082B               	movf	(??_main+1)^(0+128),w
  2086     060F  1283               	bcf	3,5	;RP0=0, select bank0
  2087     0610  1303               	bcf	3,6	;RP1=0, select bank0
  2088     0611  00CF               	movwf	?_sprintf+3
  2089     0612  1683               	bsf	3,5	;RP0=1, select bank1
  2090     0613  1303               	bcf	3,6	;RP1=0, select bank1
  2091     0614  0851               	movf	main@mes^(0+128),w
  2092     0615  00AC               	movwf	(??_main+2)^(0+128)
  2093     0616  01AD               	clrf	(??_main+3)^(0+128)
  2094     0617  082C               	movf	(??_main+2)^(0+128),w
  2095     0618  1283               	bcf	3,5	;RP0=0, select bank0
  2096     0619  1303               	bcf	3,6	;RP1=0, select bank0
  2097     061A  00D0               	movwf	?_sprintf+4
  2098     061B  1683               	bsf	3,5	;RP0=1, select bank1
  2099     061C  1303               	bcf	3,6	;RP1=0, select bank1
  2100     061D  082D               	movf	(??_main+3)^(0+128),w
  2101     061E  1283               	bcf	3,5	;RP0=0, select bank0
  2102     061F  1303               	bcf	3,6	;RP1=0, select bank0
  2103     0620  00D1               	movwf	?_sprintf+5
  2104     0621  1683               	bsf	3,5	;RP0=1, select bank1
  2105     0622  1303               	bcf	3,6	;RP1=0, select bank1
  2106     0623  0852               	movf	main@ano^(0+128),w
  2107     0624  00AE               	movwf	(??_main+4)^(0+128)
  2108     0625  01AF               	clrf	(??_main+5)^(0+128)
  2109     0626  082E               	movf	(??_main+4)^(0+128),w
  2110     0627  1283               	bcf	3,5	;RP0=0, select bank0
  2111     0628  1303               	bcf	3,6	;RP1=0, select bank0
  2112     0629  00D2               	movwf	?_sprintf+6
  2113     062A  1683               	bsf	3,5	;RP0=1, select bank1
  2114     062B  1303               	bcf	3,6	;RP1=0, select bank1
  2115     062C  082F               	movf	(??_main+5)^(0+128),w
  2116     062D  1283               	bcf	3,5	;RP0=0, select bank0
  2117     062E  1303               	bcf	3,6	;RP1=0, select bank0
  2118     062F  00D3               	movwf	?_sprintf+7
  2119     0630  160A  118A  22AA  120A  118A  	fcall	_sprintf
  2120     0635                     l3512:
  2121     0635  30B0               	movlw	(low (main@buffer| 0))& (0+255)
  2122     0636  1283               	bcf	3,5	;RP0=0, select bank0
  2123     0637  1303               	bcf	3,6	;RP1=0, select bank0
  2124     0638  00A5               	movwf	Lcd_Write_String@str
  2125     0639  3000               	movlw	0
  2126     063A  00A6               	movwf	Lcd_Write_String@str+1
  2127     063B  160A  118A  238C  120A  118A  	fcall	_Lcd_Write_String
  2128     0640  2FD3               	goto	l3538
  2129     0641                     l3514:
  2130     0641  1283               	bcf	3,5	;RP0=0, select bank0
  2131     0642  1303               	bcf	3,6	;RP1=0, select bank0
  2132     0643  01A5               	clrf	Lcd_Set_Cursor@row
  2133     0644  0AA5               	incf	Lcd_Set_Cursor@row,f
  2134     0645  3001               	movlw	1
  2135     0646  160A  118A  2364  120A  118A  	fcall	_Lcd_Set_Cursor
  2136     064B                     l3516:
  2137     064B  1683               	bsf	3,5	;RP0=1, select bank1
  2138     064C  1303               	bcf	3,6	;RP1=0, select bank1
  2139     064D  084C               	movf	main@dht_ok^(0+128),w
  2140     064E  1903               	btfsc	3,2
  2141     064F  2E51               	goto	u4631
  2142     0650  2E52               	goto	u4630
  2143     0651                     u4631:
  2144     0651  2EF9               	goto	l3524
  2145     0652                     u4630:
  2146     0652                     l3518:
  2147     0652  0856               	movf	(main@temp_f+3)^(0+128),w
  2148     0653  00A3               	movwf	(___fltol@f1+3)^(0+128)
  2149     0654  0855               	movf	(main@temp_f+2)^(0+128),w
  2150     0655  00A2               	movwf	(___fltol@f1+2)^(0+128)
  2151     0656  0854               	movf	(main@temp_f+1)^(0+128),w
  2152     0657  00A1               	movwf	(___fltol@f1+1)^(0+128)
  2153     0658  0853               	movf	main@temp_f^(0+128),w
  2154     0659  00A0               	movwf	___fltol@f1^(0+128)
  2155     065A  120A  158A  200C  120A  118A  	fcall	___fltol
  2156     065F  1683               	bsf	3,5	;RP0=1, select bank1
  2157     0660  1303               	bcf	3,6	;RP1=0, select bank1
  2158     0661  0821               	movf	(?___fltol+1)^(0+128),w
  2159     0662  00C8               	movwf	(main@temp_ent+1)^(0+128)
  2160     0663  0820               	movf	?___fltol^(0+128),w
  2161     0664  00C7               	movwf	main@temp_ent^(0+128)
  2162     0665                     l3520:
  2163     0665  0856               	movf	(main@temp_f+3)^(0+128),w
  2164     0666  1283               	bcf	3,5	;RP0=0, select bank0
  2165     0667  1303               	bcf	3,6	;RP1=0, select bank0
  2166     0668  00D5               	movwf	___flsub@b+3
  2167     0669  1683               	bsf	3,5	;RP0=1, select bank1
  2168     066A  1303               	bcf	3,6	;RP1=0, select bank1
  2169     066B  0855               	movf	(main@temp_f+2)^(0+128),w
  2170     066C  1283               	bcf	3,5	;RP0=0, select bank0
  2171     066D  1303               	bcf	3,6	;RP1=0, select bank0
  2172     066E  00D4               	movwf	___flsub@b+2
  2173     066F  1683               	bsf	3,5	;RP0=1, select bank1
  2174     0670  1303               	bcf	3,6	;RP1=0, select bank1
  2175     0671  0854               	movf	(main@temp_f+1)^(0+128),w
  2176     0672  1283               	bcf	3,5	;RP0=0, select bank0
  2177     0673  1303               	bcf	3,6	;RP1=0, select bank0
  2178     0674  00D3               	movwf	___flsub@b+1
  2179     0675  1683               	bsf	3,5	;RP0=1, select bank1
  2180     0676  1303               	bcf	3,6	;RP1=0, select bank1
  2181     0677  0853               	movf	main@temp_f^(0+128),w
  2182     0678  1283               	bcf	3,5	;RP0=0, select bank0
  2183     0679  1303               	bcf	3,6	;RP1=0, select bank0
  2184     067A  00D2               	movwf	___flsub@b
  2185     067B  1683               	bsf	3,5	;RP0=1, select bank1
  2186     067C  1303               	bcf	3,6	;RP1=0, select bank1
  2187     067D  0847               	movf	main@temp_ent^(0+128),w
  2188     067E  00F0               	movwf	___xxtofl@val
  2189     067F  0848               	movf	(main@temp_ent+1)^(0+128),w
  2190     0680  00F1               	movwf	___xxtofl@val+1
  2191     0681  3000               	movlw	0
  2192     0682  1BF1               	btfsc	___xxtofl@val+1,7
  2193     0683  30FF               	movlw	255
  2194     0684  00F2               	movwf	___xxtofl@val+2
  2195     0685  00F3               	movwf	___xxtofl@val+3
  2196     0686  3001               	movlw	1
  2197     0687  120A  158A  211C  120A  118A  	fcall	___xxtofl
  2198     068C  0873               	movf	?___xxtofl+3,w
  2199     068D  1283               	bcf	3,5	;RP0=0, select bank0
  2200     068E  1303               	bcf	3,6	;RP1=0, select bank0
  2201     068F  00D1               	movwf	___flsub@a+3
  2202     0690  0872               	movf	?___xxtofl+2,w
  2203     0691  00D0               	movwf	___flsub@a+2
  2204     0692  0871               	movf	?___xxtofl+1,w
  2205     0693  00CF               	movwf	___flsub@a+1
  2206     0694  0870               	movf	?___xxtofl,w
  2207     0695  00CE               	movwf	___flsub@a
  2208     0696  160A  118A  22CD  120A  118A  	fcall	___flsub
  2209     069B  1283               	bcf	3,5	;RP0=0, select bank0
  2210     069C  1303               	bcf	3,6	;RP1=0, select bank0
  2211     069D  0851               	movf	?___flsub+3,w
  2212     069E  00DD               	movwf	___flmul@a+3
  2213     069F  0850               	movf	?___flsub+2,w
  2214     06A0  00DC               	movwf	___flmul@a+2
  2215     06A1  084F               	movf	?___flsub+1,w
  2216     06A2  00DB               	movwf	___flmul@a+1
  2217     06A3  084E               	movf	?___flsub,w
  2218     06A4  00DA               	movwf	___flmul@a
  2219     06A5  3041               	movlw	65
  2220     06A6  00D9               	movwf	___flmul@b+3
  2221     06A7  3020               	movlw	32
  2222     06A8  00D8               	movwf	___flmul@b+2
  2223     06A9  3000               	movlw	0
  2224     06AA  00D7               	movwf	___flmul@b+1
  2225     06AB  3000               	movlw	0
  2226     06AC  00D6               	movwf	___flmul@b
  2227     06AD  120A  118A  2146  120A  118A  	fcall	___flmul
  2228     06B2  1283               	bcf	3,5	;RP0=0, select bank0
  2229     06B3  1303               	bcf	3,6	;RP1=0, select bank0
  2230     06B4  0859               	movf	?___flmul+3,w
  2231     06B5  1683               	bsf	3,5	;RP0=1, select bank1
  2232     06B6  1303               	bcf	3,6	;RP1=0, select bank1
  2233     06B7  00A3               	movwf	(___fltol@f1+3)^(0+128)
  2234     06B8  1283               	bcf	3,5	;RP0=0, select bank0
  2235     06B9  1303               	bcf	3,6	;RP1=0, select bank0
  2236     06BA  0858               	movf	?___flmul+2,w
  2237     06BB  1683               	bsf	3,5	;RP0=1, select bank1
  2238     06BC  1303               	bcf	3,6	;RP1=0, select bank1
  2239     06BD  00A2               	movwf	(___fltol@f1+2)^(0+128)
  2240     06BE  1283               	bcf	3,5	;RP0=0, select bank0
  2241     06BF  1303               	bcf	3,6	;RP1=0, select bank0
  2242     06C0  0857               	movf	?___flmul+1,w
  2243     06C1  1683               	bsf	3,5	;RP0=1, select bank1
  2244     06C2  1303               	bcf	3,6	;RP1=0, select bank1
  2245     06C3  00A1               	movwf	(___fltol@f1+1)^(0+128)
  2246     06C4  1283               	bcf	3,5	;RP0=0, select bank0
  2247     06C5  1303               	bcf	3,6	;RP1=0, select bank0
  2248     06C6  0856               	movf	?___flmul,w
  2249     06C7  1683               	bsf	3,5	;RP0=1, select bank1
  2250     06C8  1303               	bcf	3,6	;RP1=0, select bank1
  2251     06C9  00A0               	movwf	___fltol@f1^(0+128)
  2252     06CA  120A  158A  200C  120A  118A  	fcall	___fltol
  2253     06CF  1683               	bsf	3,5	;RP0=1, select bank1
  2254     06D0  1303               	bcf	3,6	;RP1=0, select bank1
  2255     06D1  0821               	movf	(?___fltol+1)^(0+128),w
  2256     06D2  00C2               	movwf	(main@temp_dec+1)^(0+128)
  2257     06D3  0820               	movf	?___fltol^(0+128),w
  2258     06D4  00C1               	movwf	main@temp_dec^(0+128)
  2259     06D5                     l3522:
  2260     06D5  30B0               	movlw	(low (main@buffer| 0))& (0+255)
  2261     06D6  1283               	bcf	3,5	;RP0=0, select bank0
  2262     06D7  1303               	bcf	3,6	;RP1=0, select bank0
  2263     06D8  00CC               	movwf	sprintf@s
  2264     06D9  3034               	movlw	(low ((STR_4-__stringbase)| (0+32768)))& (0+255)
  2265     06DA  00CD               	movwf	sprintf@fmt
  2266     06DB  1683               	bsf	3,5	;RP0=1, select bank1
  2267     06DC  1303               	bcf	3,6	;RP1=0, select bank1
  2268     06DD  0848               	movf	(main@temp_ent+1)^(0+128),w
  2269     06DE  1283               	bcf	3,5	;RP0=0, select bank0
  2270     06DF  1303               	bcf	3,6	;RP1=0, select bank0
  2271     06E0  00CF               	movwf	?_sprintf+3
  2272     06E1  1683               	bsf	3,5	;RP0=1, select bank1
  2273     06E2  1303               	bcf	3,6	;RP1=0, select bank1
  2274     06E3  0847               	movf	main@temp_ent^(0+128),w
  2275     06E4  1283               	bcf	3,5	;RP0=0, select bank0
  2276     06E5  1303               	bcf	3,6	;RP1=0, select bank0
  2277     06E6  00CE               	movwf	?_sprintf+2
  2278     06E7  1683               	bsf	3,5	;RP0=1, select bank1
  2279     06E8  1303               	bcf	3,6	;RP1=0, select bank1
  2280     06E9  0842               	movf	(main@temp_dec+1)^(0+128),w
  2281     06EA  1283               	bcf	3,5	;RP0=0, select bank0
  2282     06EB  1303               	bcf	3,6	;RP1=0, select bank0
  2283     06EC  00D1               	movwf	?_sprintf+5
  2284     06ED  1683               	bsf	3,5	;RP0=1, select bank1
  2285     06EE  1303               	bcf	3,6	;RP1=0, select bank1
  2286     06EF  0841               	movf	main@temp_dec^(0+128),w
  2287     06F0  1283               	bcf	3,5	;RP0=0, select bank0
  2288     06F1  1303               	bcf	3,6	;RP1=0, select bank0
  2289     06F2  00D0               	movwf	?_sprintf+4
  2290     06F3  160A  118A  22AA  120A  118A  	fcall	_sprintf
  2291     06F8  2F04               	goto	l43
  2292     06F9                     l3524:
  2293     06F9  30B0               	movlw	(low (main@buffer| 0))& (0+255)
  2294     06FA  1283               	bcf	3,5	;RP0=0, select bank0
  2295     06FB  1303               	bcf	3,6	;RP1=0, select bank0
  2296     06FC  00CC               	movwf	sprintf@s
  2297     06FD  305B               	movlw	(low ((STR_5-__stringbase)| (0+32768)))& (0+255)
  2298     06FE  00CD               	movwf	sprintf@fmt
  2299     06FF  160A  118A  22AA  120A  118A  	fcall	_sprintf
  2300     0704                     l43:
  2301     0704  30B0               	movlw	(low (main@buffer| 0))& (0+255)
  2302     0705  1283               	bcf	3,5	;RP0=0, select bank0
  2303     0706  1303               	bcf	3,6	;RP1=0, select bank0
  2304     0707  00A5               	movwf	Lcd_Write_String@str
  2305     0708  3000               	movlw	0
  2306     0709  00A6               	movwf	Lcd_Write_String@str+1
  2307     070A  160A  118A  238C  120A  118A  	fcall	_Lcd_Write_String
  2308     070F                     l3526:
  2309     070F  3002               	movlw	2
  2310     0710  1283               	bcf	3,5	;RP0=0, select bank0
  2311     0711  1303               	bcf	3,6	;RP1=0, select bank0
  2312     0712  00A5               	movwf	Lcd_Set_Cursor@row
  2313     0713  3001               	movlw	1
  2314     0714  160A  118A  2364  120A  118A  	fcall	_Lcd_Set_Cursor
  2315     0719                     l3528:
  2316     0719  1683               	bsf	3,5	;RP0=1, select bank1
  2317     071A  1303               	bcf	3,6	;RP1=0, select bank1
  2318     071B  084C               	movf	main@dht_ok^(0+128),w
  2319     071C  1903               	btfsc	3,2
  2320     071D  2F1F               	goto	u4641
  2321     071E  2F20               	goto	u4640
  2322     071F                     u4641:
  2323     071F  2FC7               	goto	l3536
  2324     0720                     u4640:
  2325     0720                     l3530:
  2326     0720  085A               	movf	(main@hum_f+3)^(0+128),w
  2327     0721  00A3               	movwf	(___fltol@f1+3)^(0+128)
  2328     0722  0859               	movf	(main@hum_f+2)^(0+128),w
  2329     0723  00A2               	movwf	(___fltol@f1+2)^(0+128)
  2330     0724  0858               	movf	(main@hum_f+1)^(0+128),w
  2331     0725  00A1               	movwf	(___fltol@f1+1)^(0+128)
  2332     0726  0857               	movf	main@hum_f^(0+128),w
  2333     0727  00A0               	movwf	___fltol@f1^(0+128)
  2334     0728  120A  158A  200C  120A  118A  	fcall	___fltol
  2335     072D  1683               	bsf	3,5	;RP0=1, select bank1
  2336     072E  1303               	bcf	3,6	;RP1=0, select bank1
  2337     072F  0821               	movf	(?___fltol+1)^(0+128),w
  2338     0730  00CA               	movwf	(main@hum_ent+1)^(0+128)
  2339     0731  0820               	movf	?___fltol^(0+128),w
  2340     0732  00C9               	movwf	main@hum_ent^(0+128)
  2341     0733                     l3532:
  2342     0733  085A               	movf	(main@hum_f+3)^(0+128),w
  2343     0734  1283               	bcf	3,5	;RP0=0, select bank0
  2344     0735  1303               	bcf	3,6	;RP1=0, select bank0
  2345     0736  00D5               	movwf	___flsub@b+3
  2346     0737  1683               	bsf	3,5	;RP0=1, select bank1
  2347     0738  1303               	bcf	3,6	;RP1=0, select bank1
  2348     0739  0859               	movf	(main@hum_f+2)^(0+128),w
  2349     073A  1283               	bcf	3,5	;RP0=0, select bank0
  2350     073B  1303               	bcf	3,6	;RP1=0, select bank0
  2351     073C  00D4               	movwf	___flsub@b+2
  2352     073D  1683               	bsf	3,5	;RP0=1, select bank1
  2353     073E  1303               	bcf	3,6	;RP1=0, select bank1
  2354     073F  0858               	movf	(main@hum_f+1)^(0+128),w
  2355     0740  1283               	bcf	3,5	;RP0=0, select bank0
  2356     0741  1303               	bcf	3,6	;RP1=0, select bank0
  2357     0742  00D3               	movwf	___flsub@b+1
  2358     0743  1683               	bsf	3,5	;RP0=1, select bank1
  2359     0744  1303               	bcf	3,6	;RP1=0, select bank1
  2360     0745  0857               	movf	main@hum_f^(0+128),w
  2361     0746  1283               	bcf	3,5	;RP0=0, select bank0
  2362     0747  1303               	bcf	3,6	;RP1=0, select bank0
  2363     0748  00D2               	movwf	___flsub@b
  2364     0749  1683               	bsf	3,5	;RP0=1, select bank1
  2365     074A  1303               	bcf	3,6	;RP1=0, select bank1
  2366     074B  0849               	movf	main@hum_ent^(0+128),w
  2367     074C  00F0               	movwf	___xxtofl@val
  2368     074D  084A               	movf	(main@hum_ent+1)^(0+128),w
  2369     074E  00F1               	movwf	___xxtofl@val+1
  2370     074F  3000               	movlw	0
  2371     0750  1BF1               	btfsc	___xxtofl@val+1,7
  2372     0751  30FF               	movlw	255
  2373     0752  00F2               	movwf	___xxtofl@val+2
  2374     0753  00F3               	movwf	___xxtofl@val+3
  2375     0754  3001               	movlw	1
  2376     0755  120A  158A  211C  120A  118A  	fcall	___xxtofl
  2377     075A  0873               	movf	?___xxtofl+3,w
  2378     075B  1283               	bcf	3,5	;RP0=0, select bank0
  2379     075C  1303               	bcf	3,6	;RP1=0, select bank0
  2380     075D  00D1               	movwf	___flsub@a+3
  2381     075E  0872               	movf	?___xxtofl+2,w
  2382     075F  00D0               	movwf	___flsub@a+2
  2383     0760  0871               	movf	?___xxtofl+1,w
  2384     0761  00CF               	movwf	___flsub@a+1
  2385     0762  0870               	movf	?___xxtofl,w
  2386     0763  00CE               	movwf	___flsub@a
  2387     0764  160A  118A  22CD  120A  118A  	fcall	___flsub
  2388     0769  1283               	bcf	3,5	;RP0=0, select bank0
  2389     076A  1303               	bcf	3,6	;RP1=0, select bank0
  2390     076B  0851               	movf	?___flsub+3,w
  2391     076C  00DD               	movwf	___flmul@a+3
  2392     076D  0850               	movf	?___flsub+2,w
  2393     076E  00DC               	movwf	___flmul@a+2
  2394     076F  084F               	movf	?___flsub+1,w
  2395     0770  00DB               	movwf	___flmul@a+1
  2396     0771  084E               	movf	?___flsub,w
  2397     0772  00DA               	movwf	___flmul@a
  2398     0773  3041               	movlw	65
  2399     0774  00D9               	movwf	___flmul@b+3
  2400     0775  3020               	movlw	32
  2401     0776  00D8               	movwf	___flmul@b+2
  2402     0777  3000               	movlw	0
  2403     0778  00D7               	movwf	___flmul@b+1
  2404     0779  3000               	movlw	0
  2405     077A  00D6               	movwf	___flmul@b
  2406     077B  120A  118A  2146  120A  118A  	fcall	___flmul
  2407     0780  1283               	bcf	3,5	;RP0=0, select bank0
  2408     0781  1303               	bcf	3,6	;RP1=0, select bank0
  2409     0782  0859               	movf	?___flmul+3,w
  2410     0783  1683               	bsf	3,5	;RP0=1, select bank1
  2411     0784  1303               	bcf	3,6	;RP1=0, select bank1
  2412     0785  00A3               	movwf	(___fltol@f1+3)^(0+128)
  2413     0786  1283               	bcf	3,5	;RP0=0, select bank0
  2414     0787  1303               	bcf	3,6	;RP1=0, select bank0
  2415     0788  0858               	movf	?___flmul+2,w
  2416     0789  1683               	bsf	3,5	;RP0=1, select bank1
  2417     078A  1303               	bcf	3,6	;RP1=0, select bank1
  2418     078B  00A2               	movwf	(___fltol@f1+2)^(0+128)
  2419     078C  1283               	bcf	3,5	;RP0=0, select bank0
  2420     078D  1303               	bcf	3,6	;RP1=0, select bank0
  2421     078E  0857               	movf	?___flmul+1,w
  2422     078F  1683               	bsf	3,5	;RP0=1, select bank1
  2423     0790  1303               	bcf	3,6	;RP1=0, select bank1
  2424     0791  00A1               	movwf	(___fltol@f1+1)^(0+128)
  2425     0792  1283               	bcf	3,5	;RP0=0, select bank0
  2426     0793  1303               	bcf	3,6	;RP1=0, select bank0
  2427     0794  0856               	movf	?___flmul,w
  2428     0795  1683               	bsf	3,5	;RP0=1, select bank1
  2429     0796  1303               	bcf	3,6	;RP1=0, select bank1
  2430     0797  00A0               	movwf	___fltol@f1^(0+128)
  2431     0798  120A  158A  200C  120A  118A  	fcall	___fltol
  2432     079D  1683               	bsf	3,5	;RP0=1, select bank1
  2433     079E  1303               	bcf	3,6	;RP1=0, select bank1
  2434     079F  0821               	movf	(?___fltol+1)^(0+128),w
  2435     07A0  00C4               	movwf	(main@hum_dec+1)^(0+128)
  2436     07A1  0820               	movf	?___fltol^(0+128),w
  2437     07A2  00C3               	movwf	main@hum_dec^(0+128)
  2438     07A3                     l3534:
  2439     07A3  30B0               	movlw	(low (main@buffer| 0))& (0+255)
  2440     07A4  1283               	bcf	3,5	;RP0=0, select bank0
  2441     07A5  1303               	bcf	3,6	;RP1=0, select bank0
  2442     07A6  00CC               	movwf	sprintf@s
  2443     07A7  3025               	movlw	(low ((STR_6-__stringbase)| (0+32768)))& (0+255)
  2444     07A8  00CD               	movwf	sprintf@fmt
  2445     07A9  1683               	bsf	3,5	;RP0=1, select bank1
  2446     07AA  1303               	bcf	3,6	;RP1=0, select bank1
  2447     07AB  084A               	movf	(main@hum_ent+1)^(0+128),w
  2448     07AC  1283               	bcf	3,5	;RP0=0, select bank0
  2449     07AD  1303               	bcf	3,6	;RP1=0, select bank0
  2450     07AE  00CF               	movwf	?_sprintf+3
  2451     07AF  1683               	bsf	3,5	;RP0=1, select bank1
  2452     07B0  1303               	bcf	3,6	;RP1=0, select bank1
  2453     07B1  0849               	movf	main@hum_ent^(0+128),w
  2454     07B2  1283               	bcf	3,5	;RP0=0, select bank0
  2455     07B3  1303               	bcf	3,6	;RP1=0, select bank0
  2456     07B4  00CE               	movwf	?_sprintf+2
  2457     07B5  1683               	bsf	3,5	;RP0=1, select bank1
  2458     07B6  1303               	bcf	3,6	;RP1=0, select bank1
  2459     07B7  0844               	movf	(main@hum_dec+1)^(0+128),w
  2460     07B8  1283               	bcf	3,5	;RP0=0, select bank0
  2461     07B9  1303               	bcf	3,6	;RP1=0, select bank0
  2462     07BA  00D1               	movwf	?_sprintf+5
  2463     07BB  1683               	bsf	3,5	;RP0=1, select bank1
  2464     07BC  1303               	bcf	3,6	;RP1=0, select bank1
  2465     07BD  0843               	movf	main@hum_dec^(0+128),w
  2466     07BE  1283               	bcf	3,5	;RP0=0, select bank0
  2467     07BF  1303               	bcf	3,6	;RP1=0, select bank0
  2468     07C0  00D0               	movwf	?_sprintf+4
  2469     07C1  160A  118A  22AA  120A  118A  	fcall	_sprintf
  2470     07C6  2E35               	goto	l3512
  2471     07C7                     l3536:
  2472     07C7  30B0               	movlw	(low (main@buffer| 0))& (0+255)
  2473     07C8  1283               	bcf	3,5	;RP0=0, select bank0
  2474     07C9  1303               	bcf	3,6	;RP1=0, select bank0
  2475     07CA  00CC               	movwf	sprintf@s
  2476     07CB  304F               	movlw	(low ((STR_7-__stringbase)| (0+32768)))& (0+255)
  2477     07CC  00CD               	movwf	sprintf@fmt
  2478     07CD  160A  118A  22AA  120A  118A  	fcall	_sprintf
  2479     07D2  2E35               	goto	l3512
  2480     07D3                     l3538:
  2481     07D3  3001               	movlw	1
  2482     07D4  1683               	bsf	3,5	;RP0=1, select bank1
  2483     07D5  1303               	bcf	3,6	;RP1=0, select bank1
  2484     07D6  07C5               	addwf	main@contador_segundos^(0+128),f
  2485     07D7                     l3540:
  2486     07D7  301A               	movlw	26
  2487     07D8  1683               	bsf	3,5	;RP0=1, select bank1
  2488     07D9  1303               	bcf	3,6	;RP1=0, select bank1
  2489     07DA  00AC               	movwf	(??_main^(0+128)+2)
  2490     07DB  305E               	movlw	94
  2491     07DC  00AB               	movwf	(??_main^(0+128)+1)
  2492     07DD  306D               	movlw	109
  2493     07DE  00AA               	movwf	??_main^(0+128)
  2494     07DF                     u4767:
  2495     07DF  0BAA               	decfsz	??_main^(0+128),f
  2496     07E0  2FDF               	goto	u4767
  2497     07E1  0BAB               	decfsz	(??_main^(0+128)+1),f
  2498     07E2  2FDF               	goto	u4767
  2499     07E3  0BAC               	decfsz	(??_main^(0+128)+2),f
  2500     07E4  2FDF               	goto	u4767
  2501     07E5  2FE6               	nop2
  2502     07E6  2D4E               	goto	l3480
  2503     07E7  120A  118A  2800   	ljmp	start
  2504     07EA                     __end_of_main:
  2505                           
  2506                           	psect	text1
  2507     12AA                     __ptext1:	
  2508 ;; *************** function _sprintf *****************
  2509 ;; Defined at:
  2510 ;;		line 9 in file "C:\Program Files\Microchip\xc8\v3.10\pic\sources\c99\common\nf_sprintf.c"
  2511 ;; Parameters:    Size  Location     Type
  2512 ;;  s               1   44[BANK0 ] PTR unsigned char 
  2513 ;;		 -> main@buffer(17), 
  2514 ;;  fmt             1   45[BANK0 ] PTR const unsigned char 
  2515 ;;		 -> STR_7(12), STR_6(15), STR_5(11), STR_4(14), 
  2516 ;;		 -> STR_3(18), STR_2(18), 
  2517 ;; Auto vars:     Size  Location     Type
  2518 ;;  f              11   54[BANK0 ] struct _IO_FILE
  2519 ;;  ret             2    0        int 
  2520 ;;  ap              1   53[BANK0 ] PTR void [1]
  2521 ;;		 -> ?_sprintf(2), 
  2522 ;; Return value:  Size  Location     Type
  2523 ;;                  2   44[BANK0 ] int 
  2524 ;; Registers used:
  2525 ;;		wreg, fsr0l, fsr0h, status,2, status,0, pclath, btemp1, cstack
  2526 ;; Tracked objects:
  2527 ;;		On entry : 0/0
  2528 ;;		On exit  : 0/0
  2529 ;;		Unchanged: 0/0
  2530 ;; Data sizes:     COMMON   BANK0   BANK1   BANK3   BANK2
  2531 ;;      Params:         0       8       0       0       0
  2532 ;;      Locals:         0      12       0       0       0
  2533 ;;      Temps:          0       1       0       0       0
  2534 ;;      Totals:         0      21       0       0       0
  2535 ;;Total ram usage:       21 bytes
  2536 ;; Hardware stack levels used: 1
  2537 ;; Hardware stack levels required when called: 6
  2538 ;; This function calls:
  2539 ;;		_vfprintf
  2540 ;; This function is called by:
  2541 ;;		_main
  2542 ;; This function uses a non-reentrant model
  2543 ;;
  2544                           
  2545     12AA                     _sprintf:	
  2546                           ;psect for function _sprintf
  2547                           
  2548     12AA                     l3244:	
  2549                           ;incstack = 0
  2550                           ; Regs used in _sprintf: [wreg-fsr0h+status,2+status,0+pclath+btemp1+cstack]
  2551                           
  2552     12AA  304E               	movlw	(low ((?_sprintf| 0+2)))& (0+255)
  2553     12AB  1283               	bcf	3,5	;RP0=0, select bank0
  2554     12AC  1303               	bcf	3,6	;RP1=0, select bank0
  2555     12AD  00D5               	movwf	sprintf@ap
  2556     12AE                     l3246:
  2557     12AE  084C               	movf	sprintf@s,w
  2558     12AF  00D6               	movwf	sprintf@f
  2559     12B0  3000               	movlw	0
  2560     12B1  00D7               	movwf	sprintf@f+1
  2561     12B2                     l3248:
  2562     12B2  01D8               	clrf	sprintf@f+2
  2563     12B3  01D9               	clrf	sprintf@f+3
  2564     12B4                     l3250:
  2565     12B4  01DF               	clrf	sprintf@f+9
  2566     12B5  01E0               	clrf	sprintf@f+10
  2567     12B6                     l3252:
  2568     12B6  3056               	movlw	low sprintf@f
  2569     12B7  00C7               	movwf	vfprintf@fp
  2570     12B8  3000               	movlw	high sprintf@f
  2571     12B9  00C8               	movwf	vfprintf@fp+1
  2572     12BA  084D               	movf	sprintf@fmt,w
  2573     12BB  00C9               	movwf	vfprintf@fmt
  2574     12BC  3055               	movlw	(low (sprintf@ap| 0))& (0+255)
  2575     12BD  00CA               	movwf	vfprintf@ap
  2576     12BE  160A  118A  2287  160A  118A  	fcall	_vfprintf
  2577     12C3                     l3254:
  2578     12C3  1283               	bcf	3,5	;RP0=0, select bank0
  2579     12C4  1303               	bcf	3,6	;RP1=0, select bank0
  2580     12C5  0858               	movf	sprintf@f+2,w
  2581     12C6  074C               	addwf	sprintf@s,w
  2582     12C7  00D4               	movwf	??_sprintf
  2583     12C8  0854               	movf	??_sprintf,w
  2584     12C9  0084               	movwf	4
  2585     12CA  1383               	bcf	3,7	;select IRP bank0
  2586     12CB  0180               	clrf	0
  2587     12CC                     l815:
  2588     12CC  0008               	return
  2589     12CD                     __end_of_sprintf:
  2590                           
  2591                           	psect	text2
  2592     1287                     __ptext2:	
  2593 ;; *************** function _vfprintf *****************
  2594 ;; Defined at:
  2595 ;;		line 1817 in file "C:\Program Files\Microchip\xc8\v3.10\pic\sources\c99\common\doprnt.c"
  2596 ;; Parameters:    Size  Location     Type
  2597 ;;  fp              2   39[BANK0 ] PTR struct _IO_FILE
  2598 ;;		 -> sprintf@f(11), 
  2599 ;;  fmt             1   41[BANK0 ] PTR const unsigned char 
  2600 ;;		 -> STR_7(12), STR_6(15), STR_5(11), STR_4(14), 
  2601 ;;		 -> STR_3(18), STR_2(18), 
  2602 ;;  ap              1   42[BANK0 ] PTR PTR void 
  2603 ;;		 -> sprintf@ap(1), 
  2604 ;; Auto vars:     Size  Location     Type
  2605 ;;  cfmt            1   43[BANK0 ] PTR unsigned char 
  2606 ;;		 -> STR_7(12), STR_6(15), STR_5(11), STR_4(14), 
  2607 ;;		 -> STR_3(18), STR_2(18), 
  2608 ;; Return value:  Size  Location     Type
  2609 ;;                  2   39[BANK0 ] int 
  2610 ;; Registers used:
  2611 ;;		wreg, fsr0l, fsr0h, status,2, status,0, pclath, btemp1, cstack
  2612 ;; Tracked objects:
  2613 ;;		On entry : 0/0
  2614 ;;		On exit  : 0/0
  2615 ;;		Unchanged: 0/0
  2616 ;; Data sizes:     COMMON   BANK0   BANK1   BANK3   BANK2
  2617 ;;      Params:         0       4       0       0       0
  2618 ;;      Locals:         0       1       0       0       0
  2619 ;;      Temps:          0       0       0       0       0
  2620 ;;      Totals:         0       5       0       0       0
  2621 ;;Total ram usage:        5 bytes
  2622 ;; Hardware stack levels used: 1
  2623 ;; Hardware stack levels required when called: 5
  2624 ;; This function calls:
  2625 ;;		_vfpfcnvrt
  2626 ;; This function is called by:
  2627 ;;		_sprintf
  2628 ;; This function uses a non-reentrant model
  2629 ;;
  2630                           
  2631     1287                     _vfprintf:	
  2632                           ;psect for function _vfprintf
  2633                           
  2634     1287                     l3024:	
  2635                           ;incstack = 0
  2636                           ; Regs used in _vfprintf: [wreg-fsr0h+status,2+status,0+pclath+btemp1+cstack]
  2637                           
  2638                           
  2639                           ;C:\Program Files\Microchip\xc8\v3.10\pic\sources\c99\common\doprnt.c: 1817: int vfprint
      +                          f(FILE *fp, const char *fmt, va_list ap);C:\Program Files\Microchip\xc8\v3.10\pic\source
      +                          s\c99\common\doprnt.c: 1818: {;C:\Program Files\Microchip\xc8\v3.10\pic\sources\c99\comm
      +                          on\doprnt.c: 1820:     char *cfmt;;C:\Program Files\Microchip\xc8\v3.10\pic\sources\c99\
      +                          common\doprnt.c: 1822:     cfmt = (char *)fmt;
  2640     1287  1283               	bcf	3,5	;RP0=0, select bank0
  2641     1288  1303               	bcf	3,6	;RP1=0, select bank0
  2642     1289  0849               	movf	vfprintf@fmt,w
  2643     128A  00CB               	movwf	vfprintf@cfmt
  2644                           
  2645                           ;C:\Program Files\Microchip\xc8\v3.10\pic\sources\c99\common\doprnt.c: 1826:     while (
      +                          *cfmt) {
  2646     128B  2A99               	goto	l3028
  2647     128C                     l3026:
  2648                           
  2649                           ;C:\Program Files\Microchip\xc8\v3.10\pic\sources\c99\common\doprnt.c: 1830:    vfpfcnvr
      +                          t(fp, &cfmt, ap);
  2650     128C  0847               	movf	vfprintf@fp,w
  2651     128D  00BB               	movwf	vfpfcnvrt@fp
  2652     128E  0848               	movf	vfprintf@fp+1,w
  2653     128F  00BC               	movwf	vfpfcnvrt@fp+1
  2654     1290  304B               	movlw	(low (vfprintf@cfmt| 0))& (0+255)
  2655     1291  00BD               	movwf	vfpfcnvrt@fmt
  2656     1292  084A               	movf	vfprintf@ap,w
  2657     1293  00BE               	movwf	vfpfcnvrt@ap
  2658     1294  120A  118A  206A  160A  118A  	fcall	_vfpfcnvrt
  2659     1299                     l3028:
  2660                           
  2661                           ;C:\Program Files\Microchip\xc8\v3.10\pic\sources\c99\common\doprnt.c: 1826:     while (
      +                          *cfmt) {
  2662     1299  1283               	bcf	3,5	;RP0=0, select bank0
  2663     129A  1303               	bcf	3,6	;RP1=0, select bank0
  2664     129B  084B               	movf	vfprintf@cfmt,w
  2665     129C  0084               	movwf	4
  2666     129D  160A  118A  200A  160A  118A  	fcall	stringdir
  2667     12A2  3A00               	xorlw	0
  2668     12A3  1D03               	skipz
  2669     12A4  2AA6               	goto	u3951
  2670     12A5  2AA7               	goto	u3950
  2671     12A6                     u3951:
  2672     12A6  2A8C               	goto	l3026
  2673     12A7                     u3950:
  2674     12A7                     l3030:
  2675                           
  2676                           ;C:\Program Files\Microchip\xc8\v3.10\pic\sources\c99\common\doprnt.c: 1835:  return 0;
  2677     12A7  01C7               	clrf	?_vfprintf
  2678     12A8  01C8               	clrf	?_vfprintf+1
  2679     12A9                     l886:
  2680     12A9  0008               	return
  2681     12AA                     __end_of_vfprintf:
  2682                           
  2683                           	psect	text3
  2684     006A                     __ptext3:	
  2685 ;; *************** function _vfpfcnvrt *****************
  2686 ;; Defined at:
  2687 ;;		line 1177 in file "C:\Program Files\Microchip\xc8\v3.10\pic\sources\c99\common\doprnt.c"
  2688 ;; Parameters:    Size  Location     Type
  2689 ;;  fp              2   27[BANK0 ] PTR struct _IO_FILE
  2690 ;;		 -> sprintf@f(11), 
  2691 ;;  fmt             1   29[BANK0 ] PTR PTR unsigned char 
  2692 ;;		 -> vfprintf@cfmt(1), 
  2693 ;;  ap              1   30[BANK0 ] PTR PTR void 
  2694 ;;		 -> sprintf@ap(1), 
  2695 ;; Auto vars:     Size  Location     Type
  2696 ;;  convarg         4   33[BANK0 ] struct .
  2697 ;;  cp              1   38[BANK0 ] PTR unsigned char 
  2698 ;;		 -> STR_7(12), STR_6(15), STR_5(11), STR_4(14), 
  2699 ;;		 -> STR_3(18), STR_2(18), 
  2700 ;;  done            1   37[BANK0 ] _Bool 
  2701 ;;  c               1    0        unsigned char 
  2702 ;; Return value:  Size  Location     Type
  2703 ;;                  1    wreg      void 
  2704 ;; Registers used:
  2705 ;;		wreg, fsr0l, fsr0h, status,2, status,0, pclath, btemp1, cstack
  2706 ;; Tracked objects:
  2707 ;;		On entry : 0/0
  2708 ;;		On exit  : 0/0
  2709 ;;		Unchanged: 0/0
  2710 ;; Data sizes:     COMMON   BANK0   BANK1   BANK3   BANK2
  2711 ;;      Params:         0       4       0       0       0
  2712 ;;      Locals:         0       6       0       0       0
  2713 ;;      Temps:          0       2       0       0       0
  2714 ;;      Totals:         0      12       0       0       0
  2715 ;;Total ram usage:       12 bytes
  2716 ;; Hardware stack levels used: 1
  2717 ;; Hardware stack levels required when called: 4
  2718 ;; This function calls:
  2719 ;;		_dtoa
  2720 ;;		_fputc
  2721 ;;		_read_prec_or_width
  2722 ;; This function is called by:
  2723 ;;		_vfprintf
  2724 ;; This function uses a non-reentrant model
  2725 ;;
  2726                           
  2727     006A                     _vfpfcnvrt:	
  2728                           ;psect for function _vfpfcnvrt
  2729                           
  2730     006A                     l2474:	
  2731                           ;incstack = 0
  2732                           ; Regs used in _vfpfcnvrt: [wreg-fsr0h+status,2+status,0+pclath+btemp1+cstack]
  2733                           
  2734                           
  2735                           ;C:\Program Files\Microchip\xc8\v3.10\pic\sources\c99\common\doprnt.c: 1177: vfpfcnvrt(F
      +                          ILE *fp, char *fmt[], va_list ap);C:\Program Files\Microchip\xc8\v3.10\pic\sources\c99\c
      +                          ommon\doprnt.c: 1178: {;C:\Program Files\Microchip\xc8\v3.10\pic\sources\c99\common\dopr
      +                          nt.c: 1179:     char c, *cp;;C:\Program Files\Microchip\xc8\v3.10\pic\sources\c99\common
      +                          \doprnt.c: 1180:     _Bool done;;C:\Program Files\Microchip\xc8\v3.10\pic\sources\c99\co
      +                          mmon\doprnt.c: 1188:  } convarg;;C:\Program Files\Microchip\xc8\v3.10\pic\sources\c99\co
      +                          mmon\doprnt.c: 1201:     if ((*fmt)[0] == '%') {
  2736     006A  1283               	bcf	3,5	;RP0=0, select bank0
  2737     006B  1303               	bcf	3,6	;RP1=0, select bank0
  2738     006C  083D               	movf	vfpfcnvrt@fmt,w
  2739     006D  0084               	movwf	4
  2740     006E  1383               	bcf	3,7	;select IRP bank0
  2741     006F  0800               	movf	0,w
  2742     0070  0084               	movwf	4
  2743     0071  160A  118A  200A  120A  118A  	fcall	stringdir
  2744     0076  3A25               	xorlw	37
  2745     0077  1D03               	skipz
  2746     0078  287A               	goto	u2861
  2747     0079  287B               	goto	u2860
  2748     007A                     u2861:
  2749     007A  292C               	goto	l2526
  2750     007B                     u2860:
  2751     007B                     l2476:
  2752                           
  2753                           ;C:\Program Files\Microchip\xc8\v3.10\pic\sources\c99\common\doprnt.c: 1202:         ++*
      +                          fmt;
  2754     007B  083D               	movf	vfpfcnvrt@fmt,w
  2755     007C  0084               	movwf	4
  2756     007D  3001               	movlw	1
  2757     007E  0780               	addwf	0,f
  2758     007F                     l2478:
  2759                           
  2760                           ;C:\Program Files\Microchip\xc8\v3.10\pic\sources\c99\common\doprnt.c: 1204:         fla
      +                          gs = width = 0;
  2761     007F  1683               	bsf	3,5	;RP0=1, select bank1
  2762     0080  1303               	bcf	3,6	;RP1=0, select bank1
  2763     0081  01E0               	clrf	_width^(0+128)
  2764     0082  01E1               	clrf	(_width+1)^(0+128)
  2765     0083  3000               	movlw	0
  2766     0084  00E4               	movwf	_flags^(0+128)
  2767     0085                     l2480:
  2768                           
  2769                           ;C:\Program Files\Microchip\xc8\v3.10\pic\sources\c99\common\doprnt.c: 1205:         pre
      +                          c = -1;
  2770     0085  30FF               	movlw	255
  2771     0086  00E2               	movwf	_prec^(0+128)
  2772     0087  30FF               	movlw	255
  2773     0088  00E3               	movwf	(_prec^(0+128)+1)
  2774     0089                     l2482:
  2775                           
  2776                           ;C:\Program Files\Microchip\xc8\v3.10\pic\sources\c99\common\doprnt.c: 1209:         don
      +                          e = 0;
  2777     0089  1283               	bcf	3,5	;RP0=0, select bank0
  2778     008A  1303               	bcf	3,6	;RP1=0, select bank0
  2779     008B  01C5               	clrf	vfpfcnvrt@done
  2780                           
  2781                           ;C:\Program Files\Microchip\xc8\v3.10\pic\sources\c99\common\doprnt.c: 1210:         whi
      +                          le (!done) {
  2782     008C  28A7               	goto	l2490
  2783     008D                     l871:	
  2784                           ;C:\Program Files\Microchip\xc8\v3.10\pic\sources\c99\common\doprnt.c: 1219:            
      +                               case '0' :
  2785                           
  2786                           
  2787                           ;C:\Program Files\Microchip\xc8\v3.10\pic\sources\c99\common\doprnt.c: 1220:            
      +                                   flags |= (1 << 1);
  2788     008D  1683               	bsf	3,5	;RP0=1, select bank1
  2789     008E  1303               	bcf	3,6	;RP1=0, select bank1
  2790     008F  14E4               	bsf	_flags^(0+128),1
  2791     0090                     l2484:
  2792                           
  2793                           ;C:\Program Files\Microchip\xc8\v3.10\pic\sources\c99\common\doprnt.c: 1221:            
      +                                   ++*fmt;
  2794     0090  1283               	bcf	3,5	;RP0=0, select bank0
  2795     0091  1303               	bcf	3,6	;RP1=0, select bank0
  2796     0092  083D               	movf	vfpfcnvrt@fmt,w
  2797     0093  0084               	movwf	4
  2798     0094  3001               	movlw	1
  2799     0095  0780               	addwf	0,f
  2800                           
  2801                           ;C:\Program Files\Microchip\xc8\v3.10\pic\sources\c99\common\doprnt.c: 1222:            
      +                                   break;
  2802     0096  28A7               	goto	l2490
  2803     0097                     l873:	
  2804                           ;C:\Program Files\Microchip\xc8\v3.10\pic\sources\c99\common\doprnt.c: 1242:            
      +                               default:
  2805                           
  2806                           
  2807                           ;C:\Program Files\Microchip\xc8\v3.10\pic\sources\c99\common\doprnt.c: 1243:            
      +                                   done = 1;
  2808     0097  3001               	movlw	1
  2809     0098  00C5               	movwf	vfpfcnvrt@done
  2810                           
  2811                           ;C:\Program Files\Microchip\xc8\v3.10\pic\sources\c99\common\doprnt.c: 1244:            
      +                                   break;
  2812     0099  28A7               	goto	l2490
  2813     009A                     l2488:
  2814     009A  083D               	movf	vfpfcnvrt@fmt,w
  2815     009B  0084               	movwf	4
  2816     009C  0800               	movf	0,w
  2817     009D  0084               	movwf	4
  2818     009E  160A  118A  200A  120A  118A  	fcall	stringdir
  2819                           
  2820                           ; Switch size 1, requested type "simple"
  2821                           ; Number of cases is 1, Range of values is 48 to 48
  2822                           ; switch strategies available:
  2823                           ; Name         Instructions Cycles
  2824                           ; simple_byte            4     3 (average)
  2825                           ; direct_byte           14    11 (fixed)
  2826                           ; jumptable            263     9 (fixed)
  2827                           ;	Chosen strategy is simple_byte
  2828     00A3  3A30               	xorlw	48	; case 48
  2829     00A4  1903               	skipnz
  2830     00A5  288D               	goto	l871
  2831     00A6  2897               	goto	l873
  2832     00A7                     l2490:
  2833                           
  2834                           ;C:\Program Files\Microchip\xc8\v3.10\pic\sources\c99\common\doprnt.c: 1210:         whi
      +                          le (!done) {
  2835     00A7  0845               	movf	vfpfcnvrt@done,w
  2836     00A8  1903               	btfsc	3,2
  2837     00A9  28AB               	goto	u2871
  2838     00AA  28AC               	goto	u2870
  2839     00AB                     u2871:
  2840     00AB  289A               	goto	l2488
  2841     00AC                     u2870:
  2842     00AC                     l2492:
  2843                           
  2844                           ;C:\Program Files\Microchip\xc8\v3.10\pic\sources\c99\common\doprnt.c: 1256:   width = r
      +                          ead_prec_or_width(fmt, ap);
  2845     00AC  083D               	movf	vfpfcnvrt@fmt,w
  2846     00AD  00F6               	movwf	read_prec_or_width@fmt
  2847     00AE  083E               	movf	vfpfcnvrt@ap,w
  2848     00AF  00F7               	movwf	read_prec_or_width@ap
  2849     00B0  160A  118A  257D  120A  118A  	fcall	_read_prec_or_width
  2850     00B5  0877               	movf	?_read_prec_or_width+1,w
  2851     00B6  1683               	bsf	3,5	;RP0=1, select bank1
  2852     00B7  1303               	bcf	3,6	;RP1=0, select bank1
  2853     00B8  00E1               	movwf	(_width+1)^(0+128)
  2854     00B9  0876               	movf	?_read_prec_or_width,w
  2855     00BA  00E0               	movwf	_width^(0+128)
  2856     00BB                     l2494:
  2857                           
  2858                           ;C:\Program Files\Microchip\xc8\v3.10\pic\sources\c99\common\doprnt.c: 1257:   if (width
      +                           < 0) {
  2859     00BB  1FE1               	btfss	(_width+1)^(0+128),7
  2860     00BC  28BE               	goto	u2881
  2861     00BD  28BF               	goto	u2880
  2862     00BE                     u2881:
  2863     00BE  28C5               	goto	l2500
  2864     00BF                     u2880:
  2865     00BF                     l2496:
  2866                           
  2867                           ;C:\Program Files\Microchip\xc8\v3.10\pic\sources\c99\common\doprnt.c: 1258:    flags |=
      +                           (1 << 0);
  2868     00BF  1464               	bsf	_flags^(0+128),0
  2869     00C0                     l2498:
  2870                           
  2871                           ;C:\Program Files\Microchip\xc8\v3.10\pic\sources\c99\common\doprnt.c: 1259:    width = 
      +                          -width;
  2872     00C0  09E0               	comf	_width^(0+128),f
  2873     00C1  09E1               	comf	(_width+1)^(0+128),f
  2874     00C2  0AE0               	incf	_width^(0+128),f
  2875     00C3  1903               	skipnz
  2876     00C4  0AE1               	incf	(_width+1)^(0+128),f
  2877     00C5                     l2500:
  2878                           
  2879                           ;C:\Program Files\Microchip\xc8\v3.10\pic\sources\c99\common\doprnt.c: 1291:   cp = *fmt
      +                          ;
  2880     00C5  1283               	bcf	3,5	;RP0=0, select bank0
  2881     00C6  1303               	bcf	3,6	;RP1=0, select bank0
  2882     00C7  083D               	movf	vfpfcnvrt@fmt,w
  2883     00C8  0084               	movwf	4
  2884     00C9  1383               	bcf	3,7	;select IRP bank0
  2885     00CA  0800               	movf	0,w
  2886     00CB  00C6               	movwf	vfpfcnvrt@cp
  2887     00CC                     l2502:
  2888                           
  2889                           ;C:\Program Files\Microchip\xc8\v3.10\pic\sources\c99\common\doprnt.c: 1361:   if (*cp =
      +                          = 'd' || *cp == 'i') {
  2890     00CC  0846               	movf	vfpfcnvrt@cp,w
  2891     00CD  0084               	movwf	4
  2892     00CE  160A  118A  200A  120A  118A  	fcall	stringdir
  2893     00D3  3A64               	xorlw	100
  2894     00D4  1903               	skipnz
  2895     00D5  28D7               	goto	u2891
  2896     00D6  28D8               	goto	u2890
  2897     00D7                     u2891:
  2898     00D7  28E4               	goto	l2506
  2899     00D8                     u2890:
  2900     00D8                     l2504:
  2901     00D8  0846               	movf	vfpfcnvrt@cp,w
  2902     00D9  0084               	movwf	4
  2903     00DA  160A  118A  200A  120A  118A  	fcall	stringdir
  2904     00DF  3A69               	xorlw	105
  2905     00E0  1D03               	skipz
  2906     00E1  28E3               	goto	u2901
  2907     00E2  28E4               	goto	u2900
  2908     00E3                     u2901:
  2909     00E3  2904               	goto	l2514
  2910     00E4                     u2900:
  2911     00E4                     l2506:
  2912                           
  2913                           ;C:\Program Files\Microchip\xc8\v3.10\pic\sources\c99\common\doprnt.c: 1404:    convarg.
      +                          sint = (vfpf_sint_t)(int)(*(int *)__va_arg(*(int **)ap, (int)0));
  2914     00E4  083E               	movf	vfpfcnvrt@ap,w
  2915     00E5  0084               	movwf	4
  2916     00E6  0800               	movf	0,w
  2917     00E7  00FF               	movwf	btemp1
  2918     00E8  3002               	movlw	2
  2919     00E9  0780               	addwf	0,f
  2920     00EA  087F               	movf	btemp1,w
  2921     00EB  0084               	movwf	4
  2922     00EC  0800               	movf	0,w
  2923     00ED  00C1               	movwf	vfpfcnvrt@convarg
  2924     00EE  0A84               	incf	4,f
  2925     00EF  0800               	movf	0,w
  2926     00F0  00C2               	movwf	vfpfcnvrt@convarg+1
  2927     00F1                     l2508:
  2928                           
  2929                           ;C:\Program Files\Microchip\xc8\v3.10\pic\sources\c99\common\doprnt.c: 1406:    *fmt = c
      +                          p+1;
  2930     00F1  083D               	movf	vfpfcnvrt@fmt,w
  2931     00F2  0084               	movwf	4
  2932     00F3  0846               	movf	vfpfcnvrt@cp,w
  2933     00F4  3E01               	addlw	1
  2934     00F5  0080               	movwf	0
  2935     00F6                     l2510:
  2936                           
  2937                           ;C:\Program Files\Microchip\xc8\v3.10\pic\sources\c99\common\doprnt.c: 1432:    return (
      +                          void) dtoa(fp, convarg.sint);;	Return value of _vfpfcnvrt is never used
  2938     00F6  083B               	movf	vfpfcnvrt@fp,w
  2939     00F7  00AF               	movwf	dtoa@fp
  2940     00F8  083C               	movf	vfpfcnvrt@fp+1,w
  2941     00F9  00B0               	movwf	dtoa@fp+1
  2942     00FA  0842               	movf	vfpfcnvrt@convarg+1,w
  2943     00FB  00B2               	movwf	dtoa@d+1
  2944     00FC  0841               	movf	vfpfcnvrt@convarg,w
  2945     00FD  00B1               	movwf	dtoa@d
  2946     00FE  120A  158A  21D0  120A  118A  	fcall	_dtoa
  2947     0103  2945               	goto	l879
  2948     0104                     l2514:
  2949                           
  2950                           ;C:\Program Files\Microchip\xc8\v3.10\pic\sources\c99\common\doprnt.c: 1798:         if 
      +                          ((*fmt)[0] == '%') {
  2951     0104  083D               	movf	vfpfcnvrt@fmt,w
  2952     0105  0084               	movwf	4
  2953     0106  0800               	movf	0,w
  2954     0107  0084               	movwf	4
  2955     0108  160A  118A  200A  120A  118A  	fcall	stringdir
  2956     010D  3A25               	xorlw	37
  2957     010E  1D03               	skipz
  2958     010F  2911               	goto	u2911
  2959     0110  2912               	goto	u2910
  2960     0111                     u2911:
  2961     0111  2924               	goto	l2522
  2962     0112                     u2910:
  2963     0112                     l2516:
  2964                           
  2965                           ;C:\Program Files\Microchip\xc8\v3.10\pic\sources\c99\common\doprnt.c: 1799:            
      +                           ++*fmt;
  2966     0112  083D               	movf	vfpfcnvrt@fmt,w
  2967     0113  0084               	movwf	4
  2968     0114  3001               	movlw	1
  2969     0115  0780               	addwf	0,f
  2970     0116                     l2518:
  2971                           
  2972                           ;C:\Program Files\Microchip\xc8\v3.10\pic\sources\c99\common\doprnt.c: 1800:            
      +                           fputc((int)'%', fp);
  2973     0116  3025               	movlw	37
  2974     0117  00F0               	movwf	fputc@c
  2975     0118  3000               	movlw	0
  2976     0119  00F1               	movwf	fputc@c+1
  2977     011A  083B               	movf	vfpfcnvrt@fp,w
  2978     011B  00F2               	movwf	fputc@fp
  2979     011C  083C               	movf	vfpfcnvrt@fp+1,w
  2980     011D  00F3               	movwf	fputc@fp+1
  2981     011E  120A  158A  2082  120A  118A  	fcall	_fputc
  2982     0123  2945               	goto	l879
  2983     0124                     l2522:
  2984                           
  2985                           ;C:\Program Files\Microchip\xc8\v3.10\pic\sources\c99\common\doprnt.c: 1806:         ++*
      +                          fmt;
  2986     0124  1283               	bcf	3,5	;RP0=0, select bank0
  2987     0125  1303               	bcf	3,6	;RP1=0, select bank0
  2988     0126  083D               	movf	vfpfcnvrt@fmt,w
  2989     0127  0084               	movwf	4
  2990     0128  3001               	movlw	1
  2991     0129  1383               	bcf	3,7	;select IRP bank0
  2992     012A  0780               	addwf	0,f
  2993     012B  2945               	goto	l879
  2994     012C                     l2526:
  2995                           
  2996                           ;C:\Program Files\Microchip\xc8\v3.10\pic\sources\c99\common\doprnt.c: 1811:     fputc((
      +                          int)(*fmt)[0], fp);
  2997     012C  083D               	movf	vfpfcnvrt@fmt,w
  2998     012D  0084               	movwf	4
  2999     012E  0800               	movf	0,w
  3000     012F  0084               	movwf	4
  3001     0130  160A  118A  200A  120A  118A  	fcall	stringdir
  3002     0135  00BF               	movwf	??_vfpfcnvrt
  3003     0136  01C0               	clrf	??_vfpfcnvrt+1
  3004     0137  083F               	movf	??_vfpfcnvrt,w
  3005     0138  00F0               	movwf	fputc@c
  3006     0139  0840               	movf	??_vfpfcnvrt+1,w
  3007     013A  00F1               	movwf	fputc@c+1
  3008     013B  083B               	movf	vfpfcnvrt@fp,w
  3009     013C  00F2               	movwf	fputc@fp
  3010     013D  083C               	movf	vfpfcnvrt@fp+1,w
  3011     013E  00F3               	movwf	fputc@fp+1
  3012     013F  120A  158A  2082  120A  118A  	fcall	_fputc
  3013     0144  2924               	goto	l2522
  3014     0145                     l879:
  3015     0145  0008               	return
  3016     0146                     __end_of_vfpfcnvrt:
  3017                           
  3018                           	psect	text4
  3019     157D                     __ptext4:	
  3020 ;; *************** function _read_prec_or_width *****************
  3021 ;; Defined at:
  3022 ;;		line 1158 in file "C:\Program Files\Microchip\xc8\v3.10\pic\sources\c99\common\doprnt.c"
  3023 ;; Parameters:    Size  Location     Type
  3024 ;;  fmt             1    6[COMMON] PTR PTR const unsigned c
  3025 ;;		 -> vfprintf@cfmt(1), 
  3026 ;;  ap              1    7[COMMON] PTR PTR void [1]
  3027 ;;		 -> sprintf@ap(1), 
  3028 ;; Auto vars:     Size  Location     Type
  3029 ;;  c               1    8[COMMON] unsigned char 
  3030 ;;  n               2    9[COMMON] int 
  3031 ;; Return value:  Size  Location     Type
  3032 ;;                  2    6[COMMON] int 
  3033 ;; Registers used:
  3034 ;;		wreg, fsr0l, fsr0h, status,2, status,0, pclath, btemp1, cstack
  3035 ;; Tracked objects:
  3036 ;;		On entry : 0/0
  3037 ;;		On exit  : 0/0
  3038 ;;		Unchanged: 0/0
  3039 ;; Data sizes:     COMMON   BANK0   BANK1   BANK3   BANK2
  3040 ;;      Params:         2       0       0       0       0
  3041 ;;      Locals:         3       0       0       0       0
  3042 ;;      Temps:          0       0       0       0       0
  3043 ;;      Totals:         5       0       0       0       0
  3044 ;;Total ram usage:        5 bytes
  3045 ;; Hardware stack levels used: 1
  3046 ;; Hardware stack levels required when called: 1
  3047 ;; This function calls:
  3048 ;;		___wmul
  3049 ;; This function is called by:
  3050 ;;		_vfpfcnvrt
  3051 ;; This function uses a non-reentrant model
  3052 ;;
  3053                           
  3054     157D                     _read_prec_or_width:	
  3055                           ;psect for function _read_prec_or_width
  3056                           
  3057     157D                     l2432:	
  3058                           ;incstack = 0
  3059                           ; Regs used in _read_prec_or_width: [wreg-fsr0h+status,2+status,0+pclath+btemp1+cstack]
  3060                           
  3061                           
  3062                           ;C:\Program Files\Microchip\xc8\v3.10\pic\sources\c99\common\doprnt.c: 1159:     int n =
      +                           0;
  3063     157D  01F9               	clrf	read_prec_or_width@n
  3064     157E  01FA               	clrf	read_prec_or_width@n+1
  3065     157F                     l2434:
  3066                           
  3067                           ;C:\Program Files\Microchip\xc8\v3.10\pic\sources\c99\common\doprnt.c: 1160:     if ((*f
      +                          mt)[0] == '*') {
  3068     157F  0876               	movf	read_prec_or_width@fmt,w
  3069     1580  0084               	movwf	4
  3070     1581  1383               	bcf	3,7	;select IRP bank0
  3071     1582  0800               	movf	0,w
  3072     1583  0084               	movwf	4
  3073     1584  160A  118A  200A  160A  118A  	fcall	stringdir
  3074     1589  3A2A               	xorlw	42
  3075     158A  1D03               	skipz
  3076     158B  2D8D               	goto	u2791
  3077     158C  2D8E               	goto	u2790
  3078     158D                     u2791:
  3079     158D  2DBA               	goto	l2444
  3080     158E                     u2790:
  3081     158E                     l2436:
  3082                           
  3083                           ;C:\Program Files\Microchip\xc8\v3.10\pic\sources\c99\common\doprnt.c: 1161:         ++*
      +                          fmt;
  3084     158E  0876               	movf	read_prec_or_width@fmt,w
  3085     158F  0084               	movwf	4
  3086     1590  3001               	movlw	1
  3087     1591  0780               	addwf	0,f
  3088     1592                     l2438:
  3089                           
  3090                           ;C:\Program Files\Microchip\xc8\v3.10\pic\sources\c99\common\doprnt.c: 1162:         n =
      +                           (*(int *)__va_arg(*(int **)*ap, (int)0));
  3091     1592  0877               	movf	read_prec_or_width@ap,w
  3092     1593  0084               	movwf	4
  3093     1594  0800               	movf	0,w
  3094     1595  00FF               	movwf	btemp1
  3095     1596  3002               	movlw	2
  3096     1597  0780               	addwf	0,f
  3097     1598  087F               	movf	btemp1,w
  3098     1599  0084               	movwf	4
  3099     159A  0800               	movf	0,w
  3100     159B  00F9               	movwf	read_prec_or_width@n
  3101     159C  0A84               	incf	4,f
  3102     159D  0800               	movf	0,w
  3103     159E  00FA               	movwf	read_prec_or_width@n+1
  3104                           
  3105                           ;C:\Program Files\Microchip\xc8\v3.10\pic\sources\c99\common\doprnt.c: 1163:     } else 
      +                          {
  3106     159F  2DCB               	goto	l2446
  3107     15A0                     l2440:
  3108                           
  3109                           ;C:\Program Files\Microchip\xc8\v3.10\pic\sources\c99\common\doprnt.c: 1166:            
      +                           n = n * 10 + c;
  3110     15A0  087A               	movf	read_prec_or_width@n+1,w
  3111     15A1  00F1               	movwf	___wmul@multiplier+1
  3112     15A2  0879               	movf	read_prec_or_width@n,w
  3113     15A3  00F0               	movwf	___wmul@multiplier
  3114     15A4  300A               	movlw	10
  3115     15A5  00F2               	movwf	___wmul@multiplicand
  3116     15A6  3000               	movlw	0
  3117     15A7  00F3               	movwf	___wmul@multiplicand+1
  3118     15A8  160A  118A  22F1  160A  118A  	fcall	___wmul
  3119     15AD  0878               	movf	read_prec_or_width@c,w
  3120     15AE  0770               	addwf	?___wmul,w
  3121     15AF  00F9               	movwf	read_prec_or_width@n
  3122     15B0  3000               	movlw	0
  3123     15B1  1803               	skipnc
  3124     15B2  3001               	movlw	1
  3125     15B3  0771               	addwf	?___wmul+1,w
  3126     15B4  00FA               	movwf	read_prec_or_width@n+1
  3127     15B5                     l2442:
  3128                           
  3129                           ;C:\Program Files\Microchip\xc8\v3.10\pic\sources\c99\common\doprnt.c: 1167:            
      +                           ++*fmt;
  3130     15B5  0876               	movf	read_prec_or_width@fmt,w
  3131     15B6  0084               	movwf	4
  3132     15B7  3001               	movlw	1
  3133     15B8  1383               	bcf	3,7	;select IRP bank0
  3134     15B9  0780               	addwf	0,f
  3135     15BA                     l2444:
  3136                           
  3137                           ;C:\Program Files\Microchip\xc8\v3.10\pic\sources\c99\common\doprnt.c: 1165:         whi
      +                          le ((c = ((unsigned)(*fmt)[0]) - '0') < 10) {
  3138     15BA  0876               	movf	read_prec_or_width@fmt,w
  3139     15BB  0084               	movwf	4
  3140     15BC  0800               	movf	0,w
  3141     15BD  0084               	movwf	4
  3142     15BE  160A  118A  200A  160A  118A  	fcall	stringdir
  3143     15C3  3ED0               	addlw	208
  3144     15C4  00F8               	movwf	read_prec_or_width@c
  3145     15C5  300A               	movlw	10
  3146     15C6  0278               	subwf	read_prec_or_width@c,w
  3147     15C7  1C03               	skipc
  3148     15C8  2DCA               	goto	u2801
  3149     15C9  2DCB               	goto	u2800
  3150     15CA                     u2801:
  3151     15CA  2DA0               	goto	l2440
  3152     15CB                     u2800:
  3153     15CB                     l2446:
  3154                           
  3155                           ;C:\Program Files\Microchip\xc8\v3.10\pic\sources\c99\common\doprnt.c: 1170:     return 
      +                          n;
  3156     15CB  087A               	movf	read_prec_or_width@n+1,w
  3157     15CC  00F7               	movwf	?_read_prec_or_width+1
  3158     15CD  0879               	movf	read_prec_or_width@n,w
  3159     15CE  00F6               	movwf	?_read_prec_or_width
  3160     15CF                     l864:
  3161     15CF  0008               	return
  3162     15D0                     __end_of_read_prec_or_width:
  3163                           
  3164                           	psect	text5
  3165     12F1                     __ptext5:	
  3166 ;; *************** function ___wmul *****************
  3167 ;; Defined at:
  3168 ;;		line 15 in file "C:\Program Files\Microchip\xc8\v3.10\pic\sources\c99\common\Umul16.c"
  3169 ;; Parameters:    Size  Location     Type
  3170 ;;  multiplier      2    0[COMMON] unsigned int 
  3171 ;;  multiplicand    2    2[COMMON] unsigned int 
  3172 ;; Auto vars:     Size  Location     Type
  3173 ;;  product         2    4[COMMON] unsigned int 
  3174 ;; Return value:  Size  Location     Type
  3175 ;;                  2    0[COMMON] unsigned int 
  3176 ;; Registers used:
  3177 ;;		wreg, status,2, status,0
  3178 ;; Tracked objects:
  3179 ;;		On entry : 0/0
  3180 ;;		On exit  : 0/0
  3181 ;;		Unchanged: 0/0
  3182 ;; Data sizes:     COMMON   BANK0   BANK1   BANK3   BANK2
  3183 ;;      Params:         4       0       0       0       0
  3184 ;;      Locals:         2       0       0       0       0
  3185 ;;      Temps:          0       0       0       0       0
  3186 ;;      Totals:         6       0       0       0       0
  3187 ;;Total ram usage:        6 bytes
  3188 ;; Hardware stack levels used: 1
  3189 ;; This function calls:
  3190 ;;		Nothing
  3191 ;; This function is called by:
  3192 ;;		_read_prec_or_width
  3193 ;; This function uses a non-reentrant model
  3194 ;;
  3195                           
  3196     12F1                     ___wmul:	
  3197                           ;psect for function ___wmul
  3198                           
  3199     12F1                     l2266:	
  3200                           ;incstack = 0
  3201                           ; Regs used in ___wmul: [wreg+status,2+status,0]
  3202                           
  3203     12F1  01F4               	clrf	___wmul@product
  3204     12F2  01F5               	clrf	___wmul@product+1
  3205     12F3                     l2268:
  3206     12F3  1C70               	btfss	___wmul@multiplier,0
  3207     12F4  2AF6               	goto	u2411
  3208     12F5  2AF7               	goto	u2410
  3209     12F6                     u2411:
  3210     12F6  2AFD               	goto	l352
  3211     12F7                     u2410:
  3212     12F7                     l2270:
  3213     12F7  0872               	movf	___wmul@multiplicand,w
  3214     12F8  07F4               	addwf	___wmul@product,f
  3215     12F9  1803               	skipnc
  3216     12FA  0AF5               	incf	___wmul@product+1,f
  3217     12FB  0873               	movf	___wmul@multiplicand+1,w
  3218     12FC  07F5               	addwf	___wmul@product+1,f
  3219     12FD                     l352:
  3220     12FD  3001               	movlw	1
  3221     12FE                     u2425:
  3222     12FE  1003               	clrc
  3223     12FF  0DF2               	rlf	___wmul@multiplicand,f
  3224     1300  0DF3               	rlf	___wmul@multiplicand+1,f
  3225     1301  3EFF               	addlw	-1
  3226     1302  1D03               	skipz
  3227     1303  2AFE               	goto	u2425
  3228     1304                     l2272:
  3229     1304  3001               	movlw	1
  3230     1305                     u2435:
  3231     1305  1003               	clrc
  3232     1306  0CF1               	rrf	___wmul@multiplier+1,f
  3233     1307  0CF0               	rrf	___wmul@multiplier,f
  3234     1308  3EFF               	addlw	-1
  3235     1309  1D03               	skipz
  3236     130A  2B05               	goto	u2435
  3237     130B                     l2274:
  3238     130B  0870               	movf	___wmul@multiplier,w
  3239     130C  0471               	iorwf	___wmul@multiplier+1,w
  3240     130D  1D03               	btfss	3,2
  3241     130E  2B10               	goto	u2441
  3242     130F  2B11               	goto	u2440
  3243     1310                     u2441:
  3244     1310  2AF3               	goto	l2268
  3245     1311                     u2440:
  3246     1311                     l2276:
  3247     1311  0875               	movf	___wmul@product+1,w
  3248     1312  00F1               	movwf	?___wmul+1
  3249     1313  0874               	movf	___wmul@product,w
  3250     1314  00F0               	movwf	?___wmul
  3251     1315                     l354:
  3252     1315  0008               	return
  3253     1316                     __end_of___wmul:
  3254                           
  3255                           	psect	text6
  3256     09D0                     __ptext6:	
  3257 ;; *************** function _dtoa *****************
  3258 ;; Defined at:
  3259 ;;		line 513 in file "C:\Program Files\Microchip\xc8\v3.10\pic\sources\c99\common\doprnt.c"
  3260 ;; Parameters:    Size  Location     Type
  3261 ;;  fp              2   15[BANK0 ] PTR struct _IO_FILE
  3262 ;;		 -> sprintf@f(11), 
  3263 ;;  d               2   17[BANK0 ] int 
  3264 ;; Auto vars:     Size  Location     Type
  3265 ;;  i               2   25[BANK0 ] int 
  3266 ;;  w               2   22[BANK0 ] int 
  3267 ;;  s               1   24[BANK0 ] unsigned char 
  3268 ;;  p               1   21[BANK0 ] _Bool 
  3269 ;; Return value:  Size  Location     Type
  3270 ;;                  1    wreg      void 
  3271 ;; Registers used:
  3272 ;;		wreg, fsr0l, fsr0h, status,2, status,0, pclath, btemp1, cstack
  3273 ;; Tracked objects:
  3274 ;;		On entry : 0/0
  3275 ;;		On exit  : 0/0
  3276 ;;		Unchanged: 0/0
  3277 ;; Data sizes:     COMMON   BANK0   BANK1   BANK3   BANK2
  3278 ;;      Params:         0       4       0       0       0
  3279 ;;      Locals:         0       8       0       0       0
  3280 ;;      Temps:          0       0       0       0       0
  3281 ;;      Totals:         0      12       0       0       0
  3282 ;;Total ram usage:       12 bytes
  3283 ;; Hardware stack levels used: 1
  3284 ;; Hardware stack levels required when called: 3
  3285 ;; This function calls:
  3286 ;;		___awdiv
  3287 ;;		___awmod
  3288 ;;		_abs
  3289 ;;		_pad
  3290 ;; This function is called by:
  3291 ;;		_vfpfcnvrt
  3292 ;; This function uses a non-reentrant model
  3293 ;;
  3294                           
  3295     09D0                     _dtoa:	
  3296                           ;psect for function _dtoa
  3297                           
  3298     09D0                     l2386:	
  3299                           ;incstack = 0
  3300                           ; Regs used in _dtoa: [wreg-fsr0h+status,2+status,0+pclath+btemp1+cstack]
  3301                           
  3302                           
  3303                           ;C:\Program Files\Microchip\xc8\v3.10\pic\sources\c99\common\doprnt.c: 513: static void 
      +                          dtoa(FILE *fp, vfpf_sint_t d);C:\Program Files\Microchip\xc8\v3.10\pic\sources\c99\commo
      +                          n\doprnt.c: 514: {;C:\Program Files\Microchip\xc8\v3.10\pic\sources\c99\common\doprnt.c:
      +                           515:  char s;;C:\Program Files\Microchip\xc8\v3.10\pic\sources\c99\common\doprnt.c: 516
      +                          :     int i, w;;C:\Program Files\Microchip\xc8\v3.10\pic\sources\c99\common\doprnt.c: 52
      +                          0:  _Bool p = 1;
  3304     09D0  3001               	movlw	1
  3305     09D1  1283               	bcf	3,5	;RP0=0, select bank0
  3306     09D2  1303               	bcf	3,6	;RP1=0, select bank0
  3307     09D3  00B5               	movwf	dtoa@p
  3308     09D4                     l2388:
  3309                           
  3310                           ;C:\Program Files\Microchip\xc8\v3.10\pic\sources\c99\common\doprnt.c: 524:     s = d < 
      +                          0 ? 1 : 0;
  3311     09D4  1BB2               	btfsc	dtoa@d+1,7
  3312     09D5  29D7               	goto	u2691
  3313     09D6  29D9               	goto	u2690
  3314     09D7                     u2691:
  3315     09D7  3001               	movlw	1
  3316     09D8  29DA               	goto	u2700
  3317     09D9                     u2690:
  3318     09D9  3000               	movlw	0
  3319     09DA                     u2700:
  3320     09DA  00B8               	movwf	dtoa@s
  3321                           
  3322                           ;C:\Program Files\Microchip\xc8\v3.10\pic\sources\c99\common\doprnt.c: 535:     w = widt
      +                          h;
  3323     09DB  1683               	bsf	3,5	;RP0=1, select bank1
  3324     09DC  1303               	bcf	3,6	;RP1=0, select bank1
  3325     09DD  0861               	movf	(_width+1)^(0+128),w
  3326     09DE  1283               	bcf	3,5	;RP0=0, select bank0
  3327     09DF  1303               	bcf	3,6	;RP1=0, select bank0
  3328     09E0  00B7               	movwf	dtoa@w+1
  3329     09E1  1683               	bsf	3,5	;RP0=1, select bank1
  3330     09E2  1303               	bcf	3,6	;RP1=0, select bank1
  3331     09E3  0860               	movf	_width^(0+128),w
  3332     09E4  1283               	bcf	3,5	;RP0=0, select bank0
  3333     09E5  1303               	bcf	3,6	;RP1=0, select bank0
  3334     09E6  00B6               	movwf	dtoa@w
  3335     09E7                     l2390:
  3336                           
  3337                           ;C:\Program Files\Microchip\xc8\v3.10\pic\sources\c99\common\doprnt.c: 536:     if (s
  3338     09E7  0838               	movf	dtoa@s,w
  3339     09E8  1903               	btfsc	3,2
  3340     09E9  29EB               	goto	u2711
  3341     09EA  29EC               	goto	u2710
  3342     09EB                     u2711:
  3343     09EB  2A02               	goto	l843
  3344     09EC                     u2710:
  3345     09EC                     l2392:
  3346                           
  3347                           ;C:\Program Files\Microchip\xc8\v3.10\pic\sources\c99\common\doprnt.c: 540:     ) {;C:\P
      +                          rogram Files\Microchip\xc8\v3.10\pic\sources\c99\common\doprnt.c: 541:         --w;
  3348     09EC  30FF               	movlw	255
  3349     09ED  07B6               	addwf	dtoa@w,f
  3350     09EE  1803               	skipnc
  3351     09EF  0AB7               	incf	dtoa@w+1,f
  3352     09F0  30FF               	movlw	255
  3353     09F1  07B7               	addwf	dtoa@w+1,f
  3354     09F2                     l2394:
  3355                           
  3356                           ;C:\Program Files\Microchip\xc8\v3.10\pic\sources\c99\common\doprnt.c: 542:   s = s ? '-
      +                          ' : '+';
  3357     09F2  0838               	movf	dtoa@s,w
  3358     09F3  1D03               	btfss	3,2
  3359     09F4  29F6               	goto	u2721
  3360     09F5  29F7               	goto	u2720
  3361     09F6                     u2721:
  3362     09F6  29FC               	goto	l2398
  3363     09F7                     u2720:
  3364     09F7                     l2396:
  3365     09F7  302B               	movlw	43
  3366     09F8  00B3               	movwf	_dtoa$933
  3367     09F9  3000               	movlw	0
  3368     09FA  00B4               	movwf	_dtoa$933+1
  3369     09FB  2A00               	goto	l847
  3370     09FC                     l2398:
  3371     09FC  302D               	movlw	45
  3372     09FD  00B3               	movwf	_dtoa$933
  3373     09FE  3000               	movlw	0
  3374     09FF  00B4               	movwf	_dtoa$933+1
  3375     0A00                     l847:
  3376     0A00  0833               	movf	_dtoa$933,w
  3377     0A01  00B8               	movwf	dtoa@s
  3378     0A02                     l843:	
  3379                           ;C:\Program Files\Microchip\xc8\v3.10\pic\sources\c99\common\doprnt.c: 543:     }
  3380                           
  3381                           
  3382                           ;C:\Program Files\Microchip\xc8\v3.10\pic\sources\c99\common\doprnt.c: 552:     i = size
      +                          of(dbuf) - 1;
  3383     0A02  301F               	movlw	31
  3384     0A03  00B9               	movwf	dtoa@i
  3385     0A04  3000               	movlw	0
  3386     0A05  00BA               	movwf	dtoa@i+1
  3387     0A06                     l2400:
  3388                           
  3389                           ;C:\Program Files\Microchip\xc8\v3.10\pic\sources\c99\common\doprnt.c: 553:     dbuf[i] 
      +                          = '\0';
  3390     0A06  1683               	bsf	3,5	;RP0=1, select bank3
  3391     0A07  1703               	bsf	3,6	;RP1=1, select bank3
  3392     0A08  01AF               	clrf	(_dbuf^(0+384)+31)
  3393                           
  3394                           ;C:\Program Files\Microchip\xc8\v3.10\pic\sources\c99\common\doprnt.c: 554:     while (!
      +                          (i < 1) && (d != 0
  3395     0A09  2A4A               	goto	l2412
  3396     0A0A                     l2402:
  3397                           
  3398                           ;C:\Program Files\Microchip\xc8\v3.10\pic\sources\c99\common\doprnt.c: 563:     )) {;C:\
      +                          Program Files\Microchip\xc8\v3.10\pic\sources\c99\common\doprnt.c: 564:         --i;
  3399     0A0A  30FF               	movlw	255
  3400     0A0B  1283               	bcf	3,5	;RP0=0, select bank0
  3401     0A0C  07B9               	addwf	dtoa@i,f
  3402     0A0D  1803               	skipnc
  3403     0A0E  0ABA               	incf	dtoa@i+1,f
  3404     0A0F  30FF               	movlw	255
  3405     0A10  07BA               	addwf	dtoa@i+1,f
  3406     0A11                     l2404:
  3407                           
  3408                           ;C:\Program Files\Microchip\xc8\v3.10\pic\sources\c99\common\doprnt.c: 565:         dbuf
      +                          [i] = (char)((int)'0' + abs(d % 10));
  3409     0A11  0839               	movf	dtoa@i,w
  3410     0A12  3E90               	addlw	(low (_dbuf| (0+256)))& (0+255)
  3411     0A13  0084               	movwf	4
  3412     0A14  300A               	movlw	10
  3413     0A15  00F0               	movwf	___awmod@divisor
  3414     0A16  3000               	movlw	0
  3415     0A17  00F1               	movwf	___awmod@divisor+1
  3416     0A18  0832               	movf	dtoa@d+1,w
  3417     0A19  00F3               	movwf	___awmod@dividend+1
  3418     0A1A  0831               	movf	dtoa@d,w
  3419     0A1B  00F2               	movwf	___awmod@dividend
  3420     0A1C  160A  118A  25D0  120A  158A  	fcall	___awmod
  3421     0A21  0871               	movf	?___awmod+1,w
  3422     0A22  00F7               	movwf	abs@a+1
  3423     0A23  0870               	movf	?___awmod,w
  3424     0A24  00F6               	movwf	abs@a
  3425     0A25  160A  118A  221C  120A  158A  	fcall	_abs
  3426     0A2A  0876               	movf	?_abs,w
  3427     0A2B  3E30               	addlw	48
  3428     0A2C  1783               	bsf	3,7	;select IRP bank3
  3429     0A2D  0080               	movwf	0
  3430     0A2E                     l2406:
  3431                           
  3432                           ;C:\Program Files\Microchip\xc8\v3.10\pic\sources\c99\common\doprnt.c: 569:   p = 0;
  3433     0A2E  1283               	bcf	3,5	;RP0=0, select bank0
  3434     0A2F  1303               	bcf	3,6	;RP1=0, select bank0
  3435     0A30  01B5               	clrf	dtoa@p
  3436     0A31                     l2408:
  3437                           
  3438                           ;C:\Program Files\Microchip\xc8\v3.10\pic\sources\c99\common\doprnt.c: 571:         --w;
  3439     0A31  30FF               	movlw	255
  3440     0A32  07B6               	addwf	dtoa@w,f
  3441     0A33  1803               	skipnc
  3442     0A34  0AB7               	incf	dtoa@w+1,f
  3443     0A35  30FF               	movlw	255
  3444     0A36  07B7               	addwf	dtoa@w+1,f
  3445     0A37                     l2410:
  3446                           
  3447                           ;C:\Program Files\Microchip\xc8\v3.10\pic\sources\c99\common\doprnt.c: 572:         d = 
      +                          d / 10;
  3448     0A37  300A               	movlw	10
  3449     0A38  00F0               	movwf	___awdiv@divisor
  3450     0A39  3000               	movlw	0
  3451     0A3A  00F1               	movwf	___awdiv@divisor+1
  3452     0A3B  0832               	movf	dtoa@d+1,w
  3453     0A3C  00F3               	movwf	___awdiv@dividend+1
  3454     0A3D  0831               	movf	dtoa@d,w
  3455     0A3E  00F2               	movwf	___awdiv@dividend
  3456     0A3F  120A  118A  2007  120A  158A  	fcall	___awdiv
  3457     0A44  0871               	movf	?___awdiv+1,w
  3458     0A45  1283               	bcf	3,5	;RP0=0, select bank0
  3459     0A46  1303               	bcf	3,6	;RP1=0, select bank0
  3460     0A47  00B2               	movwf	dtoa@d+1
  3461     0A48  0870               	movf	?___awdiv,w
  3462     0A49  00B1               	movwf	dtoa@d
  3463     0A4A                     l2412:
  3464                           
  3465                           ;C:\Program Files\Microchip\xc8\v3.10\pic\sources\c99\common\doprnt.c: 554:     while (!
      +                          (i < 1) && (d != 0
  3466     0A4A  1283               	bcf	3,5	;RP0=0, select bank0
  3467     0A4B  1303               	bcf	3,6	;RP1=0, select bank0
  3468     0A4C  083A               	movf	dtoa@i+1,w
  3469     0A4D  3A80               	xorlw	128
  3470     0A4E  00FF               	movwf	btemp1
  3471     0A4F  3080               	movlw	128
  3472     0A50  027F               	subwf	btemp1,w
  3473     0A51  1D03               	skipz
  3474     0A52  2A55               	goto	u2735
  3475     0A53  3001               	movlw	1
  3476     0A54  0239               	subwf	dtoa@i,w
  3477     0A55                     u2735:
  3478     0A55  1C03               	skipc
  3479     0A56  2A58               	goto	u2731
  3480     0A57  2A59               	goto	u2730
  3481     0A58                     u2731:
  3482     0A58  2A79               	goto	l2422
  3483     0A59                     u2730:
  3484     0A59                     l2414:
  3485     0A59  1283               	bcf	3,5	;RP0=0, select bank0
  3486     0A5A  1303               	bcf	3,6	;RP1=0, select bank0
  3487     0A5B  0831               	movf	dtoa@d,w
  3488     0A5C  0432               	iorwf	dtoa@d+1,w
  3489     0A5D  1D03               	btfss	3,2
  3490     0A5E  2A60               	goto	u2741
  3491     0A5F  2A61               	goto	u2740
  3492     0A60                     u2741:
  3493     0A60  2A0A               	goto	l2402
  3494     0A61                     u2740:
  3495     0A61                     l2416:
  3496     0A61  0835               	movf	dtoa@p,w
  3497     0A62  1D03               	btfss	3,2
  3498     0A63  2A65               	goto	u2751
  3499     0A64  2A66               	goto	u2750
  3500     0A65                     u2751:
  3501     0A65  2A0A               	goto	l2402
  3502     0A66                     u2750:
  3503     0A66                     l2418:
  3504     0A66  0837               	movf	dtoa@w+1,w
  3505     0A67  3A80               	xorlw	128
  3506     0A68  00FF               	movwf	btemp1
  3507     0A69  3080               	movlw	128
  3508     0A6A  027F               	subwf	btemp1,w
  3509     0A6B  1D03               	skipz
  3510     0A6C  2A6F               	goto	u2765
  3511     0A6D  3001               	movlw	1
  3512     0A6E  0236               	subwf	dtoa@w,w
  3513     0A6F                     u2765:
  3514     0A6F  1C03               	skipc
  3515     0A70  2A72               	goto	u2761
  3516     0A71  2A73               	goto	u2760
  3517     0A72                     u2761:
  3518     0A72  2A79               	goto	l2422
  3519     0A73                     u2760:
  3520     0A73                     l2420:
  3521     0A73  1683               	bsf	3,5	;RP0=1, select bank1
  3522     0A74  1303               	bcf	3,6	;RP1=0, select bank1
  3523     0A75  18E4               	btfsc	_flags^(0+128),1
  3524     0A76  2A78               	goto	u2771
  3525     0A77  2A79               	goto	u2770
  3526     0A78                     u2771:
  3527     0A78  2A0A               	goto	l2402
  3528     0A79                     u2770:
  3529     0A79                     l2422:
  3530                           
  3531                           ;C:\Program Files\Microchip\xc8\v3.10\pic\sources\c99\common\doprnt.c: 576:     if (s !=
      +                           0) {
  3532     0A79  1283               	bcf	3,5	;RP0=0, select bank0
  3533     0A7A  1303               	bcf	3,6	;RP1=0, select bank0
  3534     0A7B  0838               	movf	dtoa@s,w
  3535     0A7C  1903               	btfsc	3,2
  3536     0A7D  2A7F               	goto	u2781
  3537     0A7E  2A80               	goto	u2780
  3538     0A7F                     u2781:
  3539     0A7F  2A8C               	goto	l2428
  3540     0A80                     u2780:
  3541     0A80                     l2424:
  3542                           
  3543                           ;C:\Program Files\Microchip\xc8\v3.10\pic\sources\c99\common\doprnt.c: 577:         --i;
  3544     0A80  30FF               	movlw	255
  3545     0A81  07B9               	addwf	dtoa@i,f
  3546     0A82  1803               	skipnc
  3547     0A83  0ABA               	incf	dtoa@i+1,f
  3548     0A84  30FF               	movlw	255
  3549     0A85  07BA               	addwf	dtoa@i+1,f
  3550     0A86                     l2426:
  3551                           
  3552                           ;C:\Program Files\Microchip\xc8\v3.10\pic\sources\c99\common\doprnt.c: 578:         dbuf
      +                          [i] = s;
  3553     0A86  0839               	movf	dtoa@i,w
  3554     0A87  3E90               	addlw	(low (_dbuf| (0+256)))& (0+255)
  3555     0A88  0084               	movwf	4
  3556     0A89  0838               	movf	dtoa@s,w
  3557     0A8A  1783               	bsf	3,7	;select IRP bank3
  3558     0A8B  0080               	movwf	0
  3559     0A8C                     l2428:
  3560                           
  3561                           ;C:\Program Files\Microchip\xc8\v3.10\pic\sources\c99\common\doprnt.c: 582:     return (
      +                          void) pad(fp, &dbuf[i], w);
  3562     0A8C  082F               	movf	dtoa@fp,w
  3563     0A8D  00A8               	movwf	pad@fp
  3564     0A8E  0830               	movf	dtoa@fp+1,w
  3565     0A8F  00A9               	movwf	pad@fp+1
  3566     0A90  0839               	movf	dtoa@i,w
  3567     0A91  3E90               	addlw	(low (_dbuf| (0+256)))& (0+255)
  3568     0A92  00AA               	movwf	pad@buf
  3569     0A93  0837               	movf	dtoa@w+1,w
  3570     0A94  00AC               	movwf	pad@p+1
  3571     0A95  0836               	movf	dtoa@w,w
  3572     0A96  00AB               	movwf	pad@p
  3573     0A97  160A  118A  2627  120A  158A  	fcall	_pad
  3574     0A9C                     l856:
  3575     0A9C  0008               	return
  3576     0A9D                     __end_of_dtoa:
  3577                           
  3578                           	psect	text7
  3579     1627                     __ptext7:	
  3580 ;; *************** function _pad *****************
  3581 ;; Defined at:
  3582 ;;		line 193 in file "C:\Program Files\Microchip\xc8\v3.10\pic\sources\c99\common\doprnt.c"
  3583 ;; Parameters:    Size  Location     Type
  3584 ;;  fp              2    8[BANK0 ] PTR struct _IO_FILE
  3585 ;;		 -> sprintf@f(11), 
  3586 ;;  buf             1   10[BANK0 ] PTR unsigned char 
  3587 ;;		 -> dbuf(32), 
  3588 ;;  p               2   11[BANK0 ] int 
  3589 ;; Auto vars:     Size  Location     Type
  3590 ;;  i               2   13[BANK0 ] int 
  3591 ;; Return value:  Size  Location     Type
  3592 ;;                  1    wreg      void 
  3593 ;; Registers used:
  3594 ;;		wreg, fsr0l, fsr0h, status,2, status,0, pclath, cstack
  3595 ;; Tracked objects:
  3596 ;;		On entry : 0/0
  3597 ;;		On exit  : 0/0
  3598 ;;		Unchanged: 0/0
  3599 ;; Data sizes:     COMMON   BANK0   BANK1   BANK3   BANK2
  3600 ;;      Params:         0       5       0       0       0
  3601 ;;      Locals:         0       2       0       0       0
  3602 ;;      Temps:          1       0       0       0       0
  3603 ;;      Totals:         1       7       0       0       0
  3604 ;;Total ram usage:        8 bytes
  3605 ;; Hardware stack levels used: 1
  3606 ;; Hardware stack levels required when called: 2
  3607 ;; This function calls:
  3608 ;;		_fputc
  3609 ;;		_fputs
  3610 ;; This function is called by:
  3611 ;;		_dtoa
  3612 ;; This function uses a non-reentrant model
  3613 ;;
  3614                           
  3615     1627                     _pad:	
  3616                           ;psect for function _pad
  3617                           
  3618     1627                     l2362:	
  3619                           ;incstack = 0
  3620                           ; Regs used in _pad: [wreg-fsr0h+status,2+status,0+pclath+cstack]
  3621                           
  3622                           
  3623                           ;C:\Program Files\Microchip\xc8\v3.10\pic\sources\c99\common\doprnt.c: 193: static void 
      +                          pad(FILE *fp, char *buf, int p);C:\Program Files\Microchip\xc8\v3.10\pic\sources\c99\com
      +                          mon\doprnt.c: 194: {;C:\Program Files\Microchip\xc8\v3.10\pic\sources\c99\common\doprnt.
      +                          c: 195:     int i;;C:\Program Files\Microchip\xc8\v3.10\pic\sources\c99\common\doprnt.c:
      +                           199:     if (flags & (1 << 0)) {
  3624     1627  1683               	bsf	3,5	;RP0=1, select bank1
  3625     1628  1303               	bcf	3,6	;RP1=0, select bank1
  3626     1629  1C64               	btfss	_flags^(0+128),0
  3627     162A  2E2C               	goto	u2641
  3628     162B  2E2D               	goto	u2640
  3629     162C                     u2641:
  3630     162C  2E3A               	goto	l2366
  3631     162D                     u2640:
  3632     162D                     l2364:
  3633                           
  3634                           ;C:\Program Files\Microchip\xc8\v3.10\pic\sources\c99\common\doprnt.c: 200:         fput
      +                          s((const char *)buf, fp);
  3635     162D  1283               	bcf	3,5	;RP0=0, select bank0
  3636     162E  1303               	bcf	3,6	;RP1=0, select bank0
  3637     162F  082A               	movf	pad@buf,w
  3638     1630  00A0               	movwf	fputs@s
  3639     1631  0828               	movf	pad@fp,w
  3640     1632  00A1               	movwf	fputs@fp
  3641     1633  0829               	movf	pad@fp+1,w
  3642     1634  00A2               	movwf	fputs@fp+1
  3643     1635  160A  118A  23B4  160A  118A  	fcall	_fputs
  3644     163A                     l2366:
  3645                           
  3646                           ;C:\Program Files\Microchip\xc8\v3.10\pic\sources\c99\common\doprnt.c: 205:  if (p < 0) 
      +                          {
  3647     163A  1283               	bcf	3,5	;RP0=0, select bank0
  3648     163B  1303               	bcf	3,6	;RP1=0, select bank0
  3649     163C  1FAC               	btfss	pad@p+1,7
  3650     163D  2E3F               	goto	u2651
  3651     163E  2E40               	goto	u2650
  3652     163F                     u2651:
  3653     163F  2E42               	goto	l835
  3654     1640                     u2650:
  3655     1640                     l2368:
  3656                           
  3657                           ;C:\Program Files\Microchip\xc8\v3.10\pic\sources\c99\common\doprnt.c: 206:   p = 0;
  3658     1640  01AB               	clrf	pad@p
  3659     1641  01AC               	clrf	pad@p+1
  3660     1642                     l835:	
  3661                           ;C:\Program Files\Microchip\xc8\v3.10\pic\sources\c99\common\doprnt.c: 207:  }
  3662                           
  3663                           
  3664                           ;C:\Program Files\Microchip\xc8\v3.10\pic\sources\c99\common\doprnt.c: 208:     i = 0;
  3665     1642  01AD               	clrf	pad@i
  3666     1643  01AE               	clrf	pad@i+1
  3667                           
  3668                           ;C:\Program Files\Microchip\xc8\v3.10\pic\sources\c99\common\doprnt.c: 209:     while (i
      +                           < p) {
  3669     1644  2E5C               	goto	l2374
  3670     1645                     l2370:
  3671                           
  3672                           ;C:\Program Files\Microchip\xc8\v3.10\pic\sources\c99\common\doprnt.c: 210:         fput
      +                          c(' ', fp);
  3673     1645  3020               	movlw	32
  3674     1646  00F0               	movwf	fputc@c
  3675     1647  3000               	movlw	0
  3676     1648  00F1               	movwf	fputc@c+1
  3677     1649  1283               	bcf	3,5	;RP0=0, select bank0
  3678     164A  1303               	bcf	3,6	;RP1=0, select bank0
  3679     164B  0828               	movf	pad@fp,w
  3680     164C  00F2               	movwf	fputc@fp
  3681     164D  0829               	movf	pad@fp+1,w
  3682     164E  00F3               	movwf	fputc@fp+1
  3683     164F  120A  158A  2082  160A  118A  	fcall	_fputc
  3684     1654                     l2372:
  3685                           
  3686                           ;C:\Program Files\Microchip\xc8\v3.10\pic\sources\c99\common\doprnt.c: 211:         ++i;
  3687     1654  3001               	movlw	1
  3688     1655  1283               	bcf	3,5	;RP0=0, select bank0
  3689     1656  1303               	bcf	3,6	;RP1=0, select bank0
  3690     1657  07AD               	addwf	pad@i,f
  3691     1658  1803               	skipnc
  3692     1659  0AAE               	incf	pad@i+1,f
  3693     165A  3000               	movlw	0
  3694     165B  07AE               	addwf	pad@i+1,f
  3695     165C                     l2374:
  3696                           
  3697                           ;C:\Program Files\Microchip\xc8\v3.10\pic\sources\c99\common\doprnt.c: 209:     while (i
      +                           < p) {
  3698     165C  082E               	movf	pad@i+1,w
  3699     165D  3A80               	xorlw	128
  3700     165E  00FD               	movwf	??_pad
  3701     165F  082C               	movf	pad@p+1,w
  3702     1660  3A80               	xorlw	128
  3703     1661  027D               	subwf	??_pad,w
  3704     1662  1D03               	skipz
  3705     1663  2E66               	goto	u2665
  3706     1664  082B               	movf	pad@p,w
  3707     1665  022D               	subwf	pad@i,w
  3708     1666                     u2665:
  3709     1666  1C03               	skipc
  3710     1667  2E69               	goto	u2661
  3711     1668  2E6A               	goto	u2660
  3712     1669                     u2661:
  3713     1669  2E45               	goto	l2370
  3714     166A                     u2660:
  3715     166A                     l838:
  3716                           
  3717                           ;C:\Program Files\Microchip\xc8\v3.10\pic\sources\c99\common\doprnt.c: 216:     if (!(fl
      +                          ags & (1 << 0))) {
  3718     166A  1683               	bsf	3,5	;RP0=1, select bank1
  3719     166B  1303               	bcf	3,6	;RP1=0, select bank1
  3720     166C  1864               	btfsc	_flags^(0+128),0
  3721     166D  2E6F               	goto	u2671
  3722     166E  2E70               	goto	u2670
  3723     166F                     u2671:
  3724     166F  2E7D               	goto	l840
  3725     1670                     u2670:
  3726     1670                     l2376:
  3727                           
  3728                           ;C:\Program Files\Microchip\xc8\v3.10\pic\sources\c99\common\doprnt.c: 218:         fput
      +                          s((const char *)buf, fp);
  3729     1670  1283               	bcf	3,5	;RP0=0, select bank0
  3730     1671  1303               	bcf	3,6	;RP1=0, select bank0
  3731     1672  082A               	movf	pad@buf,w
  3732     1673  00A0               	movwf	fputs@s
  3733     1674  0828               	movf	pad@fp,w
  3734     1675  00A1               	movwf	fputs@fp
  3735     1676  0829               	movf	pad@fp+1,w
  3736     1677  00A2               	movwf	fputs@fp+1
  3737     1678  160A  118A  23B4  160A  118A  	fcall	_fputs
  3738     167D                     l840:
  3739     167D  0008               	return
  3740     167E                     __end_of_pad:
  3741                           
  3742                           	psect	text8
  3743     13B4                     __ptext8:	
  3744 ;; *************** function _fputs *****************
  3745 ;; Defined at:
  3746 ;;		line 8 in file "C:\Program Files\Microchip\xc8\v3.10\pic\sources\c99\common\nf_fputs.c"
  3747 ;; Parameters:    Size  Location     Type
  3748 ;;  s               1    0[BANK0 ] PTR const unsigned char 
  3749 ;;		 -> dbuf(32), 
  3750 ;;  fp              2    1[BANK0 ] PTR struct _IO_FILE
  3751 ;;		 -> sprintf@f(11), 
  3752 ;; Auto vars:     Size  Location     Type
  3753 ;;  i               2    6[BANK0 ] int 
  3754 ;;  c               1    5[BANK0 ] unsigned char 
  3755 ;; Return value:  Size  Location     Type
  3756 ;;                  2    0[BANK0 ] int 
  3757 ;; Registers used:
  3758 ;;		wreg, fsr0l, fsr0h, status,2, status,0, pclath, cstack
  3759 ;; Tracked objects:
  3760 ;;		On entry : 0/0
  3761 ;;		On exit  : 0/0
  3762 ;;		Unchanged: 0/0
  3763 ;; Data sizes:     COMMON   BANK0   BANK1   BANK3   BANK2
  3764 ;;      Params:         0       3       0       0       0
  3765 ;;      Locals:         0       3       0       0       0
  3766 ;;      Temps:          0       2       0       0       0
  3767 ;;      Totals:         0       8       0       0       0
  3768 ;;Total ram usage:        8 bytes
  3769 ;; Hardware stack levels used: 1
  3770 ;; Hardware stack levels required when called: 1
  3771 ;; This function calls:
  3772 ;;		_fputc
  3773 ;; This function is called by:
  3774 ;;		_pad
  3775 ;; This function uses a non-reentrant model
  3776 ;;
  3777                           
  3778     13B4                     _fputs:	
  3779                           ;psect for function _fputs
  3780                           
  3781     13B4                     l2258:	
  3782                           ;incstack = 0
  3783                           ; Regs used in _fputs: [wreg-fsr0h+status,2+status,0+pclath+cstack]
  3784                           
  3785     13B4  1283               	bcf	3,5	;RP0=0, select bank0
  3786     13B5  1303               	bcf	3,6	;RP1=0, select bank0
  3787     13B6  01A6               	clrf	fputs@i
  3788     13B7  01A7               	clrf	fputs@i+1
  3789     13B8  2BD1               	goto	l2264
  3790     13B9                     l2260:
  3791     13B9  0825               	movf	fputs@c,w
  3792     13BA  00A3               	movwf	??_fputs
  3793     13BB  01A4               	clrf	??_fputs+1
  3794     13BC  0823               	movf	??_fputs,w
  3795     13BD  00F0               	movwf	fputc@c
  3796     13BE  0824               	movf	??_fputs+1,w
  3797     13BF  00F1               	movwf	fputc@c+1
  3798     13C0  0821               	movf	fputs@fp,w
  3799     13C1  00F2               	movwf	fputc@fp
  3800     13C2  0822               	movf	fputs@fp+1,w
  3801     13C3  00F3               	movwf	fputc@fp+1
  3802     13C4  120A  158A  2082  160A  118A  	fcall	_fputc
  3803     13C9                     l2262:
  3804     13C9  3001               	movlw	1
  3805     13CA  1283               	bcf	3,5	;RP0=0, select bank0
  3806     13CB  1303               	bcf	3,6	;RP1=0, select bank0
  3807     13CC  07A6               	addwf	fputs@i,f
  3808     13CD  1803               	skipnc
  3809     13CE  0AA7               	incf	fputs@i+1,f
  3810     13CF  3000               	movlw	0
  3811     13D0  07A7               	addwf	fputs@i+1,f
  3812     13D1                     l2264:
  3813     13D1  0826               	movf	fputs@i,w
  3814     13D2  0720               	addwf	fputs@s,w
  3815     13D3  00A3               	movwf	??_fputs
  3816     13D4  0823               	movf	??_fputs,w
  3817     13D5  0084               	movwf	4
  3818     13D6  1783               	bsf	3,7	;select IRP bank2
  3819     13D7  0800               	movf	0,w
  3820     13D8  00A5               	movwf	fputs@c
  3821     13D9  0825               	movf	fputs@c,w
  3822     13DA  1D03               	btfss	3,2
  3823     13DB  2BDD               	goto	u2401
  3824     13DC  2BDE               	goto	u2400
  3825     13DD                     u2401:
  3826     13DD  2BB9               	goto	l2260
  3827     13DE                     u2400:
  3828     13DE                     l913:
  3829     13DE  0008               	return
  3830     13DF                     __end_of_fputs:
  3831                           
  3832                           	psect	text9
  3833     0882                     __ptext9:	
  3834 ;; *************** function _fputc *****************
  3835 ;; Defined at:
  3836 ;;		line 8 in file "C:\Program Files\Microchip\xc8\v3.10\pic\sources\c99\common\nf_fputc.c"
  3837 ;; Parameters:    Size  Location     Type
  3838 ;;  c               2    0[COMMON] int 
  3839 ;;  fp              2    2[COMMON] PTR struct _IO_FILE
  3840 ;;		 -> sprintf@f(11), 
  3841 ;; Auto vars:     Size  Location     Type
  3842 ;;		None
  3843 ;; Return value:  Size  Location     Type
  3844 ;;                  2    0[COMMON] int 
  3845 ;; Registers used:
  3846 ;;		wreg, fsr0l, fsr0h, status,2, status,0, pclath, cstack
  3847 ;; Tracked objects:
  3848 ;;		On entry : 0/0
  3849 ;;		On exit  : 0/0
  3850 ;;		Unchanged: 0/0
  3851 ;; Data sizes:     COMMON   BANK0   BANK1   BANK3   BANK2
  3852 ;;      Params:         4       0       0       0       0
  3853 ;;      Locals:         0       0       0       0       0
  3854 ;;      Temps:          9       0       0       0       0
  3855 ;;      Totals:        13       0       0       0       0
  3856 ;;Total ram usage:       13 bytes
  3857 ;; Hardware stack levels used: 1
  3858 ;; This function calls:
  3859 ;;		_putch
  3860 ;; This function is called by:
  3861 ;;		_pad
  3862 ;;		_vfpfcnvrt
  3863 ;;		_fputs
  3864 ;; This function uses a non-reentrant model
  3865 ;;
  3866                           
  3867     0882                     _fputc:	
  3868                           ;psect for function _fputc
  3869                           
  3870     0882                     l2244:	
  3871                           ;incstack = 0
  3872                           ; Regs used in _fputc: [wreg-fsr0h+status,2+status,0+pclath+cstack]
  3873                           
  3874     0882  0872               	movf	fputc@fp,w
  3875     0883  0473               	iorwf	fputc@fp+1,w
  3876     0884  1903               	btfsc	3,2
  3877     0885  2887               	goto	u2351
  3878     0886  2888               	goto	u2350
  3879     0887                     u2351:
  3880     0887  288E               	goto	l2248
  3881     0888                     u2350:
  3882     0888                     l2246:
  3883     0888  0872               	movf	fputc@fp,w
  3884     0889  0473               	iorwf	fputc@fp+1,w
  3885     088A  1D03               	btfss	3,2
  3886     088B  288D               	goto	u2361
  3887     088C  288E               	goto	u2360
  3888     088D                     u2361:
  3889     088D  2895               	goto	l2250
  3890     088E                     u2360:
  3891     088E                     l2248:
  3892     088E  0870               	movf	fputc@c,w
  3893     088F  120A  118A  2006  120A  158A  	fcall	_putch
  3894     0894  291B               	goto	l905
  3895     0895                     l2250:
  3896     0895  0872               	movf	fputc@fp,w
  3897     0896  3E09               	addlw	9
  3898     0897  00F4               	movwf	??_fputc
  3899     0898  0873               	movf	fputc@fp+1,w
  3900     0899  1803               	skipnc
  3901     089A  3E01               	addlw	1
  3902     089B  3E00               	addlw	0
  3903     089C  00F5               	movwf	??_fputc+1
  3904     089D  0874               	movf	??_fputc,w
  3905     089E  0084               	movwf	4
  3906     089F  1783               	bsf	3,7
  3907     08A0  1C75               	btfss	??_fputc+1,0
  3908     08A1  1383               	bcf	3,7
  3909     08A2  0800               	movf	0,w
  3910     08A3  00F6               	movwf	??_fputc+2
  3911     08A4  0A84               	incf	4,f
  3912     08A5  0800               	movf	0,w
  3913     08A6  00F7               	movwf	??_fputc+3
  3914     08A7  0876               	movf	??_fputc+2,w
  3915     08A8  0477               	iorwf	??_fputc+3,w
  3916     08A9  1903               	btfsc	3,2
  3917     08AA  28AC               	goto	u2371
  3918     08AB  28AD               	goto	u2370
  3919     08AC                     u2371:
  3920     08AC  28DF               	goto	l2254
  3921     08AD                     u2370:
  3922     08AD                     l2252:
  3923     08AD  0872               	movf	fputc@fp,w
  3924     08AE  3E09               	addlw	9
  3925     08AF  00F4               	movwf	??_fputc
  3926     08B0  0873               	movf	fputc@fp+1,w
  3927     08B1  1803               	skipnc
  3928     08B2  3E01               	addlw	1
  3929     08B3  3E00               	addlw	0
  3930     08B4  00F5               	movwf	??_fputc+1
  3931     08B5  0874               	movf	??_fputc,w
  3932     08B6  0084               	movwf	4
  3933     08B7  1783               	bsf	3,7
  3934     08B8  1C75               	btfss	??_fputc+1,0
  3935     08B9  1383               	bcf	3,7
  3936     08BA  0800               	movf	0,w
  3937     08BB  00F6               	movwf	??_fputc+2
  3938     08BC  0A84               	incf	4,f
  3939     08BD  0800               	movf	0,w
  3940     08BE  00F7               	movwf	??_fputc+3
  3941     08BF  0872               	movf	fputc@fp,w
  3942     08C0  3E02               	addlw	2
  3943     08C1  00F8               	movwf	??_fputc+4
  3944     08C2  0873               	movf	fputc@fp+1,w
  3945     08C3  1803               	skipnc
  3946     08C4  3E01               	addlw	1
  3947     08C5  3E00               	addlw	0
  3948     08C6  00F9               	movwf	??_fputc+5
  3949     08C7  0878               	movf	??_fputc+4,w
  3950     08C8  0084               	movwf	4
  3951     08C9  1783               	bsf	3,7
  3952     08CA  1C79               	btfss	??_fputc+5,0
  3953     08CB  1383               	bcf	3,7
  3954     08CC  0800               	movf	0,w
  3955     08CD  00FA               	movwf	??_fputc+6
  3956     08CE  0A84               	incf	4,f
  3957     08CF  0800               	movf	0,w
  3958     08D0  00FB               	movwf	??_fputc+7
  3959     08D1  087B               	movf	??_fputc+7,w
  3960     08D2  3A80               	xorlw	128
  3961     08D3  00FC               	movwf	??_fputc+8
  3962     08D4  0877               	movf	??_fputc+3,w
  3963     08D5  3A80               	xorlw	128
  3964     08D6  027C               	subwf	??_fputc+8,w
  3965     08D7  1D03               	skipz
  3966     08D8  28DB               	goto	u2385
  3967     08D9  0876               	movf	??_fputc+2,w
  3968     08DA  027A               	subwf	??_fputc+6,w
  3969     08DB                     u2385:
  3970     08DB  1803               	skipnc
  3971     08DC  28DE               	goto	u2381
  3972     08DD  28DF               	goto	u2380
  3973     08DE                     u2381:
  3974     08DE  291B               	goto	l905
  3975     08DF                     u2380:
  3976     08DF                     l2254:
  3977     08DF  0872               	movf	fputc@fp,w
  3978     08E0  0084               	movwf	4
  3979     08E1  1783               	bsf	3,7
  3980     08E2  1C73               	btfss	fputc@fp+1,0
  3981     08E3  1383               	bcf	3,7
  3982     08E4  0800               	movf	0,w
  3983     08E5  00F4               	movwf	??_fputc
  3984     08E6  0A84               	incf	4,f
  3985     08E7  0800               	movf	0,w
  3986     08E8  00F5               	movwf	??_fputc+1
  3987     08E9  0872               	movf	fputc@fp,w
  3988     08EA  3E02               	addlw	2
  3989     08EB  00F6               	movwf	??_fputc+2
  3990     08EC  0873               	movf	fputc@fp+1,w
  3991     08ED  1803               	skipnc
  3992     08EE  3E01               	addlw	1
  3993     08EF  3E00               	addlw	0
  3994     08F0  00F7               	movwf	??_fputc+3
  3995     08F1  0876               	movf	??_fputc+2,w
  3996     08F2  0084               	movwf	4
  3997     08F3  1783               	bsf	3,7
  3998     08F4  1C77               	btfss	??_fputc+3,0
  3999     08F5  1383               	bcf	3,7
  4000     08F6  0800               	movf	0,w
  4001     08F7  0774               	addwf	??_fputc,w
  4002     08F8  00F9               	movwf	??_fputc+5
  4003     08F9  0875               	movf	??_fputc+1,w
  4004     08FA  00F8               	movwf	??_fputc+4
  4005     08FB  1803               	skipnc
  4006     08FC  0AF8               	incf	??_fputc+4,f
  4007     08FD  1F80               	btfss	0,7
  4008     08FE  2900               	goto	u2390
  4009     08FF  03F8               	decf	??_fputc+4,f
  4010     0900                     u2390:
  4011     0900  0878               	movf	??_fputc+4,w
  4012     0901  00FA               	movwf	??_fputc+6
  4013     0902  0879               	movf	??_fputc+5,w
  4014     0903  0084               	movwf	4
  4015     0904  1783               	bsf	3,7
  4016     0905  1C7A               	btfss	??_fputc+6,0
  4017     0906  1383               	bcf	3,7
  4018     0907  0870               	movf	fputc@c,w
  4019     0908  0080               	movwf	0
  4020     0909  0872               	movf	fputc@fp,w
  4021     090A  3E02               	addlw	2
  4022     090B  00F4               	movwf	??_fputc
  4023     090C  0873               	movf	fputc@fp+1,w
  4024     090D  1803               	skipnc
  4025     090E  3E01               	addlw	1
  4026     090F  3E00               	addlw	0
  4027     0910  00F5               	movwf	??_fputc+1
  4028     0911  0874               	movf	??_fputc,w
  4029     0912  0084               	movwf	4
  4030     0913  1783               	bsf	3,7
  4031     0914  1C75               	btfss	??_fputc+1,0
  4032     0915  1383               	bcf	3,7
  4033     0916  3001               	movlw	1
  4034     0917  0780               	addwf	0,f
  4035     0918  0A84               	incf	4,f
  4036     0919  1803               	skipnc
  4037     091A  0A80               	incf	0,f
  4038     091B                     l905:
  4039     091B  0008               	return
  4040     091C                     __end_of_fputc:
  4041                           
  4042                           	psect	text10
  4043     0006                     __ptext10:	
  4044 ;; *************** function _putch *****************
  4045 ;; Defined at:
  4046 ;;		line 7 in file "C:\Program Files\Microchip\xc8\v3.10\pic\sources\c99\common\putch.c"
  4047 ;; Parameters:    Size  Location     Type
  4048 ;;  c               1    wreg     unsigned char 
  4049 ;; Auto vars:     Size  Location     Type
  4050 ;;  c               1    0[COMMON] unsigned char 
  4051 ;; Return value:  Size  Location     Type
  4052 ;;                  1    wreg      void 
  4053 ;; Registers used:
  4054 ;;		wreg
  4055 ;; Tracked objects:
  4056 ;;		On entry : 0/0
  4057 ;;		On exit  : 0/0
  4058 ;;		Unchanged: 0/0
  4059 ;; Data sizes:     COMMON   BANK0   BANK1   BANK3   BANK2
  4060 ;;      Params:         0       0       0       0       0
  4061 ;;      Locals:         0       0       0       0       0
  4062 ;;      Temps:          0       0       0       0       0
  4063 ;;      Totals:         0       0       0       0       0
  4064 ;;Total ram usage:        0 bytes
  4065 ;; Hardware stack levels used: 1
  4066 ;; This function calls:
  4067 ;;		Nothing
  4068 ;; This function is called by:
  4069 ;;		_fputc
  4070 ;; This function uses a non-reentrant model
  4071 ;;
  4072                           
  4073     0006                     _putch:	
  4074                           ;psect for function _putch
  4075                           
  4076     0006                     l916:	
  4077                           ;incstack = 0
  4078                           ; Regs used in _putch: [wreg]
  4079                           
  4080     0006  0008               	return
  4081     0007                     __end_of_putch:
  4082                           
  4083                           	psect	text11
  4084     121C                     __ptext11:	
  4085 ;; *************** function _abs *****************
  4086 ;; Defined at:
  4087 ;;		line 1 in file "C:\Program Files\Microchip\xc8\v3.10\pic\sources\c99\common\abs.c"
  4088 ;; Parameters:    Size  Location     Type
  4089 ;;  a               2    6[COMMON] int 
  4090 ;; Auto vars:     Size  Location     Type
  4091 ;;		None
  4092 ;; Return value:  Size  Location     Type
  4093 ;;                  2    6[COMMON] int 
  4094 ;; Registers used:
  4095 ;;		wreg, status,2, status,0
  4096 ;; Tracked objects:
  4097 ;;		On entry : 0/0
  4098 ;;		On exit  : 0/0
  4099 ;;		Unchanged: 0/0
  4100 ;; Data sizes:     COMMON   BANK0   BANK1   BANK3   BANK2
  4101 ;;      Params:         2       0       0       0       0
  4102 ;;      Locals:         0       0       0       0       0
  4103 ;;      Temps:          2       0       0       0       0
  4104 ;;      Totals:         4       0       0       0       0
  4105 ;;Total ram usage:        4 bytes
  4106 ;; Hardware stack levels used: 1
  4107 ;; This function calls:
  4108 ;;		Nothing
  4109 ;; This function is called by:
  4110 ;;		_dtoa
  4111 ;; This function uses a non-reentrant model
  4112 ;;
  4113                           
  4114     121C                     _abs:	
  4115                           ;psect for function _abs
  4116                           
  4117     121C                     l2378:	
  4118                           ;incstack = 0
  4119                           ; Regs used in _abs: [wreg+status,2+status,0]
  4120                           
  4121     121C  1BF7               	btfsc	abs@a+1,7
  4122     121D  2A1F               	goto	u2681
  4123     121E  2A20               	goto	u2680
  4124     121F                     u2681:
  4125     121F  2A21               	goto	l2382
  4126     1220                     u2680:
  4127     1220                     l2380:
  4128     1220  2A2C               	goto	l893
  4129     1221                     l2382:
  4130     1221  0976               	comf	abs@a,w
  4131     1222  00F8               	movwf	??_abs
  4132     1223  0977               	comf	abs@a+1,w
  4133     1224  00F9               	movwf	??_abs+1
  4134     1225  0AF8               	incf	??_abs,f
  4135     1226  1903               	skipnz
  4136     1227  0AF9               	incf	??_abs+1,f
  4137     1228  0878               	movf	??_abs,w
  4138     1229  00F6               	movwf	?_abs
  4139     122A  0879               	movf	??_abs+1,w
  4140     122B  00F7               	movwf	?_abs+1
  4141     122C                     l893:
  4142     122C  0008               	return
  4143     122D                     __end_of_abs:
  4144                           
  4145                           	psect	text12
  4146     152B                     __ptext12:	
  4147 ;; *************** function _ds1307_set_time *****************
  4148 ;; Defined at:
  4149 ;;		line 77 in file "ds1307.c"
  4150 ;; Parameters:    Size  Location     Type
  4151 ;;  hour            1    wreg     unsigned char 
  4152 ;;  min             1    1[BANK0 ] unsigned char 
  4153 ;;  sec             1    2[BANK0 ] unsigned char 
  4154 ;; Auto vars:     Size  Location     Type
  4155 ;;  hour            1    5[BANK0 ] unsigned char 
  4156 ;; Return value:  Size  Location     Type
  4157 ;;                  1    wreg      void 
  4158 ;; Registers used:
  4159 ;;		wreg, status,2, status,0, pclath, cstack
  4160 ;; Tracked objects:
  4161 ;;		On entry : 0/0
  4162 ;;		On exit  : 0/0
  4163 ;;		Unchanged: 0/0
  4164 ;; Data sizes:     COMMON   BANK0   BANK1   BANK3   BANK2
  4165 ;;      Params:         0       2       0       0       0
  4166 ;;      Locals:         0       1       0       0       0
  4167 ;;      Temps:          0       2       0       0       0
  4168 ;;      Totals:         0       5       0       0       0
  4169 ;;Total ram usage:        5 bytes
  4170 ;; Hardware stack levels used: 1
  4171 ;; Hardware stack levels required when called: 1
  4172 ;; This function calls:
  4173 ;;		_I2C_Start
  4174 ;;		_I2C_Stop
  4175 ;;		_I2C_Write
  4176 ;;		_dec_to_bcd
  4177 ;; This function is called by:
  4178 ;;		_main
  4179 ;; This function uses a non-reentrant model
  4180 ;;
  4181                           
  4182     152B                     _ds1307_set_time:	
  4183                           ;psect for function _ds1307_set_time
  4184                           
  4185                           
  4186                           ;incstack = 0
  4187                           ; Regs used in _ds1307_set_time: [wreg+status,2+status,0+pclath+cstack]
  4188                           ;ds1307_set_time@hour stored from wreg
  4189     152B  1283               	bcf	3,5	;RP0=0, select bank0
  4190     152C  1303               	bcf	3,6	;RP1=0, select bank0
  4191     152D  00A5               	movwf	ds1307_set_time@hour
  4192     152E                     l3104:
  4193                           
  4194                           ;ds1307.c: 77: void ds1307_set_time(uint8_t hour, uint8_t min, uint8_t sec);ds1307.c: 78
      +                          : {;ds1307.c: 79:     I2C_Start();
  4195     152E  160A  118A  21D7  160A  118A  	fcall	_I2C_Start
  4196     1533                     l3106:
  4197                           
  4198                           ;ds1307.c: 81:     if(I2C_Write(0xD0) == 0)
  4199     1533  30D0               	movlw	208
  4200     1534  160A  118A  222D  160A  118A  	fcall	_I2C_Write
  4201     1539  3A00               	xorlw	0
  4202     153A  1D03               	skipz
  4203     153B  2D3D               	goto	u3991
  4204     153C  2D3E               	goto	u3990
  4205     153D                     u3991:
  4206     153D  2D6D               	goto	l3110
  4207     153E                     u3990:
  4208     153E                     l3108:
  4209                           
  4210                           ;ds1307.c: 82:     {;ds1307.c: 83:         I2C_Write(0x00);
  4211     153E  3000               	movlw	0
  4212     153F  160A  118A  222D  160A  118A  	fcall	_I2C_Write
  4213                           
  4214                           ;ds1307.c: 84:         I2C_Write(dec_to_bcd(sec) & 0x7F);
  4215     1544  1283               	bcf	3,5	;RP0=0, select bank0
  4216     1545  1303               	bcf	3,6	;RP1=0, select bank0
  4217     1546  0822               	movf	ds1307_set_time@sec,w
  4218     1547  160A  118A  23DF  160A  118A  	fcall	_dec_to_bcd
  4219     154C  397F               	andlw	127
  4220     154D  160A  118A  222D  160A  118A  	fcall	_I2C_Write
  4221                           
  4222                           ;ds1307.c: 85:         I2C_Write(dec_to_bcd(min));
  4223     1552  1283               	bcf	3,5	;RP0=0, select bank0
  4224     1553  1303               	bcf	3,6	;RP1=0, select bank0
  4225     1554  0821               	movf	ds1307_set_time@min,w
  4226     1555  160A  118A  23DF  160A  118A  	fcall	_dec_to_bcd
  4227     155A  160A  118A  222D  160A  118A  	fcall	_I2C_Write
  4228                           
  4229                           ;ds1307.c: 86:         I2C_Write(dec_to_bcd(hour) & 0x3F);
  4230     155F  1283               	bcf	3,5	;RP0=0, select bank0
  4231     1560  1303               	bcf	3,6	;RP1=0, select bank0
  4232     1561  0825               	movf	ds1307_set_time@hour,w
  4233     1562  160A  118A  23DF  160A  118A  	fcall	_dec_to_bcd
  4234     1567  393F               	andlw	63
  4235     1568  160A  118A  222D  160A  118A  	fcall	_I2C_Write
  4236     156D                     l3110:
  4237                           
  4238                           ;ds1307.c: 89:     I2C_Stop();
  4239     156D  160A  118A  21E1  160A  118A  	fcall	_I2C_Stop
  4240                           
  4241                           ;ds1307.c: 90:     _delay((unsigned long)((20)*(20000000/4000.0)));
  4242     1572  3082               	movlw	130
  4243     1573  1283               	bcf	3,5	;RP0=0, select bank0
  4244     1574  1303               	bcf	3,6	;RP1=0, select bank0
  4245     1575  00A4               	movwf	??_ds1307_set_time+1
  4246     1576  30DD               	movlw	221
  4247     1577  00A3               	movwf	??_ds1307_set_time
  4248     1578                     u4777:
  4249     1578  0BA3               	decfsz	??_ds1307_set_time,f
  4250     1579  2D78               	goto	u4777
  4251     157A  0BA4               	decfsz	??_ds1307_set_time+1,f
  4252     157B  2D78               	goto	u4777
  4253     157C                     l252:
  4254     157C  0008               	return
  4255     157D                     __end_of_ds1307_set_time:
  4256                           
  4257                           	psect	text13
  4258     14DB                     __ptext13:	
  4259 ;; *************** function _ds1307_set_date *****************
  4260 ;; Defined at:
  4261 ;;		line 60 in file "ds1307.c"
  4262 ;; Parameters:    Size  Location     Type
  4263 ;;  day             1    wreg     unsigned char 
  4264 ;;  month           1    1[BANK0 ] unsigned char 
  4265 ;;  year            1    2[BANK0 ] unsigned char 
  4266 ;; Auto vars:     Size  Location     Type
  4267 ;;  day             1    5[BANK0 ] unsigned char 
  4268 ;; Return value:  Size  Location     Type
  4269 ;;                  1    wreg      void 
  4270 ;; Registers used:
  4271 ;;		wreg, status,2, status,0, pclath, cstack
  4272 ;; Tracked objects:
  4273 ;;		On entry : 0/0
  4274 ;;		On exit  : 0/0
  4275 ;;		Unchanged: 0/0
  4276 ;; Data sizes:     COMMON   BANK0   BANK1   BANK3   BANK2
  4277 ;;      Params:         0       2       0       0       0
  4278 ;;      Locals:         0       1       0       0       0
  4279 ;;      Temps:          0       2       0       0       0
  4280 ;;      Totals:         0       5       0       0       0
  4281 ;;Total ram usage:        5 bytes
  4282 ;; Hardware stack levels used: 1
  4283 ;; Hardware stack levels required when called: 2
  4284 ;; This function calls:
  4285 ;;		_I2C_Start
  4286 ;;		_I2C_Stop
  4287 ;;		_I2C_Write
  4288 ;;		_dec_to_bcd
  4289 ;; This function is called by:
  4290 ;;		_main
  4291 ;; This function uses a non-reentrant model
  4292 ;;
  4293                           
  4294     14DB                     _ds1307_set_date:	
  4295                           ;psect for function _ds1307_set_date
  4296                           
  4297                           
  4298                           ;incstack = 0
  4299                           ; Regs used in _ds1307_set_date: [wreg+status,2+status,0+pclath+cstack]
  4300                           ;ds1307_set_date@day stored from wreg
  4301     14DB  1283               	bcf	3,5	;RP0=0, select bank0
  4302     14DC  1303               	bcf	3,6	;RP1=0, select bank0
  4303     14DD  00A5               	movwf	ds1307_set_date@day
  4304     14DE                     l3112:
  4305                           
  4306                           ;ds1307.c: 60: void ds1307_set_date(uint8_t day, uint8_t month, uint8_t year);ds1307.c: 
      +                          61: {;ds1307.c: 62:     I2C_Start();
  4307     14DE  160A  118A  21D7  160A  118A  	fcall	_I2C_Start
  4308     14E3                     l3114:
  4309                           
  4310                           ;ds1307.c: 64:     if(I2C_Write(0xD0) == 0)
  4311     14E3  30D0               	movlw	208
  4312     14E4  160A  118A  222D  160A  118A  	fcall	_I2C_Write
  4313     14E9  3A00               	xorlw	0
  4314     14EA  1D03               	skipz
  4315     14EB  2CED               	goto	u4001
  4316     14EC  2CEE               	goto	u4000
  4317     14ED                     u4001:
  4318     14ED  2D1B               	goto	l3118
  4319     14EE                     u4000:
  4320     14EE                     l3116:
  4321                           
  4322                           ;ds1307.c: 65:     {;ds1307.c: 66:         I2C_Write(0x04);
  4323     14EE  3004               	movlw	4
  4324     14EF  160A  118A  222D  160A  118A  	fcall	_I2C_Write
  4325                           
  4326                           ;ds1307.c: 67:         I2C_Write(dec_to_bcd(day));
  4327     14F4  1283               	bcf	3,5	;RP0=0, select bank0
  4328     14F5  1303               	bcf	3,6	;RP1=0, select bank0
  4329     14F6  0825               	movf	ds1307_set_date@day,w
  4330     14F7  160A  118A  23DF  160A  118A  	fcall	_dec_to_bcd
  4331     14FC  160A  118A  222D  160A  118A  	fcall	_I2C_Write
  4332                           
  4333                           ;ds1307.c: 68:         I2C_Write(dec_to_bcd(month));
  4334     1501  1283               	bcf	3,5	;RP0=0, select bank0
  4335     1502  1303               	bcf	3,6	;RP1=0, select bank0
  4336     1503  0821               	movf	ds1307_set_date@month,w
  4337     1504  160A  118A  23DF  160A  118A  	fcall	_dec_to_bcd
  4338     1509  160A  118A  222D  160A  118A  	fcall	_I2C_Write
  4339                           
  4340                           ;ds1307.c: 69:         I2C_Write(dec_to_bcd(year));
  4341     150E  1283               	bcf	3,5	;RP0=0, select bank0
  4342     150F  1303               	bcf	3,6	;RP1=0, select bank0
  4343     1510  0822               	movf	ds1307_set_date@year,w
  4344     1511  160A  118A  23DF  160A  118A  	fcall	_dec_to_bcd
  4345     1516  160A  118A  222D  160A  118A  	fcall	_I2C_Write
  4346     151B                     l3118:
  4347                           
  4348                           ;ds1307.c: 72:     I2C_Stop();
  4349     151B  160A  118A  21E1  160A  118A  	fcall	_I2C_Stop
  4350                           
  4351                           ;ds1307.c: 73:     _delay((unsigned long)((20)*(20000000/4000.0)));
  4352     1520  3082               	movlw	130
  4353     1521  1283               	bcf	3,5	;RP0=0, select bank0
  4354     1522  1303               	bcf	3,6	;RP1=0, select bank0
  4355     1523  00A4               	movwf	??_ds1307_set_date+1
  4356     1524  30DD               	movlw	221
  4357     1525  00A3               	movwf	??_ds1307_set_date
  4358     1526                     u4787:
  4359     1526  0BA3               	decfsz	??_ds1307_set_date,f
  4360     1527  2D26               	goto	u4787
  4361     1528  0BA4               	decfsz	??_ds1307_set_date+1,f
  4362     1529  2D26               	goto	u4787
  4363     152A                     l248:
  4364     152A  0008               	return
  4365     152B                     __end_of_ds1307_set_date:
  4366                           
  4367                           	psect	text14
  4368     13DF                     __ptext14:	
  4369 ;; *************** function _dec_to_bcd *****************
  4370 ;; Defined at:
  4371 ;;		line 28 in file "ds1307.c"
  4372 ;; Parameters:    Size  Location     Type
  4373 ;;  val             1    wreg     unsigned char 
  4374 ;; Auto vars:     Size  Location     Type
  4375 ;;  val             1   12[COMMON] unsigned char 
  4376 ;;  unidades        1   11[COMMON] unsigned char 
  4377 ;;  decenas         1   10[COMMON] unsigned char 
  4378 ;; Return value:  Size  Location     Type
  4379 ;;                  1    wreg      unsigned char 
  4380 ;; Registers used:
  4381 ;;		wreg, status,2, status,0, pclath, cstack
  4382 ;; Tracked objects:
  4383 ;;		On entry : 0/0
  4384 ;;		On exit  : 0/0
  4385 ;;		Unchanged: 0/0
  4386 ;; Data sizes:     COMMON   BANK0   BANK1   BANK3   BANK2
  4387 ;;      Params:         0       0       0       0       0
  4388 ;;      Locals:         3       0       0       0       0
  4389 ;;      Temps:          2       0       0       0       0
  4390 ;;      Totals:         5       0       0       0       0
  4391 ;;Total ram usage:        5 bytes
  4392 ;; Hardware stack levels used: 1
  4393 ;; This function calls:
  4394 ;;		___awdiv
  4395 ;;		___awmod
  4396 ;; This function is called by:
  4397 ;;		_ds1307_set_date
  4398 ;;		_ds1307_set_time
  4399 ;; This function uses a non-reentrant model
  4400 ;;
  4401                           
  4402     13DF                     _dec_to_bcd:	
  4403                           ;psect for function _dec_to_bcd
  4404                           
  4405                           
  4406                           ;incstack = 0
  4407                           ; Regs used in _dec_to_bcd: [wreg+status,2+status,0+pclath+cstack]
  4408                           ;dec_to_bcd@val stored from wreg
  4409     13DF  00FC               	movwf	dec_to_bcd@val
  4410     13E0                     l2620:
  4411                           
  4412                           ;ds1307.c: 28: static uint8_t dec_to_bcd(uint8_t val);ds1307.c: 29: {;ds1307.c: 30:     
      +                          uint8_t decenas = (uint8_t)(val / 10);
  4413     13E0  300A               	movlw	10
  4414     13E1  00F0               	movwf	___awdiv@divisor
  4415     13E2  3000               	movlw	0
  4416     13E3  00F1               	movwf	___awdiv@divisor+1
  4417     13E4  087C               	movf	dec_to_bcd@val,w
  4418     13E5  00F8               	movwf	??_dec_to_bcd
  4419     13E6  01F9               	clrf	??_dec_to_bcd+1
  4420     13E7  0878               	movf	??_dec_to_bcd,w
  4421     13E8  00F2               	movwf	___awdiv@dividend
  4422     13E9  0879               	movf	??_dec_to_bcd+1,w
  4423     13EA  00F3               	movwf	___awdiv@dividend+1
  4424     13EB  120A  118A  2007  160A  118A  	fcall	___awdiv
  4425     13F0  0870               	movf	?___awdiv,w
  4426     13F1  00FA               	movwf	dec_to_bcd@decenas
  4427                           
  4428                           ;ds1307.c: 31:     uint8_t unidades = (uint8_t)(val % 10);
  4429     13F2  300A               	movlw	10
  4430     13F3  00F0               	movwf	___awmod@divisor
  4431     13F4  3000               	movlw	0
  4432     13F5  00F1               	movwf	___awmod@divisor+1
  4433     13F6  087C               	movf	dec_to_bcd@val,w
  4434     13F7  00F8               	movwf	??_dec_to_bcd
  4435     13F8  01F9               	clrf	??_dec_to_bcd+1
  4436     13F9  0878               	movf	??_dec_to_bcd,w
  4437     13FA  00F2               	movwf	___awmod@dividend
  4438     13FB  0879               	movf	??_dec_to_bcd+1,w
  4439     13FC  00F3               	movwf	___awmod@dividend+1
  4440     13FD  160A  118A  25D0  160A  118A  	fcall	___awmod
  4441     1402  0870               	movf	?___awmod,w
  4442     1403  00FB               	movwf	dec_to_bcd@unidades
  4443     1404                     l2622:
  4444                           
  4445                           ;ds1307.c: 32:     return (uint8_t)((decenas << 4) | unidades);
  4446     1404  087A               	movf	dec_to_bcd@decenas,w
  4447     1405  00F8               	movwf	??_dec_to_bcd
  4448     1406  3003               	movlw	3
  4449     1407                     u3025:
  4450     1407  1003               	clrc
  4451     1408  0DF8               	rlf	??_dec_to_bcd,f
  4452     1409  3EFF               	addlw	-1
  4453     140A  1D03               	skipz
  4454     140B  2C07               	goto	u3025
  4455     140C  1003               	clrc
  4456     140D  0D78               	rlf	??_dec_to_bcd,w
  4457     140E  047B               	iorwf	dec_to_bcd@unidades,w
  4458     140F                     l241:
  4459     140F  0008               	return
  4460     1410                     __end_of_dec_to_bcd:
  4461                           
  4462                           	psect	text15
  4463     15D0                     __ptext15:	
  4464 ;; *************** function ___awmod *****************
  4465 ;; Defined at:
  4466 ;;		line 5 in file "C:\Program Files\Microchip\xc8\v3.10\pic\sources\c99\common\awmod.c"
  4467 ;; Parameters:    Size  Location     Type
  4468 ;;  divisor         2    0[COMMON] int 
  4469 ;;  dividend        2    2[COMMON] int 
  4470 ;; Auto vars:     Size  Location     Type
  4471 ;;  sign            1    5[COMMON] unsigned char 
  4472 ;;  counter         1    4[COMMON] unsigned char 
  4473 ;; Return value:  Size  Location     Type
  4474 ;;                  2    0[COMMON] int 
  4475 ;; Registers used:
  4476 ;;		wreg, status,2, status,0
  4477 ;; Tracked objects:
  4478 ;;		On entry : 0/0
  4479 ;;		On exit  : 0/0
  4480 ;;		Unchanged: 0/0
  4481 ;; Data sizes:     COMMON   BANK0   BANK1   BANK3   BANK2
  4482 ;;      Params:         4       0       0       0       0
  4483 ;;      Locals:         2       0       0       0       0
  4484 ;;      Temps:          0       0       0       0       0
  4485 ;;      Totals:         6       0       0       0       0
  4486 ;;Total ram usage:        6 bytes
  4487 ;; Hardware stack levels used: 1
  4488 ;; This function calls:
  4489 ;;		Nothing
  4490 ;; This function is called by:
  4491 ;;		_dec_to_bcd
  4492 ;;		_dtoa
  4493 ;; This function uses a non-reentrant model
  4494 ;;
  4495                           
  4496     15D0                     ___awmod:	
  4497                           ;psect for function ___awmod
  4498                           
  4499     15D0                     l2324:	
  4500                           ;incstack = 0
  4501                           ; Regs used in ___awmod: [wreg+status,2+status,0]
  4502                           
  4503     15D0  01F5               	clrf	___awmod@sign
  4504     15D1                     l2326:
  4505     15D1  1FF3               	btfss	___awmod@dividend+1,7
  4506     15D2  2DD4               	goto	u2551
  4507     15D3  2DD5               	goto	u2550
  4508     15D4                     u2551:
  4509     15D4  2DDC               	goto	l2332
  4510     15D5                     u2550:
  4511     15D5                     l2328:
  4512     15D5  09F2               	comf	___awmod@dividend,f
  4513     15D6  09F3               	comf	___awmod@dividend+1,f
  4514     15D7  0AF2               	incf	___awmod@dividend,f
  4515     15D8  1903               	skipnz
  4516     15D9  0AF3               	incf	___awmod@dividend+1,f
  4517     15DA                     l2330:
  4518     15DA  3001               	movlw	1
  4519     15DB  00F5               	movwf	___awmod@sign
  4520     15DC                     l2332:
  4521     15DC  1FF1               	btfss	___awmod@divisor+1,7
  4522     15DD  2DDF               	goto	u2561
  4523     15DE  2DE0               	goto	u2560
  4524     15DF                     u2561:
  4525     15DF  2DE5               	goto	l2336
  4526     15E0                     u2560:
  4527     15E0                     l2334:
  4528     15E0  09F0               	comf	___awmod@divisor,f
  4529     15E1  09F1               	comf	___awmod@divisor+1,f
  4530     15E2  0AF0               	incf	___awmod@divisor,f
  4531     15E3  1903               	skipnz
  4532     15E4  0AF1               	incf	___awmod@divisor+1,f
  4533     15E5                     l2336:
  4534     15E5  0870               	movf	___awmod@divisor,w
  4535     15E6  0471               	iorwf	___awmod@divisor+1,w
  4536     15E7  1903               	btfsc	3,2
  4537     15E8  2DEA               	goto	u2571
  4538     15E9  2DEB               	goto	u2570
  4539     15EA                     u2571:
  4540     15EA  2E18               	goto	l2354
  4541     15EB                     u2570:
  4542     15EB                     l2338:
  4543     15EB  3001               	movlw	1
  4544     15EC  00F4               	movwf	___awmod@counter
  4545     15ED  2DF7               	goto	l2344
  4546     15EE                     l2340:
  4547     15EE  3001               	movlw	1
  4548     15EF                     u2585:
  4549     15EF  1003               	clrc
  4550     15F0  0DF0               	rlf	___awmod@divisor,f
  4551     15F1  0DF1               	rlf	___awmod@divisor+1,f
  4552     15F2  3EFF               	addlw	-1
  4553     15F3  1D03               	skipz
  4554     15F4  2DEF               	goto	u2585
  4555     15F5                     l2342:
  4556     15F5  3001               	movlw	1
  4557     15F6  07F4               	addwf	___awmod@counter,f
  4558     15F7                     l2344:
  4559     15F7  1FF1               	btfss	___awmod@divisor+1,7
  4560     15F8  2DFA               	goto	u2591
  4561     15F9  2DFB               	goto	u2590
  4562     15FA                     u2591:
  4563     15FA  2DEE               	goto	l2340
  4564     15FB                     u2590:
  4565     15FB                     l2346:
  4566     15FB  0871               	movf	___awmod@divisor+1,w
  4567     15FC  0273               	subwf	___awmod@dividend+1,w
  4568     15FD  1D03               	skipz
  4569     15FE  2E01               	goto	u2605
  4570     15FF  0870               	movf	___awmod@divisor,w
  4571     1600  0272               	subwf	___awmod@dividend,w
  4572     1601                     u2605:
  4573     1601  1C03               	skipc
  4574     1602  2E04               	goto	u2601
  4575     1603  2E05               	goto	u2600
  4576     1604                     u2601:
  4577     1604  2E0B               	goto	l2350
  4578     1605                     u2600:
  4579     1605                     l2348:
  4580     1605  0870               	movf	___awmod@divisor,w
  4581     1606  02F2               	subwf	___awmod@dividend,f
  4582     1607  0871               	movf	___awmod@divisor+1,w
  4583     1608  1C03               	skipc
  4584     1609  03F3               	decf	___awmod@dividend+1,f
  4585     160A  02F3               	subwf	___awmod@dividend+1,f
  4586     160B                     l2350:
  4587     160B  3001               	movlw	1
  4588     160C                     u2615:
  4589     160C  1003               	clrc
  4590     160D  0CF1               	rrf	___awmod@divisor+1,f
  4591     160E  0CF0               	rrf	___awmod@divisor,f
  4592     160F  3EFF               	addlw	-1
  4593     1610  1D03               	skipz
  4594     1611  2E0C               	goto	u2615
  4595     1612                     l2352:
  4596     1612  3001               	movlw	1
  4597     1613  02F4               	subwf	___awmod@counter,f
  4598     1614  1D03               	btfss	3,2
  4599     1615  2E17               	goto	u2621
  4600     1616  2E18               	goto	u2620
  4601     1617                     u2621:
  4602     1617  2DFB               	goto	l2346
  4603     1618                     u2620:
  4604     1618                     l2354:
  4605     1618  0875               	movf	___awmod@sign,w
  4606     1619  1903               	btfsc	3,2
  4607     161A  2E1C               	goto	u2631
  4608     161B  2E1D               	goto	u2630
  4609     161C                     u2631:
  4610     161C  2E22               	goto	l2358
  4611     161D                     u2630:
  4612     161D                     l2356:
  4613     161D  09F2               	comf	___awmod@dividend,f
  4614     161E  09F3               	comf	___awmod@dividend+1,f
  4615     161F  0AF2               	incf	___awmod@dividend,f
  4616     1620  1903               	skipnz
  4617     1621  0AF3               	incf	___awmod@dividend+1,f
  4618     1622                     l2358:
  4619     1622  0873               	movf	___awmod@dividend+1,w
  4620     1623  00F1               	movwf	?___awmod+1
  4621     1624  0872               	movf	___awmod@dividend,w
  4622     1625  00F0               	movwf	?___awmod
  4623     1626                     l518:
  4624     1626  0008               	return
  4625     1627                     __end_of___awmod:
  4626                           
  4627                           	psect	text16
  4628     0007                     __ptext16:	
  4629 ;; *************** function ___awdiv *****************
  4630 ;; Defined at:
  4631 ;;		line 5 in file "C:\Program Files\Microchip\xc8\v3.10\pic\sources\c99\common\awdiv.c"
  4632 ;; Parameters:    Size  Location     Type
  4633 ;;  divisor         2    0[COMMON] int 
  4634 ;;  dividend        2    2[COMMON] int 
  4635 ;; Auto vars:     Size  Location     Type
  4636 ;;  quotient        2    6[COMMON] int 
  4637 ;;  sign            1    5[COMMON] unsigned char 
  4638 ;;  counter         1    4[COMMON] unsigned char 
  4639 ;; Return value:  Size  Location     Type
  4640 ;;                  2    0[COMMON] int 
  4641 ;; Registers used:
  4642 ;;		wreg, status,2, status,0
  4643 ;; Tracked objects:
  4644 ;;		On entry : 0/0
  4645 ;;		On exit  : 0/0
  4646 ;;		Unchanged: 0/0
  4647 ;; Data sizes:     COMMON   BANK0   BANK1   BANK3   BANK2
  4648 ;;      Params:         4       0       0       0       0
  4649 ;;      Locals:         4       0       0       0       0
  4650 ;;      Temps:          0       0       0       0       0
  4651 ;;      Totals:         8       0       0       0       0
  4652 ;;Total ram usage:        8 bytes
  4653 ;; Hardware stack levels used: 1
  4654 ;; This function calls:
  4655 ;;		Nothing
  4656 ;; This function is called by:
  4657 ;;		_dec_to_bcd
  4658 ;;		_dtoa
  4659 ;; This function uses a non-reentrant model
  4660 ;;
  4661                           
  4662     0007                     ___awdiv:	
  4663                           ;psect for function ___awdiv
  4664                           
  4665     0007                     l2280:	
  4666                           ;incstack = 0
  4667                           ; Regs used in ___awdiv: [wreg+status,2+status,0]
  4668                           
  4669     0007  01F5               	clrf	___awdiv@sign
  4670     0008                     l2282:
  4671     0008  1FF1               	btfss	___awdiv@divisor+1,7
  4672     0009  280B               	goto	u2451
  4673     000A  280C               	goto	u2450
  4674     000B                     u2451:
  4675     000B  2813               	goto	l2288
  4676     000C                     u2450:
  4677     000C                     l2284:
  4678     000C  09F0               	comf	___awdiv@divisor,f
  4679     000D  09F1               	comf	___awdiv@divisor+1,f
  4680     000E  0AF0               	incf	___awdiv@divisor,f
  4681     000F  1903               	skipnz
  4682     0010  0AF1               	incf	___awdiv@divisor+1,f
  4683     0011                     l2286:
  4684     0011  3001               	movlw	1
  4685     0012  00F5               	movwf	___awdiv@sign
  4686     0013                     l2288:
  4687     0013  1FF3               	btfss	___awdiv@dividend+1,7
  4688     0014  2816               	goto	u2461
  4689     0015  2817               	goto	u2460
  4690     0016                     u2461:
  4691     0016  281E               	goto	l2294
  4692     0017                     u2460:
  4693     0017                     l2290:
  4694     0017  09F2               	comf	___awdiv@dividend,f
  4695     0018  09F3               	comf	___awdiv@dividend+1,f
  4696     0019  0AF2               	incf	___awdiv@dividend,f
  4697     001A  1903               	skipnz
  4698     001B  0AF3               	incf	___awdiv@dividend+1,f
  4699     001C                     l2292:
  4700     001C  3001               	movlw	1
  4701     001D  06F5               	xorwf	___awdiv@sign,f
  4702     001E                     l2294:
  4703     001E  01F6               	clrf	___awdiv@quotient
  4704     001F  01F7               	clrf	___awdiv@quotient+1
  4705     0020                     l2296:
  4706     0020  0870               	movf	___awdiv@divisor,w
  4707     0021  0471               	iorwf	___awdiv@divisor+1,w
  4708     0022  1903               	btfsc	3,2
  4709     0023  2825               	goto	u2471
  4710     0024  2826               	goto	u2470
  4711     0025                     u2471:
  4712     0025  285B               	goto	l2316
  4713     0026                     u2470:
  4714     0026                     l2298:
  4715     0026  3001               	movlw	1
  4716     0027  00F4               	movwf	___awdiv@counter
  4717     0028  2832               	goto	l2304
  4718     0029                     l2300:
  4719     0029  3001               	movlw	1
  4720     002A                     u2485:
  4721     002A  1003               	clrc
  4722     002B  0DF0               	rlf	___awdiv@divisor,f
  4723     002C  0DF1               	rlf	___awdiv@divisor+1,f
  4724     002D  3EFF               	addlw	-1
  4725     002E  1D03               	skipz
  4726     002F  282A               	goto	u2485
  4727     0030                     l2302:
  4728     0030  3001               	movlw	1
  4729     0031  07F4               	addwf	___awdiv@counter,f
  4730     0032                     l2304:
  4731     0032  1FF1               	btfss	___awdiv@divisor+1,7
  4732     0033  2835               	goto	u2491
  4733     0034  2836               	goto	u2490
  4734     0035                     u2491:
  4735     0035  2829               	goto	l2300
  4736     0036                     u2490:
  4737     0036                     l2306:
  4738     0036  3001               	movlw	1
  4739     0037                     u2505:
  4740     0037  1003               	clrc
  4741     0038  0DF6               	rlf	___awdiv@quotient,f
  4742     0039  0DF7               	rlf	___awdiv@quotient+1,f
  4743     003A  3EFF               	addlw	-1
  4744     003B  1D03               	skipz
  4745     003C  2837               	goto	u2505
  4746     003D  0871               	movf	___awdiv@divisor+1,w
  4747     003E  0273               	subwf	___awdiv@dividend+1,w
  4748     003F  1D03               	skipz
  4749     0040  2843               	goto	u2515
  4750     0041  0870               	movf	___awdiv@divisor,w
  4751     0042  0272               	subwf	___awdiv@dividend,w
  4752     0043                     u2515:
  4753     0043  1C03               	skipc
  4754     0044  2846               	goto	u2511
  4755     0045  2847               	goto	u2510
  4756     0046                     u2511:
  4757     0046  284E               	goto	l2312
  4758     0047                     u2510:
  4759     0047                     l2308:
  4760     0047  0870               	movf	___awdiv@divisor,w
  4761     0048  02F2               	subwf	___awdiv@dividend,f
  4762     0049  0871               	movf	___awdiv@divisor+1,w
  4763     004A  1C03               	skipc
  4764     004B  03F3               	decf	___awdiv@dividend+1,f
  4765     004C  02F3               	subwf	___awdiv@dividend+1,f
  4766     004D                     l2310:
  4767     004D  1476               	bsf	___awdiv@quotient,0
  4768     004E                     l2312:
  4769     004E  3001               	movlw	1
  4770     004F                     u2525:
  4771     004F  1003               	clrc
  4772     0050  0CF1               	rrf	___awdiv@divisor+1,f
  4773     0051  0CF0               	rrf	___awdiv@divisor,f
  4774     0052  3EFF               	addlw	-1
  4775     0053  1D03               	skipz
  4776     0054  284F               	goto	u2525
  4777     0055                     l2314:
  4778     0055  3001               	movlw	1
  4779     0056  02F4               	subwf	___awdiv@counter,f
  4780     0057  1D03               	btfss	3,2
  4781     0058  285A               	goto	u2531
  4782     0059  285B               	goto	u2530
  4783     005A                     u2531:
  4784     005A  2836               	goto	l2306
  4785     005B                     u2530:
  4786     005B                     l2316:
  4787     005B  0875               	movf	___awdiv@sign,w
  4788     005C  1903               	btfsc	3,2
  4789     005D  285F               	goto	u2541
  4790     005E  2860               	goto	u2540
  4791     005F                     u2541:
  4792     005F  2865               	goto	l2320
  4793     0060                     u2540:
  4794     0060                     l2318:
  4795     0060  09F6               	comf	___awdiv@quotient,f
  4796     0061  09F7               	comf	___awdiv@quotient+1,f
  4797     0062  0AF6               	incf	___awdiv@quotient,f
  4798     0063  1903               	skipnz
  4799     0064  0AF7               	incf	___awdiv@quotient+1,f
  4800     0065                     l2320:
  4801     0065  0877               	movf	___awdiv@quotient+1,w
  4802     0066  00F1               	movwf	?___awdiv+1
  4803     0067  0876               	movf	___awdiv@quotient,w
  4804     0068  00F0               	movwf	?___awdiv
  4805     0069                     l505:
  4806     0069  0008               	return
  4807     006A                     __end_of___awdiv:
  4808                           
  4809                           	psect	text17
  4810     167E                     __ptext17:	
  4811 ;; *************** function _ds1307_init *****************
  4812 ;; Defined at:
  4813 ;;		line 36 in file "ds1307.c"
  4814 ;; Parameters:    Size  Location     Type
  4815 ;;		None
  4816 ;; Auto vars:     Size  Location     Type
  4817 ;;		None
  4818 ;; Return value:  Size  Location     Type
  4819 ;;                  1    wreg      void 
  4820 ;; Registers used:
  4821 ;;		wreg, status,2, status,0, pclath, cstack
  4822 ;; Tracked objects:
  4823 ;;		On entry : 0/0
  4824 ;;		On exit  : 0/0
  4825 ;;		Unchanged: 0/0
  4826 ;; Data sizes:     COMMON   BANK0   BANK1   BANK3   BANK2
  4827 ;;      Params:         0       0       0       0       0
  4828 ;;      Locals:         0       0       0       0       0
  4829 ;;      Temps:          0       3       0       0       0
  4830 ;;      Totals:         0       3       0       0       0
  4831 ;;Total ram usage:        3 bytes
  4832 ;; Hardware stack levels used: 1
  4833 ;; Hardware stack levels required when called: 1
  4834 ;; This function calls:
  4835 ;;		_I2C_Start
  4836 ;;		_I2C_Stop
  4837 ;;		_I2C_Write
  4838 ;; This function is called by:
  4839 ;;		_main
  4840 ;; This function uses a non-reentrant model
  4841 ;;
  4842                           
  4843     167E                     _ds1307_init:	
  4844                           ;psect for function _ds1307_init
  4845                           
  4846     167E                     l3094:	
  4847                           ;incstack = 0
  4848                           ; Regs used in _ds1307_init: [wreg+status,2+status,0+pclath+cstack]
  4849                           
  4850                           
  4851                           ;ds1307.c: 38:     _delay((unsigned long)((50)*(20000000/4000.0)));
  4852     167E  3002               	movlw	2
  4853     167F  1283               	bcf	3,5	;RP0=0, select bank0
  4854     1680  1303               	bcf	3,6	;RP1=0, select bank0
  4855     1681  00A3               	movwf	??_ds1307_init+2
  4856     1682  3045               	movlw	69
  4857     1683  00A2               	movwf	??_ds1307_init+1
  4858     1684  30A9               	movlw	169
  4859     1685  00A1               	movwf	??_ds1307_init
  4860     1686                     u4797:
  4861     1686  0BA1               	decfsz	??_ds1307_init,f
  4862     1687  2E86               	goto	u4797
  4863     1688  0BA2               	decfsz	??_ds1307_init+1,f
  4864     1689  2E86               	goto	u4797
  4865     168A  0BA3               	decfsz	??_ds1307_init+2,f
  4866     168B  2E86               	goto	u4797
  4867     168C                     l3096:
  4868                           
  4869                           ;ds1307.c: 41:     I2C_Start();
  4870     168C  160A  118A  21D7  160A  118A  	fcall	_I2C_Start
  4871                           
  4872                           ;ds1307.c: 42:     I2C_Write(0xD0);
  4873     1691  30D0               	movlw	208
  4874     1692  160A  118A  222D  160A  118A  	fcall	_I2C_Write
  4875                           
  4876                           ;ds1307.c: 43:     I2C_Write(0x00);
  4877     1697  3000               	movlw	0
  4878     1698  160A  118A  222D  160A  118A  	fcall	_I2C_Write
  4879                           
  4880                           ;ds1307.c: 44:     I2C_Write(0x00);
  4881     169D  3000               	movlw	0
  4882     169E  160A  118A  222D  160A  118A  	fcall	_I2C_Write
  4883     16A3                     l3098:
  4884                           
  4885                           ;ds1307.c: 45:     I2C_Stop();
  4886     16A3  160A  118A  21E1  160A  118A  	fcall	_I2C_Stop
  4887                           
  4888                           ;ds1307.c: 47:     _delay((unsigned long)((20)*(20000000/4000.0)));
  4889     16A8  3082               	movlw	130
  4890     16A9  1283               	bcf	3,5	;RP0=0, select bank0
  4891     16AA  1303               	bcf	3,6	;RP1=0, select bank0
  4892     16AB  00A2               	movwf	??_ds1307_init+1
  4893     16AC  30DD               	movlw	221
  4894     16AD  00A1               	movwf	??_ds1307_init
  4895     16AE                     u4807:
  4896     16AE  0BA1               	decfsz	??_ds1307_init,f
  4897     16AF  2EAE               	goto	u4807
  4898     16B0  0BA2               	decfsz	??_ds1307_init+1,f
  4899     16B1  2EAE               	goto	u4807
  4900     16B2                     l3100:
  4901                           
  4902                           ;ds1307.c: 50:     I2C_Start();
  4903     16B2  160A  118A  21D7  160A  118A  	fcall	_I2C_Start
  4904                           
  4905                           ;ds1307.c: 51:     I2C_Write(0xD0);
  4906     16B7  30D0               	movlw	208
  4907     16B8  160A  118A  222D  160A  118A  	fcall	_I2C_Write
  4908                           
  4909                           ;ds1307.c: 52:     I2C_Write(0x07);
  4910     16BD  3007               	movlw	7
  4911     16BE  160A  118A  222D  160A  118A  	fcall	_I2C_Write
  4912                           
  4913                           ;ds1307.c: 53:     I2C_Write(0x00);
  4914     16C3  3000               	movlw	0
  4915     16C4  160A  118A  222D  160A  118A  	fcall	_I2C_Write
  4916     16C9                     l3102:
  4917                           
  4918                           ;ds1307.c: 54:     I2C_Stop();
  4919     16C9  160A  118A  21E1  160A  118A  	fcall	_I2C_Stop
  4920                           
  4921                           ;ds1307.c: 56:     _delay((unsigned long)((20)*(20000000/4000.0)));
  4922     16CE  3082               	movlw	130
  4923     16CF  1283               	bcf	3,5	;RP0=0, select bank0
  4924     16D0  1303               	bcf	3,6	;RP1=0, select bank0
  4925     16D1  00A2               	movwf	??_ds1307_init+1
  4926     16D2  30DD               	movlw	221
  4927     16D3  00A1               	movwf	??_ds1307_init
  4928     16D4                     u4817:
  4929     16D4  0BA1               	decfsz	??_ds1307_init,f
  4930     16D5  2ED4               	goto	u4817
  4931     16D6  0BA2               	decfsz	??_ds1307_init+1,f
  4932     16D7  2ED4               	goto	u4817
  4933     16D8                     l244:
  4934     16D8  0008               	return
  4935     16D9                     __end_of_ds1307_init:
  4936                           
  4937                           	psect	text18
  4938     16D9                     __ptext18:	
  4939 ;; *************** function _ds1307_get_time *****************
  4940 ;; Defined at:
  4941 ;;		line 145 in file "ds1307.c"
  4942 ;; Parameters:    Size  Location     Type
  4943 ;;  hour            1    1[BANK0 ] PTR unsigned char 
  4944 ;;		 -> main@hora(1), 
  4945 ;;  min             1    2[BANK0 ] PTR unsigned char 
  4946 ;;		 -> main@min(1), 
  4947 ;;  sec             1    3[BANK0 ] PTR unsigned char 
  4948 ;;		 -> main@seg(1), 
  4949 ;; Auto vars:     Size  Location     Type
  4950 ;;  temp            1    5[BANK0 ] unsigned char 
  4951 ;; Return value:  Size  Location     Type
  4952 ;;                  1    wreg      void 
  4953 ;; Registers used:
  4954 ;;		wreg, fsr0l, fsr0h, status,2, status,0, pclath, cstack
  4955 ;; Tracked objects:
  4956 ;;		On entry : 0/0
  4957 ;;		On exit  : 0/0
  4958 ;;		Unchanged: 0/0
  4959 ;; Data sizes:     COMMON   BANK0   BANK1   BANK3   BANK2
  4960 ;;      Params:         0       3       0       0       0
  4961 ;;      Locals:         0       1       0       0       0
  4962 ;;      Temps:          0       1       0       0       0
  4963 ;;      Totals:         0       5       0       0       0
  4964 ;;Total ram usage:        5 bytes
  4965 ;; Hardware stack levels used: 1
  4966 ;; Hardware stack levels required when called: 1
  4967 ;; This function calls:
  4968 ;;		_I2C_Ack
  4969 ;;		_I2C_Nack
  4970 ;;		_I2C_Read
  4971 ;;		_I2C_Start
  4972 ;;		_I2C_Stop
  4973 ;;		_I2C_Write
  4974 ;;		_bcd_to_dec
  4975 ;; This function is called by:
  4976 ;;		_main
  4977 ;; This function uses a non-reentrant model
  4978 ;;
  4979                           
  4980     16D9                     _ds1307_get_time:	
  4981                           ;psect for function _ds1307_get_time
  4982                           
  4983     16D9                     l3176:	
  4984                           ;incstack = 0
  4985                           ; Regs used in _ds1307_get_time: [wreg-fsr0h+status,2+status,0+pclath+cstack]
  4986                           
  4987                           
  4988                           ;ds1307.c: 145: void ds1307_get_time(uint8_t *hour, uint8_t *min, uint8_t *sec);ds1307.c
      +                          : 146: {;ds1307.c: 147:     uint8_t temp;;ds1307.c: 150:     I2C_Start();
  4989     16D9  160A  118A  21D7  160A  118A  	fcall	_I2C_Start
  4990     16DE                     l3178:
  4991                           
  4992                           ;ds1307.c: 152:     if(I2C_Write(0xD0) == 0)
  4993     16DE  30D0               	movlw	208
  4994     16DF  160A  118A  222D  160A  118A  	fcall	_I2C_Write
  4995     16E4  3A00               	xorlw	0
  4996     16E5  1D03               	skipz
  4997     16E6  2EE8               	goto	u4071
  4998     16E7  2EE9               	goto	u4070
  4999     16E8                     u4071:
  5000     16E8  2F5A               	goto	l3202
  5001     16E9                     u4070:
  5002     16E9                     l3180:
  5003                           
  5004                           ;ds1307.c: 153:     {;ds1307.c: 154:         I2C_Write(0x00);
  5005     16E9  3000               	movlw	0
  5006     16EA  160A  118A  222D  160A  118A  	fcall	_I2C_Write
  5007     16EF                     l3182:
  5008                           
  5009                           ;ds1307.c: 155:         I2C_Stop();
  5010     16EF  160A  118A  21E1  160A  118A  	fcall	_I2C_Stop
  5011                           
  5012                           ;ds1307.c: 157:         _delay((unsigned long)((50)*(20000000/4000000.0)));
  5013     16F4  3052               	movlw	82
  5014     16F5  1283               	bcf	3,5	;RP0=0, select bank0
  5015     16F6  1303               	bcf	3,6	;RP1=0, select bank0
  5016     16F7  00A4               	movwf	??_ds1307_get_time
  5017     16F8                     u4827:
  5018     16F8  0BA4               	decfsz	??_ds1307_get_time,f
  5019     16F9  2EF8               	goto	u4827
  5020     16FA  0000               	nop
  5021     16FB                     l3184:
  5022                           
  5023                           ;ds1307.c: 160:         I2C_Start();
  5024     16FB  160A  118A  21D7  160A  118A  	fcall	_I2C_Start
  5025                           
  5026                           ;ds1307.c: 162:         if(I2C_Write(0xD1) == 0)
  5027     1700  30D1               	movlw	209
  5028     1701  160A  118A  222D  160A  118A  	fcall	_I2C_Write
  5029     1706  3A00               	xorlw	0
  5030     1707  1D03               	skipz
  5031     1708  2F0A               	goto	u4081
  5032     1709  2F0B               	goto	u4080
  5033     170A                     u4081:
  5034     170A  2F5A               	goto	l3202
  5035     170B                     u4080:
  5036     170B                     l3186:
  5037                           
  5038                           ;ds1307.c: 163:         {;ds1307.c: 164:             temp = I2C_Read();
  5039     170B  120A  158A  2001  160A  118A  	fcall	_I2C_Read
  5040     1710  1283               	bcf	3,5	;RP0=0, select bank0
  5041     1711  1303               	bcf	3,6	;RP1=0, select bank0
  5042     1712  00A5               	movwf	ds1307_get_time@temp
  5043     1713                     l3188:
  5044                           
  5045                           ;ds1307.c: 165:             I2C_Ack();
  5046     1713  160A  118A  21F5  160A  118A  	fcall	_I2C_Ack
  5047     1718                     l3190:
  5048                           
  5049                           ;ds1307.c: 166:             *sec = bcd_to_dec(temp & 0x7F);
  5050     1718  1283               	bcf	3,5	;RP0=0, select bank0
  5051     1719  1303               	bcf	3,6	;RP1=0, select bank0
  5052     171A  0823               	movf	ds1307_get_time@sec,w
  5053     171B  0084               	movwf	4
  5054     171C  0825               	movf	ds1307_get_time@temp,w
  5055     171D  397F               	andlw	127
  5056     171E  160A  118A  2252  160A  118A  	fcall	_bcd_to_dec
  5057     1723  1383               	bcf	3,7	;select IRP bank0
  5058     1724  0080               	movwf	0
  5059     1725                     l3192:
  5060                           
  5061                           ;ds1307.c: 168:             temp = I2C_Read();
  5062     1725  120A  158A  2001  160A  118A  	fcall	_I2C_Read
  5063     172A  1283               	bcf	3,5	;RP0=0, select bank0
  5064     172B  1303               	bcf	3,6	;RP1=0, select bank0
  5065     172C  00A5               	movwf	ds1307_get_time@temp
  5066     172D                     l3194:
  5067                           
  5068                           ;ds1307.c: 169:             I2C_Ack();
  5069     172D  160A  118A  21F5  160A  118A  	fcall	_I2C_Ack
  5070                           
  5071                           ;ds1307.c: 170:             *min = bcd_to_dec(temp & 0x7F);
  5072     1732  1283               	bcf	3,5	;RP0=0, select bank0
  5073     1733  1303               	bcf	3,6	;RP1=0, select bank0
  5074     1734  0822               	movf	ds1307_get_time@min,w
  5075     1735  0084               	movwf	4
  5076     1736  0825               	movf	ds1307_get_time@temp,w
  5077     1737  397F               	andlw	127
  5078     1738  160A  118A  2252  160A  118A  	fcall	_bcd_to_dec
  5079     173D  1383               	bcf	3,7	;select IRP bank0
  5080     173E  0080               	movwf	0
  5081     173F                     l3196:
  5082                           
  5083                           ;ds1307.c: 172:             temp = I2C_Read();
  5084     173F  120A  158A  2001  160A  118A  	fcall	_I2C_Read
  5085     1744  1283               	bcf	3,5	;RP0=0, select bank0
  5086     1745  1303               	bcf	3,6	;RP1=0, select bank0
  5087     1746  00A5               	movwf	ds1307_get_time@temp
  5088     1747                     l3198:
  5089                           
  5090                           ;ds1307.c: 173:             I2C_Nack();
  5091     1747  160A  118A  2200  160A  118A  	fcall	_I2C_Nack
  5092     174C                     l3200:
  5093                           
  5094                           ;ds1307.c: 174:             *hour = bcd_to_dec(temp & 0x3F);
  5095     174C  1283               	bcf	3,5	;RP0=0, select bank0
  5096     174D  1303               	bcf	3,6	;RP1=0, select bank0
  5097     174E  0821               	movf	ds1307_get_time@hour,w
  5098     174F  0084               	movwf	4
  5099     1750  0825               	movf	ds1307_get_time@temp,w
  5100     1751  393F               	andlw	63
  5101     1752  160A  118A  2252  160A  118A  	fcall	_bcd_to_dec
  5102     1757  1383               	bcf	3,7	;select IRP bank0
  5103     1758  0080               	movwf	0
  5104                           
  5105                           ;ds1307.c: 175:         }
  5106     1759  2F66               	goto	l3206
  5107     175A                     l3202:
  5108                           
  5109                           ;ds1307.c: 177:         {;ds1307.c: 179:             *sec = 0;
  5110     175A  1283               	bcf	3,5	;RP0=0, select bank0
  5111     175B  1303               	bcf	3,6	;RP1=0, select bank0
  5112     175C  0823               	movf	ds1307_get_time@sec,w
  5113     175D  0084               	movwf	4
  5114     175E  1383               	bcf	3,7	;select IRP bank0
  5115     175F  0180               	clrf	0
  5116                           
  5117                           ;ds1307.c: 180:             *min = 0;
  5118     1760  0822               	movf	ds1307_get_time@min,w
  5119     1761  0084               	movwf	4
  5120     1762  0180               	clrf	0
  5121                           
  5122                           ;ds1307.c: 181:             *hour = 0;
  5123     1763  0821               	movf	ds1307_get_time@hour,w
  5124     1764  0084               	movwf	4
  5125     1765  0180               	clrf	0
  5126     1766                     l3206:
  5127                           
  5128                           ;ds1307.c: 192:     I2C_Stop();
  5129     1766  160A  118A  21E1  160A  118A  	fcall	_I2C_Stop
  5130     176B                     l266:
  5131     176B  0008               	return
  5132     176C                     __end_of_ds1307_get_time:
  5133                           
  5134                           	psect	text19
  5135     176C                     __ptext19:	
  5136 ;; *************** function _ds1307_get_date *****************
  5137 ;; Defined at:
  5138 ;;		line 94 in file "ds1307.c"
  5139 ;; Parameters:    Size  Location     Type
  5140 ;;  day             1    1[BANK0 ] PTR unsigned char 
  5141 ;;		 -> main@dia(1), 
  5142 ;;  month           1    2[BANK0 ] PTR unsigned char 
  5143 ;;		 -> main@mes(1), 
  5144 ;;  year            1    3[BANK0 ] PTR unsigned char 
  5145 ;;		 -> main@ano(1), 
  5146 ;; Auto vars:     Size  Location     Type
  5147 ;;  temp            1    5[BANK0 ] unsigned char 
  5148 ;; Return value:  Size  Location     Type
  5149 ;;                  1    wreg      void 
  5150 ;; Registers used:
  5151 ;;		wreg, fsr0l, fsr0h, status,2, status,0, pclath, cstack
  5152 ;; Tracked objects:
  5153 ;;		On entry : 0/0
  5154 ;;		On exit  : 0/0
  5155 ;;		Unchanged: 0/0
  5156 ;; Data sizes:     COMMON   BANK0   BANK1   BANK3   BANK2
  5157 ;;      Params:         0       3       0       0       0
  5158 ;;      Locals:         0       1       0       0       0
  5159 ;;      Temps:          0       1       0       0       0
  5160 ;;      Totals:         0       5       0       0       0
  5161 ;;Total ram usage:        5 bytes
  5162 ;; Hardware stack levels used: 1
  5163 ;; Hardware stack levels required when called: 2
  5164 ;; This function calls:
  5165 ;;		_I2C_Ack
  5166 ;;		_I2C_Nack
  5167 ;;		_I2C_Read
  5168 ;;		_I2C_Start
  5169 ;;		_I2C_Stop
  5170 ;;		_I2C_Write
  5171 ;;		_bcd_to_dec
  5172 ;; This function is called by:
  5173 ;;		_main
  5174 ;; This function uses a non-reentrant model
  5175 ;;
  5176                           
  5177     176C                     _ds1307_get_date:	
  5178                           ;psect for function _ds1307_get_date
  5179                           
  5180     176C                     l3208:	
  5181                           ;incstack = 0
  5182                           ; Regs used in _ds1307_get_date: [wreg-fsr0h+status,2+status,0+pclath+cstack]
  5183                           
  5184                           
  5185                           ;ds1307.c: 94: void ds1307_get_date(uint8_t *day, uint8_t *month, uint8_t *year);ds1307.
      +                          c: 95: {;ds1307.c: 96:     uint8_t temp;;ds1307.c: 99:     I2C_Start();
  5186     176C  160A  118A  21D7  160A  118A  	fcall	_I2C_Start
  5187     1771                     l3210:
  5188                           
  5189                           ;ds1307.c: 101:     if(I2C_Write(0xD0) == 0)
  5190     1771  30D0               	movlw	208
  5191     1772  160A  118A  222D  160A  118A  	fcall	_I2C_Write
  5192     1777  3A00               	xorlw	0
  5193     1778  1D03               	skipz
  5194     1779  2F7B               	goto	u4091
  5195     177A  2F7C               	goto	u4090
  5196     177B                     u4091:
  5197     177B  2FEC               	goto	l3234
  5198     177C                     u4090:
  5199     177C                     l3212:
  5200                           
  5201                           ;ds1307.c: 102:     {;ds1307.c: 103:         I2C_Write(0x04);
  5202     177C  3004               	movlw	4
  5203     177D  160A  118A  222D  160A  118A  	fcall	_I2C_Write
  5204     1782                     l3214:
  5205                           
  5206                           ;ds1307.c: 104:         I2C_Stop();
  5207     1782  160A  118A  21E1  160A  118A  	fcall	_I2C_Stop
  5208                           
  5209                           ;ds1307.c: 106:         _delay((unsigned long)((50)*(20000000/4000000.0)));
  5210     1787  3052               	movlw	82
  5211     1788  1283               	bcf	3,5	;RP0=0, select bank0
  5212     1789  1303               	bcf	3,6	;RP1=0, select bank0
  5213     178A  00A4               	movwf	??_ds1307_get_date
  5214     178B                     u4837:
  5215     178B  0BA4               	decfsz	??_ds1307_get_date,f
  5216     178C  2F8B               	goto	u4837
  5217     178D  0000               	nop
  5218     178E                     l3216:
  5219                           
  5220                           ;ds1307.c: 109:         I2C_Start();
  5221     178E  160A  118A  21D7  160A  118A  	fcall	_I2C_Start
  5222                           
  5223                           ;ds1307.c: 111:         if(I2C_Write(0xD1) == 0)
  5224     1793  30D1               	movlw	209
  5225     1794  160A  118A  222D  160A  118A  	fcall	_I2C_Write
  5226     1799  3A00               	xorlw	0
  5227     179A  1D03               	skipz
  5228     179B  2F9D               	goto	u4101
  5229     179C  2F9E               	goto	u4100
  5230     179D                     u4101:
  5231     179D  2FEC               	goto	l3234
  5232     179E                     u4100:
  5233     179E                     l3218:
  5234                           
  5235                           ;ds1307.c: 112:         {;ds1307.c: 113:             temp = I2C_Read();
  5236     179E  120A  158A  2001  160A  118A  	fcall	_I2C_Read
  5237     17A3  1283               	bcf	3,5	;RP0=0, select bank0
  5238     17A4  1303               	bcf	3,6	;RP1=0, select bank0
  5239     17A5  00A5               	movwf	ds1307_get_date@temp
  5240     17A6                     l3220:
  5241                           
  5242                           ;ds1307.c: 114:             I2C_Ack();
  5243     17A6  160A  118A  21F5  160A  118A  	fcall	_I2C_Ack
  5244     17AB                     l3222:
  5245                           
  5246                           ;ds1307.c: 115:             *day = bcd_to_dec(temp & 0x3F);
  5247     17AB  1283               	bcf	3,5	;RP0=0, select bank0
  5248     17AC  1303               	bcf	3,6	;RP1=0, select bank0
  5249     17AD  0821               	movf	ds1307_get_date@day,w
  5250     17AE  0084               	movwf	4
  5251     17AF  0825               	movf	ds1307_get_date@temp,w
  5252     17B0  393F               	andlw	63
  5253     17B1  160A  118A  2252  160A  118A  	fcall	_bcd_to_dec
  5254     17B6  1383               	bcf	3,7	;select IRP bank0
  5255     17B7  0080               	movwf	0
  5256     17B8                     l3224:
  5257                           
  5258                           ;ds1307.c: 117:             temp = I2C_Read();
  5259     17B8  120A  158A  2001  160A  118A  	fcall	_I2C_Read
  5260     17BD  1283               	bcf	3,5	;RP0=0, select bank0
  5261     17BE  1303               	bcf	3,6	;RP1=0, select bank0
  5262     17BF  00A5               	movwf	ds1307_get_date@temp
  5263     17C0                     l3226:
  5264                           
  5265                           ;ds1307.c: 118:             I2C_Ack();
  5266     17C0  160A  118A  21F5  160A  118A  	fcall	_I2C_Ack
  5267                           
  5268                           ;ds1307.c: 119:             *month = bcd_to_dec(temp & 0x1F);
  5269     17C5  1283               	bcf	3,5	;RP0=0, select bank0
  5270     17C6  1303               	bcf	3,6	;RP1=0, select bank0
  5271     17C7  0822               	movf	ds1307_get_date@month,w
  5272     17C8  0084               	movwf	4
  5273     17C9  0825               	movf	ds1307_get_date@temp,w
  5274     17CA  391F               	andlw	31
  5275     17CB  160A  118A  2252  160A  118A  	fcall	_bcd_to_dec
  5276     17D0  1383               	bcf	3,7	;select IRP bank0
  5277     17D1  0080               	movwf	0
  5278     17D2                     l3228:
  5279                           
  5280                           ;ds1307.c: 121:             temp = I2C_Read();
  5281     17D2  120A  158A  2001  160A  118A  	fcall	_I2C_Read
  5282     17D7  1283               	bcf	3,5	;RP0=0, select bank0
  5283     17D8  1303               	bcf	3,6	;RP1=0, select bank0
  5284     17D9  00A5               	movwf	ds1307_get_date@temp
  5285     17DA                     l3230:
  5286                           
  5287                           ;ds1307.c: 122:             I2C_Nack();
  5288     17DA  160A  118A  2200  160A  118A  	fcall	_I2C_Nack
  5289     17DF                     l3232:
  5290                           
  5291                           ;ds1307.c: 123:             *year = bcd_to_dec(temp);
  5292     17DF  1283               	bcf	3,5	;RP0=0, select bank0
  5293     17E0  1303               	bcf	3,6	;RP1=0, select bank0
  5294     17E1  0823               	movf	ds1307_get_date@year,w
  5295     17E2  0084               	movwf	4
  5296     17E3  0825               	movf	ds1307_get_date@temp,w
  5297     17E4  160A  118A  2252  160A  118A  	fcall	_bcd_to_dec
  5298     17E9  1383               	bcf	3,7	;select IRP bank0
  5299     17EA  0080               	movwf	0
  5300                           
  5301                           ;ds1307.c: 124:         }
  5302     17EB  2FFA               	goto	l3242
  5303     17EC                     l3234:
  5304                           
  5305                           ;ds1307.c: 126:         {;ds1307.c: 128:             *day = 1;
  5306     17EC  1283               	bcf	3,5	;RP0=0, select bank0
  5307     17ED  1303               	bcf	3,6	;RP1=0, select bank0
  5308     17EE  0821               	movf	ds1307_get_date@day,w
  5309     17EF  0084               	movwf	4
  5310     17F0  3001               	movlw	1
  5311     17F1  1383               	bcf	3,7	;select IRP bank0
  5312     17F2  0080               	movwf	0
  5313                           
  5314                           ;ds1307.c: 129:             *month = 1;
  5315     17F3  0822               	movf	ds1307_get_date@month,w
  5316     17F4  0084               	movwf	4
  5317     17F5  3001               	movlw	1
  5318     17F6  0080               	movwf	0
  5319     17F7                     l3236:
  5320                           
  5321                           ;ds1307.c: 130:             *year = 0;
  5322     17F7  0823               	movf	ds1307_get_date@year,w
  5323     17F8  0084               	movwf	4
  5324     17F9  0180               	clrf	0
  5325     17FA                     l3242:
  5326                           
  5327                           ;ds1307.c: 141:     I2C_Stop();
  5328     17FA  160A  118A  21E1  160A  118A  	fcall	_I2C_Stop
  5329     17FF                     l259:
  5330     17FF  0008               	return
  5331     1800                     __end_of_ds1307_get_date:
  5332                           
  5333                           	psect	text20
  5334     1252                     __ptext20:	
  5335 ;; *************** function _bcd_to_dec *****************
  5336 ;; Defined at:
  5337 ;;		line 23 in file "ds1307.c"
  5338 ;; Parameters:    Size  Location     Type
  5339 ;;  val             1    wreg     unsigned char 
  5340 ;; Auto vars:     Size  Location     Type
  5341 ;;  val             1    5[COMMON] unsigned char 
  5342 ;; Return value:  Size  Location     Type
  5343 ;;                  1    wreg      unsigned char 
  5344 ;; Registers used:
  5345 ;;		wreg, status,2, status,0, pclath, cstack
  5346 ;; Tracked objects:
  5347 ;;		On entry : 0/0
  5348 ;;		On exit  : 0/0
  5349 ;;		Unchanged: 0/0
  5350 ;; Data sizes:     COMMON   BANK0   BANK1   BANK3   BANK2
  5351 ;;      Params:         0       0       0       0       0
  5352 ;;      Locals:         1       0       0       0       0
  5353 ;;      Temps:          2       0       0       0       0
  5354 ;;      Totals:         3       0       0       0       0
  5355 ;;Total ram usage:        3 bytes
  5356 ;; Hardware stack levels used: 1
  5357 ;; This function calls:
  5358 ;;		___bmul
  5359 ;; This function is called by:
  5360 ;;		_ds1307_get_date
  5361 ;;		_ds1307_get_time
  5362 ;; This function uses a non-reentrant model
  5363 ;;
  5364                           
  5365     1252                     _bcd_to_dec:	
  5366                           ;psect for function _bcd_to_dec
  5367                           
  5368                           
  5369                           ;incstack = 0
  5370                           ; Regs used in _bcd_to_dec: [wreg+status,2+status,0+pclath+cstack]
  5371                           ;bcd_to_dec@val stored from wreg
  5372     1252  00F5               	movwf	bcd_to_dec@val
  5373     1253                     l2616:
  5374                           
  5375                           ;ds1307.c: 23: static uint8_t bcd_to_dec(uint8_t val);ds1307.c: 24: {;ds1307.c: 25:     
      +                          return (uint8_t)(((val >> 4) * 10) + (val & 0x0F));
  5376     1253  300F               	movlw	15
  5377     1254  0575               	andwf	bcd_to_dec@val,w
  5378     1255  00F3               	movwf	??_bcd_to_dec
  5379     1256  300A               	movlw	10
  5380     1257  00F0               	movwf	___bmul@multiplicand
  5381     1258  0875               	movf	bcd_to_dec@val,w
  5382     1259  00F4               	movwf	??_bcd_to_dec+1
  5383     125A  3004               	movlw	4
  5384     125B                     u3015:
  5385     125B  1003               	clrc
  5386     125C  0CF4               	rrf	??_bcd_to_dec+1,f
  5387     125D  3EFF               	addlw	-1
  5388     125E  1D03               	skipz
  5389     125F  2A5B               	goto	u3015
  5390     1260  0874               	movf	??_bcd_to_dec+1,w
  5391     1261  160A  118A  223F  160A  118A  	fcall	___bmul
  5392     1266  0773               	addwf	??_bcd_to_dec,w
  5393     1267                     l238:
  5394     1267  0008               	return
  5395     1268                     __end_of_bcd_to_dec:
  5396                           
  5397                           	psect	text21
  5398     123F                     __ptext21:	
  5399 ;; *************** function ___bmul *****************
  5400 ;; Defined at:
  5401 ;;		line 4 in file "C:\Program Files\Microchip\xc8\v3.10\pic\sources\c99\common\Umul8.c"
  5402 ;; Parameters:    Size  Location     Type
  5403 ;;  multiplier      1    wreg     unsigned char 
  5404 ;;  multiplicand    1    0[COMMON] unsigned char 
  5405 ;; Auto vars:     Size  Location     Type
  5406 ;;  multiplier      1    2[COMMON] unsigned char 
  5407 ;;  product         1    1[COMMON] unsigned char 
  5408 ;; Return value:  Size  Location     Type
  5409 ;;                  1    wreg      unsigned char 
  5410 ;; Registers used:
  5411 ;;		wreg, status,2, status,0
  5412 ;; Tracked objects:
  5413 ;;		On entry : 0/0
  5414 ;;		On exit  : 0/0
  5415 ;;		Unchanged: 0/0
  5416 ;; Data sizes:     COMMON   BANK0   BANK1   BANK3   BANK2
  5417 ;;      Params:         1       0       0       0       0
  5418 ;;      Locals:         2       0       0       0       0
  5419 ;;      Temps:          0       0       0       0       0
  5420 ;;      Totals:         3       0       0       0       0
  5421 ;;Total ram usage:        3 bytes
  5422 ;; Hardware stack levels used: 1
  5423 ;; This function calls:
  5424 ;;		Nothing
  5425 ;; This function is called by:
  5426 ;;		_bcd_to_dec
  5427 ;; This function uses a non-reentrant model
  5428 ;;
  5429                           
  5430     123F                     ___bmul:	
  5431                           ;psect for function ___bmul
  5432                           
  5433                           
  5434                           ;incstack = 0
  5435                           ; Regs used in ___bmul: [wreg+status,2+status,0]
  5436                           ;___bmul@multiplier stored from wreg
  5437     123F  00F2               	movwf	___bmul@multiplier
  5438     1240                     l2460:
  5439     1240  01F1               	clrf	___bmul@product
  5440     1241                     l2462:
  5441     1241  1C72               	btfss	___bmul@multiplier,0
  5442     1242  2A44               	goto	u2841
  5443     1243  2A45               	goto	u2840
  5444     1244                     u2841:
  5445     1244  2A47               	goto	l2466
  5446     1245                     u2840:
  5447     1245                     l2464:
  5448     1245  0870               	movf	___bmul@multiplicand,w
  5449     1246  07F1               	addwf	___bmul@product,f
  5450     1247                     l2466:
  5451     1247  1003               	clrc
  5452     1248  0DF0               	rlf	___bmul@multiplicand,f
  5453     1249                     l2468:
  5454     1249  1003               	clrc
  5455     124A  0CF2               	rrf	___bmul@multiplier,f
  5456     124B  0872               	movf	___bmul@multiplier,w
  5457     124C  1D03               	btfss	3,2
  5458     124D  2A4F               	goto	u2851
  5459     124E  2A50               	goto	u2850
  5460     124F                     u2851:
  5461     124F  2A41               	goto	l2462
  5462     1250                     u2850:
  5463     1250                     l2470:
  5464     1250  0871               	movf	___bmul@product,w
  5465     1251                     l378:
  5466     1251  0008               	return
  5467     1252                     __end_of___bmul:
  5468                           
  5469                           	psect	text22
  5470     0801                     __ptext22:	
  5471 ;; *************** function _I2C_Read *****************
  5472 ;; Defined at:
  5473 ;;		line 73 in file "i2c.c"
  5474 ;; Parameters:    Size  Location     Type
  5475 ;;		None
  5476 ;; Auto vars:     Size  Location     Type
  5477 ;;		None
  5478 ;; Return value:  Size  Location     Type
  5479 ;;                  1    wreg      unsigned char 
  5480 ;; Registers used:
  5481 ;;		wreg
  5482 ;; Tracked objects:
  5483 ;;		On entry : 0/0
  5484 ;;		On exit  : 0/0
  5485 ;;		Unchanged: 0/0
  5486 ;; Data sizes:     COMMON   BANK0   BANK1   BANK3   BANK2
  5487 ;;      Params:         0       0       0       0       0
  5488 ;;      Locals:         0       0       0       0       0
  5489 ;;      Temps:          0       0       0       0       0
  5490 ;;      Totals:         0       0       0       0       0
  5491 ;;Total ram usage:        0 bytes
  5492 ;; Hardware stack levels used: 1
  5493 ;; This function calls:
  5494 ;;		Nothing
  5495 ;; This function is called by:
  5496 ;;		_ds1307_get_date
  5497 ;;		_ds1307_get_time
  5498 ;; This function uses a non-reentrant model
  5499 ;;
  5500                           
  5501     0801                     _I2C_Read:	
  5502                           ;psect for function _I2C_Read
  5503                           
  5504     0801                     l2536:	
  5505                           ;incstack = 0
  5506                           ; Regs used in _I2C_Read: [wreg]
  5507                           
  5508                           
  5509                           ;i2c.c: 75:     SSPCON2bits.RCEN = 1;
  5510     0801  1683               	bsf	3,5	;RP0=1, select bank1
  5511     0802  1303               	bcf	3,6	;RP1=0, select bank1
  5512     0803  1591               	bsf	17,3	;volatile
  5513     0804                     l109:	
  5514                           ;i2c.c: 76:     while(PIR1bits.SSPIF == 0);
  5515                           
  5516     0804  1283               	bcf	3,5	;RP0=0, select bank0
  5517     0805  1D8C               	btfss	12,3	;volatile
  5518     0806  2808               	goto	u2941
  5519     0807  2809               	goto	u2940
  5520     0808                     u2941:
  5521     0808  2804               	goto	l109
  5522     0809                     u2940:
  5523     0809                     l111:
  5524                           
  5525                           ;i2c.c: 77:     PIR1bits.SSPIF = 0;
  5526     0809  118C               	bcf	12,3	;volatile
  5527     080A                     l2538:
  5528                           
  5529                           ;i2c.c: 78:     return SSPBUF;
  5530     080A  0813               	movf	19,w	;volatile
  5531     080B                     l112:
  5532     080B  0008               	return
  5533     080C                     __end_of_I2C_Read:
  5534                           
  5535                           	psect	text23
  5536     1200                     __ptext23:	
  5537 ;; *************** function _I2C_Nack *****************
  5538 ;; Defined at:
  5539 ;;		line 56 in file "i2c.c"
  5540 ;; Parameters:    Size  Location     Type
  5541 ;;		None
  5542 ;; Auto vars:     Size  Location     Type
  5543 ;;		None
  5544 ;; Return value:  Size  Location     Type
  5545 ;;                  1    wreg      void 
  5546 ;; Registers used:
  5547 ;;		None
  5548 ;; Tracked objects:
  5549 ;;		On entry : 0/0
  5550 ;;		On exit  : 0/0
  5551 ;;		Unchanged: 0/0
  5552 ;; Data sizes:     COMMON   BANK0   BANK1   BANK3   BANK2
  5553 ;;      Params:         0       0       0       0       0
  5554 ;;      Locals:         0       0       0       0       0
  5555 ;;      Temps:          0       0       0       0       0
  5556 ;;      Totals:         0       0       0       0       0
  5557 ;;Total ram usage:        0 bytes
  5558 ;; Hardware stack levels used: 1
  5559 ;; This function calls:
  5560 ;;		Nothing
  5561 ;; This function is called by:
  5562 ;;		_ds1307_get_date
  5563 ;;		_ds1307_get_time
  5564 ;; This function uses a non-reentrant model
  5565 ;;
  5566                           
  5567     1200                     _I2C_Nack:	
  5568                           ;psect for function _I2C_Nack
  5569                           
  5570     1200                     l2534:	
  5571                           ;incstack = 0
  5572                           ; Regs used in _I2C_Nack: []
  5573                           
  5574                           
  5575                           ;i2c.c: 58:     SSPCON2bits.ACKDT = 1;
  5576     1200  1683               	bsf	3,5	;RP0=1, select bank1
  5577     1201  1303               	bcf	3,6	;RP1=0, select bank1
  5578     1202  1691               	bsf	17,5	;volatile
  5579                           
  5580                           ;i2c.c: 59:     SSPCON2bits.ACKEN = 1;
  5581     1203  1611               	bsf	17,4	;volatile
  5582     1204                     l97:	
  5583                           ;i2c.c: 60:     while(PIR1bits.SSPIF == 0);
  5584                           
  5585     1204  1283               	bcf	3,5	;RP0=0, select bank0
  5586     1205  1D8C               	btfss	12,3	;volatile
  5587     1206  2A08               	goto	u2931
  5588     1207  2A09               	goto	u2930
  5589     1208                     u2931:
  5590     1208  2A04               	goto	l97
  5591     1209                     u2930:
  5592     1209                     l99:
  5593                           
  5594                           ;i2c.c: 61:     PIR1bits.SSPIF = 0;
  5595     1209  118C               	bcf	12,3	;volatile
  5596     120A                     l100:
  5597     120A  0008               	return
  5598     120B                     __end_of_I2C_Nack:
  5599                           
  5600                           	psect	text24
  5601     11F5                     __ptext24:	
  5602 ;; *************** function _I2C_Ack *****************
  5603 ;; Defined at:
  5604 ;;		line 48 in file "i2c.c"
  5605 ;; Parameters:    Size  Location     Type
  5606 ;;		None
  5607 ;; Auto vars:     Size  Location     Type
  5608 ;;		None
  5609 ;; Return value:  Size  Location     Type
  5610 ;;                  1    wreg      void 
  5611 ;; Registers used:
  5612 ;;		None
  5613 ;; Tracked objects:
  5614 ;;		On entry : 0/0
  5615 ;;		On exit  : 0/0
  5616 ;;		Unchanged: 0/0
  5617 ;; Data sizes:     COMMON   BANK0   BANK1   BANK3   BANK2
  5618 ;;      Params:         0       0       0       0       0
  5619 ;;      Locals:         0       0       0       0       0
  5620 ;;      Temps:          0       0       0       0       0
  5621 ;;      Totals:         0       0       0       0       0
  5622 ;;Total ram usage:        0 bytes
  5623 ;; Hardware stack levels used: 1
  5624 ;; This function calls:
  5625 ;;		Nothing
  5626 ;; This function is called by:
  5627 ;;		_ds1307_get_date
  5628 ;;		_ds1307_get_time
  5629 ;; This function uses a non-reentrant model
  5630 ;;
  5631                           
  5632     11F5                     _I2C_Ack:	
  5633                           ;psect for function _I2C_Ack
  5634                           
  5635     11F5                     l2532:	
  5636                           ;incstack = 0
  5637                           ; Regs used in _I2C_Ack: []
  5638                           
  5639                           
  5640                           ;i2c.c: 50:     SSPCON2bits.ACKDT = 0;
  5641     11F5  1683               	bsf	3,5	;RP0=1, select bank1
  5642     11F6  1303               	bcf	3,6	;RP1=0, select bank1
  5643     11F7  1291               	bcf	17,5	;volatile
  5644                           
  5645                           ;i2c.c: 51:     SSPCON2bits.ACKEN = 1;
  5646     11F8  1611               	bsf	17,4	;volatile
  5647     11F9                     l91:	
  5648                           ;i2c.c: 52:     while(PIR1bits.SSPIF == 0);
  5649                           
  5650     11F9  1283               	bcf	3,5	;RP0=0, select bank0
  5651     11FA  1D8C               	btfss	12,3	;volatile
  5652     11FB  29FD               	goto	u2921
  5653     11FC  29FE               	goto	u2920
  5654     11FD                     u2921:
  5655     11FD  29F9               	goto	l91
  5656     11FE                     u2920:
  5657     11FE                     l93:
  5658                           
  5659                           ;i2c.c: 53:     PIR1bits.SSPIF = 0;
  5660     11FE  118C               	bcf	12,3	;volatile
  5661     11FF                     l94:
  5662     11FF  0008               	return
  5663     1200                     __end_of_I2C_Ack:
  5664                           
  5665                           	psect	text25
  5666     0A9D                     __ptext25:	
  5667 ;; *************** function _dht11_read *****************
  5668 ;; Defined at:
  5669 ;;		line 79 in file "dht11.c"
  5670 ;; Parameters:    Size  Location     Type
  5671 ;;  phum            1   46[BANK0 ] PTR float 
  5672 ;;		 -> main@hum_f(4), 
  5673 ;;  ptemp           1   47[BANK0 ] PTR float 
  5674 ;;		 -> main@temp_f(4), 
  5675 ;; Auto vars:     Size  Location     Type
  5676 ;;  i               1   57[BANK0 ] unsigned char 
  5677 ;;  checksum        1   56[BANK0 ] unsigned char 
  5678 ;; Return value:  Size  Location     Type
  5679 ;;                  1    wreg      unsigned char 
  5680 ;; Registers used:
  5681 ;;		wreg, fsr0l, fsr0h, status,2, status,0, pclath, btemp1, cstack
  5682 ;; Tracked objects:
  5683 ;;		On entry : 0/0
  5684 ;;		On exit  : 0/0
  5685 ;;		Unchanged: 0/0
  5686 ;; Data sizes:     COMMON   BANK0   BANK1   BANK3   BANK2
  5687 ;;      Params:         0       2       0       0       0
  5688 ;;      Locals:         0       2       0       0       0
  5689 ;;      Temps:          0       8       0       0       0
  5690 ;;      Totals:         0      12       0       0       0
  5691 ;;Total ram usage:       12 bytes
  5692 ;; Hardware stack levels used: 1
  5693 ;; Hardware stack levels required when called: 1
  5694 ;; This function calls:
  5695 ;;		___fladd
  5696 ;;		___fldiv
  5697 ;;		___xxtofl
  5698 ;;		_dht11_read_byte
  5699 ;; This function is called by:
  5700 ;;		_main
  5701 ;; This function uses a non-reentrant model
  5702 ;;
  5703                           
  5704     0A9D                     _dht11_read:	
  5705                           ;psect for function _dht11_read
  5706                           
  5707     0A9D                     l3120:	
  5708                           ;incstack = 0
  5709                           ; Regs used in _dht11_read: [wreg-fsr0h+status,2+status,0+pclath+btemp1+cstack]
  5710                           
  5711                           
  5712                           ;dht11.c: 80:     uint8_t i;;dht11.c: 81:     uint8_t checksum;;dht11.c: 84:     PORTAbi
      +                          ts.RA0 = 0; TRISAbits.TRISA0 = 0;;
  5713     0A9D  1283               	bcf	3,5	;RP0=0, select bank0
  5714     0A9E  1303               	bcf	3,6	;RP1=0, select bank0
  5715     0A9F  1005               	bcf	5,0	;volatile
  5716     0AA0  1683               	bsf	3,5	;RP0=1, select bank1
  5717     0AA1  1303               	bcf	3,6	;RP1=0, select bank1
  5718     0AA2  1005               	bcf	5,0	;volatile
  5719     0AA3                     l3122:
  5720                           
  5721                           ;dht11.c: 85:     _delay((unsigned long)((20)*((20000000L)/4000.0)));
  5722     0AA3  3082               	movlw	130
  5723     0AA4  1283               	bcf	3,5	;RP0=0, select bank0
  5724     0AA5  1303               	bcf	3,6	;RP1=0, select bank0
  5725     0AA6  00D1               	movwf	??_dht11_read+1
  5726     0AA7  30DD               	movlw	221
  5727     0AA8  00D0               	movwf	??_dht11_read
  5728     0AA9                     u4847:
  5729     0AA9  0BD0               	decfsz	??_dht11_read,f
  5730     0AAA  2AA9               	goto	u4847
  5731     0AAB  0BD1               	decfsz	??_dht11_read+1,f
  5732     0AAC  2AA9               	goto	u4847
  5733     0AAD                     l3124:
  5734                           
  5735                           ;dht11.c: 88:     TRISAbits.TRISA0 = 1;;
  5736     0AAD  1683               	bsf	3,5	;RP0=1, select bank1
  5737     0AAE  1303               	bcf	3,6	;RP1=0, select bank1
  5738     0AAF  1405               	bsf	5,0	;volatile
  5739                           
  5740                           ;dht11.c: 89:     _delay((unsigned long)((30)*((20000000L)/4000000.0)));
  5741     0AB0  3031               	movlw	49
  5742     0AB1  1283               	bcf	3,5	;RP0=0, select bank0
  5743     0AB2  1303               	bcf	3,6	;RP1=0, select bank0
  5744     0AB3  00D0               	movwf	??_dht11_read
  5745     0AB4                     u4857:
  5746     0AB4  0BD0               	decfsz	??_dht11_read,f
  5747     0AB5  2AB4               	goto	u4857
  5748     0AB6                     l3126:
  5749                           
  5750                           ;dht11.c: 92:     TMR0 = 0;
  5751     0AB6  1283               	bcf	3,5	;RP0=0, select bank0
  5752     0AB7  1303               	bcf	3,6	;RP1=0, select bank0
  5753     0AB8  0181               	clrf	1	;volatile
  5754     0AB9                     l205:	
  5755                           ;dht11.c: 97:     }
  5756                           
  5757                           
  5758                           ;dht11.c: 93:     while(PORTAbits.RA0) {
  5759     0AB9  1805               	btfsc	5,0	;volatile
  5760     0ABA  2ABC               	goto	u4011
  5761     0ABB  2ABD               	goto	u4010
  5762     0ABC                     u4011:
  5763     0ABC  2AB9               	goto	l205
  5764     0ABD                     u4010:
  5765     0ABD                     l3132:
  5766                           
  5767                           ;dht11.c: 100:     TMR0 = 0;
  5768     0ABD  0181               	clrf	1	;volatile
  5769     0ABE                     l210:	
  5770                           ;dht11.c: 105:     }
  5771                           
  5772                           
  5773                           ;dht11.c: 101:     while(!PORTAbits.RA0) {
  5774     0ABE  1C05               	btfss	5,0	;volatile
  5775     0ABF  2AC1               	goto	u4021
  5776     0AC0  2AC2               	goto	u4020
  5777     0AC1                     u4021:
  5778     0AC1  2ABE               	goto	l210
  5779     0AC2                     u4020:
  5780     0AC2                     l3138:
  5781                           
  5782                           ;dht11.c: 108:     TMR0 = 0;
  5783     0AC2  0181               	clrf	1	;volatile
  5784     0AC3                     l214:	
  5785                           ;dht11.c: 113:     }
  5786                           
  5787                           
  5788                           ;dht11.c: 109:     while(PORTAbits.RA0) {
  5789     0AC3  1805               	btfsc	5,0	;volatile
  5790     0AC4  2AC6               	goto	u4031
  5791     0AC5  2AC7               	goto	u4030
  5792     0AC6                     u4031:
  5793     0AC6  2AC3               	goto	l214
  5794     0AC7                     u4030:
  5795     0AC7                     l3144:
  5796                           
  5797                           ;dht11.c: 116:     for(i = 0; i < (5); i++) {
  5798     0AC7  01D9               	clrf	dht11_read@i
  5799     0AC8                     l3150:
  5800                           
  5801                           ;dht11.c: 117:         if(!dht11_read_byte()) {
  5802     0AC8  160A  118A  233D  120A  158A  	fcall	_dht11_read_byte
  5803     0ACD  3A00               	xorlw	0
  5804     0ACE  1D03               	skipz
  5805     0ACF  2AD1               	goto	u4041
  5806     0AD0  2AD2               	goto	u4040
  5807     0AD1                     u4041:
  5808     0AD1  2AD4               	goto	l3156
  5809     0AD2                     u4040:
  5810     0AD2                     l3152:
  5811                           
  5812                           ;dht11.c: 118:             return 0;
  5813     0AD2  3000               	movlw	0
  5814     0AD3  2BE5               	goto	l208
  5815     0AD4                     l3156:
  5816                           
  5817                           ;dht11.c: 120:         dht11_byte[i] = dht11_aux;
  5818     0AD4  1283               	bcf	3,5	;RP0=0, select bank0
  5819     0AD5  1303               	bcf	3,6	;RP1=0, select bank0
  5820     0AD6  0859               	movf	dht11_read@i,w
  5821     0AD7  3EDB               	addlw	(low (_dht11_byte| 0))& (0+255)
  5822     0AD8  0084               	movwf	4
  5823     0AD9  1683               	bsf	3,5	;RP0=1, select bank1
  5824     0ADA  1303               	bcf	3,6	;RP1=0, select bank1
  5825     0ADB  0865               	movf	_dht11_aux^(0+128),w
  5826     0ADC  1383               	bcf	3,7	;select IRP bank1
  5827     0ADD  0080               	movwf	0
  5828     0ADE                     l3158:
  5829                           
  5830                           ;dht11.c: 121:     }
  5831     0ADE  3001               	movlw	1
  5832     0ADF  1283               	bcf	3,5	;RP0=0, select bank0
  5833     0AE0  1303               	bcf	3,6	;RP1=0, select bank0
  5834     0AE1  07D9               	addwf	dht11_read@i,f
  5835     0AE2                     l3160:
  5836     0AE2  3005               	movlw	5
  5837     0AE3  0259               	subwf	dht11_read@i,w
  5838     0AE4  1C03               	skipc
  5839     0AE5  2AE7               	goto	u4051
  5840     0AE6  2AE8               	goto	u4050
  5841     0AE7                     u4051:
  5842     0AE7  2AC8               	goto	l3150
  5843     0AE8                     u4050:
  5844     0AE8                     l3162:
  5845                           
  5846                           ;dht11.c: 124:     checksum = dht11_byte[0] + dht11_byte[1] + dht11_byte[2] + dht11_byte
      +                          [3];
  5847     0AE8  1683               	bsf	3,5	;RP0=1, select bank1
  5848     0AE9  1303               	bcf	3,6	;RP1=0, select bank1
  5849     0AEA  085D               	movf	(_dht11_byte^(0+128)+2),w
  5850     0AEB  075C               	addwf	(_dht11_byte^(0+128)+1),w
  5851     0AEC  1283               	bcf	3,5	;RP0=0, select bank0
  5852     0AED  1303               	bcf	3,6	;RP1=0, select bank0
  5853     0AEE  00D0               	movwf	??_dht11_read
  5854     0AEF  1683               	bsf	3,5	;RP0=1, select bank1
  5855     0AF0  1303               	bcf	3,6	;RP1=0, select bank1
  5856     0AF1  085E               	movf	(_dht11_byte^(0+128)+3),w
  5857     0AF2  1283               	bcf	3,5	;RP0=0, select bank0
  5858     0AF3  1303               	bcf	3,6	;RP1=0, select bank0
  5859     0AF4  0750               	addwf	??_dht11_read,w
  5860     0AF5  00D1               	movwf	??_dht11_read+1
  5861     0AF6  1683               	bsf	3,5	;RP0=1, select bank1
  5862     0AF7  1303               	bcf	3,6	;RP1=0, select bank1
  5863     0AF8  085B               	movf	_dht11_byte^(0+128),w
  5864     0AF9  1283               	bcf	3,5	;RP0=0, select bank0
  5865     0AFA  1303               	bcf	3,6	;RP1=0, select bank0
  5866     0AFB  0751               	addwf	??_dht11_read+1,w
  5867     0AFC  00D8               	movwf	dht11_read@checksum
  5868     0AFD                     l3164:
  5869                           
  5870                           ;dht11.c: 125:     if(checksum != dht11_byte[4]) {
  5871     0AFD  1683               	bsf	3,5	;RP0=1, select bank1
  5872     0AFE  1303               	bcf	3,6	;RP1=0, select bank1
  5873     0AFF  085F               	movf	(_dht11_byte^(0+128)+4),w
  5874     0B00  1283               	bcf	3,5	;RP0=0, select bank0
  5875     0B01  1303               	bcf	3,6	;RP1=0, select bank0
  5876     0B02  0658               	xorwf	dht11_read@checksum,w
  5877     0B03  1903               	skipnz
  5878     0B04  2B06               	goto	u4061
  5879     0B05  2B07               	goto	u4060
  5880     0B06                     u4061:
  5881     0B06  2B08               	goto	l3170
  5882     0B07                     u4060:
  5883     0B07  2AD2               	goto	l3152
  5884     0B08                     l3170:
  5885                           
  5886                           ;dht11.c: 130:     *phum = ((float)dht11_byte[0]) + ((float)dht11_byte[1]) / 10.0;
  5887     0B08  3041               	movlw	65
  5888     0B09  00A3               	movwf	___fldiv@a+3
  5889     0B0A  3020               	movlw	32
  5890     0B0B  00A2               	movwf	___fldiv@a+2
  5891     0B0C  3000               	movlw	0
  5892     0B0D  00A1               	movwf	___fldiv@a+1
  5893     0B0E  3000               	movlw	0
  5894     0B0F  00A0               	movwf	___fldiv@a
  5895     0B10  1683               	bsf	3,5	;RP0=1, select bank1
  5896     0B11  1303               	bcf	3,6	;RP1=0, select bank1
  5897     0B12  085C               	movf	(_dht11_byte^(0+128)+1),w
  5898     0B13  1283               	bcf	3,5	;RP0=0, select bank0
  5899     0B14  1303               	bcf	3,6	;RP1=0, select bank0
  5900     0B15  00D0               	movwf	??_dht11_read
  5901     0B16  01D1               	clrf	??_dht11_read+1
  5902     0B17  01D2               	clrf	??_dht11_read+2
  5903     0B18  01D3               	clrf	??_dht11_read+3
  5904     0B19  0853               	movf	??_dht11_read+3,w
  5905     0B1A  00F3               	movwf	___xxtofl@val+3
  5906     0B1B  0852               	movf	??_dht11_read+2,w
  5907     0B1C  00F2               	movwf	___xxtofl@val+2
  5908     0B1D  0851               	movf	??_dht11_read+1,w
  5909     0B1E  00F1               	movwf	___xxtofl@val+1
  5910     0B1F  0850               	movf	??_dht11_read,w
  5911     0B20  00F0               	movwf	___xxtofl@val
  5912     0B21  3000               	movlw	0
  5913     0B22  120A  158A  211C  120A  158A  	fcall	___xxtofl
  5914     0B27  0873               	movf	?___xxtofl+3,w
  5915     0B28  1283               	bcf	3,5	;RP0=0, select bank0
  5916     0B29  1303               	bcf	3,6	;RP1=0, select bank0
  5917     0B2A  00A7               	movwf	___fldiv@b+3
  5918     0B2B  0872               	movf	?___xxtofl+2,w
  5919     0B2C  00A6               	movwf	___fldiv@b+2
  5920     0B2D  0871               	movf	?___xxtofl+1,w
  5921     0B2E  00A5               	movwf	___fldiv@b+1
  5922     0B2F  0870               	movf	?___xxtofl,w
  5923     0B30  00A4               	movwf	___fldiv@b
  5924     0B31  120A  158A  23E6  120A  158A  	fcall	___fldiv
  5925     0B36  1283               	bcf	3,5	;RP0=0, select bank0
  5926     0B37  1303               	bcf	3,6	;RP1=0, select bank0
  5927     0B38  0823               	movf	?___fldiv+3,w
  5928     0B39  00BD               	movwf	___fladd@b+3
  5929     0B3A  0822               	movf	?___fldiv+2,w
  5930     0B3B  00BC               	movwf	___fladd@b+2
  5931     0B3C  0821               	movf	?___fldiv+1,w
  5932     0B3D  00BB               	movwf	___fladd@b+1
  5933     0B3E  0820               	movf	?___fldiv,w
  5934     0B3F  00BA               	movwf	___fladd@b
  5935     0B40  1683               	bsf	3,5	;RP0=1, select bank1
  5936     0B41  1303               	bcf	3,6	;RP1=0, select bank1
  5937     0B42  085B               	movf	_dht11_byte^(0+128),w
  5938     0B43  1283               	bcf	3,5	;RP0=0, select bank0
  5939     0B44  1303               	bcf	3,6	;RP1=0, select bank0
  5940     0B45  00D4               	movwf	??_dht11_read+4
  5941     0B46  01D5               	clrf	??_dht11_read+5
  5942     0B47  01D6               	clrf	??_dht11_read+6
  5943     0B48  01D7               	clrf	??_dht11_read+7
  5944     0B49  0857               	movf	??_dht11_read+7,w
  5945     0B4A  00F3               	movwf	___xxtofl@val+3
  5946     0B4B  0856               	movf	??_dht11_read+6,w
  5947     0B4C  00F2               	movwf	___xxtofl@val+2
  5948     0B4D  0855               	movf	??_dht11_read+5,w
  5949     0B4E  00F1               	movwf	___xxtofl@val+1
  5950     0B4F  0854               	movf	??_dht11_read+4,w
  5951     0B50  00F0               	movwf	___xxtofl@val
  5952     0B51  3000               	movlw	0
  5953     0B52  120A  158A  211C  120A  158A  	fcall	___xxtofl
  5954     0B57  0873               	movf	?___xxtofl+3,w
  5955     0B58  1283               	bcf	3,5	;RP0=0, select bank0
  5956     0B59  1303               	bcf	3,6	;RP1=0, select bank0
  5957     0B5A  00C1               	movwf	___fladd@a+3
  5958     0B5B  0872               	movf	?___xxtofl+2,w
  5959     0B5C  00C0               	movwf	___fladd@a+2
  5960     0B5D  0871               	movf	?___xxtofl+1,w
  5961     0B5E  00BF               	movwf	___fladd@a+1
  5962     0B5F  0870               	movf	?___xxtofl,w
  5963     0B60  00BE               	movwf	___fladd@a
  5964     0B61  120A  158A  25B0  120A  158A  	fcall	___fladd
  5965     0B66  1283               	bcf	3,5	;RP0=0, select bank0
  5966     0B67  1303               	bcf	3,6	;RP1=0, select bank0
  5967     0B68  084E               	movf	dht11_read@phum,w
  5968     0B69  0084               	movwf	4
  5969     0B6A  083A               	movf	?___fladd,w
  5970     0B6B  1383               	bcf	3,7	;select IRP bank0
  5971     0B6C  0080               	movwf	0
  5972     0B6D  0A84               	incf	4,f
  5973     0B6E  083B               	movf	?___fladd+1,w
  5974     0B6F  0080               	movwf	0
  5975     0B70  0A84               	incf	4,f
  5976     0B71  083C               	movf	?___fladd+2,w
  5977     0B72  0080               	movwf	0
  5978     0B73  0A84               	incf	4,f
  5979     0B74  083D               	movf	?___fladd+3,w
  5980     0B75  0080               	movwf	0
  5981                           
  5982                           ;dht11.c: 131:     *ptemp = ((float)dht11_byte[2]) + ((float)dht11_byte[3]) / 10.0;
  5983     0B76  3041               	movlw	65
  5984     0B77  00A3               	movwf	___fldiv@a+3
  5985     0B78  3020               	movlw	32
  5986     0B79  00A2               	movwf	___fldiv@a+2
  5987     0B7A  3000               	movlw	0
  5988     0B7B  00A1               	movwf	___fldiv@a+1
  5989     0B7C  3000               	movlw	0
  5990     0B7D  00A0               	movwf	___fldiv@a
  5991     0B7E  1683               	bsf	3,5	;RP0=1, select bank1
  5992     0B7F  1303               	bcf	3,6	;RP1=0, select bank1
  5993     0B80  085E               	movf	(_dht11_byte^(0+128)+3),w
  5994     0B81  1283               	bcf	3,5	;RP0=0, select bank0
  5995     0B82  1303               	bcf	3,6	;RP1=0, select bank0
  5996     0B83  00D0               	movwf	??_dht11_read
  5997     0B84  01D1               	clrf	??_dht11_read+1
  5998     0B85  01D2               	clrf	??_dht11_read+2
  5999     0B86  01D3               	clrf	??_dht11_read+3
  6000     0B87  0853               	movf	??_dht11_read+3,w
  6001     0B88  00F3               	movwf	___xxtofl@val+3
  6002     0B89  0852               	movf	??_dht11_read+2,w
  6003     0B8A  00F2               	movwf	___xxtofl@val+2
  6004     0B8B  0851               	movf	??_dht11_read+1,w
  6005     0B8C  00F1               	movwf	___xxtofl@val+1
  6006     0B8D  0850               	movf	??_dht11_read,w
  6007     0B8E  00F0               	movwf	___xxtofl@val
  6008     0B8F  3000               	movlw	0
  6009     0B90  120A  158A  211C  120A  158A  	fcall	___xxtofl
  6010     0B95  0873               	movf	?___xxtofl+3,w
  6011     0B96  1283               	bcf	3,5	;RP0=0, select bank0
  6012     0B97  1303               	bcf	3,6	;RP1=0, select bank0
  6013     0B98  00A7               	movwf	___fldiv@b+3
  6014     0B99  0872               	movf	?___xxtofl+2,w
  6015     0B9A  00A6               	movwf	___fldiv@b+2
  6016     0B9B  0871               	movf	?___xxtofl+1,w
  6017     0B9C  00A5               	movwf	___fldiv@b+1
  6018     0B9D  0870               	movf	?___xxtofl,w
  6019     0B9E  00A4               	movwf	___fldiv@b
  6020     0B9F  120A  158A  23E6  120A  158A  	fcall	___fldiv
  6021     0BA4  1283               	bcf	3,5	;RP0=0, select bank0
  6022     0BA5  1303               	bcf	3,6	;RP1=0, select bank0
  6023     0BA6  0823               	movf	?___fldiv+3,w
  6024     0BA7  00BD               	movwf	___fladd@b+3
  6025     0BA8  0822               	movf	?___fldiv+2,w
  6026     0BA9  00BC               	movwf	___fladd@b+2
  6027     0BAA  0821               	movf	?___fldiv+1,w
  6028     0BAB  00BB               	movwf	___fladd@b+1
  6029     0BAC  0820               	movf	?___fldiv,w
  6030     0BAD  00BA               	movwf	___fladd@b
  6031     0BAE  1683               	bsf	3,5	;RP0=1, select bank1
  6032     0BAF  1303               	bcf	3,6	;RP1=0, select bank1
  6033     0BB0  085D               	movf	(_dht11_byte^(0+128)+2),w
  6034     0BB1  1283               	bcf	3,5	;RP0=0, select bank0
  6035     0BB2  1303               	bcf	3,6	;RP1=0, select bank0
  6036     0BB3  00D4               	movwf	??_dht11_read+4
  6037     0BB4  01D5               	clrf	??_dht11_read+5
  6038     0BB5  01D6               	clrf	??_dht11_read+6
  6039     0BB6  01D7               	clrf	??_dht11_read+7
  6040     0BB7  0857               	movf	??_dht11_read+7,w
  6041     0BB8  00F3               	movwf	___xxtofl@val+3
  6042     0BB9  0856               	movf	??_dht11_read+6,w
  6043     0BBA  00F2               	movwf	___xxtofl@val+2
  6044     0BBB  0855               	movf	??_dht11_read+5,w
  6045     0BBC  00F1               	movwf	___xxtofl@val+1
  6046     0BBD  0854               	movf	??_dht11_read+4,w
  6047     0BBE  00F0               	movwf	___xxtofl@val
  6048     0BBF  3000               	movlw	0
  6049     0BC0  120A  158A  211C  120A  158A  	fcall	___xxtofl
  6050     0BC5  0873               	movf	?___xxtofl+3,w
  6051     0BC6  1283               	bcf	3,5	;RP0=0, select bank0
  6052     0BC7  1303               	bcf	3,6	;RP1=0, select bank0
  6053     0BC8  00C1               	movwf	___fladd@a+3
  6054     0BC9  0872               	movf	?___xxtofl+2,w
  6055     0BCA  00C0               	movwf	___fladd@a+2
  6056     0BCB  0871               	movf	?___xxtofl+1,w
  6057     0BCC  00BF               	movwf	___fladd@a+1
  6058     0BCD  0870               	movf	?___xxtofl,w
  6059     0BCE  00BE               	movwf	___fladd@a
  6060     0BCF  120A  158A  25B0  120A  158A  	fcall	___fladd
  6061     0BD4  1283               	bcf	3,5	;RP0=0, select bank0
  6062     0BD5  1303               	bcf	3,6	;RP1=0, select bank0
  6063     0BD6  084F               	movf	dht11_read@ptemp,w
  6064     0BD7  0084               	movwf	4
  6065     0BD8  083A               	movf	?___fladd,w
  6066     0BD9  1383               	bcf	3,7	;select IRP bank0
  6067     0BDA  0080               	movwf	0
  6068     0BDB  0A84               	incf	4,f
  6069     0BDC  083B               	movf	?___fladd+1,w
  6070     0BDD  0080               	movwf	0
  6071     0BDE  0A84               	incf	4,f
  6072     0BDF  083C               	movf	?___fladd+2,w
  6073     0BE0  0080               	movwf	0
  6074     0BE1  0A84               	incf	4,f
  6075     0BE2  083D               	movf	?___fladd+3,w
  6076     0BE3  0080               	movwf	0
  6077     0BE4                     l3172:
  6078                           
  6079                           ;dht11.c: 133:     return 1;
  6080     0BE4  3001               	movlw	1
  6081     0BE5                     l208:
  6082     0BE5  0008               	return
  6083     0BE6                     __end_of_dht11_read:
  6084                           
  6085                           	psect	text26
  6086     133D                     __ptext26:	
  6087 ;; *************** function _dht11_read_byte *****************
  6088 ;; Defined at:
  6089 ;;		line 25 in file "dht11.c"
  6090 ;; Parameters:    Size  Location     Type
  6091 ;;		None
  6092 ;; Auto vars:     Size  Location     Type
  6093 ;;  i               1    1[COMMON] unsigned char 
  6094 ;;  timer_val       1    0[COMMON] unsigned char 
  6095 ;; Return value:  Size  Location     Type
  6096 ;;                  1    wreg      unsigned char 
  6097 ;; Registers used:
  6098 ;;		wreg, status,2, status,0
  6099 ;; Tracked objects:
  6100 ;;		On entry : 0/0
  6101 ;;		On exit  : 0/0
  6102 ;;		Unchanged: 0/0
  6103 ;; Data sizes:     COMMON   BANK0   BANK1   BANK3   BANK2
  6104 ;;      Params:         0       0       0       0       0
  6105 ;;      Locals:         2       0       0       0       0
  6106 ;;      Temps:          0       0       0       0       0
  6107 ;;      Totals:         2       0       0       0       0
  6108 ;;Total ram usage:        2 bytes
  6109 ;; Hardware stack levels used: 1
  6110 ;; This function calls:
  6111 ;;		Nothing
  6112 ;; This function is called by:
  6113 ;;		_dht11_read
  6114 ;; This function uses a non-reentrant model
  6115 ;;
  6116                           
  6117     133D                     _dht11_read_byte:	
  6118                           ;psect for function _dht11_read_byte
  6119                           
  6120     133D                     l2586:	
  6121                           ;incstack = 0
  6122                           ; Regs used in _dht11_read_byte: [wreg+status,2+status,0]
  6123                           
  6124                           
  6125                           ;dht11.c: 26:     uint8_t i;;dht11.c: 27:     uint8_t timer_val;;dht11.c: 28:     dht11_
      +                          aux = 0;
  6126     133D  1683               	bsf	3,5	;RP0=1, select bank1
  6127     133E  1303               	bcf	3,6	;RP1=0, select bank1
  6128     133F  01E5               	clrf	_dht11_aux^(0+128)
  6129                           
  6130                           ;dht11.c: 31:     for(i = 0; i < 8; i++) {
  6131     1340  01F1               	clrf	dht11_read_byte@i
  6132     1341                     l2592:
  6133                           
  6134                           ;dht11.c: 33:         TMR0 = 0;
  6135     1341  1283               	bcf	3,5	;RP0=0, select bank0
  6136     1342  1303               	bcf	3,6	;RP1=0, select bank0
  6137     1343  0181               	clrf	1	;volatile
  6138     1344                     l190:	
  6139                           ;dht11.c: 36:         }
  6140                           
  6141                           
  6142                           ;dht11.c: 34:         while(!PORTAbits.RA0) {
  6143     1344  1C05               	btfss	5,0	;volatile
  6144     1345  2B47               	goto	u2971
  6145     1346  2B48               	goto	u2970
  6146     1347                     u2971:
  6147     1347  2B44               	goto	l190
  6148     1348                     u2970:
  6149     1348                     l2598:
  6150                           
  6151                           ;dht11.c: 41:         TMR0 = 0;
  6152     1348  0181               	clrf	1	;volatile
  6153     1349                     l195:	
  6154                           ;dht11.c: 44:         }
  6155                           
  6156                           
  6157                           ;dht11.c: 42:         while(PORTAbits.RA0) {
  6158     1349  1805               	btfsc	5,0	;volatile
  6159     134A  2B4C               	goto	u2981
  6160     134B  2B4D               	goto	u2980
  6161     134C                     u2981:
  6162     134C  2B49               	goto	l195
  6163     134D                     u2980:
  6164     134D                     l2604:
  6165                           
  6166                           ;dht11.c: 46:         timer_val = TMR0;
  6167     134D  0801               	movf	1,w	;volatile
  6168     134E  00F0               	movwf	dht11_read_byte@timer_val
  6169                           
  6170                           ;dht11.c: 49:         dht11_aux <<= 1;
  6171     134F  1003               	clrc
  6172     1350  1683               	bsf	3,5	;RP0=1, select bank1
  6173     1351  1303               	bcf	3,6	;RP1=0, select bank1
  6174     1352  0DE5               	rlf	_dht11_aux^(0+128),f
  6175                           
  6176                           ;dht11.c: 55:         if(timer_val > 50) {
  6177     1353  3033               	movlw	51
  6178     1354  0270               	subwf	dht11_read_byte@timer_val,w
  6179     1355  1C03               	skipc
  6180     1356  2B58               	goto	u2991
  6181     1357  2B59               	goto	u2990
  6182     1358                     u2991:
  6183     1358  2B5A               	goto	l2608
  6184     1359                     u2990:
  6185     1359                     l2606:
  6186                           
  6187                           ;dht11.c: 56:             dht11_aux |= 0x01;
  6188     1359  1465               	bsf	_dht11_aux^(0+128),0
  6189     135A                     l2608:
  6190                           
  6191                           ;dht11.c: 58:     }
  6192     135A  3001               	movlw	1
  6193     135B  07F1               	addwf	dht11_read_byte@i,f
  6194     135C                     l2610:
  6195     135C  3008               	movlw	8
  6196     135D  0271               	subwf	dht11_read_byte@i,w
  6197     135E  1C03               	skipc
  6198     135F  2B61               	goto	u3001
  6199     1360  2B62               	goto	u3000
  6200     1361                     u3001:
  6201     1361  2B41               	goto	l2592
  6202     1362                     u3000:
  6203     1362                     l2612:
  6204                           
  6205                           ;dht11.c: 59:     return 1;
  6206     1362  3001               	movlw	1
  6207     1363                     l193:
  6208     1363  0008               	return
  6209     1364                     __end_of_dht11_read_byte:
  6210                           
  6211                           	psect	text27
  6212     091C                     __ptext27:	
  6213 ;; *************** function ___xxtofl *****************
  6214 ;; Defined at:
  6215 ;;		line 10 in file "C:\Program Files\Microchip\xc8\v3.10\pic\sources\c99\common\xxtofl.c"
  6216 ;; Parameters:    Size  Location     Type
  6217 ;;  sign            1    wreg     unsigned char 
  6218 ;;  val             4    0[COMMON] long 
  6219 ;; Auto vars:     Size  Location     Type
  6220 ;;  sign            1    8[COMMON] unsigned char 
  6221 ;;  arg             4   10[COMMON] unsigned long 
  6222 ;;  exp             1    9[COMMON] unsigned char 
  6223 ;; Return value:  Size  Location     Type
  6224 ;;                  4    0[COMMON] unsigned char 
  6225 ;; Registers used:
  6226 ;;		wreg, status,2, status,0
  6227 ;; Tracked objects:
  6228 ;;		On entry : 0/0
  6229 ;;		On exit  : 0/0
  6230 ;;		Unchanged: 0/0
  6231 ;; Data sizes:     COMMON   BANK0   BANK1   BANK3   BANK2
  6232 ;;      Params:         4       0       0       0       0
  6233 ;;      Locals:         6       0       0       0       0
  6234 ;;      Temps:          4       0       0       0       0
  6235 ;;      Totals:        14       0       0       0       0
  6236 ;;Total ram usage:       14 bytes
  6237 ;; Hardware stack levels used: 1
  6238 ;; This function calls:
  6239 ;;		Nothing
  6240 ;; This function is called by:
  6241 ;;		_main
  6242 ;;		_dht11_read
  6243 ;; This function uses a non-reentrant model
  6244 ;;
  6245                           
  6246     091C                     ___xxtofl:	
  6247                           ;psect for function ___xxtofl
  6248                           
  6249                           
  6250                           ;incstack = 0
  6251                           ; Regs used in ___xxtofl: [wreg+status,2+status,0]
  6252                           ;___xxtofl@sign stored from wreg
  6253     091C  00F8               	movwf	___xxtofl@sign
  6254     091D                     l2982:
  6255     091D  0878               	movf	___xxtofl@sign,w
  6256     091E  1903               	btfsc	3,2
  6257     091F  2921               	goto	u3811
  6258     0920  2922               	goto	u3810
  6259     0921                     u3811:
  6260     0921  2936               	goto	l2988
  6261     0922                     u3810:
  6262     0922                     l2984:
  6263     0922  1FF3               	btfss	___xxtofl@val+3,7
  6264     0923  2925               	goto	u3821
  6265     0924  2926               	goto	u3820
  6266     0925                     u3821:
  6267     0925  2936               	goto	l2988
  6268     0926                     u3820:
  6269     0926                     l2986:
  6270     0926  0970               	comf	___xxtofl@val,w
  6271     0927  00FA               	movwf	___xxtofl@arg
  6272     0928  0971               	comf	___xxtofl@val+1,w
  6273     0929  00FB               	movwf	___xxtofl@arg+1
  6274     092A  0972               	comf	___xxtofl@val+2,w
  6275     092B  00FC               	movwf	___xxtofl@arg+2
  6276     092C  0973               	comf	___xxtofl@val+3,w
  6277     092D  00FD               	movwf	___xxtofl@arg+3
  6278     092E  0AFA               	incf	___xxtofl@arg,f
  6279     092F  1903               	skipnz
  6280     0930  0AFB               	incf	___xxtofl@arg+1,f
  6281     0931  1903               	skipnz
  6282     0932  0AFC               	incf	___xxtofl@arg+2,f
  6283     0933  1903               	skipnz
  6284     0934  0AFD               	incf	___xxtofl@arg+3,f
  6285     0935  293E               	goto	l793
  6286     0936                     l2988:
  6287     0936  0873               	movf	___xxtofl@val+3,w
  6288     0937  00FD               	movwf	___xxtofl@arg+3
  6289     0938  0872               	movf	___xxtofl@val+2,w
  6290     0939  00FC               	movwf	___xxtofl@arg+2
  6291     093A  0871               	movf	___xxtofl@val+1,w
  6292     093B  00FB               	movwf	___xxtofl@arg+1
  6293     093C  0870               	movf	___xxtofl@val,w
  6294     093D  00FA               	movwf	___xxtofl@arg
  6295     093E                     l793:
  6296     093E  0873               	movf	___xxtofl@val+3,w
  6297     093F  0472               	iorwf	___xxtofl@val+2,w
  6298     0940  0471               	iorwf	___xxtofl@val+1,w
  6299     0941  0470               	iorwf	___xxtofl@val,w
  6300     0942  1D03               	skipz
  6301     0943  2945               	goto	u3831
  6302     0944  2946               	goto	u3830
  6303     0945                     u3831:
  6304     0945  294F               	goto	l794
  6305     0946                     u3830:
  6306     0946                     l2990:
  6307     0946  3000               	movlw	0
  6308     0947  00F3               	movwf	?___xxtofl+3
  6309     0948  3000               	movlw	0
  6310     0949  00F2               	movwf	?___xxtofl+2
  6311     094A  3000               	movlw	0
  6312     094B  00F1               	movwf	?___xxtofl+1
  6313     094C  3000               	movlw	0
  6314     094D  00F0               	movwf	?___xxtofl
  6315     094E  29CF               	goto	l795
  6316     094F                     l794:
  6317     094F  3096               	movlw	150
  6318     0950  00F9               	movwf	___xxtofl@exp
  6319     0951  295D               	goto	l2996
  6320     0952                     l2994:
  6321     0952  3001               	movlw	1
  6322     0953  07F9               	addwf	___xxtofl@exp,f
  6323     0954  3001               	movlw	1
  6324     0955                     u3845:
  6325     0955  1003               	clrc
  6326     0956  0CFD               	rrf	___xxtofl@arg+3,f
  6327     0957  0CFC               	rrf	___xxtofl@arg+2,f
  6328     0958  0CFB               	rrf	___xxtofl@arg+1,f
  6329     0959  0CFA               	rrf	___xxtofl@arg,f
  6330     095A  3EFF               	addlw	-1
  6331     095B  1D03               	skipz
  6332     095C  2955               	goto	u3845
  6333     095D                     l2996:
  6334     095D  30FE               	movlw	254
  6335     095E  057D               	andwf	___xxtofl@arg+3,w
  6336     095F  1D03               	btfss	3,2
  6337     0960  2962               	goto	u3851
  6338     0961  2963               	goto	u3850
  6339     0962                     u3851:
  6340     0962  2952               	goto	l2994
  6341     0963                     u3850:
  6342     0963  297D               	goto	l799
  6343     0964                     l2998:
  6344     0964  3001               	movlw	1
  6345     0965  07F9               	addwf	___xxtofl@exp,f
  6346     0966                     l3000:
  6347     0966  3001               	movlw	1
  6348     0967  07FA               	addwf	___xxtofl@arg,f
  6349     0968  3000               	movlw	0
  6350     0969  1803               	skipnc
  6351     096A  3001               	movlw	1
  6352     096B  07FB               	addwf	___xxtofl@arg+1,f
  6353     096C  3000               	movlw	0
  6354     096D  1803               	skipnc
  6355     096E  3001               	movlw	1
  6356     096F  07FC               	addwf	___xxtofl@arg+2,f
  6357     0970  3000               	movlw	0
  6358     0971  1803               	skipnc
  6359     0972  3001               	movlw	1
  6360     0973  07FD               	addwf	___xxtofl@arg+3,f
  6361     0974                     l3002:
  6362     0974  3001               	movlw	1
  6363     0975                     u3865:
  6364     0975  1003               	clrc
  6365     0976  0CFD               	rrf	___xxtofl@arg+3,f
  6366     0977  0CFC               	rrf	___xxtofl@arg+2,f
  6367     0978  0CFB               	rrf	___xxtofl@arg+1,f
  6368     0979  0CFA               	rrf	___xxtofl@arg,f
  6369     097A  3EFF               	addlw	-1
  6370     097B  1D03               	skipz
  6371     097C  2975               	goto	u3865
  6372     097D                     l799:
  6373     097D  30FF               	movlw	255
  6374     097E  057D               	andwf	___xxtofl@arg+3,w
  6375     097F  1D03               	btfss	3,2
  6376     0980  2982               	goto	u3871
  6377     0981  2983               	goto	u3870
  6378     0982                     u3871:
  6379     0982  2964               	goto	l2998
  6380     0983                     u3870:
  6381     0983  298F               	goto	l3006
  6382     0984                     l3004:
  6383     0984  3001               	movlw	1
  6384     0985  02F9               	subwf	___xxtofl@exp,f
  6385     0986  3001               	movlw	1
  6386     0987  00F4               	movwf	??___xxtofl
  6387     0988                     u3885:
  6388     0988  1003               	clrc
  6389     0989  0DFA               	rlf	___xxtofl@arg,f
  6390     098A  0DFB               	rlf	___xxtofl@arg+1,f
  6391     098B  0DFC               	rlf	___xxtofl@arg+2,f
  6392     098C  0DFD               	rlf	___xxtofl@arg+3,f
  6393     098D  0BF4               	decfsz	??___xxtofl,f
  6394     098E  2988               	goto	u3885
  6395     098F                     l3006:
  6396     098F  1BFC               	btfsc	___xxtofl@arg+2,7
  6397     0990  2992               	goto	u3891
  6398     0991  2993               	goto	u3890
  6399     0992                     u3891:
  6400     0992  2999               	goto	l806
  6401     0993                     u3890:
  6402     0993                     l3008:
  6403     0993  3002               	movlw	2
  6404     0994  0279               	subwf	___xxtofl@exp,w
  6405     0995  1803               	skipnc
  6406     0996  2998               	goto	u3901
  6407     0997  2999               	goto	u3900
  6408     0998                     u3901:
  6409     0998  2984               	goto	l3004
  6410     0999                     u3900:
  6411     0999                     l806:
  6412     0999  1879               	btfsc	___xxtofl@exp,0
  6413     099A  299C               	goto	u3911
  6414     099B  299D               	goto	u3910
  6415     099C                     u3911:
  6416     099C  29A5               	goto	l807
  6417     099D                     u3910:
  6418     099D                     l3010:
  6419     099D  30FF               	movlw	255
  6420     099E  05FA               	andwf	___xxtofl@arg,f
  6421     099F  30FF               	movlw	255
  6422     09A0  05FB               	andwf	___xxtofl@arg+1,f
  6423     09A1  307F               	movlw	127
  6424     09A2  05FC               	andwf	___xxtofl@arg+2,f
  6425     09A3  30FF               	movlw	255
  6426     09A4  05FD               	andwf	___xxtofl@arg+3,f
  6427     09A5                     l807:
  6428     09A5  1003               	clrc
  6429     09A6  0CF9               	rrf	___xxtofl@exp,f
  6430     09A7                     l3012:
  6431     09A7  0879               	movf	___xxtofl@exp,w
  6432     09A8  00F4               	movwf	??___xxtofl
  6433     09A9  01F5               	clrf	??___xxtofl+1
  6434     09AA  01F6               	clrf	??___xxtofl+2
  6435     09AB  01F7               	clrf	??___xxtofl+3
  6436     09AC  3018               	movlw	24
  6437     09AD                     u3925:
  6438     09AD  1003               	clrc
  6439     09AE  0DF4               	rlf	??___xxtofl,f
  6440     09AF  0DF5               	rlf	??___xxtofl+1,f
  6441     09B0  0DF6               	rlf	??___xxtofl+2,f
  6442     09B1  0DF7               	rlf	??___xxtofl+3,f
  6443     09B2                     u3920:
  6444     09B2  3EFF               	addlw	-1
  6445     09B3  1D03               	skipz
  6446     09B4  29AD               	goto	u3925
  6447     09B5  0874               	movf	??___xxtofl,w
  6448     09B6  04FA               	iorwf	___xxtofl@arg,f
  6449     09B7  0875               	movf	??___xxtofl+1,w
  6450     09B8  04FB               	iorwf	___xxtofl@arg+1,f
  6451     09B9  0876               	movf	??___xxtofl+2,w
  6452     09BA  04FC               	iorwf	___xxtofl@arg+2,f
  6453     09BB  0877               	movf	??___xxtofl+3,w
  6454     09BC  04FD               	iorwf	___xxtofl@arg+3,f
  6455     09BD                     l3014:
  6456     09BD  0878               	movf	___xxtofl@sign,w
  6457     09BE  1903               	btfsc	3,2
  6458     09BF  29C1               	goto	u3931
  6459     09C0  29C2               	goto	u3930
  6460     09C1                     u3931:
  6461     09C1  29C7               	goto	l3020
  6462     09C2                     u3930:
  6463     09C2                     l3016:
  6464     09C2  1FF3               	btfss	___xxtofl@val+3,7
  6465     09C3  29C5               	goto	u3941
  6466     09C4  29C6               	goto	u3940
  6467     09C5                     u3941:
  6468     09C5  29C7               	goto	l3020
  6469     09C6                     u3940:
  6470     09C6                     l3018:
  6471     09C6  17FD               	bsf	___xxtofl@arg+3,7
  6472     09C7                     l3020:
  6473     09C7  087D               	movf	___xxtofl@arg+3,w
  6474     09C8  00F3               	movwf	?___xxtofl+3
  6475     09C9  087C               	movf	___xxtofl@arg+2,w
  6476     09CA  00F2               	movwf	?___xxtofl+2
  6477     09CB  087B               	movf	___xxtofl@arg+1,w
  6478     09CC  00F1               	movwf	?___xxtofl+1
  6479     09CD  087A               	movf	___xxtofl@arg,w
  6480     09CE  00F0               	movwf	?___xxtofl
  6481     09CF                     l795:
  6482     09CF  0008               	return
  6483     09D0                     __end_of___xxtofl:
  6484                           
  6485                           	psect	text28
  6486     0BE6                     __ptext28:	
  6487 ;; *************** function ___fldiv *****************
  6488 ;; Defined at:
  6489 ;;		line 8 in file "C:\Program Files\Microchip\xc8\v3.10\pic\sources\c99\common\sprcdiv.c"
  6490 ;; Parameters:    Size  Location     Type
  6491 ;;  a               4    0[BANK0 ] unsigned char 
  6492 ;;  b               4    4[BANK0 ] unsigned char 
  6493 ;; Auto vars:     Size  Location     Type
  6494 ;;  grs             4   20[BANK0 ] unsigned long 
  6495 ;;  rem             4   13[BANK0 ] unsigned long 
  6496 ;;  new_exp         2   18[BANK0 ] short 
  6497 ;;  aexp            1   25[BANK0 ] unsigned char 
  6498 ;;  bexp            1   24[BANK0 ] unsigned char 
  6499 ;;  sign            1   17[BANK0 ] unsigned char 
  6500 ;; Return value:  Size  Location     Type
  6501 ;;                  4    0[BANK0 ] unsigned char 
  6502 ;; Registers used:
  6503 ;;		wreg, status,2, status,0, btemp1
  6504 ;; Tracked objects:
  6505 ;;		On entry : 0/0
  6506 ;;		On exit  : 0/0
  6507 ;;		Unchanged: 0/0
  6508 ;; Data sizes:     COMMON   BANK0   BANK1   BANK3   BANK2
  6509 ;;      Params:         0       8       0       0       0
  6510 ;;      Locals:         0      13       0       0       0
  6511 ;;      Temps:          0       5       0       0       0
  6512 ;;      Totals:         0      26       0       0       0
  6513 ;;Total ram usage:       26 bytes
  6514 ;; Hardware stack levels used: 1
  6515 ;; This function calls:
  6516 ;;		Nothing
  6517 ;; This function is called by:
  6518 ;;		_dht11_read
  6519 ;; This function uses a non-reentrant model
  6520 ;;
  6521                           
  6522     0BE6                     ___fldiv:	
  6523                           ;psect for function ___fldiv
  6524                           
  6525     0BE6                     l2824:	
  6526                           ;incstack = 0
  6527                           ; Regs used in ___fldiv: [wreg+status,2+status,0+btemp1]
  6528                           
  6529     0BE6  1283               	bcf	3,5	;RP0=0, select bank0
  6530     0BE7  1303               	bcf	3,6	;RP1=0, select bank0
  6531     0BE8  0827               	movf	___fldiv@b+3,w
  6532     0BE9  00B1               	movwf	___fldiv@sign
  6533     0BEA                     l2826:
  6534     0BEA  3080               	movlw	128
  6535     0BEB  05B1               	andwf	___fldiv@sign,f
  6536     0BEC                     l2828:
  6537     0BEC  0827               	movf	___fldiv@b+3,w
  6538     0BED  00A8               	movwf	??___fldiv
  6539     0BEE  0728               	addwf	??___fldiv,w
  6540     0BEF  00B8               	movwf	___fldiv@bexp
  6541     0BF0                     l2830:
  6542     0BF0  1FA6               	btfss	___fldiv@b+2,7
  6543     0BF1  2BF3               	goto	u3491
  6544     0BF2  2BF4               	goto	u3490
  6545     0BF3                     u3491:
  6546     0BF3  2BF5               	goto	l2834
  6547     0BF4                     u3490:
  6548     0BF4                     l2832:
  6549     0BF4  1438               	bsf	___fldiv@bexp,0
  6550     0BF5                     l2834:
  6551     0BF5  0838               	movf	___fldiv@bexp,w
  6552     0BF6  1903               	btfsc	3,2
  6553     0BF7  2BF9               	goto	u3501
  6554     0BF8  2BFA               	goto	u3500
  6555     0BF9                     u3501:
  6556     0BF9  2C0A               	goto	l2844
  6557     0BFA                     u3500:
  6558     0BFA                     l2836:
  6559     0BFA  0A38               	incf	___fldiv@bexp,w
  6560     0BFB  1D03               	btfss	3,2
  6561     0BFC  2BFE               	goto	u3511
  6562     0BFD  2BFF               	goto	u3510
  6563     0BFE                     u3511:
  6564     0BFE  2C07               	goto	l2840
  6565     0BFF                     u3510:
  6566     0BFF                     l2838:
  6567     0BFF  3000               	movlw	0
  6568     0C00  00A7               	movwf	___fldiv@b+3
  6569     0C01  3000               	movlw	0
  6570     0C02  00A6               	movwf	___fldiv@b+2
  6571     0C03  3000               	movlw	0
  6572     0C04  00A5               	movwf	___fldiv@b+1
  6573     0C05  3000               	movlw	0
  6574     0C06  00A4               	movwf	___fldiv@b
  6575     0C07                     l2840:
  6576     0C07  17A6               	bsf	___fldiv@b+2,7
  6577     0C08                     l2842:
  6578     0C08  01A7               	clrf	___fldiv@b+3
  6579     0C09  2C12               	goto	l2846
  6580     0C0A                     l2844:
  6581     0C0A  3000               	movlw	0
  6582     0C0B  00A7               	movwf	___fldiv@b+3
  6583     0C0C  3000               	movlw	0
  6584     0C0D  00A6               	movwf	___fldiv@b+2
  6585     0C0E  3000               	movlw	0
  6586     0C0F  00A5               	movwf	___fldiv@b+1
  6587     0C10  3000               	movlw	0
  6588     0C11  00A4               	movwf	___fldiv@b
  6589     0C12                     l2846:
  6590     0C12  0823               	movf	___fldiv@a+3,w
  6591     0C13  3980               	andlw	128
  6592     0C14  06B1               	xorwf	___fldiv@sign,f
  6593     0C15                     l2848:
  6594     0C15  0823               	movf	___fldiv@a+3,w
  6595     0C16  00A8               	movwf	??___fldiv
  6596     0C17  0728               	addwf	??___fldiv,w
  6597     0C18  00B9               	movwf	___fldiv@aexp
  6598     0C19                     l2850:
  6599     0C19  1FA2               	btfss	___fldiv@a+2,7
  6600     0C1A  2C1C               	goto	u3521
  6601     0C1B  2C1D               	goto	u3520
  6602     0C1C                     u3521:
  6603     0C1C  2C1E               	goto	l2854
  6604     0C1D                     u3520:
  6605     0C1D                     l2852:
  6606     0C1D  1439               	bsf	___fldiv@aexp,0
  6607     0C1E                     l2854:
  6608     0C1E  0839               	movf	___fldiv@aexp,w
  6609     0C1F  1903               	btfsc	3,2
  6610     0C20  2C22               	goto	u3531
  6611     0C21  2C23               	goto	u3530
  6612     0C22                     u3531:
  6613     0C22  2C33               	goto	l2864
  6614     0C23                     u3530:
  6615     0C23                     l2856:
  6616     0C23  0A39               	incf	___fldiv@aexp,w
  6617     0C24  1D03               	btfss	3,2
  6618     0C25  2C27               	goto	u3541
  6619     0C26  2C28               	goto	u3540
  6620     0C27                     u3541:
  6621     0C27  2C30               	goto	l2860
  6622     0C28                     u3540:
  6623     0C28                     l2858:
  6624     0C28  3000               	movlw	0
  6625     0C29  00A3               	movwf	___fldiv@a+3
  6626     0C2A  3000               	movlw	0
  6627     0C2B  00A2               	movwf	___fldiv@a+2
  6628     0C2C  3000               	movlw	0
  6629     0C2D  00A1               	movwf	___fldiv@a+1
  6630     0C2E  3000               	movlw	0
  6631     0C2F  00A0               	movwf	___fldiv@a
  6632     0C30                     l2860:
  6633     0C30  17A2               	bsf	___fldiv@a+2,7
  6634     0C31                     l2862:
  6635     0C31  01A3               	clrf	___fldiv@a+3
  6636     0C32  2C3B               	goto	l709
  6637     0C33                     l2864:
  6638     0C33  3000               	movlw	0
  6639     0C34  00A3               	movwf	___fldiv@a+3
  6640     0C35  3000               	movlw	0
  6641     0C36  00A2               	movwf	___fldiv@a+2
  6642     0C37  3000               	movlw	0
  6643     0C38  00A1               	movwf	___fldiv@a+1
  6644     0C39  3000               	movlw	0
  6645     0C3A  00A0               	movwf	___fldiv@a
  6646     0C3B                     l709:
  6647     0C3B  0823               	movf	___fldiv@a+3,w
  6648     0C3C  0422               	iorwf	___fldiv@a+2,w
  6649     0C3D  0421               	iorwf	___fldiv@a+1,w
  6650     0C3E  0420               	iorwf	___fldiv@a,w
  6651     0C3F  1D03               	skipz
  6652     0C40  2C42               	goto	u3551
  6653     0C41  2C43               	goto	u3550
  6654     0C42                     u3551:
  6655     0C42  2C5A               	goto	l2874
  6656     0C43                     u3550:
  6657     0C43                     l2866:
  6658     0C43  3000               	movlw	0
  6659     0C44  00A7               	movwf	___fldiv@b+3
  6660     0C45  3000               	movlw	0
  6661     0C46  00A6               	movwf	___fldiv@b+2
  6662     0C47  3000               	movlw	0
  6663     0C48  00A5               	movwf	___fldiv@b+1
  6664     0C49  3000               	movlw	0
  6665     0C4A  00A4               	movwf	___fldiv@b
  6666     0C4B  3080               	movlw	128
  6667     0C4C  04A6               	iorwf	___fldiv@b+2,f
  6668     0C4D  307F               	movlw	127
  6669     0C4E  04A7               	iorwf	___fldiv@b+3,f
  6670     0C4F                     l2868:
  6671     0C4F  0831               	movf	___fldiv@sign,w
  6672     0C50  04A7               	iorwf	___fldiv@b+3,f
  6673     0C51                     l2870:
  6674     0C51  0827               	movf	___fldiv@b+3,w
  6675     0C52  00A3               	movwf	?___fldiv+3
  6676     0C53  0826               	movf	___fldiv@b+2,w
  6677     0C54  00A2               	movwf	?___fldiv+2
  6678     0C55  0825               	movf	___fldiv@b+1,w
  6679     0C56  00A1               	movwf	?___fldiv+1
  6680     0C57  0824               	movf	___fldiv@b,w
  6681     0C58  00A0               	movwf	?___fldiv
  6682     0C59  2DAF               	goto	l711
  6683     0C5A                     l2874:
  6684     0C5A  0838               	movf	___fldiv@bexp,w
  6685     0C5B  1D03               	btfss	3,2
  6686     0C5C  2C5E               	goto	u3561
  6687     0C5D  2C5F               	goto	u3560
  6688     0C5E                     u3561:
  6689     0C5E  2C68               	goto	l2880
  6690     0C5F                     u3560:
  6691     0C5F                     l2876:
  6692     0C5F  3000               	movlw	0
  6693     0C60  00A3               	movwf	?___fldiv+3
  6694     0C61  3000               	movlw	0
  6695     0C62  00A2               	movwf	?___fldiv+2
  6696     0C63  3000               	movlw	0
  6697     0C64  00A1               	movwf	?___fldiv+1
  6698     0C65  3000               	movlw	0
  6699     0C66  00A0               	movwf	?___fldiv
  6700     0C67  2DAF               	goto	l711
  6701     0C68                     l2880:
  6702     0C68  0838               	movf	___fldiv@bexp,w
  6703     0C69  00A8               	movwf	??___fldiv
  6704     0C6A  01A9               	clrf	??___fldiv+1
  6705     0C6B  0829               	movf	??___fldiv+1,w
  6706     0C6C  00AB               	movwf	??___fldiv+3
  6707     0C6D  0839               	movf	___fldiv@aexp,w
  6708     0C6E  0228               	subwf	??___fldiv,w
  6709     0C6F  00AA               	movwf	??___fldiv+2
  6710     0C70  1C03               	skipc
  6711     0C71  03AB               	decf	??___fldiv+3,f
  6712     0C72  082A               	movf	??___fldiv+2,w
  6713     0C73  3E7F               	addlw	127
  6714     0C74  00B2               	movwf	___fldiv@new_exp
  6715     0C75  082B               	movf	??___fldiv+3,w
  6716     0C76  1803               	skipnc
  6717     0C77  3E01               	addlw	1
  6718     0C78  3E00               	addlw	0
  6719     0C79  00B3               	movwf	___fldiv@new_exp+1
  6720     0C7A                     l2882:
  6721     0C7A  0827               	movf	___fldiv@b+3,w
  6722     0C7B  00B0               	movwf	___fldiv@rem+3
  6723     0C7C  0826               	movf	___fldiv@b+2,w
  6724     0C7D  00AF               	movwf	___fldiv@rem+2
  6725     0C7E  0825               	movf	___fldiv@b+1,w
  6726     0C7F  00AE               	movwf	___fldiv@rem+1
  6727     0C80  0824               	movf	___fldiv@b,w
  6728     0C81  00AD               	movwf	___fldiv@rem
  6729     0C82                     l2884:
  6730     0C82  3000               	movlw	0
  6731     0C83  00A7               	movwf	___fldiv@b+3
  6732     0C84  3000               	movlw	0
  6733     0C85  00A6               	movwf	___fldiv@b+2
  6734     0C86  3000               	movlw	0
  6735     0C87  00A5               	movwf	___fldiv@b+1
  6736     0C88  3000               	movlw	0
  6737     0C89  00A4               	movwf	___fldiv@b
  6738     0C8A                     l2886:
  6739     0C8A  3000               	movlw	0
  6740     0C8B  00B7               	movwf	___fldiv@grs+3
  6741     0C8C  3000               	movlw	0
  6742     0C8D  00B6               	movwf	___fldiv@grs+2
  6743     0C8E  3000               	movlw	0
  6744     0C8F  00B5               	movwf	___fldiv@grs+1
  6745     0C90  3000               	movlw	0
  6746     0C91  00B4               	movwf	___fldiv@grs
  6747     0C92                     l2888:
  6748     0C92  01B9               	clrf	___fldiv@aexp
  6749     0C93  2CDC               	goto	l2908
  6750     0C94                     l2890:
  6751     0C94  0839               	movf	___fldiv@aexp,w
  6752     0C95  1903               	btfsc	3,2
  6753     0C96  2C98               	goto	u3571
  6754     0C97  2C99               	goto	u3570
  6755     0C98                     u3571:
  6756     0C98  2CB9               	goto	l2900
  6757     0C99                     u3570:
  6758     0C99                     l2892:
  6759     0C99  3001               	movlw	1
  6760     0C9A  00A8               	movwf	??___fldiv
  6761     0C9B                     u3585:
  6762     0C9B  1003               	clrc
  6763     0C9C  0DAD               	rlf	___fldiv@rem,f
  6764     0C9D  0DAE               	rlf	___fldiv@rem+1,f
  6765     0C9E  0DAF               	rlf	___fldiv@rem+2,f
  6766     0C9F  0DB0               	rlf	___fldiv@rem+3,f
  6767     0CA0  0BA8               	decfsz	??___fldiv,f
  6768     0CA1  2C9B               	goto	u3585
  6769     0CA2  3001               	movlw	1
  6770     0CA3  00A8               	movwf	??___fldiv
  6771     0CA4                     u3595:
  6772     0CA4  1003               	clrc
  6773     0CA5  0DA4               	rlf	___fldiv@b,f
  6774     0CA6  0DA5               	rlf	___fldiv@b+1,f
  6775     0CA7  0DA6               	rlf	___fldiv@b+2,f
  6776     0CA8  0DA7               	rlf	___fldiv@b+3,f
  6777     0CA9  0BA8               	decfsz	??___fldiv,f
  6778     0CAA  2CA4               	goto	u3595
  6779     0CAB                     l2894:
  6780     0CAB  1FB7               	btfss	___fldiv@grs+3,7
  6781     0CAC  2CAE               	goto	u3601
  6782     0CAD  2CAF               	goto	u3600
  6783     0CAE                     u3601:
  6784     0CAE  2CB0               	goto	l2898
  6785     0CAF                     u3600:
  6786     0CAF                     l2896:
  6787     0CAF  1424               	bsf	___fldiv@b,0
  6788     0CB0                     l2898:
  6789     0CB0  3001               	movlw	1
  6790     0CB1  00A8               	movwf	??___fldiv
  6791     0CB2                     u3615:
  6792     0CB2  1003               	clrc
  6793     0CB3  0DB4               	rlf	___fldiv@grs,f
  6794     0CB4  0DB5               	rlf	___fldiv@grs+1,f
  6795     0CB5  0DB6               	rlf	___fldiv@grs+2,f
  6796     0CB6  0DB7               	rlf	___fldiv@grs+3,f
  6797     0CB7  0BA8               	decfsz	??___fldiv,f
  6798     0CB8  2CB2               	goto	u3615
  6799     0CB9                     l2900:
  6800     0CB9  0823               	movf	___fldiv@a+3,w
  6801     0CBA  0230               	subwf	___fldiv@rem+3,w
  6802     0CBB  1D03               	skipz
  6803     0CBC  2CC7               	goto	u3625
  6804     0CBD  0822               	movf	___fldiv@a+2,w
  6805     0CBE  022F               	subwf	___fldiv@rem+2,w
  6806     0CBF  1D03               	skipz
  6807     0CC0  2CC7               	goto	u3625
  6808     0CC1  0821               	movf	___fldiv@a+1,w
  6809     0CC2  022E               	subwf	___fldiv@rem+1,w
  6810     0CC3  1D03               	skipz
  6811     0CC4  2CC7               	goto	u3625
  6812     0CC5  0820               	movf	___fldiv@a,w
  6813     0CC6  022D               	subwf	___fldiv@rem,w
  6814     0CC7                     u3625:
  6815     0CC7  1C03               	skipc
  6816     0CC8  2CCA               	goto	u3621
  6817     0CC9  2CCB               	goto	u3620
  6818     0CCA                     u3621:
  6819     0CCA  2CDA               	goto	l2906
  6820     0CCB                     u3620:
  6821     0CCB                     l2902:
  6822     0CCB  1737               	bsf	___fldiv@grs+3,6
  6823     0CCC                     l2904:
  6824     0CCC  0820               	movf	___fldiv@a,w
  6825     0CCD  02AD               	subwf	___fldiv@rem,f
  6826     0CCE  0821               	movf	___fldiv@a+1,w
  6827     0CCF  1C03               	skipc
  6828     0CD0  0F21               	incfsz	___fldiv@a+1,w
  6829     0CD1  02AE               	subwf	___fldiv@rem+1,f
  6830     0CD2  0822               	movf	___fldiv@a+2,w
  6831     0CD3  1C03               	skipc
  6832     0CD4  0F22               	incfsz	___fldiv@a+2,w
  6833     0CD5  02AF               	subwf	___fldiv@rem+2,f
  6834     0CD6  0823               	movf	___fldiv@a+3,w
  6835     0CD7  1C03               	skipc
  6836     0CD8  0F23               	incfsz	___fldiv@a+3,w
  6837     0CD9  02B0               	subwf	___fldiv@rem+3,f
  6838     0CDA                     l2906:
  6839     0CDA  3001               	movlw	1
  6840     0CDB  07B9               	addwf	___fldiv@aexp,f
  6841     0CDC                     l2908:
  6842     0CDC  301A               	movlw	26
  6843     0CDD  0239               	subwf	___fldiv@aexp,w
  6844     0CDE  1C03               	skipc
  6845     0CDF  2CE1               	goto	u3631
  6846     0CE0  2CE2               	goto	u3630
  6847     0CE1                     u3631:
  6848     0CE1  2C94               	goto	l2890
  6849     0CE2                     u3630:
  6850     0CE2                     l2910:
  6851     0CE2  0830               	movf	___fldiv@rem+3,w
  6852     0CE3  042F               	iorwf	___fldiv@rem+2,w
  6853     0CE4  042E               	iorwf	___fldiv@rem+1,w
  6854     0CE5  042D               	iorwf	___fldiv@rem,w
  6855     0CE6  1903               	skipnz
  6856     0CE7  2CE9               	goto	u3641
  6857     0CE8  2CEA               	goto	u3640
  6858     0CE9                     u3641:
  6859     0CE9  2D09               	goto	l2924
  6860     0CEA                     u3640:
  6861     0CEA                     l2912:
  6862     0CEA  1434               	bsf	___fldiv@grs,0
  6863     0CEB  2D09               	goto	l2924
  6864     0CEC                     l2914:
  6865     0CEC  3001               	movlw	1
  6866     0CED  00A8               	movwf	??___fldiv
  6867     0CEE                     u3655:
  6868     0CEE  1003               	clrc
  6869     0CEF  0DA4               	rlf	___fldiv@b,f
  6870     0CF0  0DA5               	rlf	___fldiv@b+1,f
  6871     0CF1  0DA6               	rlf	___fldiv@b+2,f
  6872     0CF2  0DA7               	rlf	___fldiv@b+3,f
  6873     0CF3  0BA8               	decfsz	??___fldiv,f
  6874     0CF4  2CEE               	goto	u3655
  6875     0CF5                     l2916:
  6876     0CF5  1FB7               	btfss	___fldiv@grs+3,7
  6877     0CF6  2CF8               	goto	u3661
  6878     0CF7  2CF9               	goto	u3660
  6879     0CF8                     u3661:
  6880     0CF8  2CFA               	goto	l2920
  6881     0CF9                     u3660:
  6882     0CF9                     l2918:
  6883     0CF9  1424               	bsf	___fldiv@b,0
  6884     0CFA                     l2920:
  6885     0CFA  3001               	movlw	1
  6886     0CFB  00A8               	movwf	??___fldiv
  6887     0CFC                     u3675:
  6888     0CFC  1003               	clrc
  6889     0CFD  0DB4               	rlf	___fldiv@grs,f
  6890     0CFE  0DB5               	rlf	___fldiv@grs+1,f
  6891     0CFF  0DB6               	rlf	___fldiv@grs+2,f
  6892     0D00  0DB7               	rlf	___fldiv@grs+3,f
  6893     0D01  0BA8               	decfsz	??___fldiv,f
  6894     0D02  2CFC               	goto	u3675
  6895     0D03                     l2922:
  6896     0D03  30FF               	movlw	255
  6897     0D04  07B2               	addwf	___fldiv@new_exp,f
  6898     0D05  1803               	skipnc
  6899     0D06  0AB3               	incf	___fldiv@new_exp+1,f
  6900     0D07  30FF               	movlw	255
  6901     0D08  07B3               	addwf	___fldiv@new_exp+1,f
  6902     0D09                     l2924:
  6903     0D09  1FA6               	btfss	___fldiv@b+2,7
  6904     0D0A  2D0C               	goto	u3681
  6905     0D0B  2D0D               	goto	u3680
  6906     0D0C                     u3681:
  6907     0D0C  2CEC               	goto	l2914
  6908     0D0D                     u3680:
  6909     0D0D                     l2926:
  6910     0D0D  01B9               	clrf	___fldiv@aexp
  6911     0D0E                     l2928:
  6912     0D0E  1FB7               	btfss	___fldiv@grs+3,7
  6913     0D0F  2D11               	goto	u3691
  6914     0D10  2D12               	goto	u3690
  6915     0D11                     u3691:
  6916     0D11  2D2E               	goto	l2936
  6917     0D12                     u3690:
  6918     0D12                     l2930:
  6919     0D12  30FF               	movlw	255
  6920     0D13  0534               	andwf	___fldiv@grs,w
  6921     0D14  00A8               	movwf	??___fldiv
  6922     0D15  30FF               	movlw	255
  6923     0D16  0535               	andwf	___fldiv@grs+1,w
  6924     0D17  00A9               	movwf	??___fldiv+1
  6925     0D18  30FF               	movlw	255
  6926     0D19  0536               	andwf	___fldiv@grs+2,w
  6927     0D1A  00AA               	movwf	??___fldiv+2
  6928     0D1B  307F               	movlw	127
  6929     0D1C  0537               	andwf	___fldiv@grs+3,w
  6930     0D1D  00AB               	movwf	??___fldiv+3
  6931     0D1E  082B               	movf	??___fldiv+3,w
  6932     0D1F  042A               	iorwf	??___fldiv+2,w
  6933     0D20  0429               	iorwf	??___fldiv+1,w
  6934     0D21  0428               	iorwf	??___fldiv,w
  6935     0D22  1903               	skipnz
  6936     0D23  2D25               	goto	u3701
  6937     0D24  2D26               	goto	u3700
  6938     0D25                     u3701:
  6939     0D25  2D29               	goto	l725
  6940     0D26                     u3700:
  6941     0D26                     l2932:
  6942     0D26  3001               	movlw	1
  6943     0D27  00B9               	movwf	___fldiv@aexp
  6944     0D28  2D2E               	goto	l2936
  6945     0D29                     l725:
  6946     0D29  1C24               	btfss	___fldiv@b,0
  6947     0D2A  2D2C               	goto	u3711
  6948     0D2B  2D2D               	goto	u3710
  6949     0D2C                     u3711:
  6950     0D2C  2D2E               	goto	l2936
  6951     0D2D                     u3710:
  6952     0D2D  2D26               	goto	l2932
  6953     0D2E                     l2936:
  6954     0D2E  0839               	movf	___fldiv@aexp,w
  6955     0D2F  1903               	btfsc	3,2
  6956     0D30  2D32               	goto	u3721
  6957     0D31  2D33               	goto	u3720
  6958     0D32                     u3721:
  6959     0D32  2D64               	goto	l2946
  6960     0D33                     u3720:
  6961     0D33                     l2938:
  6962     0D33  3001               	movlw	1
  6963     0D34  07A4               	addwf	___fldiv@b,f
  6964     0D35  3000               	movlw	0
  6965     0D36  1803               	skipnc
  6966     0D37  3001               	movlw	1
  6967     0D38  07A5               	addwf	___fldiv@b+1,f
  6968     0D39  3000               	movlw	0
  6969     0D3A  1803               	skipnc
  6970     0D3B  3001               	movlw	1
  6971     0D3C  07A6               	addwf	___fldiv@b+2,f
  6972     0D3D  3000               	movlw	0
  6973     0D3E  1803               	skipnc
  6974     0D3F  3001               	movlw	1
  6975     0D40  07A7               	addwf	___fldiv@b+3,f
  6976     0D41                     l2940:
  6977     0D41  1C27               	btfss	___fldiv@b+3,0
  6978     0D42  2D44               	goto	u3731
  6979     0D43  2D45               	goto	u3730
  6980     0D44                     u3731:
  6981     0D44  2D64               	goto	l2946
  6982     0D45                     u3730:
  6983     0D45                     l2942:
  6984     0D45  0824               	movf	___fldiv@b,w
  6985     0D46  00A8               	movwf	??___fldiv
  6986     0D47  0825               	movf	___fldiv@b+1,w
  6987     0D48  00A9               	movwf	??___fldiv+1
  6988     0D49  0826               	movf	___fldiv@b+2,w
  6989     0D4A  00AA               	movwf	??___fldiv+2
  6990     0D4B  0827               	movf	___fldiv@b+3,w
  6991     0D4C  00AB               	movwf	??___fldiv+3
  6992     0D4D  3001               	movlw	1
  6993     0D4E  00AC               	movwf	??___fldiv+4
  6994     0D4F                     u3745:
  6995     0D4F  0D2B               	rlf	??___fldiv+3,w
  6996     0D50  0CAB               	rrf	??___fldiv+3,f
  6997     0D51  0CAA               	rrf	??___fldiv+2,f
  6998     0D52  0CA9               	rrf	??___fldiv+1,f
  6999     0D53  0CA8               	rrf	??___fldiv,f
  7000     0D54                     u3740:
  7001     0D54  0BAC               	decfsz	??___fldiv+4,f
  7002     0D55  2D4F               	goto	u3745
  7003     0D56  082B               	movf	??___fldiv+3,w
  7004     0D57  00A7               	movwf	___fldiv@b+3
  7005     0D58  082A               	movf	??___fldiv+2,w
  7006     0D59  00A6               	movwf	___fldiv@b+2
  7007     0D5A  0829               	movf	??___fldiv+1,w
  7008     0D5B  00A5               	movwf	___fldiv@b+1
  7009     0D5C  0828               	movf	??___fldiv,w
  7010     0D5D  00A4               	movwf	___fldiv@b
  7011     0D5E                     l2944:
  7012     0D5E  3001               	movlw	1
  7013     0D5F  07B2               	addwf	___fldiv@new_exp,f
  7014     0D60  1803               	skipnc
  7015     0D61  0AB3               	incf	___fldiv@new_exp+1,f
  7016     0D62  3000               	movlw	0
  7017     0D63  07B3               	addwf	___fldiv@new_exp+1,f
  7018     0D64                     l2946:
  7019     0D64  0833               	movf	___fldiv@new_exp+1,w
  7020     0D65  3A80               	xorlw	128
  7021     0D66  00FF               	movwf	btemp1
  7022     0D67  3080               	movlw	128
  7023     0D68  027F               	subwf	btemp1,w
  7024     0D69  1D03               	skipz
  7025     0D6A  2D6D               	goto	u3755
  7026     0D6B  30FF               	movlw	255
  7027     0D6C  0232               	subwf	___fldiv@new_exp,w
  7028     0D6D                     u3755:
  7029     0D6D  1C03               	skipc
  7030     0D6E  2D70               	goto	u3751
  7031     0D6F  2D71               	goto	u3750
  7032     0D70                     u3751:
  7033     0D70  2D7F               	goto	l2950
  7034     0D71                     u3750:
  7035     0D71                     l2948:
  7036     0D71  30FF               	movlw	255
  7037     0D72  1283               	bcf	3,5	;RP0=0, select bank0
  7038     0D73  1303               	bcf	3,6	;RP1=0, select bank0
  7039     0D74  00B2               	movwf	___fldiv@new_exp
  7040     0D75  3000               	movlw	0
  7041     0D76  00B3               	movwf	___fldiv@new_exp+1
  7042     0D77  3000               	movlw	0
  7043     0D78  00A7               	movwf	___fldiv@b+3
  7044     0D79  3000               	movlw	0
  7045     0D7A  00A6               	movwf	___fldiv@b+2
  7046     0D7B  3000               	movlw	0
  7047     0D7C  00A5               	movwf	___fldiv@b+1
  7048     0D7D  3000               	movlw	0
  7049     0D7E  00A4               	movwf	___fldiv@b
  7050     0D7F                     l2950:
  7051     0D7F  1283               	bcf	3,5	;RP0=0, select bank0
  7052     0D80  1303               	bcf	3,6	;RP1=0, select bank0
  7053     0D81  0833               	movf	___fldiv@new_exp+1,w
  7054     0D82  3A80               	xorlw	128
  7055     0D83  00FF               	movwf	btemp1
  7056     0D84  3080               	movlw	128
  7057     0D85  027F               	subwf	btemp1,w
  7058     0D86  1D03               	skipz
  7059     0D87  2D8A               	goto	u3765
  7060     0D88  3001               	movlw	1
  7061     0D89  0232               	subwf	___fldiv@new_exp,w
  7062     0D8A                     u3765:
  7063     0D8A  1803               	skipnc
  7064     0D8B  2D8D               	goto	u3761
  7065     0D8C  2D8E               	goto	u3760
  7066     0D8D                     u3761:
  7067     0D8D  2D9B               	goto	l731
  7068     0D8E                     u3760:
  7069     0D8E                     l2952:
  7070     0D8E  1283               	bcf	3,5	;RP0=0, select bank0
  7071     0D8F  1303               	bcf	3,6	;RP1=0, select bank0
  7072     0D90  01B2               	clrf	___fldiv@new_exp
  7073     0D91  01B3               	clrf	___fldiv@new_exp+1
  7074     0D92                     l2954:
  7075     0D92  3000               	movlw	0
  7076     0D93  00A7               	movwf	___fldiv@b+3
  7077     0D94  3000               	movlw	0
  7078     0D95  00A6               	movwf	___fldiv@b+2
  7079     0D96  3000               	movlw	0
  7080     0D97  00A5               	movwf	___fldiv@b+1
  7081     0D98  3000               	movlw	0
  7082     0D99  00A4               	movwf	___fldiv@b
  7083     0D9A                     l2956:
  7084     0D9A  01B1               	clrf	___fldiv@sign
  7085     0D9B                     l731:
  7086     0D9B  1283               	bcf	3,5	;RP0=0, select bank0
  7087     0D9C  1303               	bcf	3,6	;RP1=0, select bank0
  7088     0D9D  0832               	movf	___fldiv@new_exp,w
  7089     0D9E  00B8               	movwf	___fldiv@bexp
  7090     0D9F                     l2958:
  7091     0D9F  1C38               	btfss	___fldiv@bexp,0
  7092     0DA0  2DA2               	goto	u3771
  7093     0DA1  2DA3               	goto	u3770
  7094     0DA2                     u3771:
  7095     0DA2  2DA5               	goto	l2962
  7096     0DA3                     u3770:
  7097     0DA3                     l2960:
  7098     0DA3  17A6               	bsf	___fldiv@b+2,7
  7099     0DA4  2DA7               	goto	l733
  7100     0DA5                     l2962:
  7101     0DA5  307F               	movlw	127
  7102     0DA6  05A6               	andwf	___fldiv@b+2,f
  7103     0DA7                     l733:
  7104     0DA7  0838               	movf	___fldiv@bexp,w
  7105     0DA8  00A8               	movwf	??___fldiv
  7106     0DA9  1003               	clrc
  7107     0DAA  0C28               	rrf	??___fldiv,w
  7108     0DAB  00A7               	movwf	___fldiv@b+3
  7109     0DAC  0831               	movf	___fldiv@sign,w
  7110     0DAD  04A7               	iorwf	___fldiv@b+3,f
  7111     0DAE  2C51               	goto	l2870
  7112     0DAF                     l711:
  7113     0DAF  0008               	return
  7114     0DB0                     __end_of___fldiv:
  7115                           
  7116                           	psect	text29
  7117     11EB                     __ptext29:	
  7118 ;; *************** function _dht11_config *****************
  7119 ;; Defined at:
  7120 ;;		line 67 in file "dht11.c"
  7121 ;; Parameters:    Size  Location     Type
  7122 ;;		None
  7123 ;; Auto vars:     Size  Location     Type
  7124 ;;		None
  7125 ;; Return value:  Size  Location     Type
  7126 ;;                  1    wreg      void 
  7127 ;; Registers used:
  7128 ;;		wreg, status,2, status,0
  7129 ;; Tracked objects:
  7130 ;;		On entry : 0/0
  7131 ;;		On exit  : 0/0
  7132 ;;		Unchanged: 0/0
  7133 ;; Data sizes:     COMMON   BANK0   BANK1   BANK3   BANK2
  7134 ;;      Params:         0       0       0       0       0
  7135 ;;      Locals:         0       0       0       0       0
  7136 ;;      Temps:          0       0       0       0       0
  7137 ;;      Totals:         0       0       0       0       0
  7138 ;;Total ram usage:        0 bytes
  7139 ;; Hardware stack levels used: 1
  7140 ;; This function calls:
  7141 ;;		Nothing
  7142 ;; This function is called by:
  7143 ;;		_main
  7144 ;; This function uses a non-reentrant model
  7145 ;;
  7146                           
  7147     11EB                     _dht11_config:	
  7148                           ;psect for function _dht11_config
  7149                           
  7150     11EB                     l3090:	
  7151                           ;incstack = 0
  7152                           ; Regs used in _dht11_config: [wreg+status,2+status,0]
  7153                           
  7154                           
  7155                           ;dht11.c: 68:     TRISAbits.TRISA0 = 1;;
  7156     11EB  1683               	bsf	3,5	;RP0=1, select bank1
  7157     11EC  1303               	bcf	3,6	;RP1=0, select bank1
  7158     11ED  1405               	bsf	5,0	;volatile
  7159                           
  7160                           ;dht11.c: 69:     OPTION_REGbits.T0CS = 0; OPTION_REGbits.PSA = 0; OPTION_REGbits.PS = 0
      +                          b001;;
  7161     11EE  1281               	bcf	1,5	;volatile
  7162     11EF  1181               	bcf	1,3	;volatile
  7163     11F0                     l3092:
  7164     11F0  0801               	movf	1,w	;volatile
  7165     11F1  39F8               	andlw	-8
  7166     11F2  3801               	iorlw	1
  7167     11F3  0081               	movwf	1	;volatile
  7168     11F4                     l202:
  7169     11F4  0008               	return
  7170     11F5                     __end_of_dht11_config:
  7171                           
  7172                           	psect	text30
  7173     080C                     __ptext30:	
  7174 ;; *************** function ___fltol *****************
  7175 ;; Defined at:
  7176 ;;		line 43 in file "C:\Program Files\Microchip\xc8\v3.10\pic\sources\c99\common\fltol.c"
  7177 ;; Parameters:    Size  Location     Type
  7178 ;;  f1              4    0[BANK1 ] void 
  7179 ;; Auto vars:     Size  Location     Type
  7180 ;;  exp1            1    9[BANK1 ] unsigned char 
  7181 ;;  sign1           1    8[BANK1 ] unsigned char 
  7182 ;; Return value:  Size  Location     Type
  7183 ;;                  4    0[BANK1 ] long 
  7184 ;; Registers used:
  7185 ;;		wreg, status,2, status,0
  7186 ;; Tracked objects:
  7187 ;;		On entry : 0/0
  7188 ;;		On exit  : 0/0
  7189 ;;		Unchanged: 0/0
  7190 ;; Data sizes:     COMMON   BANK0   BANK1   BANK3   BANK2
  7191 ;;      Params:         0       0       4       0       0
  7192 ;;      Locals:         0       0       2       0       0
  7193 ;;      Temps:          0       0       4       0       0
  7194 ;;      Totals:         0       0      10       0       0
  7195 ;;Total ram usage:       10 bytes
  7196 ;; Hardware stack levels used: 1
  7197 ;; This function calls:
  7198 ;;		Nothing
  7199 ;; This function is called by:
  7200 ;;		_main
  7201 ;; This function uses a non-reentrant model
  7202 ;;
  7203                           
  7204     080C                     ___fltol:	
  7205                           ;psect for function ___fltol
  7206                           
  7207     080C                     l3258:	
  7208                           ;incstack = 0
  7209                           ; Regs used in ___fltol: [wreg+status,2+status,0]
  7210                           
  7211     080C  1003               	clrc
  7212     080D  1683               	bsf	3,5	;RP0=1, select bank1
  7213     080E  1303               	bcf	3,6	;RP1=0, select bank1
  7214     080F  0D22               	rlf	(___fltol@f1+2)^(0+128),w
  7215     0810  0D23               	rlf	(___fltol@f1+3)^(0+128),w
  7216     0811  00A9               	movwf	___fltol@exp1^(0+128)
  7217     0812  0829               	movf	___fltol@exp1^(0+128),w
  7218     0813  1D03               	btfss	3,2
  7219     0814  2816               	goto	u4111
  7220     0815  2817               	goto	u4110
  7221     0816                     u4111:
  7222     0816  2820               	goto	l3264
  7223     0817                     u4110:
  7224     0817                     l3260:
  7225     0817  3000               	movlw	0
  7226     0818  00A3               	movwf	(?___fltol+3)^(0+128)
  7227     0819  3000               	movlw	0
  7228     081A  00A2               	movwf	(?___fltol+2)^(0+128)
  7229     081B  3000               	movlw	0
  7230     081C  00A1               	movwf	(?___fltol+1)^(0+128)
  7231     081D  3000               	movlw	0
  7232     081E  00A0               	movwf	?___fltol^(0+128)
  7233     081F  2881               	goto	l546
  7234     0820                     l3264:
  7235     0820  0820               	movf	___fltol@f1^(0+128),w
  7236     0821  00A4               	movwf	??___fltol^(0+128)
  7237     0822  0821               	movf	(___fltol@f1+1)^(0+128),w
  7238     0823  00A5               	movwf	(??___fltol^(0+128)+1)
  7239     0824  0822               	movf	(___fltol@f1+2)^(0+128),w
  7240     0825  00A6               	movwf	(??___fltol^(0+128)+2)
  7241     0826  0823               	movf	(___fltol@f1+3)^(0+128),w
  7242     0827  00A7               	movwf	(??___fltol^(0+128)+3)
  7243     0828  301F               	movlw	31
  7244     0829                     u4125:
  7245     0829  1003               	clrc
  7246     082A  0CA7               	rrf	(??___fltol+3)^(0+128),f
  7247     082B  0CA6               	rrf	(??___fltol+2)^(0+128),f
  7248     082C  0CA5               	rrf	(??___fltol+1)^(0+128),f
  7249     082D  0CA4               	rrf	??___fltol^(0+128),f
  7250     082E                     u4120:
  7251     082E  3EFF               	addlw	-1
  7252     082F  1D03               	skipz
  7253     0830  2829               	goto	u4125
  7254     0831  0824               	movf	??___fltol^(0+128),w
  7255     0832  00A8               	movwf	___fltol@sign1^(0+128)
  7256     0833                     l3266:
  7257     0833  17A2               	bsf	(___fltol@f1^(0+128)+2),7
  7258     0834                     l3268:
  7259     0834  30FF               	movlw	255
  7260     0835  05A0               	andwf	___fltol@f1^(0+128),f
  7261     0836  30FF               	movlw	255
  7262     0837  05A1               	andwf	(___fltol@f1+1)^(0+128),f
  7263     0838  30FF               	movlw	255
  7264     0839  05A2               	andwf	(___fltol@f1+2)^(0+128),f
  7265     083A  3000               	movlw	0
  7266     083B  05A3               	andwf	(___fltol@f1+3)^(0+128),f
  7267     083C                     l3270:
  7268     083C  3096               	movlw	150
  7269     083D  02A9               	subwf	___fltol@exp1^(0+128),f
  7270     083E                     l3272:
  7271     083E  1FA9               	btfss	___fltol@exp1^(0+128),7
  7272     083F  2841               	goto	u4131
  7273     0840  2842               	goto	u4130
  7274     0841                     u4131:
  7275     0841  285A               	goto	l3282
  7276     0842                     u4130:
  7277     0842                     l3274:
  7278     0842  0829               	movf	___fltol@exp1^(0+128),w
  7279     0843  3A80               	xorlw	128
  7280     0844  3E97               	addlw	151
  7281     0845  1803               	skipnc
  7282     0846  2848               	goto	u4141
  7283     0847  2849               	goto	u4140
  7284     0848                     u4141:
  7285     0848  284A               	goto	l3280
  7286     0849                     u4140:
  7287     0849  2817               	goto	l3260
  7288     084A                     l3280:
  7289     084A  3001               	movlw	1
  7290     084B                     u4155:
  7291     084B  1003               	clrc
  7292     084C  0CA3               	rrf	(___fltol@f1+3)^(0+128),f
  7293     084D  0CA2               	rrf	(___fltol@f1+2)^(0+128),f
  7294     084E  0CA1               	rrf	(___fltol@f1+1)^(0+128),f
  7295     084F  0CA0               	rrf	___fltol@f1^(0+128),f
  7296     0850  3EFF               	addlw	-1
  7297     0851  1D03               	skipz
  7298     0852  284B               	goto	u4155
  7299     0853  3001               	movlw	1
  7300     0854  07A9               	addwf	___fltol@exp1^(0+128),f
  7301     0855  1D03               	btfss	3,2
  7302     0856  2858               	goto	u4161
  7303     0857  2859               	goto	u4160
  7304     0858                     u4161:
  7305     0858  284A               	goto	l3280
  7306     0859                     u4160:
  7307     0859  2871               	goto	l3290
  7308     085A                     l3282:
  7309     085A  3020               	movlw	32
  7310     085B  0229               	subwf	___fltol@exp1^(0+128),w
  7311     085C  1C03               	skipc
  7312     085D  285F               	goto	u4171
  7313     085E  2860               	goto	u4170
  7314     085F                     u4171:
  7315     085F  286C               	goto	l553
  7316     0860                     u4170:
  7317     0860  2817               	goto	l3260
  7318     0861                     l3288:
  7319     0861  3001               	movlw	1
  7320     0862  00A4               	movwf	??___fltol^(0+128)
  7321     0863                     u4185:
  7322     0863  1003               	clrc
  7323     0864  0DA0               	rlf	___fltol@f1^(0+128),f
  7324     0865  0DA1               	rlf	(___fltol@f1+1)^(0+128),f
  7325     0866  0DA2               	rlf	(___fltol@f1+2)^(0+128),f
  7326     0867  0DA3               	rlf	(___fltol@f1+3)^(0+128),f
  7327     0868  0BA4               	decfsz	??___fltol^(0+128),f
  7328     0869  2863               	goto	u4185
  7329     086A  3001               	movlw	1
  7330     086B  02A9               	subwf	___fltol@exp1^(0+128),f
  7331     086C                     l553:
  7332     086C  0829               	movf	___fltol@exp1^(0+128),w
  7333     086D  1D03               	btfss	3,2
  7334     086E  2870               	goto	u4191
  7335     086F  2871               	goto	u4190
  7336     0870                     u4191:
  7337     0870  2861               	goto	l3288
  7338     0871                     u4190:
  7339     0871                     l3290:
  7340     0871  0828               	movf	___fltol@sign1^(0+128),w
  7341     0872  1903               	btfsc	3,2
  7342     0873  2875               	goto	u4201
  7343     0874  2876               	goto	u4200
  7344     0875                     u4201:
  7345     0875  2881               	goto	l556
  7346     0876                     u4200:
  7347     0876                     l3292:
  7348     0876  09A0               	comf	___fltol@f1^(0+128),f
  7349     0877  09A1               	comf	(___fltol@f1+1)^(0+128),f
  7350     0878  09A2               	comf	(___fltol@f1+2)^(0+128),f
  7351     0879  09A3               	comf	(___fltol@f1+3)^(0+128),f
  7352     087A  0AA0               	incf	___fltol@f1^(0+128),f
  7353     087B  1903               	skipnz
  7354     087C  0AA1               	incf	(___fltol@f1+1)^(0+128),f
  7355     087D  1903               	skipnz
  7356     087E  0AA2               	incf	(___fltol@f1+2)^(0+128),f
  7357     087F  1903               	skipnz
  7358     0880  0AA3               	incf	(___fltol@f1+3)^(0+128),f
  7359     0881                     l556:
  7360     0881                     l546:
  7361     0881  0008               	return
  7362     0882                     __end_of___fltol:
  7363                           
  7364                           	psect	text31
  7365     12CD                     __ptext31:	
  7366 ;; *************** function ___flsub *****************
  7367 ;; Defined at:
  7368 ;;		line 242 in file "C:\Program Files\Microchip\xc8\v3.10\pic\sources\c99\common\sprcadd.c"
  7369 ;; Parameters:    Size  Location     Type
  7370 ;;  a               4   46[BANK0 ] long 
  7371 ;;  b               4   50[BANK0 ] long 
  7372 ;; Auto vars:     Size  Location     Type
  7373 ;;		None
  7374 ;; Return value:  Size  Location     Type
  7375 ;;                  4   46[BANK0 ] long 
  7376 ;; Registers used:
  7377 ;;		wreg, status,2, status,0, pclath, btemp1, cstack
  7378 ;; Tracked objects:
  7379 ;;		On entry : 0/0
  7380 ;;		On exit  : 0/0
  7381 ;;		Unchanged: 0/0
  7382 ;; Data sizes:     COMMON   BANK0   BANK1   BANK3   BANK2
  7383 ;;      Params:         0       8       0       0       0
  7384 ;;      Locals:         0       0       0       0       0
  7385 ;;      Temps:          0       0       0       0       0
  7386 ;;      Totals:         0       8       0       0       0
  7387 ;;Total ram usage:        8 bytes
  7388 ;; Hardware stack levels used: 1
  7389 ;; Hardware stack levels required when called: 1
  7390 ;; This function calls:
  7391 ;;		___fladd
  7392 ;; This function is called by:
  7393 ;;		_main
  7394 ;; This function uses a non-reentrant model
  7395 ;;
  7396                           
  7397     12CD                     ___flsub:	
  7398                           ;psect for function ___flsub
  7399                           
  7400     12CD                     l3294:	
  7401                           ;incstack = 0
  7402                           ; Regs used in ___flsub: [wreg+status,2+status,0+pclath+btemp1+cstack]
  7403                           
  7404     12CD  3080               	movlw	128
  7405     12CE  1283               	bcf	3,5	;RP0=0, select bank0
  7406     12CF  1303               	bcf	3,6	;RP1=0, select bank0
  7407     12D0  06D1               	xorwf	___flsub@a+3,f
  7408     12D1                     l3296:
  7409     12D1  0855               	movf	___flsub@b+3,w
  7410     12D2  00BD               	movwf	___fladd@b+3
  7411     12D3  0854               	movf	___flsub@b+2,w
  7412     12D4  00BC               	movwf	___fladd@b+2
  7413     12D5  0853               	movf	___flsub@b+1,w
  7414     12D6  00BB               	movwf	___fladd@b+1
  7415     12D7  0852               	movf	___flsub@b,w
  7416     12D8  00BA               	movwf	___fladd@b
  7417     12D9  0851               	movf	___flsub@a+3,w
  7418     12DA  00C1               	movwf	___fladd@a+3
  7419     12DB  0850               	movf	___flsub@a+2,w
  7420     12DC  00C0               	movwf	___fladd@a+2
  7421     12DD  084F               	movf	___flsub@a+1,w
  7422     12DE  00BF               	movwf	___fladd@a+1
  7423     12DF  084E               	movf	___flsub@a,w
  7424     12E0  00BE               	movwf	___fladd@a
  7425     12E1  120A  158A  25B0  160A  118A  	fcall	___fladd
  7426     12E6  1283               	bcf	3,5	;RP0=0, select bank0
  7427     12E7  1303               	bcf	3,6	;RP1=0, select bank0
  7428     12E8  083D               	movf	?___fladd+3,w
  7429     12E9  00D1               	movwf	?___flsub+3
  7430     12EA  083C               	movf	?___fladd+2,w
  7431     12EB  00D0               	movwf	?___flsub+2
  7432     12EC  083B               	movf	?___fladd+1,w
  7433     12ED  00CF               	movwf	?___flsub+1
  7434     12EE  083A               	movf	?___fladd,w
  7435     12EF  00CE               	movwf	?___flsub
  7436     12F0                     l699:
  7437     12F0  0008               	return
  7438     12F1                     __end_of___flsub:
  7439                           
  7440                           	psect	text32
  7441     0DB0                     __ptext32:	
  7442 ;; *************** function ___fladd *****************
  7443 ;; Defined at:
  7444 ;;		line 10 in file "C:\Program Files\Microchip\xc8\v3.10\pic\sources\c99\common\sprcadd.c"
  7445 ;; Parameters:    Size  Location     Type
  7446 ;;  b               4   26[BANK0 ] long 
  7447 ;;  a               4   30[BANK0 ] long 
  7448 ;; Auto vars:     Size  Location     Type
  7449 ;;  grs             1   45[BANK0 ] unsigned char 
  7450 ;;  bexp            1   44[BANK0 ] unsigned char 
  7451 ;;  aexp            1   43[BANK0 ] unsigned char 
  7452 ;;  signs           1   42[BANK0 ] unsigned char 
  7453 ;; Return value:  Size  Location     Type
  7454 ;;                  4   26[BANK0 ] unsigned char 
  7455 ;; Registers used:
  7456 ;;		wreg, status,2, status,0, btemp1
  7457 ;; Tracked objects:
  7458 ;;		On entry : 0/0
  7459 ;;		On exit  : 0/0
  7460 ;;		Unchanged: 0/0
  7461 ;; Data sizes:     COMMON   BANK0   BANK1   BANK3   BANK2
  7462 ;;      Params:         0       8       0       0       0
  7463 ;;      Locals:         0       4       0       0       0
  7464 ;;      Temps:          0       8       0       0       0
  7465 ;;      Totals:         0      20       0       0       0
  7466 ;;Total ram usage:       20 bytes
  7467 ;; Hardware stack levels used: 1
  7468 ;; This function calls:
  7469 ;;		Nothing
  7470 ;; This function is called by:
  7471 ;;		_dht11_read
  7472 ;;		___flsub
  7473 ;; This function uses a non-reentrant model
  7474 ;;
  7475                           
  7476     0DB0                     ___fladd:	
  7477                           ;psect for function ___fladd
  7478                           
  7479     0DB0                     l2626:	
  7480                           ;incstack = 0
  7481                           ; Regs used in ___fladd: [wreg+status,2+status,0+btemp1]
  7482                           
  7483     0DB0  1283               	bcf	3,5	;RP0=0, select bank0
  7484     0DB1  1303               	bcf	3,6	;RP1=0, select bank0
  7485     0DB2  083D               	movf	___fladd@b+3,w
  7486     0DB3  00CA               	movwf	___fladd@signs
  7487     0DB4                     l2628:
  7488     0DB4  3080               	movlw	128
  7489     0DB5  05CA               	andwf	___fladd@signs,f
  7490     0DB6                     l2630:
  7491     0DB6  083D               	movf	___fladd@b+3,w
  7492     0DB7  00C2               	movwf	??___fladd
  7493     0DB8  0742               	addwf	??___fladd,w
  7494     0DB9  00CC               	movwf	___fladd@bexp
  7495     0DBA                     l2632:
  7496     0DBA  1FBC               	btfss	___fladd@b+2,7
  7497     0DBB  2DBD               	goto	u3031
  7498     0DBC  2DBE               	goto	u3030
  7499     0DBD                     u3031:
  7500     0DBD  2DBF               	goto	l2636
  7501     0DBE                     u3030:
  7502     0DBE                     l2634:
  7503     0DBE  144C               	bsf	___fladd@bexp,0
  7504     0DBF                     l2636:
  7505     0DBF  084C               	movf	___fladd@bexp,w
  7506     0DC0  1903               	btfsc	3,2
  7507     0DC1  2DC3               	goto	u3041
  7508     0DC2  2DC4               	goto	u3040
  7509     0DC3                     u3041:
  7510     0DC3  2DD4               	goto	l2646
  7511     0DC4                     u3040:
  7512     0DC4                     l2638:
  7513     0DC4  0A4C               	incf	___fladd@bexp,w
  7514     0DC5  1D03               	btfss	3,2
  7515     0DC6  2DC8               	goto	u3051
  7516     0DC7  2DC9               	goto	u3050
  7517     0DC8                     u3051:
  7518     0DC8  2DD1               	goto	l2642
  7519     0DC9                     u3050:
  7520     0DC9                     l2640:
  7521     0DC9  3000               	movlw	0
  7522     0DCA  00BD               	movwf	___fladd@b+3
  7523     0DCB  3000               	movlw	0
  7524     0DCC  00BC               	movwf	___fladd@b+2
  7525     0DCD  3000               	movlw	0
  7526     0DCE  00BB               	movwf	___fladd@b+1
  7527     0DCF  3000               	movlw	0
  7528     0DD0  00BA               	movwf	___fladd@b
  7529     0DD1                     l2642:
  7530     0DD1  17BC               	bsf	___fladd@b+2,7
  7531     0DD2                     l2644:
  7532     0DD2  01BD               	clrf	___fladd@b+3
  7533     0DD3  2DDC               	goto	l648
  7534     0DD4                     l2646:
  7535     0DD4  3000               	movlw	0
  7536     0DD5  00BD               	movwf	___fladd@b+3
  7537     0DD6  3000               	movlw	0
  7538     0DD7  00BC               	movwf	___fladd@b+2
  7539     0DD8  3000               	movlw	0
  7540     0DD9  00BB               	movwf	___fladd@b+1
  7541     0DDA  3000               	movlw	0
  7542     0DDB  00BA               	movwf	___fladd@b
  7543     0DDC                     l648:
  7544     0DDC  0841               	movf	___fladd@a+3,w
  7545     0DDD  00CB               	movwf	___fladd@aexp
  7546     0DDE                     l2648:
  7547     0DDE  3080               	movlw	128
  7548     0DDF  05CB               	andwf	___fladd@aexp,f
  7549     0DE0                     l2650:
  7550     0DE0  084B               	movf	___fladd@aexp,w
  7551     0DE1  064A               	xorwf	___fladd@signs,w
  7552     0DE2  1903               	skipnz
  7553     0DE3  2DE5               	goto	u3061
  7554     0DE4  2DE6               	goto	u3060
  7555     0DE5                     u3061:
  7556     0DE5  2DE7               	goto	l2654
  7557     0DE6                     u3060:
  7558     0DE6                     l2652:
  7559     0DE6  174A               	bsf	___fladd@signs,6
  7560     0DE7                     l2654:
  7561     0DE7  0841               	movf	___fladd@a+3,w
  7562     0DE8  00C2               	movwf	??___fladd
  7563     0DE9  0742               	addwf	??___fladd,w
  7564     0DEA  00CB               	movwf	___fladd@aexp
  7565     0DEB                     l2656:
  7566     0DEB  1FC0               	btfss	___fladd@a+2,7
  7567     0DEC  2DEE               	goto	u3071
  7568     0DED  2DEF               	goto	u3070
  7569     0DEE                     u3071:
  7570     0DEE  2DF0               	goto	l2660
  7571     0DEF                     u3070:
  7572     0DEF                     l2658:
  7573     0DEF  144B               	bsf	___fladd@aexp,0
  7574     0DF0                     l2660:
  7575     0DF0  084B               	movf	___fladd@aexp,w
  7576     0DF1  1903               	btfsc	3,2
  7577     0DF2  2DF4               	goto	u3081
  7578     0DF3  2DF5               	goto	u3080
  7579     0DF4                     u3081:
  7580     0DF4  2E05               	goto	l2670
  7581     0DF5                     u3080:
  7582     0DF5                     l2662:
  7583     0DF5  0A4B               	incf	___fladd@aexp,w
  7584     0DF6  1D03               	btfss	3,2
  7585     0DF7  2DF9               	goto	u3091
  7586     0DF8  2DFA               	goto	u3090
  7587     0DF9                     u3091:
  7588     0DF9  2E02               	goto	l2666
  7589     0DFA                     u3090:
  7590     0DFA                     l2664:
  7591     0DFA  3000               	movlw	0
  7592     0DFB  00C1               	movwf	___fladd@a+3
  7593     0DFC  3000               	movlw	0
  7594     0DFD  00C0               	movwf	___fladd@a+2
  7595     0DFE  3000               	movlw	0
  7596     0DFF  00BF               	movwf	___fladd@a+1
  7597     0E00  3000               	movlw	0
  7598     0E01  00BE               	movwf	___fladd@a
  7599     0E02                     l2666:
  7600     0E02  17C0               	bsf	___fladd@a+2,7
  7601     0E03                     l2668:
  7602     0E03  01C1               	clrf	___fladd@a+3
  7603     0E04  2E0D               	goto	l653
  7604     0E05                     l2670:
  7605     0E05  3000               	movlw	0
  7606     0E06  00C1               	movwf	___fladd@a+3
  7607     0E07  3000               	movlw	0
  7608     0E08  00C0               	movwf	___fladd@a+2
  7609     0E09  3000               	movlw	0
  7610     0E0A  00BF               	movwf	___fladd@a+1
  7611     0E0B  3000               	movlw	0
  7612     0E0C  00BE               	movwf	___fladd@a
  7613     0E0D                     l653:
  7614     0E0D  084C               	movf	___fladd@bexp,w
  7615     0E0E  024B               	subwf	___fladd@aexp,w
  7616     0E0F  1803               	skipnc
  7617     0E10  2E12               	goto	u3101
  7618     0E11  2E13               	goto	u3100
  7619     0E12                     u3101:
  7620     0E12  2E37               	goto	l2706
  7621     0E13                     u3100:
  7622     0E13                     l2672:
  7623     0E13  1F4A               	btfss	___fladd@signs,6
  7624     0E14  2E16               	goto	u3111
  7625     0E15  2E17               	goto	u3110
  7626     0E16                     u3111:
  7627     0E16  2E19               	goto	l2676
  7628     0E17                     u3110:
  7629     0E17                     l2674:
  7630     0E17  3080               	movlw	128
  7631     0E18  06CA               	xorwf	___fladd@signs,f
  7632     0E19                     l2676:
  7633     0E19  084C               	movf	___fladd@bexp,w
  7634     0E1A  00CD               	movwf	___fladd@grs
  7635     0E1B                     l2678:
  7636     0E1B  084B               	movf	___fladd@aexp,w
  7637     0E1C  00CC               	movwf	___fladd@bexp
  7638     0E1D                     l2680:
  7639     0E1D  084D               	movf	___fladd@grs,w
  7640     0E1E  00CB               	movwf	___fladd@aexp
  7641     0E1F                     l2682:
  7642     0E1F  083A               	movf	___fladd@b,w
  7643     0E20  00CD               	movwf	___fladd@grs
  7644     0E21                     l2684:
  7645     0E21  083E               	movf	___fladd@a,w
  7646     0E22  00BA               	movwf	___fladd@b
  7647     0E23                     l2686:
  7648     0E23  084D               	movf	___fladd@grs,w
  7649     0E24  00BE               	movwf	___fladd@a
  7650     0E25                     l2688:
  7651     0E25  083B               	movf	___fladd@b+1,w
  7652     0E26  00CD               	movwf	___fladd@grs
  7653     0E27                     l2690:
  7654     0E27  083F               	movf	___fladd@a+1,w
  7655     0E28  00BB               	movwf	___fladd@b+1
  7656     0E29                     l2692:
  7657     0E29  084D               	movf	___fladd@grs,w
  7658     0E2A  00BF               	movwf	___fladd@a+1
  7659     0E2B                     l2694:
  7660     0E2B  083C               	movf	___fladd@b+2,w
  7661     0E2C  00CD               	movwf	___fladd@grs
  7662     0E2D                     l2696:
  7663     0E2D  0840               	movf	___fladd@a+2,w
  7664     0E2E  00BC               	movwf	___fladd@b+2
  7665     0E2F                     l2698:
  7666     0E2F  084D               	movf	___fladd@grs,w
  7667     0E30  00C0               	movwf	___fladd@a+2
  7668     0E31                     l2700:
  7669     0E31  083D               	movf	___fladd@b+3,w
  7670     0E32  00CD               	movwf	___fladd@grs
  7671     0E33                     l2702:
  7672     0E33  0841               	movf	___fladd@a+3,w
  7673     0E34  00BD               	movwf	___fladd@b+3
  7674     0E35                     l2704:
  7675     0E35  084D               	movf	___fladd@grs,w
  7676     0E36  00C1               	movwf	___fladd@a+3
  7677     0E37                     l2706:
  7678     0E37  01CD               	clrf	___fladd@grs
  7679     0E38                     l2708:
  7680     0E38  084B               	movf	___fladd@aexp,w
  7681     0E39  00C2               	movwf	??___fladd
  7682     0E3A  01C3               	clrf	??___fladd+1
  7683     0E3B  0843               	movf	??___fladd+1,w
  7684     0E3C  00C5               	movwf	??___fladd+3
  7685     0E3D  084C               	movf	___fladd@bexp,w
  7686     0E3E  0242               	subwf	??___fladd,w
  7687     0E3F  00C4               	movwf	??___fladd+2
  7688     0E40  1C03               	skipc
  7689     0E41  03C5               	decf	??___fladd+3,f
  7690     0E42  0845               	movf	??___fladd+3,w
  7691     0E43  3A80               	xorlw	128
  7692     0E44  00FF               	movwf	btemp1
  7693     0E45  3080               	movlw	128
  7694     0E46  027F               	subwf	btemp1,w
  7695     0E47  1D03               	skipz
  7696     0E48  2E4B               	goto	u3125
  7697     0E49  301A               	movlw	26
  7698     0E4A  0244               	subwf	??___fladd+2,w
  7699     0E4B                     u3125:
  7700     0E4B  1C03               	skipc
  7701     0E4C  2E4E               	goto	u3121
  7702     0E4D  2E4F               	goto	u3120
  7703     0E4E                     u3121:
  7704     0E4E  2E84               	goto	l2724
  7705     0E4F                     u3120:
  7706     0E4F                     l2710:
  7707     0E4F  1283               	bcf	3,5	;RP0=0, select bank0
  7708     0E50  1303               	bcf	3,6	;RP1=0, select bank0
  7709     0E51  083D               	movf	___fladd@b+3,w
  7710     0E52  043C               	iorwf	___fladd@b+2,w
  7711     0E53  043B               	iorwf	___fladd@b+1,w
  7712     0E54  043A               	iorwf	___fladd@b,w
  7713     0E55  1D03               	skipz
  7714     0E56  2E58               	goto	u3131
  7715     0E57  2E5A               	goto	u3130
  7716     0E58                     u3131:
  7717     0E58  3001               	movlw	1
  7718     0E59  2E5B               	goto	u3140
  7719     0E5A                     u3130:
  7720     0E5A  3000               	movlw	0
  7721     0E5B                     u3140:
  7722     0E5B  00CD               	movwf	___fladd@grs
  7723     0E5C  3000               	movlw	0
  7724     0E5D  00BD               	movwf	___fladd@b+3
  7725     0E5E  3000               	movlw	0
  7726     0E5F  00BC               	movwf	___fladd@b+2
  7727     0E60  3000               	movlw	0
  7728     0E61  00BB               	movwf	___fladd@b+1
  7729     0E62  3000               	movlw	0
  7730     0E63  00BA               	movwf	___fladd@b
  7731     0E64  084B               	movf	___fladd@aexp,w
  7732     0E65  00CC               	movwf	___fladd@bexp
  7733     0E66  2E8C               	goto	l657
  7734     0E67                     l659:
  7735     0E67  1C4D               	btfss	___fladd@grs,0
  7736     0E68  2E6A               	goto	u3151
  7737     0E69  2E6B               	goto	u3150
  7738     0E6A                     u3151:
  7739     0E6A  2E72               	goto	l2714
  7740     0E6B                     u3150:
  7741     0E6B                     l2712:
  7742     0E6B  084D               	movf	___fladd@grs,w
  7743     0E6C  00C2               	movwf	??___fladd
  7744     0E6D  1003               	clrc
  7745     0E6E  0C42               	rrf	??___fladd,w
  7746     0E6F  3801               	iorlw	1
  7747     0E70  00CD               	movwf	___fladd@grs
  7748     0E71  2E74               	goto	l2716
  7749     0E72                     l2714:
  7750     0E72  1003               	clrc
  7751     0E73  0CCD               	rrf	___fladd@grs,f
  7752     0E74                     l2716:
  7753     0E74  1C3A               	btfss	___fladd@b,0
  7754     0E75  2E77               	goto	u3161
  7755     0E76  2E78               	goto	u3160
  7756     0E77                     u3161:
  7757     0E77  2E79               	goto	l2720
  7758     0E78                     u3160:
  7759     0E78                     l2718:
  7760     0E78  17CD               	bsf	___fladd@grs,7
  7761     0E79                     l2720:
  7762     0E79  3001               	movlw	1
  7763     0E7A  00C2               	movwf	??___fladd
  7764     0E7B                     u3175:
  7765     0E7B  0D3D               	rlf	___fladd@b+3,w
  7766     0E7C  0CBD               	rrf	___fladd@b+3,f
  7767     0E7D  0CBC               	rrf	___fladd@b+2,f
  7768     0E7E  0CBB               	rrf	___fladd@b+1,f
  7769     0E7F  0CBA               	rrf	___fladd@b,f
  7770     0E80  0BC2               	decfsz	??___fladd& (0+127),f
  7771     0E81  2E7B               	goto	u3175
  7772     0E82                     l2722:
  7773     0E82  3001               	movlw	1
  7774     0E83  07CC               	addwf	___fladd@bexp,f
  7775     0E84                     l2724:
  7776     0E84  1283               	bcf	3,5	;RP0=0, select bank0
  7777     0E85  1303               	bcf	3,6	;RP1=0, select bank0
  7778     0E86  084B               	movf	___fladd@aexp,w
  7779     0E87  024C               	subwf	___fladd@bexp,w
  7780     0E88  1C03               	skipc
  7781     0E89  2E8B               	goto	u3181
  7782     0E8A  2E8C               	goto	u3180
  7783     0E8B                     u3181:
  7784     0E8B  2E67               	goto	l659
  7785     0E8C                     u3180:
  7786     0E8C                     l657:
  7787     0E8C  1B4A               	btfsc	___fladd@signs,6
  7788     0E8D  2E8F               	goto	u3191
  7789     0E8E  2E90               	goto	u3190
  7790     0E8F                     u3191:
  7791     0E8F  2ED7               	goto	l2750
  7792     0E90                     u3190:
  7793     0E90                     l2726:
  7794     0E90  084C               	movf	___fladd@bexp,w
  7795     0E91  1D03               	btfss	3,2
  7796     0E92  2E94               	goto	u3201
  7797     0E93  2E95               	goto	u3200
  7798     0E94                     u3201:
  7799     0E94  2E9E               	goto	l2732
  7800     0E95                     u3200:
  7801     0E95                     l2728:
  7802     0E95  3000               	movlw	0
  7803     0E96  00BD               	movwf	?___fladd+3
  7804     0E97  3000               	movlw	0
  7805     0E98  00BC               	movwf	?___fladd+2
  7806     0E99  3000               	movlw	0
  7807     0E9A  00BB               	movwf	?___fladd+1
  7808     0E9B  3000               	movlw	0
  7809     0E9C  00BA               	movwf	?___fladd
  7810     0E9D  2FFF               	goto	l666
  7811     0E9E                     l2732:
  7812     0E9E  083E               	movf	___fladd@a,w
  7813     0E9F  07BA               	addwf	___fladd@b,f
  7814     0EA0  083F               	movf	___fladd@a+1,w
  7815     0EA1  1103               	clrz
  7816     0EA2  1803               	skipnc
  7817     0EA3  3E01               	addlw	1
  7818     0EA4  1903               	skipnz
  7819     0EA5  2EA7               	goto	u3211
  7820     0EA6  07BB               	addwf	___fladd@b+1,f
  7821     0EA7                     u3211:
  7822     0EA7  0840               	movf	___fladd@a+2,w
  7823     0EA8  1103               	clrz
  7824     0EA9  1803               	skipnc
  7825     0EAA  3E01               	addlw	1
  7826     0EAB  1903               	skipnz
  7827     0EAC  2EAE               	goto	u3212
  7828     0EAD  07BC               	addwf	___fladd@b+2,f
  7829     0EAE                     u3212:
  7830     0EAE  0841               	movf	___fladd@a+3,w
  7831     0EAF  1103               	clrz
  7832     0EB0  1803               	skipnc
  7833     0EB1  3E01               	addlw	1
  7834     0EB2  1903               	skipnz
  7835     0EB3  2EB5               	goto	u3213
  7836     0EB4  07BD               	addwf	___fladd@b+3,f
  7837     0EB5                     u3213:
  7838     0EB5                     l2734:
  7839     0EB5  1C3D               	btfss	___fladd@b+3,0
  7840     0EB6  2EB8               	goto	u3221
  7841     0EB7  2EB9               	goto	u3220
  7842     0EB8                     u3221:
  7843     0EB8  2F8B               	goto	l2786
  7844     0EB9                     u3220:
  7845     0EB9                     l2736:
  7846     0EB9  1C4D               	btfss	___fladd@grs,0
  7847     0EBA  2EBC               	goto	u3231
  7848     0EBB  2EBD               	goto	u3230
  7849     0EBC                     u3231:
  7850     0EBC  2EC4               	goto	l2740
  7851     0EBD                     u3230:
  7852     0EBD                     l2738:
  7853     0EBD  084D               	movf	___fladd@grs,w
  7854     0EBE  00C2               	movwf	??___fladd
  7855     0EBF  1003               	clrc
  7856     0EC0  0C42               	rrf	??___fladd,w
  7857     0EC1  3801               	iorlw	1
  7858     0EC2  00CD               	movwf	___fladd@grs
  7859     0EC3  2EC6               	goto	l2742
  7860     0EC4                     l2740:
  7861     0EC4  1003               	clrc
  7862     0EC5  0CCD               	rrf	___fladd@grs,f
  7863     0EC6                     l2742:
  7864     0EC6  1C3A               	btfss	___fladd@b,0
  7865     0EC7  2EC9               	goto	u3241
  7866     0EC8  2ECA               	goto	u3240
  7867     0EC9                     u3241:
  7868     0EC9  2ECB               	goto	l2746
  7869     0ECA                     u3240:
  7870     0ECA                     l2744:
  7871     0ECA  17CD               	bsf	___fladd@grs,7
  7872     0ECB                     l2746:
  7873     0ECB  3001               	movlw	1
  7874     0ECC  00C2               	movwf	??___fladd
  7875     0ECD                     u3255:
  7876     0ECD  0D3D               	rlf	___fladd@b+3,w
  7877     0ECE  0CBD               	rrf	___fladd@b+3,f
  7878     0ECF  0CBC               	rrf	___fladd@b+2,f
  7879     0ED0  0CBB               	rrf	___fladd@b+1,f
  7880     0ED1  0CBA               	rrf	___fladd@b,f
  7881     0ED2  0BC2               	decfsz	??___fladd& (0+127),f
  7882     0ED3  2ECD               	goto	u3255
  7883     0ED4                     l2748:
  7884     0ED4  3001               	movlw	1
  7885     0ED5  07CC               	addwf	___fladd@bexp,f
  7886     0ED6  2F8B               	goto	l2786
  7887     0ED7                     l2750:
  7888     0ED7  083D               	movf	___fladd@b+3,w
  7889     0ED8  3A80               	xorlw	128
  7890     0ED9  00FF               	movwf	btemp1
  7891     0EDA  0841               	movf	___fladd@a+3,w
  7892     0EDB  3A80               	xorlw	128
  7893     0EDC  027F               	subwf	btemp1,w
  7894     0EDD  1D03               	skipz
  7895     0EDE  2EE9               	goto	u3263
  7896     0EDF  0840               	movf	___fladd@a+2,w
  7897     0EE0  023C               	subwf	___fladd@b+2,w
  7898     0EE1  1D03               	skipz
  7899     0EE2  2EE9               	goto	u3263
  7900     0EE3  083F               	movf	___fladd@a+1,w
  7901     0EE4  023B               	subwf	___fladd@b+1,w
  7902     0EE5  1D03               	skipz
  7903     0EE6  2EE9               	goto	u3263
  7904     0EE7  083E               	movf	___fladd@a,w
  7905     0EE8  023A               	subwf	___fladd@b,w
  7906     0EE9                     u3263:
  7907     0EE9  1803               	skipnc
  7908     0EEA  2EEC               	goto	u3261
  7909     0EEB  2EED               	goto	u3260
  7910     0EEC                     u3261:
  7911     0EEC  2F44               	goto	l2762
  7912     0EED                     u3260:
  7913     0EED                     l2752:
  7914     0EED  30FF               	movlw	255
  7915     0EEE  00C2               	movwf	??___fladd
  7916     0EEF  30FF               	movlw	255
  7917     0EF0  00C3               	movwf	??___fladd+1
  7918     0EF1  30FF               	movlw	255
  7919     0EF2  00C4               	movwf	??___fladd+2
  7920     0EF3  30FF               	movlw	255
  7921     0EF4  00C5               	movwf	??___fladd+3
  7922     0EF5  083E               	movf	___fladd@a,w
  7923     0EF6  00C6               	movwf	??___fladd+4
  7924     0EF7  083F               	movf	___fladd@a+1,w
  7925     0EF8  00C7               	movwf	??___fladd+5
  7926     0EF9  0840               	movf	___fladd@a+2,w
  7927     0EFA  00C8               	movwf	??___fladd+6
  7928     0EFB  0841               	movf	___fladd@a+3,w
  7929     0EFC  00C9               	movwf	??___fladd+7
  7930     0EFD  083A               	movf	___fladd@b,w
  7931     0EFE  02C6               	subwf	??___fladd+4,f
  7932     0EFF  083B               	movf	___fladd@b+1,w
  7933     0F00  1C03               	skipc
  7934     0F01  0F3B               	incfsz	___fladd@b+1,w
  7935     0F02  2F04               	goto	u3271
  7936     0F03  2F05               	goto	u3272
  7937     0F04                     u3271:
  7938     0F04  02C7               	subwf	??___fladd+5,f
  7939     0F05                     u3272:
  7940     0F05  083C               	movf	___fladd@b+2,w
  7941     0F06  1C03               	skipc
  7942     0F07  0F3C               	incfsz	___fladd@b+2,w
  7943     0F08  2F0A               	goto	u3273
  7944     0F09  2F0B               	goto	u3274
  7945     0F0A                     u3273:
  7946     0F0A  02C8               	subwf	??___fladd+6,f
  7947     0F0B                     u3274:
  7948     0F0B  083D               	movf	___fladd@b+3,w
  7949     0F0C  1C03               	skipc
  7950     0F0D  0F3D               	incfsz	___fladd@b+3,w
  7951     0F0E  2F10               	goto	u3275
  7952     0F0F  2F11               	goto	u3276
  7953     0F10                     u3275:
  7954     0F10  02C9               	subwf	??___fladd+7,f
  7955     0F11                     u3276:
  7956     0F11  0846               	movf	??___fladd+4,w
  7957     0F12  07C2               	addwf	??___fladd,f
  7958     0F13  0847               	movf	??___fladd+5,w
  7959     0F14  1803               	skipnc
  7960     0F15  0F47               	incfsz	??___fladd+5,w
  7961     0F16  2F18               	goto	u3280
  7962     0F17  2F19               	goto	u3281
  7963     0F18                     u3280:
  7964     0F18  07C3               	addwf	??___fladd+1,f
  7965     0F19                     u3281:
  7966     0F19  0848               	movf	??___fladd+6,w
  7967     0F1A  1803               	skipnc
  7968     0F1B  0F48               	incfsz	??___fladd+6,w
  7969     0F1C  2F1E               	goto	u3282
  7970     0F1D  2F1F               	goto	u3283
  7971     0F1E                     u3282:
  7972     0F1E  07C4               	addwf	??___fladd+2,f
  7973     0F1F                     u3283:
  7974     0F1F  0849               	movf	??___fladd+7,w
  7975     0F20  1803               	skipnc
  7976     0F21  0A49               	incf	??___fladd+7,w
  7977     0F22  07C5               	addwf	??___fladd+3,f
  7978     0F23  0845               	movf	??___fladd+3,w
  7979     0F24  00BD               	movwf	___fladd@b+3
  7980     0F25  0844               	movf	??___fladd+2,w
  7981     0F26  00BC               	movwf	___fladd@b+2
  7982     0F27  0843               	movf	??___fladd+1,w
  7983     0F28  00BB               	movwf	___fladd@b+1
  7984     0F29  0842               	movf	??___fladd,w
  7985     0F2A  00BA               	movwf	___fladd@b
  7986     0F2B                     l2754:
  7987     0F2B  3080               	movlw	128
  7988     0F2C  06CA               	xorwf	___fladd@signs,f
  7989     0F2D                     l2756:
  7990     0F2D  034D               	decf	___fladd@grs,w
  7991     0F2E  3AFF               	xorlw	255
  7992     0F2F  00CD               	movwf	___fladd@grs
  7993     0F30                     l2758:
  7994     0F30  084D               	movf	___fladd@grs,w
  7995     0F31  1D03               	btfss	3,2
  7996     0F32  2F34               	goto	u3291
  7997     0F33  2F35               	goto	u3290
  7998     0F34                     u3291:
  7999     0F34  2F52               	goto	l674
  8000     0F35                     u3290:
  8001     0F35                     l2760:
  8002     0F35  3001               	movlw	1
  8003     0F36  07BA               	addwf	___fladd@b,f
  8004     0F37  3000               	movlw	0
  8005     0F38  1803               	skipnc
  8006     0F39  3001               	movlw	1
  8007     0F3A  07BB               	addwf	___fladd@b+1,f
  8008     0F3B  3000               	movlw	0
  8009     0F3C  1803               	skipnc
  8010     0F3D  3001               	movlw	1
  8011     0F3E  07BC               	addwf	___fladd@b+2,f
  8012     0F3F  3000               	movlw	0
  8013     0F40  1803               	skipnc
  8014     0F41  3001               	movlw	1
  8015     0F42  07BD               	addwf	___fladd@b+3,f
  8016     0F43  2F52               	goto	l674
  8017     0F44                     l2762:
  8018     0F44  083E               	movf	___fladd@a,w
  8019     0F45  02BA               	subwf	___fladd@b,f
  8020     0F46  083F               	movf	___fladd@a+1,w
  8021     0F47  1C03               	skipc
  8022     0F48  0F3F               	incfsz	___fladd@a+1,w
  8023     0F49  02BB               	subwf	___fladd@b+1,f
  8024     0F4A  0840               	movf	___fladd@a+2,w
  8025     0F4B  1C03               	skipc
  8026     0F4C  0F40               	incfsz	___fladd@a+2,w
  8027     0F4D  02BC               	subwf	___fladd@b+2,f
  8028     0F4E  0841               	movf	___fladd@a+3,w
  8029     0F4F  1C03               	skipc
  8030     0F50  0F41               	incfsz	___fladd@a+3,w
  8031     0F51  02BD               	subwf	___fladd@b+3,f
  8032     0F52                     l674:
  8033     0F52  083D               	movf	___fladd@b+3,w
  8034     0F53  043C               	iorwf	___fladd@b+2,w
  8035     0F54  043B               	iorwf	___fladd@b+1,w
  8036     0F55  043A               	iorwf	___fladd@b,w
  8037     0F56  1D03               	skipz
  8038     0F57  2F59               	goto	u3301
  8039     0F58  2F5A               	goto	u3300
  8040     0F59                     u3301:
  8041     0F59  2F87               	goto	l2784
  8042     0F5A                     u3300:
  8043     0F5A                     l2764:
  8044     0F5A  084D               	movf	___fladd@grs,w
  8045     0F5B  1D03               	btfss	3,2
  8046     0F5C  2F5E               	goto	u3311
  8047     0F5D  2F5F               	goto	u3310
  8048     0F5E                     u3311:
  8049     0F5E  2F87               	goto	l2784
  8050     0F5F                     u3310:
  8051     0F5F                     l2766:
  8052     0F5F  3000               	movlw	0
  8053     0F60  00BD               	movwf	?___fladd+3
  8054     0F61  3000               	movlw	0
  8055     0F62  00BC               	movwf	?___fladd+2
  8056     0F63  3000               	movlw	0
  8057     0F64  00BB               	movwf	?___fladd+1
  8058     0F65  3000               	movlw	0
  8059     0F66  00BA               	movwf	?___fladd
  8060     0F67  2FFF               	goto	l666
  8061     0F68                     l2770:
  8062     0F68  3001               	movlw	1
  8063     0F69  00C2               	movwf	??___fladd
  8064     0F6A                     u3325:
  8065     0F6A  1003               	clrc
  8066     0F6B  0DBA               	rlf	___fladd@b,f
  8067     0F6C  0DBB               	rlf	___fladd@b+1,f
  8068     0F6D  0DBC               	rlf	___fladd@b+2,f
  8069     0F6E  0DBD               	rlf	___fladd@b+3,f
  8070     0F6F  0BC2               	decfsz	??___fladd,f
  8071     0F70  2F6A               	goto	u3325
  8072     0F71                     l2772:
  8073     0F71  1FCD               	btfss	___fladd@grs,7
  8074     0F72  2F74               	goto	u3331
  8075     0F73  2F75               	goto	u3330
  8076     0F74                     u3331:
  8077     0F74  2F76               	goto	l678
  8078     0F75                     u3330:
  8079     0F75                     l2774:
  8080     0F75  143A               	bsf	___fladd@b,0
  8081     0F76                     l678:
  8082     0F76  1C4D               	btfss	___fladd@grs,0
  8083     0F77  2F79               	goto	u3341
  8084     0F78  2F7A               	goto	u3340
  8085     0F79                     u3341:
  8086     0F79  2F7E               	goto	l2778
  8087     0F7A                     u3340:
  8088     0F7A                     l2776:
  8089     0F7A  1403               	setc
  8090     0F7B  0D4D               	rlf	___fladd@grs,w
  8091     0F7C  00CD               	movwf	___fladd@grs
  8092     0F7D  2F80               	goto	l2780
  8093     0F7E                     l2778:
  8094     0F7E  1003               	clrc
  8095     0F7F  0DCD               	rlf	___fladd@grs,f
  8096     0F80                     l2780:
  8097     0F80  084C               	movf	___fladd@bexp,w
  8098     0F81  1903               	btfsc	3,2
  8099     0F82  2F84               	goto	u3351
  8100     0F83  2F85               	goto	u3350
  8101     0F84                     u3351:
  8102     0F84  2F87               	goto	l2784
  8103     0F85                     u3350:
  8104     0F85                     l2782:
  8105     0F85  3001               	movlw	1
  8106     0F86  02CC               	subwf	___fladd@bexp,f
  8107     0F87                     l2784:
  8108     0F87  1FBC               	btfss	___fladd@b+2,7
  8109     0F88  2F8A               	goto	u3361
  8110     0F89  2F8B               	goto	u3360
  8111     0F8A                     u3361:
  8112     0F8A  2F68               	goto	l2770
  8113     0F8B                     u3360:
  8114     0F8B                     l2786:
  8115     0F8B  01CB               	clrf	___fladd@aexp
  8116     0F8C                     l2788:
  8117     0F8C  1FCD               	btfss	___fladd@grs,7
  8118     0F8D  2F8F               	goto	u3371
  8119     0F8E  2F90               	goto	u3370
  8120     0F8F                     u3371:
  8121     0F8F  2F9E               	goto	l2796
  8122     0F90                     u3370:
  8123     0F90                     l2790:
  8124     0F90  084D               	movf	___fladd@grs,w
  8125     0F91  397F               	andlw	127
  8126     0F92  1903               	btfsc	3,2
  8127     0F93  2F95               	goto	u3381
  8128     0F94  2F96               	goto	u3380
  8129     0F95                     u3381:
  8130     0F95  2F99               	goto	l684
  8131     0F96                     u3380:
  8132     0F96                     l2792:
  8133     0F96  3001               	movlw	1
  8134     0F97  00CB               	movwf	___fladd@aexp
  8135     0F98  2F9E               	goto	l2796
  8136     0F99                     l684:
  8137     0F99  1C3A               	btfss	___fladd@b,0
  8138     0F9A  2F9C               	goto	u3391
  8139     0F9B  2F9D               	goto	u3390
  8140     0F9C                     u3391:
  8141     0F9C  2F9E               	goto	l2796
  8142     0F9D                     u3390:
  8143     0F9D  2F96               	goto	l2792
  8144     0F9E                     l2796:
  8145     0F9E  084B               	movf	___fladd@aexp,w
  8146     0F9F  1903               	btfsc	3,2
  8147     0FA0  2FA2               	goto	u3401
  8148     0FA1  2FA3               	goto	u3400
  8149     0FA2                     u3401:
  8150     0FA2  2FD5               	goto	l687
  8151     0FA3                     u3400:
  8152     0FA3                     l2798:
  8153     0FA3  3001               	movlw	1
  8154     0FA4  07BA               	addwf	___fladd@b,f
  8155     0FA5  3000               	movlw	0
  8156     0FA6  1803               	skipnc
  8157     0FA7  3001               	movlw	1
  8158     0FA8  07BB               	addwf	___fladd@b+1,f
  8159     0FA9  3000               	movlw	0
  8160     0FAA  1803               	skipnc
  8161     0FAB  3001               	movlw	1
  8162     0FAC  07BC               	addwf	___fladd@b+2,f
  8163     0FAD  3000               	movlw	0
  8164     0FAE  1803               	skipnc
  8165     0FAF  3001               	movlw	1
  8166     0FB0  07BD               	addwf	___fladd@b+3,f
  8167     0FB1                     l2800:
  8168     0FB1  1C3D               	btfss	___fladd@b+3,0
  8169     0FB2  2FB4               	goto	u3411
  8170     0FB3  2FB5               	goto	u3410
  8171     0FB4                     u3411:
  8172     0FB4  2FD5               	goto	l687
  8173     0FB5                     u3410:
  8174     0FB5                     l2802:
  8175     0FB5  083A               	movf	___fladd@b,w
  8176     0FB6  00C2               	movwf	??___fladd
  8177     0FB7  083B               	movf	___fladd@b+1,w
  8178     0FB8  00C3               	movwf	??___fladd+1
  8179     0FB9  083C               	movf	___fladd@b+2,w
  8180     0FBA  00C4               	movwf	??___fladd+2
  8181     0FBB  083D               	movf	___fladd@b+3,w
  8182     0FBC  00C5               	movwf	??___fladd+3
  8183     0FBD  3001               	movlw	1
  8184     0FBE  00C6               	movwf	??___fladd+4
  8185     0FBF                     u3425:
  8186     0FBF  0D45               	rlf	??___fladd+3,w
  8187     0FC0  0CC5               	rrf	??___fladd+3,f
  8188     0FC1  0CC4               	rrf	??___fladd+2,f
  8189     0FC2  0CC3               	rrf	??___fladd+1,f
  8190     0FC3  0CC2               	rrf	??___fladd,f
  8191     0FC4                     u3420:
  8192     0FC4  0BC6               	decfsz	??___fladd+4,f
  8193     0FC5  2FBF               	goto	u3425
  8194     0FC6  0845               	movf	??___fladd+3,w
  8195     0FC7  00BD               	movwf	___fladd@b+3
  8196     0FC8  0844               	movf	??___fladd+2,w
  8197     0FC9  00BC               	movwf	___fladd@b+2
  8198     0FCA  0843               	movf	??___fladd+1,w
  8199     0FCB  00BB               	movwf	___fladd@b+1
  8200     0FCC  0842               	movf	??___fladd,w
  8201     0FCD  00BA               	movwf	___fladd@b
  8202     0FCE  0A4C               	incf	___fladd@bexp,w
  8203     0FCF  1903               	btfsc	3,2
  8204     0FD0  2FD2               	goto	u3431
  8205     0FD1  2FD3               	goto	u3430
  8206     0FD2                     u3431:
  8207     0FD2  2FD5               	goto	l687
  8208     0FD3                     u3430:
  8209     0FD3                     l2804:
  8210     0FD3  3001               	movlw	1
  8211     0FD4  07CC               	addwf	___fladd@bexp,f
  8212     0FD5                     l687:
  8213     0FD5  0A4C               	incf	___fladd@bexp,w
  8214     0FD6  1903               	btfsc	3,2
  8215     0FD7  2FD9               	goto	u3441
  8216     0FD8  2FDA               	goto	u3440
  8217     0FD9                     u3441:
  8218     0FD9  2FDF               	goto	l2808
  8219     0FDA                     u3440:
  8220     0FDA                     l2806:
  8221     0FDA  084C               	movf	___fladd@bexp,w
  8222     0FDB  1D03               	btfss	3,2
  8223     0FDC  2FDE               	goto	u3451
  8224     0FDD  2FDF               	goto	u3450
  8225     0FDE                     u3451:
  8226     0FDE  2FED               	goto	l2814
  8227     0FDF                     u3450:
  8228     0FDF                     l2808:
  8229     0FDF  3000               	movlw	0
  8230     0FE0  00BD               	movwf	___fladd@b+3
  8231     0FE1  3000               	movlw	0
  8232     0FE2  00BC               	movwf	___fladd@b+2
  8233     0FE3  3000               	movlw	0
  8234     0FE4  00BB               	movwf	___fladd@b+1
  8235     0FE5  3000               	movlw	0
  8236     0FE6  00BA               	movwf	___fladd@b
  8237     0FE7                     l2810:
  8238     0FE7  084C               	movf	___fladd@bexp,w
  8239     0FE8  1D03               	btfss	3,2
  8240     0FE9  2FEB               	goto	u3461
  8241     0FEA  2FEC               	goto	u3460
  8242     0FEB                     u3461:
  8243     0FEB  2FED               	goto	l2814
  8244     0FEC                     u3460:
  8245     0FEC                     l2812:
  8246     0FEC  01CA               	clrf	___fladd@signs
  8247     0FED                     l2814:
  8248     0FED  1C4C               	btfss	___fladd@bexp,0
  8249     0FEE  2FF0               	goto	u3471
  8250     0FEF  2FF1               	goto	u3470
  8251     0FF0                     u3471:
  8252     0FF0  2FF3               	goto	l2818
  8253     0FF1                     u3470:
  8254     0FF1                     l2816:
  8255     0FF1  17BC               	bsf	___fladd@b+2,7
  8256     0FF2  2FF5               	goto	l695
  8257     0FF3                     l2818:
  8258     0FF3  307F               	movlw	127
  8259     0FF4  05BC               	andwf	___fladd@b+2,f
  8260     0FF5                     l695:
  8261     0FF5  084C               	movf	___fladd@bexp,w
  8262     0FF6  00C2               	movwf	??___fladd
  8263     0FF7  1003               	clrc
  8264     0FF8  0C42               	rrf	??___fladd,w
  8265     0FF9  00BD               	movwf	___fladd@b+3
  8266     0FFA                     l2820:
  8267     0FFA  1FCA               	btfss	___fladd@signs,7
  8268     0FFB  2FFD               	goto	u3481
  8269     0FFC  2FFE               	goto	u3480
  8270     0FFD                     u3481:
  8271     0FFD  2FFF               	goto	l696
  8272     0FFE                     u3480:
  8273     0FFE                     l2822:
  8274     0FFE  17BD               	bsf	___fladd@b+3,7
  8275     0FFF                     l696:
  8276     0FFF                     l666:
  8277     0FFF  0008               	return
  8278     1000                     __end_of___fladd:
  8279                           
  8280                           	psect	text33
  8281     0146                     __ptext33:	
  8282 ;; *************** function ___flmul *****************
  8283 ;; Defined at:
  8284 ;;		line 8 in file "C:\Program Files\Microchip\xc8\v3.10\pic\sources\c99\common\sprcmul.c"
  8285 ;; Parameters:    Size  Location     Type
  8286 ;;  b               4   54[BANK0 ] unsigned char 
  8287 ;;  a               4   58[BANK0 ] unsigned char 
  8288 ;; Auto vars:     Size  Location     Type
  8289 ;;  prod            4   74[BANK0 ] struct .
  8290 ;;  grs             4   68[BANK0 ] unsigned long 
  8291 ;;  temp            2   78[BANK0 ] struct .
  8292 ;;  bexp            1   73[BANK0 ] unsigned char 
  8293 ;;  aexp            1   72[BANK0 ] unsigned char 
  8294 ;;  sign            1   67[BANK0 ] unsigned char 
  8295 ;; Return value:  Size  Location     Type
  8296 ;;                  4   54[BANK0 ] unsigned char 
  8297 ;; Registers used:
  8298 ;;		wreg, status,2, status,0, pclath, btemp1, cstack
  8299 ;; Tracked objects:
  8300 ;;		On entry : 0/0
  8301 ;;		On exit  : 0/0
  8302 ;;		Unchanged: 0/0
  8303 ;; Data sizes:     COMMON   BANK0   BANK1   BANK3   BANK2
  8304 ;;      Params:         0       8       0       0       0
  8305 ;;      Locals:         0      13       0       0       0
  8306 ;;      Temps:          0       5       0       0       0
  8307 ;;      Totals:         0      26       0       0       0
  8308 ;;Total ram usage:       26 bytes
  8309 ;; Hardware stack levels used: 1
  8310 ;; Hardware stack levels required when called: 1
  8311 ;; This function calls:
  8312 ;;		__Umul8_16
  8313 ;; This function is called by:
  8314 ;;		_main
  8315 ;; This function uses a non-reentrant model
  8316 ;;
  8317                           
  8318     0146                     ___flmul:	
  8319                           ;psect for function ___flmul
  8320                           
  8321     0146                     l3300:	
  8322                           ;incstack = 0
  8323                           ; Regs used in ___flmul: [wreg+status,2+status,0+pclath+btemp1+cstack]
  8324                           
  8325     0146  1283               	bcf	3,5	;RP0=0, select bank0
  8326     0147  1303               	bcf	3,6	;RP1=0, select bank0
  8327     0148  0859               	movf	___flmul@b+3,w
  8328     0149  00E3               	movwf	___flmul@sign
  8329     014A                     l3302:
  8330     014A  3080               	movlw	128
  8331     014B  05E3               	andwf	___flmul@sign,f
  8332     014C                     l3304:
  8333     014C  0859               	movf	___flmul@b+3,w
  8334     014D  00DE               	movwf	??___flmul
  8335     014E  075E               	addwf	??___flmul,w
  8336     014F  00E9               	movwf	___flmul@bexp
  8337     0150                     l3306:
  8338     0150  1FD8               	btfss	___flmul@b+2,7
  8339     0151  2953               	goto	u4211
  8340     0152  2954               	goto	u4210
  8341     0153                     u4211:
  8342     0153  2955               	goto	l3310
  8343     0154                     u4210:
  8344     0154                     l3308:
  8345     0154  1469               	bsf	___flmul@bexp,0
  8346     0155                     l3310:
  8347     0155  0869               	movf	___flmul@bexp,w
  8348     0156  1903               	btfsc	3,2
  8349     0157  2959               	goto	u4221
  8350     0158  295A               	goto	u4220
  8351     0159                     u4221:
  8352     0159  2969               	goto	l3318
  8353     015A                     u4220:
  8354     015A                     l3312:
  8355     015A  0A69               	incf	___flmul@bexp,w
  8356     015B  1D03               	btfss	3,2
  8357     015C  295E               	goto	u4231
  8358     015D  295F               	goto	u4230
  8359     015E                     u4231:
  8360     015E  2967               	goto	l3316
  8361     015F                     u4230:
  8362     015F                     l3314:
  8363     015F  3000               	movlw	0
  8364     0160  00D9               	movwf	___flmul@b+3
  8365     0161  3000               	movlw	0
  8366     0162  00D8               	movwf	___flmul@b+2
  8367     0163  3000               	movlw	0
  8368     0164  00D7               	movwf	___flmul@b+1
  8369     0165  3000               	movlw	0
  8370     0166  00D6               	movwf	___flmul@b
  8371     0167                     l3316:
  8372     0167  17D8               	bsf	___flmul@b+2,7
  8373     0168  2971               	goto	l3320
  8374     0169                     l3318:
  8375     0169  3000               	movlw	0
  8376     016A  00D9               	movwf	___flmul@b+3
  8377     016B  3000               	movlw	0
  8378     016C  00D8               	movwf	___flmul@b+2
  8379     016D  3000               	movlw	0
  8380     016E  00D7               	movwf	___flmul@b+1
  8381     016F  3000               	movlw	0
  8382     0170  00D6               	movwf	___flmul@b
  8383     0171                     l3320:
  8384     0171  085D               	movf	___flmul@a+3,w
  8385     0172  3980               	andlw	128
  8386     0173  06E3               	xorwf	___flmul@sign,f
  8387     0174                     l3322:
  8388     0174  085D               	movf	___flmul@a+3,w
  8389     0175  00DE               	movwf	??___flmul
  8390     0176  075E               	addwf	??___flmul,w
  8391     0177  00E8               	movwf	___flmul@aexp
  8392     0178                     l3324:
  8393     0178  1FDC               	btfss	___flmul@a+2,7
  8394     0179  297B               	goto	u4241
  8395     017A  297C               	goto	u4240
  8396     017B                     u4241:
  8397     017B  297D               	goto	l3328
  8398     017C                     u4240:
  8399     017C                     l3326:
  8400     017C  1468               	bsf	___flmul@aexp,0
  8401     017D                     l3328:
  8402     017D  0868               	movf	___flmul@aexp,w
  8403     017E  1903               	btfsc	3,2
  8404     017F  2981               	goto	u4251
  8405     0180  2982               	goto	u4250
  8406     0181                     u4251:
  8407     0181  2991               	goto	l3336
  8408     0182                     u4250:
  8409     0182                     l3330:
  8410     0182  0A68               	incf	___flmul@aexp,w
  8411     0183  1D03               	btfss	3,2
  8412     0184  2986               	goto	u4261
  8413     0185  2987               	goto	u4260
  8414     0186                     u4261:
  8415     0186  298F               	goto	l3334
  8416     0187                     u4260:
  8417     0187                     l3332:
  8418     0187  3000               	movlw	0
  8419     0188  00DD               	movwf	___flmul@a+3
  8420     0189  3000               	movlw	0
  8421     018A  00DC               	movwf	___flmul@a+2
  8422     018B  3000               	movlw	0
  8423     018C  00DB               	movwf	___flmul@a+1
  8424     018D  3000               	movlw	0
  8425     018E  00DA               	movwf	___flmul@a
  8426     018F                     l3334:
  8427     018F  17DC               	bsf	___flmul@a+2,7
  8428     0190  2999               	goto	l3338
  8429     0191                     l3336:
  8430     0191  3000               	movlw	0
  8431     0192  00DD               	movwf	___flmul@a+3
  8432     0193  3000               	movlw	0
  8433     0194  00DC               	movwf	___flmul@a+2
  8434     0195  3000               	movlw	0
  8435     0196  00DB               	movwf	___flmul@a+1
  8436     0197  3000               	movlw	0
  8437     0198  00DA               	movwf	___flmul@a
  8438     0199                     l3338:
  8439     0199  0868               	movf	___flmul@aexp,w
  8440     019A  1903               	btfsc	3,2
  8441     019B  299D               	goto	u4271
  8442     019C  299E               	goto	u4270
  8443     019D                     u4271:
  8444     019D  29A3               	goto	l3342
  8445     019E                     u4270:
  8446     019E                     l3340:
  8447     019E  0869               	movf	___flmul@bexp,w
  8448     019F  1D03               	btfss	3,2
  8449     01A0  29A2               	goto	u4281
  8450     01A1  29A3               	goto	u4280
  8451     01A2                     u4281:
  8452     01A2  29AC               	goto	l3346
  8453     01A3                     u4280:
  8454     01A3                     l3342:
  8455     01A3  3000               	movlw	0
  8456     01A4  00D9               	movwf	?___flmul+3
  8457     01A5  3000               	movlw	0
  8458     01A6  00D8               	movwf	?___flmul+2
  8459     01A7  3000               	movlw	0
  8460     01A8  00D7               	movwf	?___flmul+1
  8461     01A9  3000               	movlw	0
  8462     01AA  00D6               	movwf	?___flmul
  8463     01AB  2C87               	goto	l749
  8464     01AC                     l3346:
  8465     01AC  0856               	movf	___flmul@b,w
  8466     01AD  00F0               	movwf	__Umul8_16@multiplicand
  8467     01AE  085C               	movf	___flmul@a+2,w
  8468     01AF  160A  118A  2316  120A  118A  	fcall	__Umul8_16
  8469     01B4  0871               	movf	?__Umul8_16+1,w
  8470     01B5  1283               	bcf	3,5	;RP0=0, select bank0
  8471     01B6  1303               	bcf	3,6	;RP1=0, select bank0
  8472     01B7  00EF               	movwf	___flmul@temp+1
  8473     01B8  0870               	movf	?__Umul8_16,w
  8474     01B9  00EE               	movwf	___flmul@temp
  8475     01BA                     l3348:
  8476     01BA  086E               	movf	___flmul@temp,w
  8477     01BB  00DE               	movwf	??___flmul
  8478     01BC  01DF               	clrf	??___flmul+1
  8479     01BD  01E0               	clrf	??___flmul+2
  8480     01BE  01E1               	clrf	??___flmul+3
  8481     01BF  0861               	movf	??___flmul+3,w
  8482     01C0  00E7               	movwf	___flmul@grs+3
  8483     01C1  0860               	movf	??___flmul+2,w
  8484     01C2  00E6               	movwf	___flmul@grs+2
  8485     01C3  085F               	movf	??___flmul+1,w
  8486     01C4  00E5               	movwf	___flmul@grs+1
  8487     01C5  085E               	movf	??___flmul,w
  8488     01C6  00E4               	movwf	___flmul@grs
  8489     01C7                     l3350:
  8490     01C7  086F               	movf	___flmul@temp+1,w
  8491     01C8  00DE               	movwf	??___flmul
  8492     01C9  01DF               	clrf	??___flmul+1
  8493     01CA  01E0               	clrf	??___flmul+2
  8494     01CB  01E1               	clrf	??___flmul+3
  8495     01CC  0861               	movf	??___flmul+3,w
  8496     01CD  00ED               	movwf	___flmul@prod+3
  8497     01CE  0860               	movf	??___flmul+2,w
  8498     01CF  00EC               	movwf	___flmul@prod+2
  8499     01D0  085F               	movf	??___flmul+1,w
  8500     01D1  00EB               	movwf	___flmul@prod+1
  8501     01D2  085E               	movf	??___flmul,w
  8502     01D3  00EA               	movwf	___flmul@prod
  8503     01D4  0857               	movf	___flmul@b+1,w
  8504     01D5  00F0               	movwf	__Umul8_16@multiplicand
  8505     01D6  085B               	movf	___flmul@a+1,w
  8506     01D7  160A  118A  2316  120A  118A  	fcall	__Umul8_16
  8507     01DC  0871               	movf	?__Umul8_16+1,w
  8508     01DD  1283               	bcf	3,5	;RP0=0, select bank0
  8509     01DE  1303               	bcf	3,6	;RP1=0, select bank0
  8510     01DF  00EF               	movwf	___flmul@temp+1
  8511     01E0  0870               	movf	?__Umul8_16,w
  8512     01E1  00EE               	movwf	___flmul@temp
  8513     01E2                     l3352:
  8514     01E2  086E               	movf	___flmul@temp,w
  8515     01E3  00DE               	movwf	??___flmul
  8516     01E4  01DF               	clrf	??___flmul+1
  8517     01E5  01E0               	clrf	??___flmul+2
  8518     01E6  01E1               	clrf	??___flmul+3
  8519     01E7  085E               	movf	??___flmul,w
  8520     01E8  07E4               	addwf	___flmul@grs,f
  8521     01E9  085F               	movf	??___flmul+1,w
  8522     01EA  1103               	clrz
  8523     01EB  1803               	skipnc
  8524     01EC  3E01               	addlw	1
  8525     01ED  1903               	skipnz
  8526     01EE  29F0               	goto	u4291
  8527     01EF  07E5               	addwf	___flmul@grs+1,f
  8528     01F0                     u4291:
  8529     01F0  0860               	movf	??___flmul+2,w
  8530     01F1  1103               	clrz
  8531     01F2  1803               	skipnc
  8532     01F3  3E01               	addlw	1
  8533     01F4  1903               	skipnz
  8534     01F5  29F7               	goto	u4292
  8535     01F6  07E6               	addwf	___flmul@grs+2,f
  8536     01F7                     u4292:
  8537     01F7  0861               	movf	??___flmul+3,w
  8538     01F8  1103               	clrz
  8539     01F9  1803               	skipnc
  8540     01FA  3E01               	addlw	1
  8541     01FB  1903               	skipnz
  8542     01FC  29FE               	goto	u4293
  8543     01FD  07E7               	addwf	___flmul@grs+3,f
  8544     01FE                     u4293:
  8545     01FE                     l3354:
  8546     01FE  086F               	movf	___flmul@temp+1,w
  8547     01FF  00DE               	movwf	??___flmul
  8548     0200  01DF               	clrf	??___flmul+1
  8549     0201  01E0               	clrf	??___flmul+2
  8550     0202  01E1               	clrf	??___flmul+3
  8551     0203  085E               	movf	??___flmul,w
  8552     0204  07EA               	addwf	___flmul@prod,f
  8553     0205  085F               	movf	??___flmul+1,w
  8554     0206  1103               	clrz
  8555     0207  1803               	skipnc
  8556     0208  3E01               	addlw	1
  8557     0209  1903               	skipnz
  8558     020A  2A0C               	goto	u4301
  8559     020B  07EB               	addwf	___flmul@prod+1,f
  8560     020C                     u4301:
  8561     020C  0860               	movf	??___flmul+2,w
  8562     020D  1103               	clrz
  8563     020E  1803               	skipnc
  8564     020F  3E01               	addlw	1
  8565     0210  1903               	skipnz
  8566     0211  2A13               	goto	u4302
  8567     0212  07EC               	addwf	___flmul@prod+2,f
  8568     0213                     u4302:
  8569     0213  0861               	movf	??___flmul+3,w
  8570     0214  1103               	clrz
  8571     0215  1803               	skipnc
  8572     0216  3E01               	addlw	1
  8573     0217  1903               	skipnz
  8574     0218  2A1A               	goto	u4303
  8575     0219  07ED               	addwf	___flmul@prod+3,f
  8576     021A                     u4303:
  8577     021A  0858               	movf	___flmul@b+2,w
  8578     021B  00F0               	movwf	__Umul8_16@multiplicand
  8579     021C  085A               	movf	___flmul@a,w
  8580     021D  160A  118A  2316  120A  118A  	fcall	__Umul8_16
  8581     0222  0871               	movf	?__Umul8_16+1,w
  8582     0223  1283               	bcf	3,5	;RP0=0, select bank0
  8583     0224  1303               	bcf	3,6	;RP1=0, select bank0
  8584     0225  00EF               	movwf	___flmul@temp+1
  8585     0226  0870               	movf	?__Umul8_16,w
  8586     0227  00EE               	movwf	___flmul@temp
  8587     0228                     l3356:
  8588     0228  086E               	movf	___flmul@temp,w
  8589     0229  00DE               	movwf	??___flmul
  8590     022A  01DF               	clrf	??___flmul+1
  8591     022B  01E0               	clrf	??___flmul+2
  8592     022C  01E1               	clrf	??___flmul+3
  8593     022D  085E               	movf	??___flmul,w
  8594     022E  07E4               	addwf	___flmul@grs,f
  8595     022F  085F               	movf	??___flmul+1,w
  8596     0230  1103               	clrz
  8597     0231  1803               	skipnc
  8598     0232  3E01               	addlw	1
  8599     0233  1903               	skipnz
  8600     0234  2A36               	goto	u4311
  8601     0235  07E5               	addwf	___flmul@grs+1,f
  8602     0236                     u4311:
  8603     0236  0860               	movf	??___flmul+2,w
  8604     0237  1103               	clrz
  8605     0238  1803               	skipnc
  8606     0239  3E01               	addlw	1
  8607     023A  1903               	skipnz
  8608     023B  2A3D               	goto	u4312
  8609     023C  07E6               	addwf	___flmul@grs+2,f
  8610     023D                     u4312:
  8611     023D  0861               	movf	??___flmul+3,w
  8612     023E  1103               	clrz
  8613     023F  1803               	skipnc
  8614     0240  3E01               	addlw	1
  8615     0241  1903               	skipnz
  8616     0242  2A44               	goto	u4313
  8617     0243  07E7               	addwf	___flmul@grs+3,f
  8618     0244                     u4313:
  8619     0244                     l3358:
  8620     0244  086F               	movf	___flmul@temp+1,w
  8621     0245  00DE               	movwf	??___flmul
  8622     0246  01DF               	clrf	??___flmul+1
  8623     0247  01E0               	clrf	??___flmul+2
  8624     0248  01E1               	clrf	??___flmul+3
  8625     0249  085E               	movf	??___flmul,w
  8626     024A  07EA               	addwf	___flmul@prod,f
  8627     024B  085F               	movf	??___flmul+1,w
  8628     024C  1103               	clrz
  8629     024D  1803               	skipnc
  8630     024E  3E01               	addlw	1
  8631     024F  1903               	skipnz
  8632     0250  2A52               	goto	u4321
  8633     0251  07EB               	addwf	___flmul@prod+1,f
  8634     0252                     u4321:
  8635     0252  0860               	movf	??___flmul+2,w
  8636     0253  1103               	clrz
  8637     0254  1803               	skipnc
  8638     0255  3E01               	addlw	1
  8639     0256  1903               	skipnz
  8640     0257  2A59               	goto	u4322
  8641     0258  07EC               	addwf	___flmul@prod+2,f
  8642     0259                     u4322:
  8643     0259  0861               	movf	??___flmul+3,w
  8644     025A  1103               	clrz
  8645     025B  1803               	skipnc
  8646     025C  3E01               	addlw	1
  8647     025D  1903               	skipnz
  8648     025E  2A60               	goto	u4323
  8649     025F  07ED               	addwf	___flmul@prod+3,f
  8650     0260                     u4323:
  8651     0260                     l3360:
  8652     0260  3008               	movlw	8
  8653     0261  00DE               	movwf	??___flmul
  8654     0262                     u4335:
  8655     0262  1003               	clrc
  8656     0263  0DE4               	rlf	___flmul@grs,f
  8657     0264  0DE5               	rlf	___flmul@grs+1,f
  8658     0265  0DE6               	rlf	___flmul@grs+2,f
  8659     0266  0DE7               	rlf	___flmul@grs+3,f
  8660     0267  0BDE               	decfsz	??___flmul,f
  8661     0268  2A62               	goto	u4335
  8662     0269                     l3362:
  8663     0269  0857               	movf	___flmul@b+1,w
  8664     026A  00F0               	movwf	__Umul8_16@multiplicand
  8665     026B  085A               	movf	___flmul@a,w
  8666     026C  160A  118A  2316  120A  118A  	fcall	__Umul8_16
  8667     0271  0871               	movf	?__Umul8_16+1,w
  8668     0272  1283               	bcf	3,5	;RP0=0, select bank0
  8669     0273  1303               	bcf	3,6	;RP1=0, select bank0
  8670     0274  00EF               	movwf	___flmul@temp+1
  8671     0275  0870               	movf	?__Umul8_16,w
  8672     0276  00EE               	movwf	___flmul@temp
  8673     0277                     l3364:
  8674     0277  086E               	movf	___flmul@temp,w
  8675     0278  00DE               	movwf	??___flmul
  8676     0279  086F               	movf	___flmul@temp+1,w
  8677     027A  00DF               	movwf	??___flmul+1
  8678     027B  01E0               	clrf	??___flmul+2
  8679     027C  01E1               	clrf	??___flmul+3
  8680     027D  085E               	movf	??___flmul,w
  8681     027E  07E4               	addwf	___flmul@grs,f
  8682     027F  085F               	movf	??___flmul+1,w
  8683     0280  1103               	clrz
  8684     0281  1803               	skipnc
  8685     0282  3E01               	addlw	1
  8686     0283  1903               	skipnz
  8687     0284  2A86               	goto	u4341
  8688     0285  07E5               	addwf	___flmul@grs+1,f
  8689     0286                     u4341:
  8690     0286  0860               	movf	??___flmul+2,w
  8691     0287  1103               	clrz
  8692     0288  1803               	skipnc
  8693     0289  3E01               	addlw	1
  8694     028A  1903               	skipnz
  8695     028B  2A8D               	goto	u4342
  8696     028C  07E6               	addwf	___flmul@grs+2,f
  8697     028D                     u4342:
  8698     028D  0861               	movf	??___flmul+3,w
  8699     028E  1103               	clrz
  8700     028F  1803               	skipnc
  8701     0290  3E01               	addlw	1
  8702     0291  1903               	skipnz
  8703     0292  2A94               	goto	u4343
  8704     0293  07E7               	addwf	___flmul@grs+3,f
  8705     0294                     u4343:
  8706     0294                     l3366:
  8707     0294  0856               	movf	___flmul@b,w
  8708     0295  00F0               	movwf	__Umul8_16@multiplicand
  8709     0296  085B               	movf	___flmul@a+1,w
  8710     0297  160A  118A  2316  120A  118A  	fcall	__Umul8_16
  8711     029C  0871               	movf	?__Umul8_16+1,w
  8712     029D  1283               	bcf	3,5	;RP0=0, select bank0
  8713     029E  1303               	bcf	3,6	;RP1=0, select bank0
  8714     029F  00EF               	movwf	___flmul@temp+1
  8715     02A0  0870               	movf	?__Umul8_16,w
  8716     02A1  00EE               	movwf	___flmul@temp
  8717     02A2                     l3368:
  8718     02A2  086E               	movf	___flmul@temp,w
  8719     02A3  00DE               	movwf	??___flmul
  8720     02A4  086F               	movf	___flmul@temp+1,w
  8721     02A5  00DF               	movwf	??___flmul+1
  8722     02A6  01E0               	clrf	??___flmul+2
  8723     02A7  01E1               	clrf	??___flmul+3
  8724     02A8  085E               	movf	??___flmul,w
  8725     02A9  07E4               	addwf	___flmul@grs,f
  8726     02AA  085F               	movf	??___flmul+1,w
  8727     02AB  1103               	clrz
  8728     02AC  1803               	skipnc
  8729     02AD  3E01               	addlw	1
  8730     02AE  1903               	skipnz
  8731     02AF  2AB1               	goto	u4351
  8732     02B0  07E5               	addwf	___flmul@grs+1,f
  8733     02B1                     u4351:
  8734     02B1  0860               	movf	??___flmul+2,w
  8735     02B2  1103               	clrz
  8736     02B3  1803               	skipnc
  8737     02B4  3E01               	addlw	1
  8738     02B5  1903               	skipnz
  8739     02B6  2AB8               	goto	u4352
  8740     02B7  07E6               	addwf	___flmul@grs+2,f
  8741     02B8                     u4352:
  8742     02B8  0861               	movf	??___flmul+3,w
  8743     02B9  1103               	clrz
  8744     02BA  1803               	skipnc
  8745     02BB  3E01               	addlw	1
  8746     02BC  1903               	skipnz
  8747     02BD  2ABF               	goto	u4353
  8748     02BE  07E7               	addwf	___flmul@grs+3,f
  8749     02BF                     u4353:
  8750     02BF                     l3370:
  8751     02BF  3008               	movlw	8
  8752     02C0  00DE               	movwf	??___flmul
  8753     02C1                     u4365:
  8754     02C1  1003               	clrc
  8755     02C2  0DE4               	rlf	___flmul@grs,f
  8756     02C3  0DE5               	rlf	___flmul@grs+1,f
  8757     02C4  0DE6               	rlf	___flmul@grs+2,f
  8758     02C5  0DE7               	rlf	___flmul@grs+3,f
  8759     02C6  0BDE               	decfsz	??___flmul,f
  8760     02C7  2AC1               	goto	u4365
  8761     02C8  0856               	movf	___flmul@b,w
  8762     02C9  00F0               	movwf	__Umul8_16@multiplicand
  8763     02CA  085A               	movf	___flmul@a,w
  8764     02CB  160A  118A  2316  120A  118A  	fcall	__Umul8_16
  8765     02D0  0871               	movf	?__Umul8_16+1,w
  8766     02D1  1283               	bcf	3,5	;RP0=0, select bank0
  8767     02D2  1303               	bcf	3,6	;RP1=0, select bank0
  8768     02D3  00EF               	movwf	___flmul@temp+1
  8769     02D4  0870               	movf	?__Umul8_16,w
  8770     02D5  00EE               	movwf	___flmul@temp
  8771     02D6                     l3372:
  8772     02D6  086E               	movf	___flmul@temp,w
  8773     02D7  00DE               	movwf	??___flmul
  8774     02D8  086F               	movf	___flmul@temp+1,w
  8775     02D9  00DF               	movwf	??___flmul+1
  8776     02DA  01E0               	clrf	??___flmul+2
  8777     02DB  01E1               	clrf	??___flmul+3
  8778     02DC  085E               	movf	??___flmul,w
  8779     02DD  07E4               	addwf	___flmul@grs,f
  8780     02DE  085F               	movf	??___flmul+1,w
  8781     02DF  1103               	clrz
  8782     02E0  1803               	skipnc
  8783     02E1  3E01               	addlw	1
  8784     02E2  1903               	skipnz
  8785     02E3  2AE5               	goto	u4371
  8786     02E4  07E5               	addwf	___flmul@grs+1,f
  8787     02E5                     u4371:
  8788     02E5  0860               	movf	??___flmul+2,w
  8789     02E6  1103               	clrz
  8790     02E7  1803               	skipnc
  8791     02E8  3E01               	addlw	1
  8792     02E9  1903               	skipnz
  8793     02EA  2AEC               	goto	u4372
  8794     02EB  07E6               	addwf	___flmul@grs+2,f
  8795     02EC                     u4372:
  8796     02EC  0861               	movf	??___flmul+3,w
  8797     02ED  1103               	clrz
  8798     02EE  1803               	skipnc
  8799     02EF  3E01               	addlw	1
  8800     02F0  1903               	skipnz
  8801     02F1  2AF3               	goto	u4373
  8802     02F2  07E7               	addwf	___flmul@grs+3,f
  8803     02F3                     u4373:
  8804     02F3                     l3374:
  8805     02F3  0857               	movf	___flmul@b+1,w
  8806     02F4  00F0               	movwf	__Umul8_16@multiplicand
  8807     02F5  085C               	movf	___flmul@a+2,w
  8808     02F6  160A  118A  2316  120A  118A  	fcall	__Umul8_16
  8809     02FB  0871               	movf	?__Umul8_16+1,w
  8810     02FC  1283               	bcf	3,5	;RP0=0, select bank0
  8811     02FD  1303               	bcf	3,6	;RP1=0, select bank0
  8812     02FE  00EF               	movwf	___flmul@temp+1
  8813     02FF  0870               	movf	?__Umul8_16,w
  8814     0300  00EE               	movwf	___flmul@temp
  8815     0301  086E               	movf	___flmul@temp,w
  8816     0302  00DE               	movwf	??___flmul
  8817     0303  086F               	movf	___flmul@temp+1,w
  8818     0304  00DF               	movwf	??___flmul+1
  8819     0305  01E0               	clrf	??___flmul+2
  8820     0306  01E1               	clrf	??___flmul+3
  8821     0307  085E               	movf	??___flmul,w
  8822     0308  07EA               	addwf	___flmul@prod,f
  8823     0309  085F               	movf	??___flmul+1,w
  8824     030A  1103               	clrz
  8825     030B  1803               	skipnc
  8826     030C  3E01               	addlw	1
  8827     030D  1903               	skipnz
  8828     030E  2B10               	goto	u4381
  8829     030F  07EB               	addwf	___flmul@prod+1,f
  8830     0310                     u4381:
  8831     0310  0860               	movf	??___flmul+2,w
  8832     0311  1103               	clrz
  8833     0312  1803               	skipnc
  8834     0313  3E01               	addlw	1
  8835     0314  1903               	skipnz
  8836     0315  2B17               	goto	u4382
  8837     0316  07EC               	addwf	___flmul@prod+2,f
  8838     0317                     u4382:
  8839     0317  0861               	movf	??___flmul+3,w
  8840     0318  1103               	clrz
  8841     0319  1803               	skipnc
  8842     031A  3E01               	addlw	1
  8843     031B  1903               	skipnz
  8844     031C  2B1E               	goto	u4383
  8845     031D  07ED               	addwf	___flmul@prod+3,f
  8846     031E                     u4383:
  8847     031E                     l3376:
  8848     031E  0858               	movf	___flmul@b+2,w
  8849     031F  00F0               	movwf	__Umul8_16@multiplicand
  8850     0320  085B               	movf	___flmul@a+1,w
  8851     0321  160A  118A  2316  120A  118A  	fcall	__Umul8_16
  8852     0326  0871               	movf	?__Umul8_16+1,w
  8853     0327  1283               	bcf	3,5	;RP0=0, select bank0
  8854     0328  1303               	bcf	3,6	;RP1=0, select bank0
  8855     0329  00EF               	movwf	___flmul@temp+1
  8856     032A  0870               	movf	?__Umul8_16,w
  8857     032B  00EE               	movwf	___flmul@temp
  8858     032C                     l3378:
  8859     032C  086E               	movf	___flmul@temp,w
  8860     032D  00DE               	movwf	??___flmul
  8861     032E  086F               	movf	___flmul@temp+1,w
  8862     032F  00DF               	movwf	??___flmul+1
  8863     0330  01E0               	clrf	??___flmul+2
  8864     0331  01E1               	clrf	??___flmul+3
  8865     0332  085E               	movf	??___flmul,w
  8866     0333  07EA               	addwf	___flmul@prod,f
  8867     0334  085F               	movf	??___flmul+1,w
  8868     0335  1103               	clrz
  8869     0336  1803               	skipnc
  8870     0337  3E01               	addlw	1
  8871     0338  1903               	skipnz
  8872     0339  2B3B               	goto	u4391
  8873     033A  07EB               	addwf	___flmul@prod+1,f
  8874     033B                     u4391:
  8875     033B  0860               	movf	??___flmul+2,w
  8876     033C  1103               	clrz
  8877     033D  1803               	skipnc
  8878     033E  3E01               	addlw	1
  8879     033F  1903               	skipnz
  8880     0340  2B42               	goto	u4392
  8881     0341  07EC               	addwf	___flmul@prod+2,f
  8882     0342                     u4392:
  8883     0342  0861               	movf	??___flmul+3,w
  8884     0343  1103               	clrz
  8885     0344  1803               	skipnc
  8886     0345  3E01               	addlw	1
  8887     0346  1903               	skipnz
  8888     0347  2B49               	goto	u4393
  8889     0348  07ED               	addwf	___flmul@prod+3,f
  8890     0349                     u4393:
  8891     0349  0858               	movf	___flmul@b+2,w
  8892     034A  00F0               	movwf	__Umul8_16@multiplicand
  8893     034B  085C               	movf	___flmul@a+2,w
  8894     034C  160A  118A  2316  120A  118A  	fcall	__Umul8_16
  8895     0351  0871               	movf	?__Umul8_16+1,w
  8896     0352  1283               	bcf	3,5	;RP0=0, select bank0
  8897     0353  1303               	bcf	3,6	;RP1=0, select bank0
  8898     0354  00EF               	movwf	___flmul@temp+1
  8899     0355  0870               	movf	?__Umul8_16,w
  8900     0356  00EE               	movwf	___flmul@temp
  8901     0357                     l3380:
  8902     0357  086E               	movf	___flmul@temp,w
  8903     0358  00DE               	movwf	??___flmul
  8904     0359  086F               	movf	___flmul@temp+1,w
  8905     035A  00DF               	movwf	??___flmul+1
  8906     035B  01E0               	clrf	??___flmul+2
  8907     035C  01E1               	clrf	??___flmul+3
  8908     035D  3008               	movlw	8
  8909     035E                     u4405:
  8910     035E  1003               	clrc
  8911     035F  0DDE               	rlf	??___flmul,f
  8912     0360  0DDF               	rlf	??___flmul+1,f
  8913     0361  0DE0               	rlf	??___flmul+2,f
  8914     0362  0DE1               	rlf	??___flmul+3,f
  8915     0363                     u4400:
  8916     0363  3EFF               	addlw	-1
  8917     0364  1D03               	skipz
  8918     0365  2B5E               	goto	u4405
  8919     0366  085E               	movf	??___flmul,w
  8920     0367  07EA               	addwf	___flmul@prod,f
  8921     0368  085F               	movf	??___flmul+1,w
  8922     0369  1103               	clrz
  8923     036A  1803               	skipnc
  8924     036B  3E01               	addlw	1
  8925     036C  1903               	skipnz
  8926     036D  2B6F               	goto	u4411
  8927     036E  07EB               	addwf	___flmul@prod+1,f
  8928     036F                     u4411:
  8929     036F  0860               	movf	??___flmul+2,w
  8930     0370  1103               	clrz
  8931     0371  1803               	skipnc
  8932     0372  3E01               	addlw	1
  8933     0373  1903               	skipnz
  8934     0374  2B76               	goto	u4412
  8935     0375  07EC               	addwf	___flmul@prod+2,f
  8936     0376                     u4412:
  8937     0376  0861               	movf	??___flmul+3,w
  8938     0377  1103               	clrz
  8939     0378  1803               	skipnc
  8940     0379  3E01               	addlw	1
  8941     037A  1903               	skipnz
  8942     037B  2B7D               	goto	u4413
  8943     037C  07ED               	addwf	___flmul@prod+3,f
  8944     037D                     u4413:
  8945     037D                     l3382:
  8946     037D  0864               	movf	___flmul@grs,w
  8947     037E  00DE               	movwf	??___flmul
  8948     037F  0865               	movf	___flmul@grs+1,w
  8949     0380  00DF               	movwf	??___flmul+1
  8950     0381  0866               	movf	___flmul@grs+2,w
  8951     0382  00E0               	movwf	??___flmul+2
  8952     0383  0867               	movf	___flmul@grs+3,w
  8953     0384  00E1               	movwf	??___flmul+3
  8954     0385  3018               	movlw	24
  8955     0386                     u4425:
  8956     0386  1003               	clrc
  8957     0387  0CE1               	rrf	??___flmul+3,f
  8958     0388  0CE0               	rrf	??___flmul+2,f
  8959     0389  0CDF               	rrf	??___flmul+1,f
  8960     038A  0CDE               	rrf	??___flmul,f
  8961     038B                     u4420:
  8962     038B  3EFF               	addlw	-1
  8963     038C  1D03               	skipz
  8964     038D  2B86               	goto	u4425
  8965     038E  085E               	movf	??___flmul,w
  8966     038F  07EA               	addwf	___flmul@prod,f
  8967     0390  085F               	movf	??___flmul+1,w
  8968     0391  1103               	clrz
  8969     0392  1803               	skipnc
  8970     0393  3E01               	addlw	1
  8971     0394  1903               	skipnz
  8972     0395  2B97               	goto	u4431
  8973     0396  07EB               	addwf	___flmul@prod+1,f
  8974     0397                     u4431:
  8975     0397  0860               	movf	??___flmul+2,w
  8976     0398  1103               	clrz
  8977     0399  1803               	skipnc
  8978     039A  3E01               	addlw	1
  8979     039B  1903               	skipnz
  8980     039C  2B9E               	goto	u4432
  8981     039D  07EC               	addwf	___flmul@prod+2,f
  8982     039E                     u4432:
  8983     039E  0861               	movf	??___flmul+3,w
  8984     039F  1103               	clrz
  8985     03A0  1803               	skipnc
  8986     03A1  3E01               	addlw	1
  8987     03A2  1903               	skipnz
  8988     03A3  2BA5               	goto	u4433
  8989     03A4  07ED               	addwf	___flmul@prod+3,f
  8990     03A5                     u4433:
  8991     03A5                     l3384:
  8992     03A5  3008               	movlw	8
  8993     03A6  00DE               	movwf	??___flmul
  8994     03A7                     u4445:
  8995     03A7  1003               	clrc
  8996     03A8  0DE4               	rlf	___flmul@grs,f
  8997     03A9  0DE5               	rlf	___flmul@grs+1,f
  8998     03AA  0DE6               	rlf	___flmul@grs+2,f
  8999     03AB  0DE7               	rlf	___flmul@grs+3,f
  9000     03AC  0BDE               	decfsz	??___flmul,f
  9001     03AD  2BA7               	goto	u4445
  9002     03AE                     l3386:
  9003     03AE  0869               	movf	___flmul@bexp,w
  9004     03AF  0768               	addwf	___flmul@aexp,w
  9005     03B0  00DE               	movwf	??___flmul
  9006     03B1  01DF               	clrf	??___flmul+1
  9007     03B2  0DDF               	rlf	??___flmul+1,f
  9008     03B3  085E               	movf	??___flmul,w
  9009     03B4  3E82               	addlw	130
  9010     03B5  00EE               	movwf	___flmul@temp
  9011     03B6  085F               	movf	??___flmul+1,w
  9012     03B7  1803               	skipnc
  9013     03B8  3E01               	addlw	1
  9014     03B9  3EFF               	addlw	255
  9015     03BA  00EF               	movwf	___flmul@temp+1
  9016     03BB  2BD9               	goto	l3398
  9017     03BC                     l3388:
  9018     03BC  3001               	movlw	1
  9019     03BD  00DE               	movwf	??___flmul
  9020     03BE                     u4455:
  9021     03BE  1003               	clrc
  9022     03BF  0DEA               	rlf	___flmul@prod,f
  9023     03C0  0DEB               	rlf	___flmul@prod+1,f
  9024     03C1  0DEC               	rlf	___flmul@prod+2,f
  9025     03C2  0DED               	rlf	___flmul@prod+3,f
  9026     03C3  0BDE               	decfsz	??___flmul,f
  9027     03C4  2BBE               	goto	u4455
  9028     03C5                     l3390:
  9029     03C5  1FE7               	btfss	___flmul@grs+3,7
  9030     03C6  2BC8               	goto	u4461
  9031     03C7  2BC9               	goto	u4460
  9032     03C8                     u4461:
  9033     03C8  2BCA               	goto	l3394
  9034     03C9                     u4460:
  9035     03C9                     l3392:
  9036     03C9  146A               	bsf	___flmul@prod,0
  9037     03CA                     l3394:
  9038     03CA  3001               	movlw	1
  9039     03CB  00DE               	movwf	??___flmul
  9040     03CC                     u4475:
  9041     03CC  1003               	clrc
  9042     03CD  0DE4               	rlf	___flmul@grs,f
  9043     03CE  0DE5               	rlf	___flmul@grs+1,f
  9044     03CF  0DE6               	rlf	___flmul@grs+2,f
  9045     03D0  0DE7               	rlf	___flmul@grs+3,f
  9046     03D1  0BDE               	decfsz	??___flmul,f
  9047     03D2  2BCC               	goto	u4475
  9048     03D3                     l3396:
  9049     03D3  30FF               	movlw	255
  9050     03D4  07EE               	addwf	___flmul@temp,f
  9051     03D5  1803               	skipnc
  9052     03D6  0AEF               	incf	___flmul@temp+1,f
  9053     03D7  30FF               	movlw	255
  9054     03D8  07EF               	addwf	___flmul@temp+1,f
  9055     03D9                     l3398:
  9056     03D9  1FEC               	btfss	___flmul@prod+2,7
  9057     03DA  2BDC               	goto	u4481
  9058     03DB  2BDD               	goto	u4480
  9059     03DC                     u4481:
  9060     03DC  2BBC               	goto	l3388
  9061     03DD                     u4480:
  9062     03DD                     l3400:
  9063     03DD  01E8               	clrf	___flmul@aexp
  9064     03DE                     l3402:
  9065     03DE  1FE7               	btfss	___flmul@grs+3,7
  9066     03DF  2BE1               	goto	u4491
  9067     03E0  2BE2               	goto	u4490
  9068     03E1                     u4491:
  9069     03E1  2BFE               	goto	l3410
  9070     03E2                     u4490:
  9071     03E2                     l3404:
  9072     03E2  30FF               	movlw	255
  9073     03E3  0564               	andwf	___flmul@grs,w
  9074     03E4  00DE               	movwf	??___flmul
  9075     03E5  30FF               	movlw	255
  9076     03E6  0565               	andwf	___flmul@grs+1,w
  9077     03E7  00DF               	movwf	??___flmul+1
  9078     03E8  30FF               	movlw	255
  9079     03E9  0566               	andwf	___flmul@grs+2,w
  9080     03EA  00E0               	movwf	??___flmul+2
  9081     03EB  307F               	movlw	127
  9082     03EC  0567               	andwf	___flmul@grs+3,w
  9083     03ED  00E1               	movwf	??___flmul+3
  9084     03EE  0861               	movf	??___flmul+3,w
  9085     03EF  0460               	iorwf	??___flmul+2,w
  9086     03F0  045F               	iorwf	??___flmul+1,w
  9087     03F1  045E               	iorwf	??___flmul,w
  9088     03F2  1903               	skipnz
  9089     03F3  2BF5               	goto	u4501
  9090     03F4  2BF6               	goto	u4500
  9091     03F5                     u4501:
  9092     03F5  2BF9               	goto	l755
  9093     03F6                     u4500:
  9094     03F6                     l3406:
  9095     03F6  3001               	movlw	1
  9096     03F7  00E8               	movwf	___flmul@aexp
  9097     03F8  2BFE               	goto	l3410
  9098     03F9                     l755:
  9099     03F9  1C6A               	btfss	___flmul@prod,0
  9100     03FA  2BFC               	goto	u4511
  9101     03FB  2BFD               	goto	u4510
  9102     03FC                     u4511:
  9103     03FC  2BFE               	goto	l3410
  9104     03FD                     u4510:
  9105     03FD  2BF6               	goto	l3406
  9106     03FE                     l3410:
  9107     03FE  0868               	movf	___flmul@aexp,w
  9108     03FF  1903               	btfsc	3,2
  9109     0400  2C02               	goto	u4521
  9110     0401  2C03               	goto	u4520
  9111     0402                     u4521:
  9112     0402  2C34               	goto	l3420
  9113     0403                     u4520:
  9114     0403                     l3412:
  9115     0403  3001               	movlw	1
  9116     0404  07EA               	addwf	___flmul@prod,f
  9117     0405  3000               	movlw	0
  9118     0406  1803               	skipnc
  9119     0407  3001               	movlw	1
  9120     0408  07EB               	addwf	___flmul@prod+1,f
  9121     0409  3000               	movlw	0
  9122     040A  1803               	skipnc
  9123     040B  3001               	movlw	1
  9124     040C  07EC               	addwf	___flmul@prod+2,f
  9125     040D  3000               	movlw	0
  9126     040E  1803               	skipnc
  9127     040F  3001               	movlw	1
  9128     0410  07ED               	addwf	___flmul@prod+3,f
  9129     0411                     l3414:
  9130     0411  1C6D               	btfss	___flmul@prod+3,0
  9131     0412  2C14               	goto	u4531
  9132     0413  2C15               	goto	u4530
  9133     0414                     u4531:
  9134     0414  2C34               	goto	l3420
  9135     0415                     u4530:
  9136     0415                     l3416:
  9137     0415  086A               	movf	___flmul@prod,w
  9138     0416  00DE               	movwf	??___flmul
  9139     0417  086B               	movf	___flmul@prod+1,w
  9140     0418  00DF               	movwf	??___flmul+1
  9141     0419  086C               	movf	___flmul@prod+2,w
  9142     041A  00E0               	movwf	??___flmul+2
  9143     041B  086D               	movf	___flmul@prod+3,w
  9144     041C  00E1               	movwf	??___flmul+3
  9145     041D  3001               	movlw	1
  9146     041E  00E2               	movwf	??___flmul+4
  9147     041F                     u4545:
  9148     041F  0D61               	rlf	??___flmul+3,w
  9149     0420  0CE1               	rrf	??___flmul+3,f
  9150     0421  0CE0               	rrf	??___flmul+2,f
  9151     0422  0CDF               	rrf	??___flmul+1,f
  9152     0423  0CDE               	rrf	??___flmul,f
  9153     0424                     u4540:
  9154     0424  0BE2               	decfsz	??___flmul+4,f
  9155     0425  2C1F               	goto	u4545
  9156     0426  0861               	movf	??___flmul+3,w
  9157     0427  00ED               	movwf	___flmul@prod+3
  9158     0428  0860               	movf	??___flmul+2,w
  9159     0429  00EC               	movwf	___flmul@prod+2
  9160     042A  085F               	movf	??___flmul+1,w
  9161     042B  00EB               	movwf	___flmul@prod+1
  9162     042C  085E               	movf	??___flmul,w
  9163     042D  00EA               	movwf	___flmul@prod
  9164     042E                     l3418:
  9165     042E  3001               	movlw	1
  9166     042F  07EE               	addwf	___flmul@temp,f
  9167     0430  1803               	skipnc
  9168     0431  0AEF               	incf	___flmul@temp+1,f
  9169     0432  3000               	movlw	0
  9170     0433  07EF               	addwf	___flmul@temp+1,f
  9171     0434                     l3420:
  9172     0434  086F               	movf	___flmul@temp+1,w
  9173     0435  3A80               	xorlw	128
  9174     0436  00FF               	movwf	btemp1
  9175     0437  3080               	movlw	128
  9176     0438  027F               	subwf	btemp1,w
  9177     0439  1D03               	skipz
  9178     043A  2C3D               	goto	u4555
  9179     043B  30FF               	movlw	255
  9180     043C  026E               	subwf	___flmul@temp,w
  9181     043D                     u4555:
  9182     043D  1C03               	skipc
  9183     043E  2C40               	goto	u4551
  9184     043F  2C41               	goto	u4550
  9185     0440                     u4551:
  9186     0440  2C4C               	goto	l3424
  9187     0441                     u4550:
  9188     0441                     l3422:
  9189     0441  307F               	movlw	127
  9190     0442  1283               	bcf	3,5	;RP0=0, select bank0
  9191     0443  1303               	bcf	3,6	;RP1=0, select bank0
  9192     0444  00ED               	movwf	___flmul@prod+3
  9193     0445  3080               	movlw	128
  9194     0446  00EC               	movwf	___flmul@prod+2
  9195     0447  3000               	movlw	0
  9196     0448  00EB               	movwf	___flmul@prod+1
  9197     0449  3000               	movlw	0
  9198     044A  00EA               	movwf	___flmul@prod
  9199     044B  2C7D               	goto	l761
  9200     044C                     l3424:
  9201     044C  1283               	bcf	3,5	;RP0=0, select bank0
  9202     044D  1303               	bcf	3,6	;RP1=0, select bank0
  9203     044E  086F               	movf	___flmul@temp+1,w
  9204     044F  3A80               	xorlw	128
  9205     0450  00FF               	movwf	btemp1
  9206     0451  3080               	movlw	128
  9207     0452  027F               	subwf	btemp1,w
  9208     0453  1D03               	skipz
  9209     0454  2C57               	goto	u4565
  9210     0455  3001               	movlw	1
  9211     0456  026E               	subwf	___flmul@temp,w
  9212     0457                     u4565:
  9213     0457  1803               	skipnc
  9214     0458  2C5A               	goto	u4561
  9215     0459  2C5B               	goto	u4560
  9216     045A                     u4561:
  9217     045A  2C67               	goto	l3430
  9218     045B                     u4560:
  9219     045B                     l3426:
  9220     045B  3000               	movlw	0
  9221     045C  1283               	bcf	3,5	;RP0=0, select bank0
  9222     045D  1303               	bcf	3,6	;RP1=0, select bank0
  9223     045E  00ED               	movwf	___flmul@prod+3
  9224     045F  3000               	movlw	0
  9225     0460  00EC               	movwf	___flmul@prod+2
  9226     0461  3000               	movlw	0
  9227     0462  00EB               	movwf	___flmul@prod+1
  9228     0463  3000               	movlw	0
  9229     0464  00EA               	movwf	___flmul@prod
  9230     0465                     l3428:
  9231     0465  01E3               	clrf	___flmul@sign
  9232     0466  2C7D               	goto	l761
  9233     0467                     l3430:
  9234     0467  1283               	bcf	3,5	;RP0=0, select bank0
  9235     0468  1303               	bcf	3,6	;RP1=0, select bank0
  9236     0469  086E               	movf	___flmul@temp,w
  9237     046A  00E9               	movwf	___flmul@bexp
  9238     046B  30FF               	movlw	255
  9239     046C  05EA               	andwf	___flmul@prod,f
  9240     046D  30FF               	movlw	255
  9241     046E  05EB               	andwf	___flmul@prod+1,f
  9242     046F  307F               	movlw	127
  9243     0470  05EC               	andwf	___flmul@prod+2,f
  9244     0471  3000               	movlw	0
  9245     0472  05ED               	andwf	___flmul@prod+3,f
  9246     0473                     l3432:
  9247     0473  1C69               	btfss	___flmul@bexp,0
  9248     0474  2C76               	goto	u4571
  9249     0475  2C77               	goto	u4570
  9250     0476                     u4571:
  9251     0476  2C78               	goto	l3436
  9252     0477                     u4570:
  9253     0477                     l3434:
  9254     0477  17EC               	bsf	___flmul@prod+2,7
  9255     0478                     l3436:
  9256     0478  0869               	movf	___flmul@bexp,w
  9257     0479  00DE               	movwf	??___flmul
  9258     047A  1003               	clrc
  9259     047B  0C5E               	rrf	??___flmul,w
  9260     047C  00ED               	movwf	___flmul@prod+3
  9261     047D                     l761:
  9262     047D  0863               	movf	___flmul@sign,w
  9263     047E  04ED               	iorwf	___flmul@prod+3,f
  9264     047F                     l3438:
  9265     047F  086D               	movf	___flmul@prod+3,w
  9266     0480  00D9               	movwf	?___flmul+3
  9267     0481  086C               	movf	___flmul@prod+2,w
  9268     0482  00D8               	movwf	?___flmul+2
  9269     0483  086B               	movf	___flmul@prod+1,w
  9270     0484  00D7               	movwf	?___flmul+1
  9271     0485  086A               	movf	___flmul@prod,w
  9272     0486  00D6               	movwf	?___flmul
  9273     0487                     l749:
  9274     0487  0008               	return
  9275     0488                     __end_of___flmul:
  9276                           
  9277                           	psect	text34
  9278     1316                     __ptext34:	
  9279 ;; *************** function __Umul8_16 *****************
  9280 ;; Defined at:
  9281 ;;		line 4 in file "C:\Program Files\Microchip\xc8\v3.10\pic\sources\c99\common\Umul8_16.c"
  9282 ;; Parameters:    Size  Location     Type
  9283 ;;  multiplier      1    wreg     unsigned char 
  9284 ;;  multiplicand    1    0[COMMON] unsigned char 
  9285 ;; Auto vars:     Size  Location     Type
  9286 ;;  multiplier      1    8[COMMON] unsigned char 
  9287 ;;  word_mpld       2    6[COMMON] unsigned short 
  9288 ;;  product         2    4[COMMON] unsigned short 
  9289 ;; Return value:  Size  Location     Type
  9290 ;;                  2    0[COMMON] unsigned int 
  9291 ;; Registers used:
  9292 ;;		wreg, status,2, status,0
  9293 ;; Tracked objects:
  9294 ;;		On entry : 0/0
  9295 ;;		On exit  : 0/0
  9296 ;;		Unchanged: 0/0
  9297 ;; Data sizes:     COMMON   BANK0   BANK1   BANK3   BANK2
  9298 ;;      Params:         2       0       0       0       0
  9299 ;;      Locals:         5       0       0       0       0
  9300 ;;      Temps:          2       0       0       0       0
  9301 ;;      Totals:         9       0       0       0       0
  9302 ;;Total ram usage:        9 bytes
  9303 ;; Hardware stack levels used: 1
  9304 ;; This function calls:
  9305 ;;		Nothing
  9306 ;; This function is called by:
  9307 ;;		___flmul
  9308 ;; This function uses a non-reentrant model
  9309 ;;
  9310                           
  9311     1316                     __Umul8_16:	
  9312                           ;psect for function __Umul8_16
  9313                           
  9314                           
  9315                           ;incstack = 0
  9316                           ; Regs used in __Umul8_16: [wreg+status,2+status,0]
  9317                           ;__Umul8_16@multiplier stored from wreg
  9318     1316  00F8               	movwf	__Umul8_16@multiplier
  9319     1317                     l2968:
  9320     1317  01F4               	clrf	__Umul8_16@product
  9321     1318  01F5               	clrf	__Umul8_16@product+1
  9322     1319                     l2970:
  9323     1319  0870               	movf	__Umul8_16@multiplicand,w
  9324     131A  00F2               	movwf	??__Umul8_16
  9325     131B  01F3               	clrf	??__Umul8_16+1
  9326     131C  0872               	movf	??__Umul8_16,w
  9327     131D  00F6               	movwf	__Umul8_16@word_mpld
  9328     131E  0873               	movf	??__Umul8_16+1,w
  9329     131F  00F7               	movwf	__Umul8_16@word_mpld+1
  9330     1320                     l2972:
  9331     1320  1C78               	btfss	__Umul8_16@multiplier,0
  9332     1321  2B23               	goto	u3781
  9333     1322  2B24               	goto	u3780
  9334     1323                     u3781:
  9335     1323  2B2A               	goto	l768
  9336     1324                     u3780:
  9337     1324                     l2974:
  9338     1324  0876               	movf	__Umul8_16@word_mpld,w
  9339     1325  07F4               	addwf	__Umul8_16@product,f
  9340     1326  1803               	skipnc
  9341     1327  0AF5               	incf	__Umul8_16@product+1,f
  9342     1328  0877               	movf	__Umul8_16@word_mpld+1,w
  9343     1329  07F5               	addwf	__Umul8_16@product+1,f
  9344     132A                     l768:
  9345     132A  3001               	movlw	1
  9346     132B                     u3795:
  9347     132B  1003               	clrc
  9348     132C  0DF6               	rlf	__Umul8_16@word_mpld,f
  9349     132D  0DF7               	rlf	__Umul8_16@word_mpld+1,f
  9350     132E  3EFF               	addlw	-1
  9351     132F  1D03               	skipz
  9352     1330  2B2B               	goto	u3795
  9353     1331  1003               	clrc
  9354     1332  0CF8               	rrf	__Umul8_16@multiplier,f
  9355     1333                     l2976:
  9356     1333  0878               	movf	__Umul8_16@multiplier,w
  9357     1334  1D03               	btfss	3,2
  9358     1335  2B37               	goto	u3801
  9359     1336  2B38               	goto	u3800
  9360     1337                     u3801:
  9361     1337  2B20               	goto	l2972
  9362     1338                     u3800:
  9363     1338                     l2978:
  9364     1338  0875               	movf	__Umul8_16@product+1,w
  9365     1339  00F1               	movwf	?__Umul8_16+1
  9366     133A  0874               	movf	__Umul8_16@product,w
  9367     133B  00F0               	movwf	?__Umul8_16
  9368     133C                     l770:
  9369     133C  0008               	return
  9370     133D                     __end_of__Umul8_16:
  9371                           
  9372                           	psect	text35
  9373     138C                     __ptext35:	
  9374 ;; *************** function _Lcd_Write_String *****************
  9375 ;; Defined at:
  9376 ;;		line 81 in file "lcd_i2c.c"
  9377 ;; Parameters:    Size  Location     Type
  9378 ;;  str             2    5[BANK0 ] PTR const unsigned char 
  9379 ;;		 -> main@buffer(17), STR_1(13), 
  9380 ;; Auto vars:     Size  Location     Type
  9381 ;;		None
  9382 ;; Return value:  Size  Location     Type
  9383 ;;                  1    wreg      void 
  9384 ;; Registers used:
  9385 ;;		wreg, fsr0l, fsr0h, status,2, status,0, pclath, btemp1, cstack
  9386 ;; Tracked objects:
  9387 ;;		On entry : 0/0
  9388 ;;		On exit  : 0/0
  9389 ;;		Unchanged: 0/0
  9390 ;; Data sizes:     COMMON   BANK0   BANK1   BANK3   BANK2
  9391 ;;      Params:         0       2       0       0       0
  9392 ;;      Locals:         0       0       0       0       0
  9393 ;;      Temps:          0       0       0       0       0
  9394 ;;      Totals:         0       2       0       0       0
  9395 ;;Total ram usage:        2 bytes
  9396 ;; Hardware stack levels used: 1
  9397 ;; Hardware stack levels required when called: 2
  9398 ;; This function calls:
  9399 ;;		_Lcd_Write_Char
  9400 ;; This function is called by:
  9401 ;;		_main
  9402 ;; This function uses a non-reentrant model
  9403 ;;
  9404                           
  9405     138C                     _Lcd_Write_String:	
  9406                           ;psect for function _Lcd_Write_String
  9407                           
  9408     138C                     l3082:	
  9409                           ;incstack = 0
  9410                           ; Regs used in _Lcd_Write_String: [wreg-fsr0h+status,2+status,0+pclath+btemp1+cstack]
  9411                           
  9412                           
  9413                           ;lcd_i2c.c: 81: void Lcd_Write_String(const char *str);lcd_i2c.c: 82: {;lcd_i2c.c: 83:  
      +                             while(*str != '\0')
  9414     138C  2BA3               	goto	l3088
  9415     138D                     l3084:
  9416                           
  9417                           ;lcd_i2c.c: 84:     {;lcd_i2c.c: 85:         Lcd_Write_Char(*str++);
  9418     138D  0826               	movf	Lcd_Write_String@str+1,w
  9419     138E  00FF               	movwf	btemp1
  9420     138F  0825               	movf	Lcd_Write_String@str,w
  9421     1390  0084               	movwf	4
  9422     1391  160A  118A  2000  160A  118A  	fcall	stringtab
  9423     1396  160A  118A  2492  160A  118A  	fcall	_Lcd_Write_Char
  9424     139B                     l3086:
  9425     139B  3001               	movlw	1
  9426     139C  1283               	bcf	3,5	;RP0=0, select bank0
  9427     139D  1303               	bcf	3,6	;RP1=0, select bank0
  9428     139E  07A5               	addwf	Lcd_Write_String@str,f
  9429     139F  1803               	skipnc
  9430     13A0  0AA6               	incf	Lcd_Write_String@str+1,f
  9431     13A1  3000               	movlw	0
  9432     13A2  07A6               	addwf	Lcd_Write_String@str+1,f
  9433     13A3                     l3088:
  9434                           
  9435                           ;lcd_i2c.c: 83:     while(*str != '\0')
  9436     13A3  1283               	bcf	3,5	;RP0=0, select bank0
  9437     13A4  1303               	bcf	3,6	;RP1=0, select bank0
  9438     13A5  0826               	movf	Lcd_Write_String@str+1,w
  9439     13A6  00FF               	movwf	btemp1
  9440     13A7  0825               	movf	Lcd_Write_String@str,w
  9441     13A8  0084               	movwf	4
  9442     13A9  160A  118A  2000  160A  118A  	fcall	stringtab
  9443     13AE  3A00               	xorlw	0
  9444     13AF  1D03               	skipz
  9445     13B0  2BB2               	goto	u3981
  9446     13B1  2BB3               	goto	u3980
  9447     13B2                     u3981:
  9448     13B2  2B8D               	goto	l3084
  9449     13B3                     u3980:
  9450     13B3                     l147:
  9451     13B3  0008               	return
  9452     13B4                     __end_of_Lcd_Write_String:
  9453                           
  9454                           	psect	text36
  9455     1492                     __ptext36:	
  9456 ;; *************** function _Lcd_Write_Char *****************
  9457 ;; Defined at:
  9458 ;;		line 41 in file "lcd_i2c.c"
  9459 ;; Parameters:    Size  Location     Type
  9460 ;;  c               1    wreg     unsigned char 
  9461 ;; Auto vars:     Size  Location     Type
  9462 ;;  c               1    2[BANK0 ] unsigned char 
  9463 ;;  data_l          1    4[BANK0 ] unsigned char 
  9464 ;;  data_u          1    3[BANK0 ] unsigned char 
  9465 ;; Return value:  Size  Location     Type
  9466 ;;                  1    wreg      void 
  9467 ;; Registers used:
  9468 ;;		wreg, status,2, status,0, pclath, cstack
  9469 ;; Tracked objects:
  9470 ;;		On entry : 0/0
  9471 ;;		On exit  : 0/0
  9472 ;;		Unchanged: 0/0
  9473 ;; Data sizes:     COMMON   BANK0   BANK1   BANK3   BANK2
  9474 ;;      Params:         0       0       0       0       0
  9475 ;;      Locals:         0       3       0       0       0
  9476 ;;      Temps:          0       1       0       0       0
  9477 ;;      Totals:         0       4       0       0       0
  9478 ;;Total ram usage:        4 bytes
  9479 ;; Hardware stack levels used: 1
  9480 ;; Hardware stack levels required when called: 1
  9481 ;; This function calls:
  9482 ;;		_I2C_Start
  9483 ;;		_I2C_Stop
  9484 ;;		_I2C_Write
  9485 ;; This function is called by:
  9486 ;;		_Lcd_Write_String
  9487 ;;		_Lcd_CGRAM_WriteChar
  9488 ;;		_Lcd_CGRAM_CreateChar
  9489 ;; This function uses a non-reentrant model
  9490 ;;
  9491                           
  9492     1492                     _Lcd_Write_Char:	
  9493                           ;psect for function _Lcd_Write_Char
  9494                           
  9495                           
  9496                           ;incstack = 0
  9497                           ; Regs used in _Lcd_Write_Char: [wreg+status,2+status,0+pclath+cstack]
  9498                           ;Lcd_Write_Char@c stored from wreg
  9499     1492  1283               	bcf	3,5	;RP0=0, select bank0
  9500     1493  1303               	bcf	3,6	;RP1=0, select bank0
  9501     1494  00A2               	movwf	Lcd_Write_Char@c
  9502     1495                     l2564:
  9503                           
  9504                           ;lcd_i2c.c: 41: void Lcd_Write_Char(char c);lcd_i2c.c: 42: {;lcd_i2c.c: 43:     char dat
      +                          a_u, data_l;;lcd_i2c.c: 44:     data_u = (c & 0xF0);
  9505     1495  0822               	movf	Lcd_Write_Char@c,w
  9506     1496  00A3               	movwf	Lcd_Write_Char@data_u
  9507     1497                     l2566:
  9508     1497  30F0               	movlw	240
  9509     1498  05A3               	andwf	Lcd_Write_Char@data_u,f
  9510     1499                     l2568:
  9511                           
  9512                           ;lcd_i2c.c: 45:     data_l = ((c<<4) & 0xF0);
  9513     1499  0822               	movf	Lcd_Write_Char@c,w
  9514     149A  00A1               	movwf	??_Lcd_Write_Char
  9515     149B  3003               	movlw	3
  9516     149C                     u2965:
  9517     149C  1003               	clrc
  9518     149D  0DA1               	rlf	??_Lcd_Write_Char,f
  9519     149E  3EFF               	addlw	-1
  9520     149F  1D03               	skipz
  9521     14A0  2C9C               	goto	u2965
  9522     14A1  1003               	clrc
  9523     14A2  0D21               	rlf	??_Lcd_Write_Char,w
  9524     14A3  00A4               	movwf	Lcd_Write_Char@data_l
  9525     14A4                     l2570:
  9526     14A4  30F0               	movlw	240
  9527     14A5  05A4               	andwf	Lcd_Write_Char@data_l,f
  9528     14A6                     l2572:
  9529                           
  9530                           ;lcd_i2c.c: 47:     I2C_Start();
  9531     14A6  160A  118A  21D7  160A  118A  	fcall	_I2C_Start
  9532     14AB                     l2574:
  9533                           
  9534                           ;lcd_i2c.c: 48:     I2C_Write(0x4E);
  9535     14AB  304E               	movlw	78
  9536     14AC  160A  118A  222D  160A  118A  	fcall	_I2C_Write
  9537     14B1                     l2576:
  9538                           
  9539                           ;lcd_i2c.c: 49:     I2C_Write(data_u|0x0D);
  9540     14B1  1283               	bcf	3,5	;RP0=0, select bank0
  9541     14B2  1303               	bcf	3,6	;RP1=0, select bank0
  9542     14B3  0823               	movf	Lcd_Write_Char@data_u,w
  9543     14B4  380D               	iorlw	13
  9544     14B5  160A  118A  222D  160A  118A  	fcall	_I2C_Write
  9545     14BA                     l2578:
  9546                           
  9547                           ;lcd_i2c.c: 50:     I2C_Write(data_u|0x09);
  9548     14BA  1283               	bcf	3,5	;RP0=0, select bank0
  9549     14BB  1303               	bcf	3,6	;RP1=0, select bank0
  9550     14BC  0823               	movf	Lcd_Write_Char@data_u,w
  9551     14BD  3809               	iorlw	9
  9552     14BE  160A  118A  222D  160A  118A  	fcall	_I2C_Write
  9553     14C3                     l2580:
  9554                           
  9555                           ;lcd_i2c.c: 51:     I2C_Write(data_l|0x0D);
  9556     14C3  1283               	bcf	3,5	;RP0=0, select bank0
  9557     14C4  1303               	bcf	3,6	;RP1=0, select bank0
  9558     14C5  0824               	movf	Lcd_Write_Char@data_l,w
  9559     14C6  380D               	iorlw	13
  9560     14C7  160A  118A  222D  160A  118A  	fcall	_I2C_Write
  9561     14CC                     l2582:
  9562                           
  9563                           ;lcd_i2c.c: 52:     I2C_Write(data_l|0x09);
  9564     14CC  1283               	bcf	3,5	;RP0=0, select bank0
  9565     14CD  1303               	bcf	3,6	;RP1=0, select bank0
  9566     14CE  0824               	movf	Lcd_Write_Char@data_l,w
  9567     14CF  3809               	iorlw	9
  9568     14D0  160A  118A  222D  160A  118A  	fcall	_I2C_Write
  9569     14D5                     l2584:
  9570                           
  9571                           ;lcd_i2c.c: 53:     I2C_Stop();
  9572     14D5  160A  118A  21E1  160A  118A  	fcall	_I2C_Stop
  9573     14DA                     l131:
  9574     14DA  0008               	return
  9575     14DB                     __end_of_Lcd_Write_Char:
  9576                           
  9577                           	psect	text37
  9578     1364                     __ptext37:	
  9579 ;; *************** function _Lcd_Set_Cursor *****************
  9580 ;; Defined at:
  9581 ;;		line 56 in file "lcd_i2c.c"
  9582 ;; Parameters:    Size  Location     Type
  9583 ;;  col             1    wreg     unsigned char 
  9584 ;;  row             1    5[BANK0 ] unsigned char 
  9585 ;; Auto vars:     Size  Location     Type
  9586 ;;  col             1    6[BANK0 ] unsigned char 
  9587 ;;  address         1    7[BANK0 ] unsigned char 
  9588 ;; Return value:  Size  Location     Type
  9589 ;;                  1    wreg      void 
  9590 ;; Registers used:
  9591 ;;		wreg, fsr0l, fsr0h, status,2, status,0, pclath, cstack
  9592 ;; Tracked objects:
  9593 ;;		On entry : 0/0
  9594 ;;		On exit  : 0/0
  9595 ;;		Unchanged: 0/0
  9596 ;; Data sizes:     COMMON   BANK0   BANK1   BANK3   BANK2
  9597 ;;      Params:         0       1       0       0       0
  9598 ;;      Locals:         0       2       0       0       0
  9599 ;;      Temps:          0       0       0       0       0
  9600 ;;      Totals:         0       3       0       0       0
  9601 ;;Total ram usage:        3 bytes
  9602 ;; Hardware stack levels used: 1
  9603 ;; Hardware stack levels required when called: 1
  9604 ;; This function calls:
  9605 ;;		_Lcd_Cmd
  9606 ;; This function is called by:
  9607 ;;		_main
  9608 ;; This function uses a non-reentrant model
  9609 ;;
  9610                           
  9611     1364                     _Lcd_Set_Cursor:	
  9612                           ;psect for function _Lcd_Set_Cursor
  9613                           
  9614                           
  9615                           ;incstack = 0
  9616                           ; Regs used in _Lcd_Set_Cursor: [wreg-fsr0h+status,2+status,0+pclath+cstack]
  9617                           ;Lcd_Set_Cursor@col stored from wreg
  9618     1364  1283               	bcf	3,5	;RP0=0, select bank0
  9619     1365  1303               	bcf	3,6	;RP1=0, select bank0
  9620     1366  00A6               	movwf	Lcd_Set_Cursor@col
  9621     1367                     l3068:
  9622                           
  9623                           ;lcd_i2c.c: 56: void Lcd_Set_Cursor(char col, char row);lcd_i2c.c: 57: {;lcd_i2c.c: 58: 
      +                              unsigned char address;;lcd_i2c.c: 59:     switch(row)
  9624     1367  2B73               	goto	l3076
  9625     1368                     l3070:
  9626                           
  9627                           ;lcd_i2c.c: 62:             address = 0x00;
  9628     1368  01A7               	clrf	Lcd_Set_Cursor@address
  9629                           
  9630                           ;lcd_i2c.c: 63:             break;
  9631     1369  2B81               	goto	l3078
  9632     136A                     l137:	
  9633                           ;lcd_i2c.c: 64:         case 2:
  9634                           
  9635                           
  9636                           ;lcd_i2c.c: 65:             address = 0x40;
  9637     136A  3040               	movlw	64
  9638     136B  00A7               	movwf	Lcd_Set_Cursor@address
  9639                           
  9640                           ;lcd_i2c.c: 66:             break;
  9641     136C  2B81               	goto	l3078
  9642     136D                     l138:	
  9643                           ;lcd_i2c.c: 67:         case 3:
  9644                           
  9645                           
  9646                           ;lcd_i2c.c: 68:             address = 0x14;
  9647     136D  3014               	movlw	20
  9648     136E  00A7               	movwf	Lcd_Set_Cursor@address
  9649                           
  9650                           ;lcd_i2c.c: 69:             break;
  9651     136F  2B81               	goto	l3078
  9652     1370                     l139:	
  9653                           ;lcd_i2c.c: 70:         case 4:
  9654                           
  9655                           
  9656                           ;lcd_i2c.c: 71:             address = 0x54;
  9657     1370  3054               	movlw	84
  9658     1371  00A7               	movwf	Lcd_Set_Cursor@address
  9659                           
  9660                           ;lcd_i2c.c: 72:             break;
  9661     1372  2B81               	goto	l3078
  9662     1373                     l3076:
  9663     1373  0825               	movf	Lcd_Set_Cursor@row,w
  9664                           
  9665                           ; Switch size 1, requested type "simple"
  9666                           ; Number of cases is 4, Range of values is 1 to 4
  9667                           ; switch strategies available:
  9668                           ; Name         Instructions Cycles
  9669                           ; simple_byte           13     7 (average)
  9670                           ; direct_byte           23    11 (fixed)
  9671                           ; jumptable            263     9 (fixed)
  9672                           ;	Chosen strategy is simple_byte
  9673     1374  3A01               	xorlw	1	; case 1
  9674     1375  1903               	skipnz
  9675     1376  2B68               	goto	l3070
  9676     1377  3A03               	xorlw	3	; case 2
  9677     1378  1903               	skipnz
  9678     1379  2B6A               	goto	l137
  9679     137A  3A01               	xorlw	1	; case 3
  9680     137B  1903               	skipnz
  9681     137C  2B6D               	goto	l138
  9682     137D  3A07               	xorlw	7	; case 4
  9683     137E  1903               	skipnz
  9684     137F  2B70               	goto	l139
  9685     1380  2B68               	goto	l3070
  9686     1381                     l3078:
  9687                           
  9688                           ;lcd_i2c.c: 77:     address += col - 1;
  9689     1381  0826               	movf	Lcd_Set_Cursor@col,w
  9690     1382  3EFF               	addlw	255
  9691     1383  07A7               	addwf	Lcd_Set_Cursor@address,f
  9692     1384                     l3080:
  9693                           
  9694                           ;lcd_i2c.c: 78:     Lcd_Cmd(0x80 | address);
  9695     1384  0827               	movf	Lcd_Set_Cursor@address,w
  9696     1385  3880               	iorlw	128
  9697     1386  160A  118A  2449  160A  118A  	fcall	_Lcd_Cmd
  9698     138B                     l141:
  9699     138B  0008               	return
  9700     138C                     __end_of_Lcd_Set_Cursor:
  9701                           
  9702                           	psect	text38
  9703     1410                     __ptext38:	
  9704 ;; *************** function _Lcd_Init *****************
  9705 ;; Defined at:
  9706 ;;		line 13 in file "lcd_i2c.c"
  9707 ;; Parameters:    Size  Location     Type
  9708 ;;		None
  9709 ;; Auto vars:     Size  Location     Type
  9710 ;;		None
  9711 ;; Return value:  Size  Location     Type
  9712 ;;                  1    wreg      void 
  9713 ;; Registers used:
  9714 ;;		wreg, status,2, status,0, pclath, cstack
  9715 ;; Tracked objects:
  9716 ;;		On entry : 0/0
  9717 ;;		On exit  : 0/0
  9718 ;;		Unchanged: 0/0
  9719 ;; Data sizes:     COMMON   BANK0   BANK1   BANK3   BANK2
  9720 ;;      Params:         0       0       0       0       0
  9721 ;;      Locals:         0       0       0       0       0
  9722 ;;      Temps:          0       2       0       0       0
  9723 ;;      Totals:         0       2       0       0       0
  9724 ;;Total ram usage:        2 bytes
  9725 ;; Hardware stack levels used: 1
  9726 ;; Hardware stack levels required when called: 1
  9727 ;; This function calls:
  9728 ;;		_Lcd_Cmd
  9729 ;; This function is called by:
  9730 ;;		_main
  9731 ;; This function uses a non-reentrant model
  9732 ;;
  9733                           
  9734     1410                     _Lcd_Init:	
  9735                           ;psect for function _Lcd_Init
  9736                           
  9737     1410                     l3050:	
  9738                           ;incstack = 0
  9739                           ; Regs used in _Lcd_Init: [wreg+status,2+status,0+pclath+cstack]
  9740                           
  9741                           
  9742                           ;lcd_i2c.c: 15:     _delay((unsigned long)((20)*(20000000/4000.0)));
  9743     1410  3082               	movlw	130
  9744     1411  1283               	bcf	3,5	;RP0=0, select bank0
  9745     1412  1303               	bcf	3,6	;RP1=0, select bank0
  9746     1413  00A6               	movwf	??_Lcd_Init+1
  9747     1414  30DD               	movlw	221
  9748     1415  00A5               	movwf	??_Lcd_Init
  9749     1416                     u4867:
  9750     1416  0BA5               	decfsz	??_Lcd_Init,f
  9751     1417  2C16               	goto	u4867
  9752     1418  0BA6               	decfsz	??_Lcd_Init+1,f
  9753     1419  2C16               	goto	u4867
  9754     141A                     l3052:
  9755                           
  9756                           ;lcd_i2c.c: 16:     Lcd_Cmd(0x33);
  9757     141A  3033               	movlw	51
  9758     141B  160A  118A  2449  160A  118A  	fcall	_Lcd_Cmd
  9759     1420                     l3054:
  9760                           
  9761                           ;lcd_i2c.c: 17:     Lcd_Cmd(0x32);
  9762     1420  3032               	movlw	50
  9763     1421  160A  118A  2449  160A  118A  	fcall	_Lcd_Cmd
  9764     1426                     l3056:
  9765                           
  9766                           ;lcd_i2c.c: 18:     Lcd_Cmd(0x28);
  9767     1426  3028               	movlw	40
  9768     1427  160A  118A  2449  160A  118A  	fcall	_Lcd_Cmd
  9769     142C                     l3058:
  9770                           
  9771                           ;lcd_i2c.c: 19:     Lcd_Cmd(0x0C);
  9772     142C  300C               	movlw	12
  9773     142D  160A  118A  2449  160A  118A  	fcall	_Lcd_Cmd
  9774     1432                     l3060:
  9775                           
  9776                           ;lcd_i2c.c: 20:     Lcd_Cmd(0x06);
  9777     1432  3006               	movlw	6
  9778     1433  160A  118A  2449  160A  118A  	fcall	_Lcd_Cmd
  9779     1438                     l3062:
  9780                           
  9781                           ;lcd_i2c.c: 21:     Lcd_Cmd(0x01);
  9782     1438  3001               	movlw	1
  9783     1439  160A  118A  2449  160A  118A  	fcall	_Lcd_Cmd
  9784                           
  9785                           ;lcd_i2c.c: 22:     _delay((unsigned long)((3)*(20000000/4000.0)));
  9786     143E  3014               	movlw	20
  9787     143F  1283               	bcf	3,5	;RP0=0, select bank0
  9788     1440  1303               	bcf	3,6	;RP1=0, select bank0
  9789     1441  00A6               	movwf	??_Lcd_Init+1
  9790     1442  3079               	movlw	121
  9791     1443  00A5               	movwf	??_Lcd_Init
  9792     1444                     u4877:
  9793     1444  0BA5               	decfsz	??_Lcd_Init,f
  9794     1445  2C44               	goto	u4877
  9795     1446  0BA6               	decfsz	??_Lcd_Init+1,f
  9796     1447  2C44               	goto	u4877
  9797     1448                     l125:
  9798     1448  0008               	return
  9799     1449                     __end_of_Lcd_Init:
  9800                           
  9801                           	psect	text39
  9802     120B                     __ptext39:	
  9803 ;; *************** function _Lcd_Clear *****************
  9804 ;; Defined at:
  9805 ;;		line 89 in file "lcd_i2c.c"
  9806 ;; Parameters:    Size  Location     Type
  9807 ;;		None
  9808 ;; Auto vars:     Size  Location     Type
  9809 ;;		None
  9810 ;; Return value:  Size  Location     Type
  9811 ;;                  1    wreg      void 
  9812 ;; Registers used:
  9813 ;;		wreg, status,2, status,0, pclath, cstack
  9814 ;; Tracked objects:
  9815 ;;		On entry : 0/0
  9816 ;;		On exit  : 0/0
  9817 ;;		Unchanged: 0/0
  9818 ;; Data sizes:     COMMON   BANK0   BANK1   BANK3   BANK2
  9819 ;;      Params:         0       0       0       0       0
  9820 ;;      Locals:         0       0       0       0       0
  9821 ;;      Temps:          0       2       0       0       0
  9822 ;;      Totals:         0       2       0       0       0
  9823 ;;Total ram usage:        2 bytes
  9824 ;; Hardware stack levels used: 1
  9825 ;; Hardware stack levels required when called: 2
  9826 ;; This function calls:
  9827 ;;		_Lcd_Cmd
  9828 ;; This function is called by:
  9829 ;;		_main
  9830 ;; This function uses a non-reentrant model
  9831 ;;
  9832                           
  9833     120B                     _Lcd_Clear:	
  9834                           ;psect for function _Lcd_Clear
  9835                           
  9836     120B                     l3064:	
  9837                           ;incstack = 0
  9838                           ; Regs used in _Lcd_Clear: [wreg+status,2+status,0+pclath+cstack]
  9839                           
  9840                           
  9841                           ;lcd_i2c.c: 91:     Lcd_Cmd(0x01);
  9842     120B  3001               	movlw	1
  9843     120C  160A  118A  2449  160A  118A  	fcall	_Lcd_Cmd
  9844     1211                     l3066:
  9845                           
  9846                           ;lcd_i2c.c: 92:     _delay((unsigned long)((2)*(20000000/4000.0)));
  9847     1211  300D               	movlw	13
  9848     1212  1283               	bcf	3,5	;RP0=0, select bank0
  9849     1213  1303               	bcf	3,6	;RP1=0, select bank0
  9850     1214  00A6               	movwf	??_Lcd_Clear+1
  9851     1215  30FB               	movlw	251
  9852     1216  00A5               	movwf	??_Lcd_Clear
  9853     1217                     u4887:
  9854     1217  0BA5               	decfsz	??_Lcd_Clear,f
  9855     1218  2A17               	goto	u4887
  9856     1219  0BA6               	decfsz	??_Lcd_Clear+1,f
  9857     121A  2A17               	goto	u4887
  9858     121B                     l150:
  9859     121B  0008               	return
  9860     121C                     __end_of_Lcd_Clear:
  9861                           
  9862                           	psect	text40
  9863     1449                     __ptext40:	
  9864 ;; *************** function _Lcd_Cmd *****************
  9865 ;; Defined at:
  9866 ;;		line 25 in file "lcd_i2c.c"
  9867 ;; Parameters:    Size  Location     Type
  9868 ;;  cmd             1    wreg     unsigned char 
  9869 ;; Auto vars:     Size  Location     Type
  9870 ;;  cmd             1    2[BANK0 ] unsigned char 
  9871 ;;  data_l          1    4[BANK0 ] unsigned char 
  9872 ;;  data_u          1    3[BANK0 ] unsigned char 
  9873 ;; Return value:  Size  Location     Type
  9874 ;;                  1    wreg      void 
  9875 ;; Registers used:
  9876 ;;		wreg, status,2, status,0, pclath, cstack
  9877 ;; Tracked objects:
  9878 ;;		On entry : 0/0
  9879 ;;		On exit  : 0/0
  9880 ;;		Unchanged: 0/0
  9881 ;; Data sizes:     COMMON   BANK0   BANK1   BANK3   BANK2
  9882 ;;      Params:         0       0       0       0       0
  9883 ;;      Locals:         0       3       0       0       0
  9884 ;;      Temps:          0       1       0       0       0
  9885 ;;      Totals:         0       4       0       0       0
  9886 ;;Total ram usage:        4 bytes
  9887 ;; Hardware stack levels used: 1
  9888 ;; This function calls:
  9889 ;;		_I2C_Start
  9890 ;;		_I2C_Stop
  9891 ;;		_I2C_Write
  9892 ;; This function is called by:
  9893 ;;		_Lcd_Init
  9894 ;;		_Lcd_Set_Cursor
  9895 ;;		_Lcd_Clear
  9896 ;;		_Lcd_Shift_Right
  9897 ;;		_Lcd_Shift_Left
  9898 ;;		_Lcd_Blink
  9899 ;;		_Lcd_NoBlink
  9900 ;;		_Lcd_CGRAM_CreateChar
  9901 ;; This function uses a non-reentrant model
  9902 ;;
  9903                           
  9904     1449                     _Lcd_Cmd:	
  9905                           ;psect for function _Lcd_Cmd
  9906                           
  9907                           
  9908                           ;incstack = 0
  9909                           ; Regs used in _Lcd_Cmd: [wreg+status,2+status,0+pclath+cstack]
  9910                           ;Lcd_Cmd@cmd stored from wreg
  9911     1449  1283               	bcf	3,5	;RP0=0, select bank0
  9912     144A  1303               	bcf	3,6	;RP1=0, select bank0
  9913     144B  00A2               	movwf	Lcd_Cmd@cmd
  9914     144C                     l2542:
  9915                           
  9916                           ;lcd_i2c.c: 25: void Lcd_Cmd(unsigned char cmd);lcd_i2c.c: 26: {;lcd_i2c.c: 27:     char
      +                           data_u, data_l;;lcd_i2c.c: 28:     data_u = (cmd & 0xF0);
  9917     144C  0822               	movf	Lcd_Cmd@cmd,w
  9918     144D  00A3               	movwf	Lcd_Cmd@data_u
  9919     144E                     l2544:
  9920     144E  30F0               	movlw	240
  9921     144F  05A3               	andwf	Lcd_Cmd@data_u,f
  9922     1450                     l2546:
  9923                           
  9924                           ;lcd_i2c.c: 29:     data_l = ((cmd<<4) & 0xF0);
  9925     1450  0822               	movf	Lcd_Cmd@cmd,w
  9926     1451  00A1               	movwf	??_Lcd_Cmd
  9927     1452  3003               	movlw	3
  9928     1453                     u2955:
  9929     1453  1003               	clrc
  9930     1454  0DA1               	rlf	??_Lcd_Cmd,f
  9931     1455  3EFF               	addlw	-1
  9932     1456  1D03               	skipz
  9933     1457  2C53               	goto	u2955
  9934     1458  1003               	clrc
  9935     1459  0D21               	rlf	??_Lcd_Cmd,w
  9936     145A  00A4               	movwf	Lcd_Cmd@data_l
  9937     145B                     l2548:
  9938     145B  30F0               	movlw	240
  9939     145C  05A4               	andwf	Lcd_Cmd@data_l,f
  9940     145D                     l2550:
  9941                           
  9942                           ;lcd_i2c.c: 32:     I2C_Start();
  9943     145D  160A  118A  21D7  160A  118A  	fcall	_I2C_Start
  9944     1462                     l2552:
  9945                           
  9946                           ;lcd_i2c.c: 33:     I2C_Write(0x4E);
  9947     1462  304E               	movlw	78
  9948     1463  160A  118A  222D  160A  118A  	fcall	_I2C_Write
  9949     1468                     l2554:
  9950                           
  9951                           ;lcd_i2c.c: 34:     I2C_Write(data_u|0x0C);
  9952     1468  1283               	bcf	3,5	;RP0=0, select bank0
  9953     1469  1303               	bcf	3,6	;RP1=0, select bank0
  9954     146A  0823               	movf	Lcd_Cmd@data_u,w
  9955     146B  380C               	iorlw	12
  9956     146C  160A  118A  222D  160A  118A  	fcall	_I2C_Write
  9957     1471                     l2556:
  9958                           
  9959                           ;lcd_i2c.c: 35:     I2C_Write(data_u|0x08);
  9960     1471  1283               	bcf	3,5	;RP0=0, select bank0
  9961     1472  1303               	bcf	3,6	;RP1=0, select bank0
  9962     1473  0823               	movf	Lcd_Cmd@data_u,w
  9963     1474  3808               	iorlw	8
  9964     1475  160A  118A  222D  160A  118A  	fcall	_I2C_Write
  9965     147A                     l2558:
  9966                           
  9967                           ;lcd_i2c.c: 36:     I2C_Write(data_l|0x0C);
  9968     147A  1283               	bcf	3,5	;RP0=0, select bank0
  9969     147B  1303               	bcf	3,6	;RP1=0, select bank0
  9970     147C  0824               	movf	Lcd_Cmd@data_l,w
  9971     147D  380C               	iorlw	12
  9972     147E  160A  118A  222D  160A  118A  	fcall	_I2C_Write
  9973     1483                     l2560:
  9974                           
  9975                           ;lcd_i2c.c: 37:     I2C_Write(data_l|0x08);
  9976     1483  1283               	bcf	3,5	;RP0=0, select bank0
  9977     1484  1303               	bcf	3,6	;RP1=0, select bank0
  9978     1485  0824               	movf	Lcd_Cmd@data_l,w
  9979     1486  3808               	iorlw	8
  9980     1487  160A  118A  222D  160A  118A  	fcall	_I2C_Write
  9981     148C                     l2562:
  9982                           
  9983                           ;lcd_i2c.c: 38:     I2C_Stop();
  9984     148C  160A  118A  21E1  160A  118A  	fcall	_I2C_Stop
  9985     1491                     l128:
  9986     1491  0008               	return
  9987     1492                     __end_of_Lcd_Cmd:
  9988                           
  9989                           	psect	text41
  9990     122D                     __ptext41:	
  9991 ;; *************** function _I2C_Write *****************
  9992 ;; Defined at:
  9993 ;;		line 64 in file "i2c.c"
  9994 ;; Parameters:    Size  Location     Type
  9995 ;;  data            1    wreg     unsigned char 
  9996 ;; Auto vars:     Size  Location     Type
  9997 ;;  data            1    0[BANK0 ] unsigned char 
  9998 ;; Return value:  Size  Location     Type
  9999 ;;                  1    wreg      unsigned char 
 10000 ;; Registers used:
 10001 ;;		wreg, status,2, status,0
 10002 ;; Tracked objects:
 10003 ;;		On entry : 0/0
 10004 ;;		On exit  : 0/0
 10005 ;;		Unchanged: 0/0
 10006 ;; Data sizes:     COMMON   BANK0   BANK1   BANK3   BANK2
 10007 ;;      Params:         0       0       0       0       0
 10008 ;;      Locals:         0       1       0       0       0
 10009 ;;      Temps:          1       0       0       0       0
 10010 ;;      Totals:         1       1       0       0       0
 10011 ;;Total ram usage:        2 bytes
 10012 ;; Hardware stack levels used: 1
 10013 ;; This function calls:
 10014 ;;		Nothing
 10015 ;; This function is called by:
 10016 ;;		_Lcd_Cmd
 10017 ;;		_Lcd_Write_Char
 10018 ;;		_ds1307_init
 10019 ;;		_ds1307_set_date
 10020 ;;		_ds1307_set_time
 10021 ;;		_ds1307_get_date
 10022 ;;		_ds1307_get_time
 10023 ;; This function uses a non-reentrant model
 10024 ;;
 10025                           
 10026     122D                     _I2C_Write:	
 10027                           ;psect for function _I2C_Write
 10028                           
 10029                           
 10030                           ;incstack = 0
 10031                           ; Regs used in _I2C_Write: [wreg+status,2+status,0]
 10032                           ;I2C_Write@data stored from wreg
 10033     122D  1283               	bcf	3,5	;RP0=0, select bank0
 10034     122E  1303               	bcf	3,6	;RP1=0, select bank0
 10035     122F  00A0               	movwf	I2C_Write@data
 10036     1230                     l2454:
 10037                           
 10038                           ;i2c.c: 64: uint8_t I2C_Write(char data);i2c.c: 65: {;i2c.c: 66:     SSPBUF = data;
 10039     1230  0820               	movf	I2C_Write@data,w
 10040     1231  0093               	movwf	19	;volatile
 10041     1232                     l103:	
 10042                           ;i2c.c: 67:     while(!PIR1bits.SSPIF);
 10043                           
 10044     1232  1D8C               	btfss	12,3	;volatile
 10045     1233  2A35               	goto	u2831
 10046     1234  2A36               	goto	u2830
 10047     1235                     u2831:
 10048     1235  2A32               	goto	l103
 10049     1236                     u2830:
 10050     1236                     l105:
 10051                           
 10052                           ;i2c.c: 68:     PIR1bits.SSPIF = 0;
 10053     1236  118C               	bcf	12,3	;volatile
 10054     1237                     l2456:
 10055                           
 10056                           ;i2c.c: 70:     return (uint8_t)SSPCON2bits.ACKSTAT;
 10057     1237  1683               	bsf	3,5	;RP0=1, select bank1
 10058     1238  1303               	bcf	3,6	;RP1=0, select bank1
 10059     1239  0E11               	swapf	17,w	;volatile
 10060     123A  00FD               	movwf	??_I2C_Write
 10061     123B  0CFD               	rrf	??_I2C_Write,f
 10062     123C  0C7D               	rrf	??_I2C_Write,w
 10063     123D  3901               	andlw	1
 10064     123E                     l106:
 10065     123E  0008               	return
 10066     123F                     __end_of_I2C_Write:
 10067                           
 10068                           	psect	text42
 10069     11E1                     __ptext42:	
 10070 ;; *************** function _I2C_Stop *****************
 10071 ;; Defined at:
 10072 ;;		line 34 in file "i2c.c"
 10073 ;; Parameters:    Size  Location     Type
 10074 ;;		None
 10075 ;; Auto vars:     Size  Location     Type
 10076 ;;		None
 10077 ;; Return value:  Size  Location     Type
 10078 ;;                  1    wreg      void 
 10079 ;; Registers used:
 10080 ;;		None
 10081 ;; Tracked objects:
 10082 ;;		On entry : 0/0
 10083 ;;		On exit  : 0/0
 10084 ;;		Unchanged: 0/0
 10085 ;; Data sizes:     COMMON   BANK0   BANK1   BANK3   BANK2
 10086 ;;      Params:         0       0       0       0       0
 10087 ;;      Locals:         0       0       0       0       0
 10088 ;;      Temps:          0       0       0       0       0
 10089 ;;      Totals:         0       0       0       0       0
 10090 ;;Total ram usage:        0 bytes
 10091 ;; Hardware stack levels used: 1
 10092 ;; This function calls:
 10093 ;;		Nothing
 10094 ;; This function is called by:
 10095 ;;		_Lcd_Cmd
 10096 ;;		_Lcd_Write_Char
 10097 ;;		_ds1307_init
 10098 ;;		_ds1307_set_date
 10099 ;;		_ds1307_set_time
 10100 ;;		_ds1307_get_date
 10101 ;;		_ds1307_get_time
 10102 ;; This function uses a non-reentrant model
 10103 ;;
 10104                           
 10105     11E1                     _I2C_Stop:	
 10106                           ;psect for function _I2C_Stop
 10107                           
 10108     11E1                     l2452:	
 10109                           ;incstack = 0
 10110                           ; Regs used in _I2C_Stop: []
 10111                           
 10112                           
 10113                           ;i2c.c: 36:     SSPCON2bits.PEN = 1;
 10114     11E1  1683               	bsf	3,5	;RP0=1, select bank1
 10115     11E2  1303               	bcf	3,6	;RP1=0, select bank1
 10116     11E3  1511               	bsf	17,2	;volatile
 10117     11E4                     l79:	
 10118                           ;i2c.c: 37:     while(PIR1bits.SSPIF == 0);
 10119                           
 10120     11E4  1283               	bcf	3,5	;RP0=0, select bank0
 10121     11E5  1D8C               	btfss	12,3	;volatile
 10122     11E6  29E8               	goto	u2821
 10123     11E7  29E9               	goto	u2820
 10124     11E8                     u2821:
 10125     11E8  29E4               	goto	l79
 10126     11E9                     u2820:
 10127     11E9                     l81:
 10128                           
 10129                           ;i2c.c: 38:     PIR1bits.SSPIF = 0;
 10130     11E9  118C               	bcf	12,3	;volatile
 10131     11EA                     l82:
 10132     11EA  0008               	return
 10133     11EB                     __end_of_I2C_Stop:
 10134                           
 10135                           	psect	text43
 10136     11D7                     __ptext43:	
 10137 ;; *************** function _I2C_Start *****************
 10138 ;; Defined at:
 10139 ;;		line 27 in file "i2c.c"
 10140 ;; Parameters:    Size  Location     Type
 10141 ;;		None
 10142 ;; Auto vars:     Size  Location     Type
 10143 ;;		None
 10144 ;; Return value:  Size  Location     Type
 10145 ;;                  1    wreg      void 
 10146 ;; Registers used:
 10147 ;;		None
 10148 ;; Tracked objects:
 10149 ;;		On entry : 0/0
 10150 ;;		On exit  : 0/0
 10151 ;;		Unchanged: 0/0
 10152 ;; Data sizes:     COMMON   BANK0   BANK1   BANK3   BANK2
 10153 ;;      Params:         0       0       0       0       0
 10154 ;;      Locals:         0       0       0       0       0
 10155 ;;      Temps:          0       0       0       0       0
 10156 ;;      Totals:         0       0       0       0       0
 10157 ;;Total ram usage:        0 bytes
 10158 ;; Hardware stack levels used: 1
 10159 ;; This function calls:
 10160 ;;		Nothing
 10161 ;; This function is called by:
 10162 ;;		_Lcd_Cmd
 10163 ;;		_Lcd_Write_Char
 10164 ;;		_ds1307_init
 10165 ;;		_ds1307_set_date
 10166 ;;		_ds1307_set_time
 10167 ;;		_ds1307_get_date
 10168 ;;		_ds1307_get_time
 10169 ;; This function uses a non-reentrant model
 10170 ;;
 10171                           
 10172     11D7                     _I2C_Start:	
 10173                           ;psect for function _I2C_Start
 10174                           
 10175     11D7                     l2450:	
 10176                           ;incstack = 0
 10177                           ; Regs used in _I2C_Start: []
 10178                           
 10179                           
 10180                           ;i2c.c: 29:     SSPCON2bits.SEN = 1;
 10181     11D7  1683               	bsf	3,5	;RP0=1, select bank1
 10182     11D8  1303               	bcf	3,6	;RP1=0, select bank1
 10183     11D9  1411               	bsf	17,0	;volatile
 10184     11DA                     l73:	
 10185                           ;i2c.c: 30:     while(PIR1bits.SSPIF == 0);
 10186                           
 10187     11DA  1283               	bcf	3,5	;RP0=0, select bank0
 10188     11DB  1D8C               	btfss	12,3	;volatile
 10189     11DC  29DE               	goto	u2811
 10190     11DD  29DF               	goto	u2810
 10191     11DE                     u2811:
 10192     11DE  29DA               	goto	l73
 10193     11DF                     u2810:
 10194     11DF                     l75:
 10195                           
 10196                           ;i2c.c: 31:     PIR1bits.SSPIF = 0;
 10197     11DF  118C               	bcf	12,3	;volatile
 10198     11E0                     l76:
 10199     11E0  0008               	return
 10200     11E1                     __end_of_I2C_Start:
 10201                           
 10202                           	psect	text44
 10203     1268                     __ptext44:	
 10204 ;; *************** function _I2C_Init_Master *****************
 10205 ;; Defined at:
 10206 ;;		line 10 in file "i2c.c"
 10207 ;; Parameters:    Size  Location     Type
 10208 ;;  sp_i2c          1    wreg     unsigned char 
 10209 ;; Auto vars:     Size  Location     Type
 10210 ;;  sp_i2c          1    0[COMMON] unsigned char 
 10211 ;; Return value:  Size  Location     Type
 10212 ;;                  1    wreg      void 
 10213 ;; Registers used:
 10214 ;;		wreg, status,2, status,0
 10215 ;; Tracked objects:
 10216 ;;		On entry : 0/0
 10217 ;;		On exit  : 0/0
 10218 ;;		Unchanged: 0/0
 10219 ;; Data sizes:     COMMON   BANK0   BANK1   BANK3   BANK2
 10220 ;;      Params:         0       0       0       0       0
 10221 ;;      Locals:         1       0       0       0       0
 10222 ;;      Temps:          0       0       0       0       0
 10223 ;;      Totals:         1       0       0       0       0
 10224 ;;Total ram usage:        1 bytes
 10225 ;; Hardware stack levels used: 1
 10226 ;; This function calls:
 10227 ;;		Nothing
 10228 ;; This function is called by:
 10229 ;;		_main
 10230 ;; This function uses a non-reentrant model
 10231 ;;
 10232                           
 10233     1268                     _I2C_Init_Master:	
 10234                           ;psect for function _I2C_Init_Master
 10235                           
 10236                           
 10237                           ;incstack = 0
 10238                           ; Regs used in _I2C_Init_Master: [wreg+status,2+status,0]
 10239                           ;I2C_Init_Master@sp_i2c stored from wreg
 10240     1268  00F0               	movwf	I2C_Init_Master@sp_i2c
 10241     1269                     l3034:
 10242                           
 10243                           ;i2c.c: 10: void I2C_Init_Master(unsigned char sp_i2c);i2c.c: 11: {;i2c.c: 12:     TRISC
      +                          bits.TRISC3 = 1;
 10244     1269  1683               	bsf	3,5	;RP0=1, select bank1
 10245     126A  1303               	bcf	3,6	;RP1=0, select bank1
 10246     126B  1587               	bsf	7,3	;volatile
 10247                           
 10248                           ;i2c.c: 13:     TRISCbits.TRISC4 = 1;
 10249     126C  1607               	bsf	7,4	;volatile
 10250     126D                     l3036:
 10251                           
 10252                           ;i2c.c: 15:     SSPSTAT = sp_i2c;
 10253     126D  0870               	movf	I2C_Init_Master@sp_i2c,w
 10254     126E  0094               	movwf	20	;volatile
 10255     126F                     l3038:
 10256                           
 10257                           ;i2c.c: 16:     SSPCON = 0x28;
 10258     126F  3028               	movlw	40
 10259     1270  1283               	bcf	3,5	;RP0=0, select bank0
 10260     1271  1303               	bcf	3,6	;RP1=0, select bank0
 10261     1272  0094               	movwf	20	;volatile
 10262     1273                     l3040:
 10263                           
 10264                           ;i2c.c: 17:     SSPCON2 = 0x00;
 10265     1273  1683               	bsf	3,5	;RP0=1, select bank1
 10266     1274  1303               	bcf	3,6	;RP1=0, select bank1
 10267     1275  0191               	clrf	17	;volatile
 10268     1276                     l3042:
 10269                           
 10270                           ;i2c.c: 19:     if(sp_i2c == 0x80){
 10271     1276  3080               	movlw	128
 10272     1277  0670               	xorwf	I2C_Init_Master@sp_i2c,w
 10273     1278  1D03               	btfss	3,2
 10274     1279  2A7B               	goto	u3961
 10275     127A  2A7C               	goto	u3960
 10276     127B                     u3961:
 10277     127B  2A7F               	goto	l3046
 10278     127C                     u3960:
 10279     127C                     l3044:
 10280                           
 10281                           ;i2c.c: 20:         SSPADD = 49;
 10282     127C  3031               	movlw	49
 10283     127D  0093               	movwf	19	;volatile
 10284                           
 10285                           ;i2c.c: 21:     }
 10286     127E  2A86               	goto	l70
 10287     127F                     l3046:
 10288     127F  0870               	movf	I2C_Init_Master@sp_i2c,w
 10289     1280  1D03               	btfss	3,2
 10290     1281  2A83               	goto	u3971
 10291     1282  2A84               	goto	u3970
 10292     1283                     u3971:
 10293     1283  2A86               	goto	l70
 10294     1284                     u3970:
 10295     1284                     l3048:
 10296                           
 10297                           ;i2c.c: 23:         SSPADD = 12;
 10298     1284  300C               	movlw	12
 10299     1285  0093               	movwf	19	;volatile
 10300     1286                     l70:
 10301     1286  0008               	return
 10302     1287                     __end_of_I2C_Init_Master:
 10303     0002                     ___latbits      equ	2
 10304     007E                     btemp           set	126	;btemp
 10305     007E                     btemp0          set	126
 10306     007F                     btemp1          set	127
 10307     007E                     wtemp0          set	126
 10308     007F                     wtemp0a         set	127
 10309     007F                     ttemp0a         set	127
 10310     0080                     ltemp0a         set	128
 10311                           
 10312                           	psect	config
 10313                           
 10314                           ;Config register CONFIG1 @ 0x2007
 10315                           ;	Oscillator Selection bits
 10316                           ;	FOSC = HS, HS oscillator: High-speed crystal/resonator on RA6/OSC2/CLKOUT and RA7/OSC1
      +                          /CLKIN
 10317                           ;	Watchdog Timer Enable bit
 10318                           ;	WDTE = OFF, WDT disabled and can be enabled by SWDTEN bit of the WDTCON register
 10319                           ;	Power-up Timer Enable bit
 10320                           ;	PWRTE = ON, PWRT enabled
 10321                           ;	RE3/MCLR pin function select bit
 10322                           ;	MCLRE = ON, RE3/MCLR pin function is MCLR
 10323                           ;	Code Protection bit
 10324                           ;	CP = OFF, Program memory code protection is disabled
 10325                           ;	Data Code Protection bit
 10326                           ;	CPD = OFF, Data memory code protection is disabled
 10327                           ;	Brown Out Reset Selection bits
 10328                           ;	BOREN = ON, BOR enabled
 10329                           ;	Internal External Switchover bit
 10330                           ;	IESO = OFF, Internal/External Switchover mode is disabled
 10331                           ;	Fail-Safe Clock Monitor Enabled bit
 10332                           ;	FCMEN = OFF, Fail-Safe Clock Monitor is disabled
 10333                           ;	Low Voltage Programming Enable bit
 10334                           ;	LVP = OFF, RB3 pin has digital I/O, HV on MCLR must be used for programming
 10335                           ;	In-Circuit Debugger Mode bit
 10336                           ;	DEBUG = 0x1, unprogrammed default
 10337     2007                     	org	8199
 10338     2007  23E2               	dw	9186
 10339                           
 10340                           ;Config register CONFIG2 @ 0x2008
 10341                           ;	Brown-out Reset Selection bit
 10342                           ;	BOR4V = BOR40V, Brown-out Reset set to 4.0V
 10343                           ;	Flash Program Memory Self Write Enable bits
 10344                           ;	WRT = OFF, Write protection off
 10345     2008                     	org	8200
 10346     2008  3FFF               	dw	16383

Data Sizes:
    Strings     101
    Constant    0
    Data        0
    BSS         43
    Persistent  0
    Stack       0

Auto Spaces:
    Space          Size  Autos    Used
    COMMON           14     14      14
    BANK0            80     80      80
    BANK1            80     59      70
    BANK3            96      0      32
    BANK2            96      0       0

Pointer List with Targets:

    dht11_read@phum	PTR float  size(1) Largest target is 4
		 -> main@hum_f(BANK1[4]), 

    dht11_read@ptemp	PTR float  size(1) Largest target is 4
		 -> main@temp_f(BANK1[4]), 

    ds1307_get_date@day	PTR unsigned char  size(1) Largest target is 1
		 -> main@dia(BANK1[1]), 

    ds1307_get_date@month	PTR unsigned char  size(1) Largest target is 1
		 -> main@mes(BANK1[1]), 

    ds1307_get_date@year	PTR unsigned char  size(1) Largest target is 1
		 -> main@ano(BANK1[1]), 

    ds1307_get_time@hour	PTR unsigned char  size(1) Largest target is 1
		 -> main@hora(BANK1[1]), 

    ds1307_get_time@min	PTR unsigned char  size(1) Largest target is 1
		 -> main@min(BANK1[1]), 

    ds1307_get_time@sec	PTR unsigned char  size(1) Largest target is 1
		 -> main@seg(BANK1[1]), 

    dtoa@fp	PTR struct _IO_FILE size(2) Largest target is 11
		 -> sprintf@f(BANK0[11]), 

    f$.$buffer	PTR unsigned char  size(2) Largest target is 17
		 -> main@buffer(BANK1[17]), 

    f$.$source	PTR const unsigned char  size(1) Largest target is 0

    fputc@fp	PTR struct _IO_FILE size(2) Largest target is 11
		 -> sprintf@f(BANK0[11]), 

    fputc@fp$.$buffer	PTR unsigned char  size(2) Largest target is 17
		 -> main@buffer(BANK1[17]), 

    fputc@fp$.$source	PTR const unsigned char  size(1) Largest target is 0

    fputs@fp	PTR struct _IO_FILE size(2) Largest target is 11
		 -> sprintf@f(BANK0[11]), 

    fputs@s	PTR const unsigned char  size(1) Largest target is 32
		 -> dbuf(BANK3[32]), 

    Lcd_Write_String@str	PTR const unsigned char  size(2) Largest target is 17
		 -> main@buffer(BANK1[17]), STR_1(CODE[13]), 

    pad@buf	PTR unsigned char  size(1) Largest target is 32
		 -> dbuf(BANK3[32]), 

    pad@fp	PTR struct _IO_FILE size(2) Largest target is 11
		 -> sprintf@f(BANK0[11]), 

    read_prec_or_width@ap	PTR PTR void [1] size(1) Largest target is 1
		 -> sprintf@ap(BANK0[1]), 

    read_prec_or_width@fmt	PTR PTR const unsigned char  size(1) Largest target is 1
		 -> vfprintf@cfmt(BANK0[1]), 

    S854$buffer	PTR unsigned char  size(2) Largest target is 17
		 -> main@buffer(BANK1[17]), 

    S854$source	PTR const unsigned char  size(1) Largest target is 0

    sprintf@ap	PTR void [1] size(1) Largest target is 2
		 -> ?_sprintf(BANK0[2]), 

    sprintf@fmt	PTR const unsigned char  size(1) Largest target is 18
		 -> STR_2(CODE[18]), STR_3(CODE[18]), STR_4(CODE[14]), STR_5(CODE[11]), 
		 -> STR_6(CODE[15]), STR_7(CODE[12]), 

    sprintf@s	PTR unsigned char  size(1) Largest target is 17
		 -> main@buffer(BANK1[17]), 

    vfpfcnvrt@ap	PTR PTR void  size(1) Largest target is 1
		 -> sprintf@ap(BANK0[1]), 

    vfpfcnvrt@cp	PTR unsigned char  size(1) Largest target is 18
		 -> STR_2(CODE[18]), STR_3(CODE[18]), STR_4(CODE[14]), STR_5(CODE[11]), 
		 -> STR_6(CODE[15]), STR_7(CODE[12]), 

    vfpfcnvrt@fmt	PTR PTR unsigned char  size(1) Largest target is 1
		 -> vfprintf@cfmt(BANK0[1]), 

    vfpfcnvrt@fp	PTR struct _IO_FILE size(2) Largest target is 11
		 -> sprintf@f(BANK0[11]), 

    vfprintf@ap	PTR PTR void  size(1) Largest target is 1
		 -> sprintf@ap(BANK0[1]), 

    vfprintf@cfmt	PTR unsigned char  size(1) Largest target is 18
		 -> STR_2(CODE[18]), STR_3(CODE[18]), STR_4(CODE[14]), STR_5(CODE[11]), 
		 -> STR_6(CODE[15]), STR_7(CODE[12]), 

    vfprintf@fmt	PTR const unsigned char  size(1) Largest target is 18
		 -> STR_2(CODE[18]), STR_3(CODE[18]), STR_4(CODE[14]), STR_5(CODE[11]), 
		 -> STR_6(CODE[15]), STR_7(CODE[12]), 

    vfprintf@fp	PTR struct _IO_FILE size(2) Largest target is 11
		 -> sprintf@f(BANK0[11]), 


Critical Paths under _main in COMMON

    _main->___xxtofl
    _read_prec_or_width->___wmul
    _dtoa->_pad
    _pad->_fputc
    _fputs->_fputc
    _abs->___awmod
    _ds1307_set_time->_I2C_Write
    _ds1307_set_date->_I2C_Write
    _dec_to_bcd->___awdiv
    _ds1307_init->_I2C_Write
    _ds1307_get_time->_I2C_Write
    _ds1307_get_date->_I2C_Write
    _bcd_to_dec->___bmul
    _dht11_read->___xxtofl
    ___fldiv->___xxtofl
    ___fltol->___xxtofl
    ___flsub->___xxtofl
    ___fladd->___xxtofl
    ___flmul->___xxtofl
    _Lcd_Write_Char->_I2C_Write
    _Lcd_Cmd->_I2C_Write
    _I2C_Write->_dec_to_bcd

Critical Paths under _main in BANK0

    _main->___flmul
    _sprintf->_vfprintf
    _vfprintf->_vfpfcnvrt
    _vfpfcnvrt->_dtoa
    _dtoa->_pad
    _pad->_fputs
    _ds1307_set_time->_I2C_Write
    _ds1307_set_date->_I2C_Write
    _ds1307_init->_I2C_Write
    _ds1307_get_time->_I2C_Write
    _ds1307_get_date->_I2C_Write
    _dht11_read->___fladd
    ___fltol->___flmul
    ___flsub->___fladd
    ___fladd->___fldiv
    ___flmul->___flsub
    _Lcd_Write_String->_Lcd_Write_Char
    _Lcd_Write_Char->_I2C_Write
    _Lcd_Set_Cursor->_Lcd_Cmd
    _Lcd_Init->_Lcd_Cmd
    _Lcd_Clear->_Lcd_Cmd
    _Lcd_Cmd->_I2C_Write

Critical Paths under _main in BANK1

    _main->___fltol

Critical Paths under _main in BANK3

    None.

Critical Paths under _main in BANK2

    None.

Call Graph Tables:

 ---------------------------------------------------------------------------------
 (Depth) Function   	        Calls       Base Space   Used Autos Params    Refs
 ---------------------------------------------------------------------------------
 (0) _main                                                49    49      0   15583
                                             10 BANK1     49    49      0
                    _I2C_Init_Master
                          _Lcd_Clear
                           _Lcd_Init
                     _Lcd_Set_Cursor
                   _Lcd_Write_String
                            ___flmul
                            ___flsub
                            ___fltol
                           ___xxtofl
                       _dht11_config
                         _dht11_read
                    _ds1307_get_date
                    _ds1307_get_time
                        _ds1307_init
                    _ds1307_set_date
                    _ds1307_set_time
                            _sprintf
 ---------------------------------------------------------------------------------
 (1) _sprintf                                             23    15      8    3184
                                             44 BANK0     21    13      8
                           _vfprintf
 ---------------------------------------------------------------------------------
 (2) _vfprintf                                             5     1      4    2971
                                             39 BANK0      5     1      4
                          _vfpfcnvrt
 ---------------------------------------------------------------------------------
 (3) _vfpfcnvrt                                           13     9      4    2834
                                             27 BANK0     12     8      4
                               _dtoa
                              _fputc
                 _read_prec_or_width
 ---------------------------------------------------------------------------------
 (4) _read_prec_or_width                                   5     3      2     276
                                              6 COMMON     5     3      2
                             ___wmul
 ---------------------------------------------------------------------------------
 (5) ___wmul                                               6     2      4      94
                                              0 COMMON     6     2      4
 ---------------------------------------------------------------------------------
 (4) _dtoa                                                12     8      4    1833
                                             15 BANK0     12     8      4
                            ___awdiv
                            ___awmod
                                _abs
                                _pad
 ---------------------------------------------------------------------------------
 (5) _pad                                                  8     3      5     751
                                             13 COMMON     1     1      0
                                              8 BANK0      7     2      5
                              _fputc
                              _fputs
 ---------------------------------------------------------------------------------
 (6) _fputs                                                8     5      3     335
                                              0 BANK0      8     5      3
                              _fputc
 ---------------------------------------------------------------------------------
 (7) _fputc                                               13     9      4     234
                                              0 COMMON    13     9      4
                              _putch
 ---------------------------------------------------------------------------------
 (8) _putch                                                1     1      0       0
 ---------------------------------------------------------------------------------
 (5) _abs                                                  4     2      2      67
                                              6 COMMON     4     2      2
                            ___awmod (ARG)
 ---------------------------------------------------------------------------------
 (1) _ds1307_set_time                                      5     3      2     812
                                              1 BANK0      5     3      2
                          _I2C_Start
                           _I2C_Stop
                          _I2C_Write
                         _dec_to_bcd
 ---------------------------------------------------------------------------------
 (1) _ds1307_set_date                                      5     3      2     812
                                              1 BANK0      5     3      2
                          _I2C_Start
                           _I2C_Stop
                          _I2C_Write
                         _dec_to_bcd
 ---------------------------------------------------------------------------------
 (2) _dec_to_bcd                                           5     5      0     708
                                              8 COMMON     5     5      0
                            ___awdiv
                            ___awmod
 ---------------------------------------------------------------------------------
 (5) ___awmod                                              6     2      4     300
                                              0 COMMON     6     2      4
 ---------------------------------------------------------------------------------
 (5) ___awdiv                                              8     4      4     304
                                              0 COMMON     8     4      4
 ---------------------------------------------------------------------------------
 (1) _ds1307_init                                          3     3      0      29
                                              1 BANK0      3     3      0
                          _I2C_Start
                           _I2C_Stop
                          _I2C_Write
 ---------------------------------------------------------------------------------
 (1) _ds1307_get_time                                      5     2      3     465
                                              1 BANK0      5     2      3
                            _I2C_Ack
                           _I2C_Nack
                           _I2C_Read
                          _I2C_Start
                           _I2C_Stop
                          _I2C_Write
                         _bcd_to_dec
 ---------------------------------------------------------------------------------
 (1) _ds1307_get_date                                      5     2      3     465
                                              1 BANK0      5     2      3
                            _I2C_Ack
                           _I2C_Nack
                           _I2C_Read
                          _I2C_Start
                           _I2C_Stop
                          _I2C_Write
                         _bcd_to_dec
 ---------------------------------------------------------------------------------
 (2) _bcd_to_dec                                           3     3      0     166
                                              3 COMMON     3     3      0
                             ___bmul
 ---------------------------------------------------------------------------------
 (3) ___bmul                                               3     2      1     108
                                              0 COMMON     3     2      1
 ---------------------------------------------------------------------------------
 (2) _I2C_Read                                             0     0      0       0
 ---------------------------------------------------------------------------------
 (2) _I2C_Nack                                             0     0      0       0
 ---------------------------------------------------------------------------------
 (2) _I2C_Ack                                              0     0      0       0
 ---------------------------------------------------------------------------------
 (1) _dht11_read                                          12    10      2    3668
                                             46 BANK0     12    10      2
                            ___fladd
                            ___fldiv
                           ___xxtofl
                    _dht11_read_byte
 ---------------------------------------------------------------------------------
 (2) _dht11_read_byte                                      2     2      0      69
                                              0 COMMON     2     2      0
 ---------------------------------------------------------------------------------
 (2) ___xxtofl                                            14    10      4     342
                                              0 COMMON    14    10      4
 ---------------------------------------------------------------------------------
 (2) ___fldiv                                             26    18      8    1126
                                              0 BANK0     26    18      8
                           ___xxtofl (ARG)
 ---------------------------------------------------------------------------------
 (1) _dht11_config                                         0     0      0       0
 ---------------------------------------------------------------------------------
 (1) ___fltol                                             10     6      4     233
                                              0 BANK1     10     6      4
                            ___flmul (ARG)
                            ___flsub (ARG)
                           ___xxtofl (ARG)
 ---------------------------------------------------------------------------------
 (1) ___flsub                                              8     0      8    2041
                                             46 BANK0      8     0      8
                            ___fladd
                           ___xxtofl (ARG)
 ---------------------------------------------------------------------------------
 (2) ___fladd                                             20    12      8    1992
                                             26 BANK0     20    12      8
                            ___fldiv (ARG)
                           ___xxtofl (ARG)
 ---------------------------------------------------------------------------------
 (1) ___flmul                                             26    18      8    1610
                                             54 BANK0     26    18      8
                          __Umul8_16
                            ___flsub (ARG)
                           ___xxtofl (ARG)
 ---------------------------------------------------------------------------------
 (2) __Umul8_16                                            9     7      2     139
                                              0 COMMON     9     7      2
 ---------------------------------------------------------------------------------
 (1) _Lcd_Write_String                                     2     0      2     229
                                              5 BANK0      2     0      2
                     _Lcd_Write_Char
 ---------------------------------------------------------------------------------
 (2) _Lcd_Write_Char                                       4     4      0     179
                                              1 BANK0      4     4      0
                          _I2C_Start
                           _I2C_Stop
                          _I2C_Write
 ---------------------------------------------------------------------------------
 (1) _Lcd_Set_Cursor                                       3     2      1     263
                                              5 BANK0      3     2      1
                            _Lcd_Cmd
 ---------------------------------------------------------------------------------
 (1) _Lcd_Init                                             2     2      0     179
                                              5 BANK0      2     2      0
                            _Lcd_Cmd
 ---------------------------------------------------------------------------------
 (1) _Lcd_Clear                                            2     2      0     179
                                              5 BANK0      2     2      0
                            _Lcd_Cmd
 ---------------------------------------------------------------------------------
 (2) _Lcd_Cmd                                              4     4      0     179
                                              1 BANK0      4     4      0
                          _I2C_Start
                           _I2C_Stop
                          _I2C_Write
 ---------------------------------------------------------------------------------
 (3) _I2C_Write                                            2     2      0      29
                                             13 COMMON     1     1      0
                                              0 BANK0      1     1      0
                         _dec_to_bcd (ARG)
 ---------------------------------------------------------------------------------
 (3) _I2C_Stop                                             0     0      0       0
 ---------------------------------------------------------------------------------
 (3) _I2C_Start                                            0     0      0       0
 ---------------------------------------------------------------------------------
 (1) _I2C_Init_Master                                      1     1      0      87
                                              0 COMMON     1     1      0
 ---------------------------------------------------------------------------------
 Estimated maximum stack depth 8
 ---------------------------------------------------------------------------------

 Call Graph Graphs:

 _main (ROOT)
   _I2C_Init_Master
   _Lcd_Clear
     _Lcd_Cmd
       _I2C_Start
       _I2C_Stop
       _I2C_Write
         _dec_to_bcd (ARG)
           ___awdiv
           ___awmod
   _Lcd_Init
     _Lcd_Cmd
   _Lcd_Set_Cursor
     _Lcd_Cmd
   _Lcd_Write_String
     _Lcd_Write_Char
       _I2C_Start
       _I2C_Stop
       _I2C_Write
   ___flmul
     __Umul8_16
     ___flsub (ARG)
       ___fladd
         ___fldiv (ARG)
           ___xxtofl (ARG)
         ___xxtofl (ARG)
       ___xxtofl (ARG)
     ___xxtofl (ARG)
   ___flsub
   ___fltol
     ___flmul (ARG)
     ___flsub (ARG)
     ___xxtofl (ARG)
   ___xxtofl
   _dht11_config
   _dht11_read
     ___fladd
     ___fldiv
     ___xxtofl
     _dht11_read_byte
   _ds1307_get_date
     _I2C_Ack
     _I2C_Nack
     _I2C_Read
     _I2C_Start
     _I2C_Stop
     _I2C_Write
     _bcd_to_dec
       ___bmul
   _ds1307_get_time
     _I2C_Ack
     _I2C_Nack
     _I2C_Read
     _I2C_Start
     _I2C_Stop
     _I2C_Write
     _bcd_to_dec
   _ds1307_init
     _I2C_Start
     _I2C_Stop
     _I2C_Write
   _ds1307_set_date
     _I2C_Start
     _I2C_Stop
     _I2C_Write
     _dec_to_bcd
   _ds1307_set_time
     _I2C_Start
     _I2C_Stop
     _I2C_Write
     _dec_to_bcd
   _sprintf
     _vfprintf
       _vfpfcnvrt
         _dtoa
           ___awdiv
           ___awmod
           _abs
             ___awmod (ARG)
           _pad
             _fputc
               _putch
             _fputs
               _fputc
         _fputc
         _read_prec_or_width
           ___wmul

Address spaces:
Name               Size   Autos  Total    Usage
BITCOMMON           14      0       0      0.0%
BITBANK0            80      0       0      0.0%
BITBANK1            80      0       0      0.0%
BITBANK3            96      0       0      0.0%
BITBANK2            96      0       0      0.0%
COMMON              14     14      14    100.0%
BANK0               80     80      80    100.0%
BANK1               80     59      70     87.5%
BANK3               96      0      32     33.3%
BANK2               96      0       0      0.0%
STACK                0      0       0      0.0%
DATA                 0      0     196      0.0%


Microchip Technology PIC Macro Assembler V3.10 build 20250813170317 
Symbol Table                                                                                   Wed Nov  5 08:31:27 2025

              ___fldiv@aexp 0039                ___fldiv@bexp 0038                           pc 0002  
              ___fldiv@sign 0031              ___bmul@product 0071                          l43 0704  
                        l70 1286                          l73 11DA                          l81 11E9  
                        l82 11EA                          l75 11DF                          l91 11F9  
                        l76 11E0                          l93 11FE                          l94 11FF  
                        l79 11E4                          l97 1204                          l99 1209  
              ___awdiv@sign 0075                          fsr 0004         ___wmul@multiplicand 0072  
       __Umul8_16@word_mpld 0076                         l100 120A                         l103 1232  
                       l111 0809                         l112 080B                         l105 1236  
                       l106 123E                         l202 11F4                         l210 0ABE  
                       l131 14DA                         l125 1448                         l141 138B  
                       l205 0AB9                         l109 0804                         l150 121B  
                       l214 0AC3                         l128 1491                         l208 0BE5  
                       l137 136A                         l241 140F                         l138 136D  
                       l139 1370                         l147 13B3                         l244 16D8  
                       l252 157C                         l190 1344                         l238 1267  
                       l248 152A                         l352 12FD                         l193 1363  
                       l505 0069                         l266 176B                         l354 1315  
                       l195 1349                         l259 17FF                         l518 1626  
                       l711 0DAF                         l553 086C                         l546 0881  
                       l378 1251                         l731 0D9B                         l556 0881  
                       l653 0E0D                         l733 0DA7                         l725 0D29  
                       l709 0C3B                         l806 0999                         l807 09A5  
                       l815 12CC                         l648 0DDC                         l840 167D  
                       l761 047D                         l657 0E8C                         l905 091B  
                       l913 13DE                         l770 133C                         l674 0F52  
                       l666 0FFF                         l755 03F9                         l659 0E67  
                       l835 1642                         l843 0A02                         l684 0F99  
                       l916 0006                         l749 0487                         l678 0F76  
                       l838 166A                         l695 0FF5                         l687 0FD5  
                       l847 0A00                         l871 008D                         l768 132A  
                       l696 0FFF                         l856 0A9C                         l864 15CF  
                       l793 093E                         l873 0097                         l794 094F  
                       l699 12F0                         l795 09CF                         l893 122C  
                       l886 12A9                         l799 097D                         l879 0145  
                       _abs 121C             __end_of_I2C_Ack 1200                         _pad 1627  
                       fsr0 0004                         indf 0000                ___awmod@sign 0075  
              ___flmul@aexp 0068                ___flmul@bexp 0069                ___flmul@sign 0063  
              ___flmul@temp 006E                ___flmul@prod 006A           ??_ds1307_get_date 0024  
         ??_ds1307_get_time 0024                ___fltol@exp1 00A9                        ?_abs 0076  
                      l3000 0966                        l3010 099D                        l3002 0974  
                      l3020 09C7                        l3012 09A7                        l3004 0984  
                      l3100 16B2                        l2300 0029                        l3014 09BD  
                      l3006 098F                        l3102 16C9                        l2310 004D  
                      l2302 0030                        l3110 156D                        l3030 12A7  
                      l3040 1273                        l3016 09C2                        l3008 0993  
                      l3120 0A9D                        l3200 174C                        l2320 0065  
                      l2312 004E                        l2304 0032                        l3112 14DE  
                      l3104 152E                        l2400 0A06                        l3024 1287  
                      l3042 1276                        l3034 1269                        l3050 1410  
                      l3018 09C6                        l3122 0AA3                        l3210 1771  
                      l3202 175A                        l2314 0055                        l2306 0036  
                      l2330 15DA                        l3114 14E3                        l3106 1533  
                      l2250 0895                        l2410 0A37                        l2402 0A0A  
                      l3026 128C                        l3044 127C                        l3036 126D  
                      l3060 1432                        l3052 141A                        l3300 0146  
                      l3132 0ABD                        l3124 0AAD                        l3220 17A6  
                      l3212 177C                        l2308 0047                        l2316 005B  
                      l2340 15EE                        l2332 15DC                        l2324 15D0  
                      l3116 14EE                        l3108 153E                        l2252 08AD  
                      l2244 0882                        l2260 13B9                        l2420 0A73  
                      l2404 0A11                        l2412 0A4A                        l2500 00C5  
                      l3028 1299                        l3046 127F                        l3038 126F  
                      l3062 1438                        l3054 1420                        l3070 1368  
                      l3310 0155                        l3302 014A                        l3150 0AC8  
                      l3126 0AB6                        l3230 17DA                        l3222 17AB  
                      l3214 1782                        l3206 1766                        l2318 0060  
                      l2350 160B                        l2342 15F5                        l2334 15E0  
                      l2326 15D1                        l3118 151B                        l2254 08DF  
                      l2246 0888                        l2262 13C9                        l2414 0A59  
                      l2422 0A79                        l2406 0A2E                        l2270 12F7  
                      l2510 00F6                        l2502 00CC                        l3048 1284  
                      l3064 120B                        l3056 1426                        l3080 1384  
                      l3400 03DD                        l3320 0171                        l3312 015A  
                      l3304 014C                        l3160 0AE2                        l3152 0AD2  
                      l3144 0AC7                        l3232 17DF                        l3224 17B8  
                      l3216 178E                        l3208 176C                        l2280 0007  
                      l2352 1612                        l2344 15F7                        l2336 15E5  
                      l2328 15D5                        l2248 088E                        l2264 13D1  
                      l2424 0A80                        l2416 0A61                        l2408 0A31  
                      l2272 1304                        l2440 15A0                        l2432 157D  
                      l2504 00D8                        l2450 11D7                        l3066 1211  
                      l3058 142C                        l3082 138C                        l3410 03FE  
                      l3402 03DE                        l3330 0182                        l3322 0174  
                      l3314 015F                        l3306 0150                        l3090 11EB  
                      l2610 135C                        l3170 0B08                        l3162 0AE8  
                      l3138 0AC2                        l3242 17FA                        l3226 17C0  
                      l3218 179E                        l3234 17EC                        l2290 0017  
                      l2282 0008                        l2346 15FB                        l2338 15EB  
                      l2354 1618                        l2258 13B4                        l2370 1645  
                      l2362 1627                        l2426 0A86                        l2418 0A66  
                      l2274 130B                        l2266 12F1                        l2442 15B5  
                      l2434 157F                        l2522 0124                        l2514 0104  
                      l2506 00E4                        l3250 12B4                        l2452 11E1  
                      l3076 1373                        l3068 1367                        l3084 138D  
                      l3412 0403                        l3420 0434                        l3404 03E2  
                      l3340 019E                        l3332 0187                        l3324 0178  
                      l3316 0167                        l3308 0154                        l2700 0E31  
                      l3260 0817                        l3092 11F0                        l2612 1362  
                      l2604 134D                        l3172 0BE4                        l3164 0AFD  
                      l3156 0AD4                        l2532 11F5                        l2460 1240  
                      l3236 17F7                        l3228 17D2                        l3180 16E9  
                      l2292 001C                        l2284 000C                        l2356 161D  
                      l2348 1605                        l2620 13E0                        l2380 1220  
                      l2372 1654                        l2364 162D                        l2428 0A8C  
                      l2276 1311                        l2268 12F3                        l2436 158E  
                      l2444 15BA                        l2516 0112                        l2508 00F1  
                      l3252 12B6                        l3244 12AA                        l3500 0595  
                      l2454 1230                        l2550 145D                        l2542 144C  
                      l3078 1381                        l3086 139B                        l3430 0467  
                      l3422 0441                        l3414 0411                        l3406 03F6  
                      l3350 01C7                        l3342 01A3                        l3334 018F  
                      l3326 017C                        l3318 0169                        l2710 0E4F  
                      l2702 0E33                        l2630 0DB6                        l3270 083C  
                      l2606 1359                        l3158 0ADE                        l2534 1200  
                      l2470 1250                        l2462 1241                        l3190 1718  
                      l3182 16EF                        l3094 167E                        l2294 001E  
                      l2286 0011                        l2358 1622                        l2622 1404  
                      l2382 1221                        l2374 165C                        l2366 163A  
                      l2390 09E7                        l2446 15CB                        l2438 1592  
                      l2518 0116                        l2526 012C                        l3254 12C3  
                      l3246 12AE                        l3510 05FD                        l3502 059F  
                      l2456 1237                        l2560 1483                        l2552 1462  
                      l2544 144E                        l3088 13A3                        l3432 0473  
                      l3424 044C                        l3416 0415                        l3360 0260  
                      l3352 01E2                        l3336 0191                        l3328 017D  
                      l2800 0FB1                        l2720 0E79                        l2712 0E6B  
                      l2704 0E35                        l2640 0DC9                        l2632 0DBA  
                      l3280 084A                        l3272 083E                        l3264 0820  
                      l2608 135A                        l2536 0801                        l2464 1245  
                      l2616 1253                        l3192 1725                        l3184 16FB  
                      l3176 16D9                        l3096 168C                        l2296 0020  
                      l2288 0013                        l2376 1670                        l2368 1640  
                      l2392 09EC                        l2480 0085                        l3248 12B2  
                      l3520 0665                        l3512 0635                        l3504 05A6  
                      l2562 148C                        l2554 1468                        l2546 1450  
                      l2570 14A4                        l3434 0477                        l3426 045B  
                      l3418 042E                        l3370 02BF                        l3362 0269  
                      l3354 01FE                        l3346 01AC                        l3338 0199  
                      l2810 0FE7                        l2802 0FB5                        l2722 0E82  
                      l2714 0E72                        l2706 0E37                        l2650 0DE0  
                      l2642 0DD1                        l2634 0DBE                        l2626 0DB0  
                      l3290 0871                        l3274 0842                        l3282 085A  
                      l3266 0833                        l3258 080C                        l2538 080A  
                      l2466 1247                        l3194 172D                        l3186 170B  
                      l3178 16DE                        l3098 16A3                        l2298 0026  
                      l2378 121C                        l2394 09F2                        l2386 09D0  
                      l2490 00A7                        l2482 0089                        l2474 006A  
                      l3530 0720                        l3522 06D5                        l3506 05B0  
                      l3514 0641                        l3450 04B4                        l3442 0488  
                      l2556 1471                        l2548 145B                        l2580 14C3  
                      l2572 14A6                        l2564 1495                        l3436 0478  
                      l3428 0465                        l3380 0357                        l3372 02D6  
                      l3364 0277                        l3356 0228                        l3348 01BA  
                      l2820 0FFA                        l2812 0FEC                        l2804 0FD3  
                      l2740 0EC4                        l2732 0E9E                        l2716 0E74  
                      l2724 0E84                        l2708 0E38                        l2660 0DF0  
                      l2652 0DE6                        l2644 0DD2                        l2636 0DBF  
                      l2628 0DB4                        l3292 0876                        l3268 0834  
                      l2900 0CB9                        l2468 1249                        l3196 173F  
                      l3188 1713                        l2396 09F7                        l2388 09D4  
                      l2492 00AC                        l2484 0090                        l2476 007B  
                      l3540 07D7                        l3532 0733                        l3524 06F9  
                      l3516 064B                        l3508 05E8                        l3460 04E1  
                      l3452 04B9                        l3444 0491                        l2558 147A  
                      l2582 14CC                        l2574 14AB                        l2566 1497  
                      l3438 047F                        l3390 03C5                        l3382 037D  
                      l3374 02F3                        l3366 0294                        l3358 0244  
                      l2822 0FFE                        l2814 0FED                        l2806 0FDA  
                      l2742 0EC6                        l2734 0EB5                        l2726 0E90  
                      l2750 0ED7                        l2718 0E78                        l2662 0DF5  
                      l2670 0E05                        l2654 0DE7                        l2638 0DC4  
                      l2646 0DD4                        l3294 12CD                        l2910 0CE2  
                      l2902 0CCB                        l2830 0BF0                        l3198 1747  
                      l2398 09FC                        l2494 00BB                        l2478 007F  
                      l3534 07A3                        l3526 070F                        l3518 0652  
                      l3470 0515                        l3462 04EF                        l3454 04C7  
                      l3446 04A0                        l2584 14D5                        l2576 14B1  
                      l2568 1499                        l3392 03C9                        l3384 03A5  
                      l3376 031E                        l3368 02A2                        l2816 0FF1  
                      l2808 0FDF                        l2760 0F35                        l2752 0EED  
                      l2744 0ECA                        l2736 0EB9                        l2728 0E95  
                      l2680 0E1D                        l2672 0E13                        l2664 0DFA  
                      l2656 0DEB                        l2648 0DDE                        l3296 12D1  
                      l3288 0861                        l2920 0CFA                        l2912 0CEA  
                      l2904 0CCC                        l2840 0C07                        l2832 0BF4  
                      l2824 0BE6                        l2592 1341                        l2496 00BF  
                      l2488 009A                        l3536 07C7                        l3528 0719  
                      l3480 054E                        l3472 0520                        l3464 04F4  
                      l3456 04CC                        l3448 04A6                        l2578 14BA  
                      l3394 03CA                        l3386 03AE                        l3378 032C  
                      l2818 0FF3                        l2770 0F68                        l2754 0F2B  
                      l2762 0F44                        l2746 0ECB                        l2738 0EBD  
                      l2690 0E27                        l2682 0E1F                        l2674 0E17  
                      l2666 0E02                        l2658 0DEF                        l2930 0D12  
                      l2922 0D03                        l2914 0CEC                        l2906 0CDA  
                      l2850 0C19                        l2842 0C08                        l2834 0BF5  
                      l2826 0BEA                        l2586 133D                        l2498 00C0  
                      l3538 07D3                        l3490 057F                        l3482 055B  
                      l3474 052C                        l3466 0502                        l3458 04D6  
                      l3396 03D3                        l3388 03BC                        l2780 0F80  
                      l2772 0F71                        l2764 0F5A                        l2756 0F2D  
                      l2748 0ED4                        l2692 0E29                        l2684 0E21  
                      l2676 0E19                        l2668 0E03                        l2940 0D41  
                      l2932 0D26                        l2916 0CF5                        l2924 0D09  
                      l2908 0CDC                        l2860 0C30                        l2852 0C1D  
                      l2836 0BFA                        l2844 0C0A                        l2828 0BEC  
                      l3492 0581                        l3484 0568                        l3476 053B  
                      l3468 0507                        l3398 03D9                        l2790 0F90  
                      l2782 0F85                        l2774 0F75                        l2766 0F5F  
                      l2758 0F30                        l2694 0E2B                        l2686 0E23  
                      l2678 0E1B                        l2950 0D7F                        l2942 0D45  
                      l2926 0D0D                        l2918 0CF9                        l2870 0C51  
                      l2862 0C31                        l2854 0C1E                        l2846 0C12  
                      l2838 0BFF                        l2598 1348                        l3494 0587  
                      l3486 0570                        l3478 0549                        ?_pad 0028  
                      l2792 0F96                        l2776 0F7A                        l2784 0F87  
                      l2696 0E2D                        l2688 0E25                        l2960 0DA3  
                      l2952 0D8E                        l2944 0D5E                        l2936 0D2E  
                      l2928 0D0E                        l2880 0C68                        l2856 0C23  
                      l2864 0C33                        l2848 0C15                        l3496 058F  
                      l3488 057E                        l2970 1319                        l2778 0F7E  
                      l2786 0F8B                        l2698 0E2F                        l2962 0DA5  
                      l2954 0D92                        l2938 0D33                        l2946 0D64  
                      l2890 0C94                        l2882 0C7A                        l2866 0C43  
                      l2874 0C5A                        l2858 0C28                        l3498 0590  
                      l2972 1320                        l2796 0F9E                        l2788 0F8C  
                      l2956 0D9A                        l2948 0D71                        l2892 0C99  
                      l2884 0C82                        l2876 0C5F                        l2868 0C4F  
                      l2974 1324                        l2798 0FA3                        l2958 0D9F  
                      l2894 0CAB                        l2886 0C8A                        l2990 0946  
                      l2982 091D                        l2976 1333                        l2968 1317  
                      l2896 0CAF                        l2888 0C92                        l2984 0922  
                      l2978 1338                        l2898 0CB0                        l2994 0952  
                      l2986 0926                        l2996 095D                        l2988 0936  
                      l2998 0964                        STR_1 1051                        STR_2 1022  
                      STR_3 1010                        STR_4 1043                        STR_5 106A  
                      STR_6 1034                        STR_7 105E                        u3000 1362  
                      u3001 1361                        u3100 0E13                        u3101 0E12  
                      u3110 0E17                        u3030 0DBE                        u3111 0E16  
                      u3031 0DBD                        u3015 125B                        u3200 0E95  
                      u3120 0E4F                        u3040 0DC4                        u4000 14EE  
                      u2400 13DE                        u3201 0E94                        u3121 0E4E  
                      u3041 0DC3                        u3025 1407                        u4001 14ED  
                      u2401 13DD                        u3130 0E5A                        u3050 0DC9  
                      u4010 0ABD                        u2410 12F7                        u3211 0EA7  
                      u3131 0E58                        u3051 0DC8                        u4011 0ABC  
                      u2411 12F6                        u3300 0F5A                        u3220 0EB9  
                      u3212 0EAE                        u3140 0E5B                        u3060 0DE6  
                      u4020 0AC2                        u4100 179E                        u3301 0F59  
                      u3221 0EB8                        u3213 0EB5                        u3125 0E4B  
                      u3061 0DE5                        u4021 0AC1                        u4101 179D  
                      u3310 0F5F                        u3230 0EBD                        u3150 0E6B  
                      u3070 0DEF                        u4110 0817                        u4030 0AC7  
                      u2510 0047                        u2350 0888                        u3311 0F5E  
                      u3231 0EBC                        u3151 0E6A                        u3071 0DEE  
                      u4111 0816                        u4031 0AC6                        u2511 0046  
                      u2351 0887                        u3400 0FA3                        u3240 0ECA  
                      u3160 0E78                        u3080 0DF5                        u4200 0876  
                      u4120 082E                        u4040 0AD2                        u2600 1605  
                      u2360 088E                        u2440 1311                        u3401 0FA2  
                      u3241 0EC9                        u3161 0E77                        u3081 0DF4  
                      u4201 0875                        u4041 0AD1                        u2505 0037  
                      u2601 1604                        u2361 088D                        u2441 1310  
                      u2425 12FE                        u4210 0154                        u3410 0FB5  
                      u3330 0F75                        u3090 0DFA                        u4130 0842  
                      u4050 0AE8                        u2530 005B                        u2450 000C  
                      u2370 08AD                        u4211 0153                        u3411 0FB4  
                      u3331 0F74                        u3091 0DF9                        u4131 0841  
                      u4051 0AE7                        u2531 005A                        u2515 0043  
                      u2451 000B                        u2371 08AC                        u2435 1305  
                      u4220 015A                        u3420 0FC4                        u3340 0F7A  
                      u3260 0EED                        u3180 0E8C                        u4140 0849  
                      u3500 0BFA                        u4060 0B07                        u2540 0060  
                      u2460 0017                        u2620 1618                        u2380 08DF  
                      u2700 09DA                        u4301 020C                        u4221 0159  
                      u3341 0F79                        u3325 0F6A                        u3261 0EEC  
                      u3181 0E8B                        u4141 0848                        u4125 0829  
                      u3501 0BF9                        u4061 0B06                        u2541 005F  
                      u2525 004F                        u2461 0016                        u2621 1617  
                      u2605 1601                        u2381 08DE                        u4302 0213  
                      u4230 015F                        u3430 0FD3                        u3350 0F85  
                      u3190 0E90                        u3510 0BFF                        u4070 16E9  
                      u2470 0026                        u2630 161D                        u2550 15D5  
                      u2390 0900                        u2710 09EC                        u4311 0236  
                      u4303 021A                        u4231 015E                        u3431 0FD2  
                      u3351 0F84                        u3271 0F04                        u3263 0EE9  
                      u3255 0ECD                        u3191 0E8F                        u3175 0E7B  
                      u3511 0BFE                        u4071 16E8                        u2471 0025  
                      u2631 161C                        u2615 160C                        u2551 15D4  
                      u2711 09EB                        u4400 0363                        u4312 023D  
                      u4240 017C                        u3440 0FDA                        u3360 0F8B  
                      u3280 0F18                        u3272 0F05                        u4160 0859  
                      u3600 0CAF                        u3520 0C1D                        u4080 170B  
                      u2560 15E0                        u2640 162D                        u2720 09F7  
                      u2800 15CB                        u4321 0252                        u4313 0244  
                      u4241 017B                        u3441 0FD9                        u3425 0FBF  
                      u3361 0F8A                        u3281 0F19                        u3273 0F0A  
                      u4161 0858                        u3601 0CAE                        u3521 0C1C  
                      u4081 170A                        u2561 15DF                        u2385 08DB  
                      u2641 162C                        u2721 09F6                        u2801 15CA  
                      u2810 11DF                        u4322 0259                        u4250 0182  
                      u3450 0FDF                        u3370 0F90                        u3290 0F35  
                      u3282 0F1E                        u3274 0F0B                        u4170 0860  
                      u3530 0C23                        u4090 177C                        u2490 0036  
                      u2570 15EB                        u2650 1640                        u2730 0A59  
                      u2811 11DE                        u4411 036F                        u4323 0260  
                      u4251 0181                        u3451 0FDE                        u3371 0F8F  
                      u3291 0F34                        u3283 0F1F                        u3275 0F10  
                      u4171 085F                        u4155 084B                        u3531 0C22  
                      u4091 177B                        u2491 0035                        u2571 15EA  
                      u2651 163F                        u2731 0A58                        u2820 11E9  
                      u4500 03F6                        u4420 038B                        u4412 0376  
                      u4260 0187                        u3460 0FEC                        u3380 0F96  
                      u3276 0F11                        u3700 0D26                        u3620 0CCB  
                      u3540 0C28                        u2660 166A                        u2740 0A61  
                      u2900 00E4                        u2821 11E8                        u4501 03F5  
                      u4413 037D                        u4405 035E                        u4341 0286  
                      u4261 0186                        u3461 0FEB                        u3381 0F95  
                      u3701 0D25                        u3621 0CCA                        u3541 0C27  
                      u2485 002A                        u2661 1669                        u2741 0A60  
                      u2901 00E3                        u2830 1236                        u4510 03FD  
                      u4342 028D                        u4270 019E                        u3470 0FF1  
                      u3390 0F9D                        u4190 0871                        u3710 0D2D  
                      u3630 0CE2                        u3550 0C43                        u2590 15FB  
                      u2670 1670                        u2750 0A66                        u2910 0112  
                      u2831 1235                        u4511 03FC                        u4431 0397  
                      u4351 02B1                        u4343 0294                        u4335 0262  
                      u4271 019D                        u3471 0FF0                        u3391 0F9C  
                      u4191 0870                        u3711 0D2C                        u3631 0CE1  
                      u3615 0CB2                        u3551 0C42                        u2591 15FA  
                      u2671 166F                        u2751 0A65                        u2735 0A55  
                      u2911 0111                        u3800 1338                        u4520 0403  
                      u4432 039E                        u4352 02B8                        u4280 01A3  
                      u3480 0FFE                        u3720 0D33                        u3640 0CEA  
                      u3560 0C5F                        u2920 11FE                        u2840 1245  
                      u2680 1220                        u2760 0A73                        u4600 058D  
                      u3801 1337                        u4521 0402                        u4433 03A5  
                      u4425 0386                        u4353 02BF                        u4281 01A2  
                      u3481 0FFD                        u4185 0863                        u3721 0D32  
                      u3641 0CE9                        u3625 0CC7                        u3561 0C5E  
                      u2921 11FD                        u2841 1244                        u2585 15EF  
                      u2681 121F                        u2665 1666                        u2761 0A72  
                      u4601 058B                        u4530 0415                        u3730 0D45  
                      u3570 0C99                        u3490 0BF4                        u3810 0922  
                      u2930 1209                        u2850 1250                        u2770 0A79  
                      u2690 09D9                        u4610 058E                        u4531 0414  
                      u4371 02E5                        u4291 01F0                        u3731 0D44  
                      u3571 0C98                        u3491 0BF3                        u3811 0921  
                      u2931 1208                        u2851 124F                        u2771 0A78  
                      u2691 09D7                        u4540 0424                        u4460 03C9  
                      u4372 02EC                        u4292 01F7                        u3740 0D54  
                      u3660 0CF9                        u3900 0999                        u3820 0926  
                      u2940 0809                        u2780 0A80                        u2860 007B  
                      u4620 05A6                        u4461 03C8                        u4445 03A7  
                      u4381 0310                        u4373 02F3                        u4365 02C1  
                      u4293 01FE                        u3661 0CF8                        u3901 0998  
                      u3821 0925                        u2941 0808                        u2781 0A7F  
                      u2765 0A6F                        u2861 007A                        u4621 05A5  
                      u4550 0441                        u4382 0317                        u3750 0D71  
                      u3910 099D                        u3830 0946                        u2790 158E  
                      u2870 00AC                        u4630 0652                        u4551 0440  
                      u4455 03BE                        u4391 033B                        u4383 031E  
                      u3751 0D70                        u3655 0CEE                        u3911 099C  
                      u3831 0945                        u2791 158D                        u2871 00AB  
                      u4631 0651                        u4560 045B                        u4480 03DD  
                      u4392 0342                        u3760 0D8E                        u3680 0D0D  
                      u3920 09B2                        u2880 00BF                        u4640 0720  
                      u4561 045A                        u4545 041F                        u4481 03DC  
                      u4393 0349                        u3761 0D8D                        u3745 0D4F  
                      u3681 0D0C                        u3585 0C9B                        u2881 00BE  
                      u4641 071F                        u4570 0477                        u4490 03E2  
                      u3770 0DA3                        u3690 0D12                        u3930 09C2  
                      u3850 0963                        u2970 1348                        u2890 00D8  
                      u2955 1453                        u4571 0476                        u4555 043D  
                      u4491 03E1                        u4475 03CC                        u3771 0DA2  
                      u3755 0D6D                        u3691 0D11                        u3675 0CFC  
                      u3595 0CA4                        u3931 09C1                        u3851 0962  
                      u2971 1347                        u2891 00D7                        u4707 04C1  
                      u3780 1324                        u3940 09C6                        u2980 134D  
                      u4580 0570                        u2965 149C                        u3781 1323  
                      u4565 0457                        u3765 0D8A                        u3941 09C5  
                      u3925 09AD                        u3845 0955                        u2981 134C  
                      u4581 056F                        u4717 04E9                        u3870 0983  
                      u2990 1359                        u3950 12A7                        u4590 0587  
                      u3871 0982                        u2991 1358                        u4807 16AE  
                      u3951 12A6                        u4591 0586                        u4727 04FC  
                      u3960 127C                        u3961 127B                        u3865 0975  
                      u4817 16D4                        u4737 050F                        u3970 1284  
                      u3890 0993                        u3971 1283                        u3795 132B  
                      u3891 0992                        u4827 16F8                        u4747 0534  
                      u3980 13B3                        u3981 13B2                        u3885 0988  
                      u4837 178B                        u4757 059B                        u3990 153E  
                      u4847 0AA9                        u3991 153D                        u4767 07DF  
                      u4687 0499                        u4857 0AB4                        u4777 1578  
                      u4697 04AE                        u4867 1416                        u4787 1526  
                      u4877 1444                        u4797 1686                        u4887 1217  
                      _TMR0 0001         ds1307_set_date@year 0022                 main@hum_dec 00C3  
               main@hum_ent 00C9         Lcd_Write_String@str 0025                        abs@a 0076  
         ?_Lcd_Write_String 0025                        _dbuf 0190                        _main 0488  
                      _dtoa 09D0            __end_of_I2C_Nack 120B                        _prec 00E2  
          __end_of_I2C_Read 080C                        pad@i 002D                        pad@p 002B  
                      btemp 007E            __end_of_I2C_Stop 11EB                        start 0000  
        ??_Lcd_Write_String 007E            ?_I2C_Init_Master 0070           ??_ds1307_set_date 0023  
           ___fldiv@new_exp 0032           ??_ds1307_set_time 0023             __end_of_Lcd_Cmd 1492  
         ___bmul@multiplier 0072                       ??_abs 0078                       ??_pad 007D  
              _dht11_config 11EB       main@contador_segundos 00C5               ___fltol@sign1 00A8  
           __end_of___fladd 1000                       ?_main 0070                       ?_dtoa 002F  
           __end_of___fldiv 0DB0             __end_of___awdiv 006A             __end_of___awmod 1627  
           __end_of___flmul 0488             __end_of___flsub 12F1             __end_of___fltol 0882  
                     _ANSEL 0188             ___awdiv@divisor 0070             ___awdiv@counter 0074  
              vfpfcnvrt@fmt 003D        ds1307_set_date@month 0021                       _flags 00E4  
       read_prec_or_width@c 0078         read_prec_or_width@n 0079                       _fputc 0882  
                     _fputs 13B4                main@temp_dec 00C1                       btemp0 007E  
                     pad@fp 0028                       btemp1 007F                       _width 00E0  
              main@temp_ent 00C7                       _putch 0006                       dtoa@d 0031  
                     dtoa@i 0039                       dtoa@p 0035                       dtoa@s 0038  
                     dtoa@w 0036           __end_of_I2C_Start 11E1           __end_of_I2C_Write 123F  
                     pclath 000A          ds1307_get_date@day 0021                       status 0003  
                     wtemp0 007E             __end_of_sprintf 12CD         ds1307_set_time@hour 0025  
             ??_ds1307_init 0021            __end_of_Lcd_Init 1449             __initialization 07EA  
              __end_of_main 07EA                __end_of_dtoa 0A9D                   ??_I2C_Ack 0070  
                    ??_main 00AA                      ??_dtoa 007E          ds1307_get_time@min 0022  
        ds1307_get_time@sec 0023           dec_to_bcd@decenas 007A  __end_of_read_prec_or_width 15D0  
                    ?_fputc 0070                      ?_fputs 0020            ___awdiv@dividend 0072  
                    ?_putch 0070                      _ANSELH 0189                   ??_Lcd_Cmd 0021  
             vfpfcnvrt@done 0045                      _SSPADD 0093                      _SSPCON 0014  
                    _SSPBUF 0013            __end_of___xxtofl 09D0               dec_to_bcd@val 007C  
              vfprintf@cfmt 004B                      ___bmul 123F                   ??___fladd 0042  
                    ___wmul 12F1                   ??___fldiv 0028                   ??___awdiv 0074  
                 ??___awmod 0074                   ??___flmul 005E                   ??___flsub 007E  
                 ??___fltol 00A4              dht11_read@phum 004E         __end_of_ds1307_init 16D9  
      read_prec_or_width@ap 0077            ___awdiv@quotient 0076             ___awmod@divisor 0070  
           ___awmod@counter 0074                      pad@buf 002A                      dtoa@fp 002F  
                    fputc@c 0070                      fputs@c 0025                      fputs@i 0026  
                 ?_I2C_Nack 0070                      fputs@s 0020                   ?_I2C_Read 0070  
                    ltemp0a 0080                   ?_I2C_Stop 0070         ds1307_get_date@temp 0025  
       ds1307_get_date@year 0023                      putch@c 0070                      ttemp0a 007F  
          __end_of_vfprintf 12AA                   ??_sprintf 0054                      wtemp0a 007F  
              ___xxtofl@arg 007A                ___xxtofl@exp 0079                ___xxtofl@val 0070  
   __end_of__initialization 07FC           __end_of_Lcd_Clear 121C                  ___fltol@f1 00A0  
       ___bmul@multiplicand 0070              __pcstackCOMMON 0070                  _dht11_byte 00DB  
                _dht11_read 0A9D               __end_of_fputc 091C               __end_of_fputs 13DF  
             __end_of_putch 0007             _ds1307_get_date 176C             _ds1307_get_time 16D9  
                _bcd_to_dec 1252              _Lcd_Set_Cursor 1364                  ??_I2C_Nack 0070  
            _OPTION_REGbits 0081                  ??_I2C_Read 0070                  ??_I2C_Stop 0070  
                 ?_Lcd_Init 0070             _ds1307_set_date 14DB                     ??_fputc 0074  
                   ??_fputs 0023             _ds1307_set_time 152B                  _dec_to_bcd 13DF  
                   ??_putch 0070         ds1307_get_time@hour 0021                  __pbssBANK1 00DB  
                __pbssBANK3 0190         ds1307_get_time@temp 0025           __end_of__Umul8_16 133D  
               _ds1307_init 167E                  __pmaintext 0488                     ?___bmul 0070  
                   ?___wmul 0070                     _I2C_Ack 11F5      __end_of_Lcd_Set_Cursor 138C  
        dht11_read@checksum 0058                   ?___xxtofl 0070          dec_to_bcd@unidades 007B  
                ??_Lcd_Init 0025                     _SSPCON2 0091                     _SSPSTAT 0094  
          main@contador_dht 00C6                  __stringtab 1000              _Lcd_Write_Char 1492  
                   _Lcd_Cmd 1449                   _I2C_Start 11D7                   _I2C_Write 122D  
   __end_of_ds1307_get_date 1800     __end_of_ds1307_get_time 176C               Lcd_Cmd@data_l 0024  
             Lcd_Cmd@data_u 0023                 ?_dht11_read 004E                     ___fladd 0DB0  
                   ___fldiv 0BE6                     ___awdiv 0007                     ___awmod 15D0  
                   ___flmul 0146                     ___flsub 12CD                     ___fltol 080C  
                 ?_vfprintf 0047             ?_Lcd_Set_Cursor 0025                 ?_bcd_to_dec 0070  
                   __ptext1 12AA                     __ptext2 1287                     __ptext3 006A  
                   __ptext4 157D                     __ptext5 12F1                     __ptext6 09D0  
                   __ptext7 1627                     __ptext8 13B4                     __ptext9 0882  
   __end_of_ds1307_set_date 152B     __end_of_ds1307_set_time 157D             dht11_read@ptemp 004F  
     read_prec_or_width@fmt 0076                  ??___xxtofl 0074            ___awmod@dividend 0072  
         ??_dht11_read_byte 0070                     main@dia 00D0                     main@ano 00D2  
                   _sprintf 12AA                     main@mes 00D1                     main@min 00CE  
                   main@seg 00CF                     clrloop0 11D0                 ?_dec_to_bcd 0070  
    __end_of_Lcd_Write_Char 14DB        end_of_initialization 07FC                     fputc@fp 0072  
                   fputs@fp 0021          _read_prec_or_width 157D                  ?_I2C_Start 0070  
                ?_I2C_Write 0070           __end_of_vfpfcnvrt 0146        ds1307_get_date@month 0022  
       ?_read_prec_or_width 0076            vfpfcnvrt@convarg 0041                  ??_vfprintf 007E  
                 _PORTAbits 0005                 ___fladd@grs 004D               ___xxtofl@sign 0078  
                 _TRISAbits 0085                   _TRISCbits 0087        ??_read_prec_or_width 0078  
               ___fldiv@grs 0034                 ___fldiv@rem 002D             ?_Lcd_Write_Char 0070  
               ___flmul@grs 0064                  main@dht_ok 00CC                  main@buffer 00B0  
        ds1307_set_date@day 0025                  main@temp_f 00D3            ?_ds1307_get_date 0021  
          ?_ds1307_get_time 0021                   _Lcd_Clear 120B              __end_of___bmul 1252  
               vfpfcnvrt@ap 003E                 vfpfcnvrt@cp 0046                 vfpfcnvrt@fp 003B  
            __end_of___wmul 1316            _Lcd_Write_String 138C            ?_ds1307_set_date 0021  
     Lcd_Set_Cursor@address 0027            ?_ds1307_set_time 0021          ds1307_set_time@min 0021  
        ds1307_set_time@sec 0022         start_initialization 07EA           ??_I2C_Init_Master 0070  
               __end_of_abs 122D                 __end_of_pad 167E       I2C_Init_Master@sp_i2c 0070  
               ??_I2C_Start 0070                 ??_I2C_Write 007D                ?_ds1307_init 0070  
               vfprintf@fmt 0049                  ?_Lcd_Clear 0070                    ??___bmul 0071  
                  ??___wmul 0074                   __Umul8_16 1316                    ?_I2C_Ack 0070  
             ?_dht11_config 0070             Lcd_Write_Char@c 0022                   ___fladd@a 003E  
                 ___fladd@b 003A                   ___fldiv@a 0020                   ___fldiv@b 0024  
                 ___flmul@a 005A                   ___flmul@b 0056        Lcd_Write_Char@data_l 0024  
      Lcd_Write_Char@data_u 0023                   ___flsub@a 004E                   ___flsub@b 0052  
                 ___latbits 0002               __pcstackBANK0 0020               __pcstackBANK1 00A0  
                 _dht11_aux 00E5                    ?_Lcd_Cmd 0070                 dht11_read@i 0059  
  dht11_read_byte@timer_val 0070         main@pantalla_actual 00CB            ??_Lcd_Set_Cursor 007E  
              ??_dht11_read 0050                    ?___fladd 003A                    ?___fldiv 0020  
                  ?___awdiv 0070                    ?___awmod 0070                    ?___flmul 0056  
                  ?___flsub 004E                    ?___fltol 00A0                  ?__Umul8_16 0070  
            ??_dht11_config 0070             _dht11_read_byte 133D                ??_bcd_to_dec 0073  
                 __pstrings 1000                    _I2C_Nack 1200                    _I2C_Read 0801  
                  _I2C_Stop 11E1                ??_dec_to_bcd 0078                    ?_sprintf 004C  
        __end_of_dht11_read 0BE6              ___wmul@product 0074                   clear_ram0 11CF  
        __end_of_bcd_to_dec 1268                    _PIR1bits 000C                 ??_Lcd_Clear 0025  
                 _vfpfcnvrt 006A          __end_of_dec_to_bcd 1410                 __stringbase 100F  
         ___wmul@multiplier 0070            ??_Lcd_Write_Char 0021                   main@hum_f 00D7  
                  _Lcd_Init 1410    __end_of_Lcd_Write_String 13B4     __end_of_dht11_read_byte 1364  
                vfprintf@ap 004A                  vfprintf@fp 0047             _I2C_Init_Master 1268  
             I2C_Write@data 0020                 ??__Umul8_16 0072                  ?_vfpfcnvrt 003B  
        __end_of__stringtab 1010                  sprintf@fmt 004D                    ___xxtofl 091C  
             bcd_to_dec@val 0075                    _dtoa$933 0033                    __ptext10 0006  
                  __ptext11 121C                    __ptext20 1252                    __ptext12 152B  
                  __ptext21 123F                    __ptext13 14DB                    __ptext30 080C  
                  __ptext22 0801                    __ptext14 13DF                    __ptext31 12CD  
                  __ptext23 1200                    __ptext15 15D0                    __ptext40 1449  
                  __ptext32 0DB0                    __ptext24 11F5                    __ptext16 0007  
                  __ptext41 122D                    __ptext33 0146                    __ptext25 0A9D  
                  __ptext17 167E                    __ptext42 11E1                    __ptext34 1316  
                  __ptext26 133D                    __ptext18 16D9                    __ptext43 11D7  
                  __ptext35 138C                    __ptext27 091C                    __ptext19 176C  
                  __ptext44 1268                    __ptext36 1492                    __ptext28 0BE6  
                  __ptext37 1364                    __ptext29 11EB                    __ptext38 1410  
                  __ptext39 120B        __end_of_dht11_config 11F5            dht11_read_byte@i 0071  
                  _vfprintf 1287                    main@hora 00CD                   sprintf@ap 0055  
   __end_of_I2C_Init_Master 1287                  Lcd_Cmd@cmd 0022                   stringcode 100A  
          ?_dht11_read_byte 0070                 ??_vfpfcnvrt 003F      __Umul8_16@multiplicand 0070  
                  sprintf@f 0056                    sprintf@s 004C                    stringdir 100A  
                  stringtab 1000                 _SSPCON2bits 0091           Lcd_Set_Cursor@col 0026  
         Lcd_Set_Cursor@row 0025               ___fladd@signs 004A                ___fladd@aexp 004B  
              ___fladd@bexp 004C        __Umul8_16@multiplier 0078           __Umul8_16@product 0074  
